arm-none-eabi-objdump -d embedded.elf

embedded.elf:     file format elf32-littlearm


Disassembly of section .text:

00000000 <__Vectors>:
       0:	00 00 02 20 b5 05 00 00 53 06 00 00 4d 06 00 00     ... ....S...M...
      10:	53 06 00 00 53 06 00 00 53 06 00 00 00 00 00 00     S...S...S.......
	...
      2c:	53 06 00 00 53 06 00 00 00 00 00 00 53 06 00 00     S...S.......S...
      3c:	53 06 00 00 53 06 00 00 53 06 00 00 53 06 00 00     S...S...S...S...
      4c:	53 06 00 00 53 06 00 00 53 06 00 00 53 06 00 00     S...S...S...S...
      5c:	53 06 00 00 53 06 00 00 53 06 00 00 00 00 00 00     S...S...S.......
	...

000003c0 <normalize>:
     3c0:	b580      	push	{r7, lr}
     3c2:	b086      	sub	sp, #24
     3c4:	af00      	add	r7, sp, #0
     3c6:	6078      	str	r0, [r7, #4]
     3c8:	6039      	str	r1, [r7, #0]
     3ca:	f04f 0300 	mov.w	r3, #0
     3ce:	60fb      	str	r3, [r7, #12]
     3d0:	2300      	movs	r3, #0
     3d2:	617b      	str	r3, [r7, #20]
     3d4:	e009      	b.n	3ea <normalize+0x2a>
     3d6:	f107 030c 	add.w	r3, r7, #12
     3da:	683a      	ldr	r2, [r7, #0]
     3dc:	6879      	ldr	r1, [r7, #4]
     3de:	6878      	ldr	r0, [r7, #4]
     3e0:	f001 fd18 	bl	1e14 <arm_dot_prod_f32>
     3e4:	697b      	ldr	r3, [r7, #20]
     3e6:	3301      	adds	r3, #1
     3e8:	617b      	str	r3, [r7, #20]
     3ea:	697b      	ldr	r3, [r7, #20]
     3ec:	683a      	ldr	r2, [r7, #0]
     3ee:	429a      	cmp	r2, r3
     3f0:	d8f1      	bhi.n	3d6 <normalize+0x16>
     3f2:	68fb      	ldr	r3, [r7, #12]
     3f4:	4618      	mov	r0, r3
     3f6:	f002 f80b 	bl	2410 <__aeabi_f2d>
     3fa:	4602      	mov	r2, r0
     3fc:	460b      	mov	r3, r1
     3fe:	ec43 2b10 	vmov	d0, r2, r3
     402:	f001 fd9b 	bl	1f3c <sqrt>
     406:	ec53 2b10 	vmov	r2, r3, d0
     40a:	4610      	mov	r0, r2
     40c:	4619      	mov	r1, r3
     40e:	f002 fb07 	bl	2a20 <__aeabi_d2f>
     412:	4603      	mov	r3, r0
     414:	60fb      	str	r3, [r7, #12]
     416:	2300      	movs	r3, #0
     418:	613b      	str	r3, [r7, #16]
     41a:	e00f      	b.n	43c <__STACK_SIZE+0x3c>
     41c:	edd7 7a03 	vldr	s15, [r7, #12]
     420:	eef7 6a00 	vmov.f32	s13, #112	; 0x3f800000  1.0
     424:	ee86 7aa7 	vdiv.f32	s14, s13, s15
     428:	683a      	ldr	r2, [r7, #0]
     42a:	6879      	ldr	r1, [r7, #4]
     42c:	eeb0 0a47 	vmov.f32	s0, s14
     430:	6878      	ldr	r0, [r7, #4]
     432:	f001 fd3d 	bl	1eb0 <arm_scale_f32>
     436:	693b      	ldr	r3, [r7, #16]
     438:	3301      	adds	r3, #1
     43a:	613b      	str	r3, [r7, #16]
     43c:	693b      	ldr	r3, [r7, #16]
     43e:	683a      	ldr	r2, [r7, #0]
     440:	429a      	cmp	r2, r3
     442:	d8eb      	bhi.n	41c <__STACK_SIZE+0x1c>
     444:	bf00      	nop
     446:	bf00      	nop
     448:	3718      	adds	r7, #24
     44a:	46bd      	mov	sp, r7
     44c:	bd80      	pop	{r7, pc}

0000044e <l1_error>:
     44e:	b480      	push	{r7}
     450:	b089      	sub	sp, #36	; 0x24
     452:	af00      	add	r7, sp, #0
     454:	60f8      	str	r0, [r7, #12]
     456:	60b9      	str	r1, [r7, #8]
     458:	607a      	str	r2, [r7, #4]
     45a:	f04f 0300 	mov.w	r3, #0
     45e:	61fb      	str	r3, [r7, #28]
     460:	2300      	movs	r3, #0
     462:	61bb      	str	r3, [r7, #24]
     464:	e026      	b.n	4b4 <l1_error+0x66>
     466:	69bb      	ldr	r3, [r7, #24]
     468:	009b      	lsls	r3, r3, #2
     46a:	68fa      	ldr	r2, [r7, #12]
     46c:	4413      	add	r3, r2
     46e:	ed93 7a00 	vldr	s14, [r3]
     472:	69bb      	ldr	r3, [r7, #24]
     474:	009b      	lsls	r3, r3, #2
     476:	68ba      	ldr	r2, [r7, #8]
     478:	4413      	add	r3, r2
     47a:	edd3 7a00 	vldr	s15, [r3]
     47e:	ee77 7a67 	vsub.f32	s15, s14, s15
     482:	edc7 7a05 	vstr	s15, [r7, #20]
     486:	edd7 7a05 	vldr	s15, [r7, #20]
     48a:	eef5 7ac0 	vcmpe.f32	s15, #0.0
     48e:	eef1 fa10 	vmrs	APSR_nzcv, fpscr
     492:	d504      	bpl.n	49e <l1_error+0x50>
     494:	edd7 7a05 	vldr	s15, [r7, #20]
     498:	eef1 7a67 	vneg.f32	s15, s15
     49c:	e001      	b.n	4a2 <l1_error+0x54>
     49e:	edd7 7a05 	vldr	s15, [r7, #20]
     4a2:	ed97 7a07 	vldr	s14, [r7, #28]
     4a6:	ee77 7a27 	vadd.f32	s15, s14, s15
     4aa:	edc7 7a07 	vstr	s15, [r7, #28]
     4ae:	69bb      	ldr	r3, [r7, #24]
     4b0:	3301      	adds	r3, #1
     4b2:	61bb      	str	r3, [r7, #24]
     4b4:	69bb      	ldr	r3, [r7, #24]
     4b6:	687a      	ldr	r2, [r7, #4]
     4b8:	429a      	cmp	r2, r3
     4ba:	d8d4      	bhi.n	466 <l1_error+0x18>
     4bc:	69fb      	ldr	r3, [r7, #28]
     4be:	ee07 3a90 	vmov	s15, r3
     4c2:	eeb0 0a67 	vmov.f32	s0, s15
     4c6:	3724      	adds	r7, #36	; 0x24
     4c8:	46bd      	mov	sp, r7
     4ca:	f85d 7b04 	ldr.w	r7, [sp], #4
     4ce:	4770      	bx	lr

000004d0 <eig_decomp>:
     4d0:	b5b0      	push	{r4, r5, r7, lr}
     4d2:	b08c      	sub	sp, #48	; 0x30
     4d4:	af00      	add	r7, sp, #0
     4d6:	6078      	str	r0, [r7, #4]
     4d8:	6039      	str	r1, [r7, #0]
     4da:	683b      	ldr	r3, [r7, #0]
     4dc:	687a      	ldr	r2, [r7, #4]
     4de:	605a      	str	r2, [r3, #4]
     4e0:	683b      	ldr	r3, [r7, #0]
     4e2:	68db      	ldr	r3, [r3, #12]
     4e4:	62fb      	str	r3, [r7, #44]	; 0x2c
     4e6:	683b      	ldr	r3, [r7, #0]
     4e8:	681b      	ldr	r3, [r3, #0]
     4ea:	62bb      	str	r3, [r7, #40]	; 0x28
     4ec:	683b      	ldr	r3, [r7, #0]
     4ee:	689b      	ldr	r3, [r3, #8]
     4f0:	61bb      	str	r3, [r7, #24]
     4f2:	683b      	ldr	r3, [r7, #0]
     4f4:	691b      	ldr	r3, [r3, #16]
     4f6:	617b      	str	r3, [r7, #20]
     4f8:	683b      	ldr	r3, [r7, #0]
     4fa:	695b      	ldr	r3, [r3, #20]
     4fc:	613b      	str	r3, [r7, #16]
     4fe:	2300      	movs	r3, #0
     500:	83fb      	strh	r3, [r7, #30]
     502:	e00d      	b.n	520 <eig_decomp+0x50>
     504:	f9b7 301e 	ldrsh.w	r3, [r7, #30]
     508:	009b      	lsls	r3, r3, #2
     50a:	6afa      	ldr	r2, [r7, #44]	; 0x2c
     50c:	4413      	add	r3, r2
     50e:	f04f 527e 	mov.w	r2, #1065353216	; 0x3f800000
     512:	601a      	str	r2, [r3, #0]
     514:	f9b7 301e 	ldrsh.w	r3, [r7, #30]
     518:	b29b      	uxth	r3, r3
     51a:	3301      	adds	r3, #1
     51c:	b29b      	uxth	r3, r3
     51e:	83fb      	strh	r3, [r7, #30]
     520:	f9b7 301e 	ldrsh.w	r3, [r7, #30]
     524:	69ba      	ldr	r2, [r7, #24]
     526:	429a      	cmp	r2, r3
     528:	d8ec      	bhi.n	504 <eig_decomp+0x34>
     52a:	f04f 0200 	mov.w	r2, #0
     52e:	f04f 0300 	mov.w	r3, #0
     532:	e9c7 2308 	strd	r2, r3, [r7, #32]
     536:	e025      	b.n	584 <eig_decomp+0xb4>
     538:	6aba      	ldr	r2, [r7, #40]	; 0x28
     53a:	6af9      	ldr	r1, [r7, #44]	; 0x2c
     53c:	6878      	ldr	r0, [r7, #4]
     53e:	f001 fb35 	bl	1bac <arm_mat_vec_mult_f32>
     542:	69b9      	ldr	r1, [r7, #24]
     544:	6ab8      	ldr	r0, [r7, #40]	; 0x28
     546:	f7ff ff3b 	bl	3c0 <normalize>
     54a:	69ba      	ldr	r2, [r7, #24]
     54c:	6af9      	ldr	r1, [r7, #44]	; 0x2c
     54e:	6ab8      	ldr	r0, [r7, #40]	; 0x28
     550:	f7ff ff7d 	bl	44e <l1_error>
     554:	ed87 0a03 	vstr	s0, [r7, #12]
     558:	6afb      	ldr	r3, [r7, #44]	; 0x2c
     55a:	60bb      	str	r3, [r7, #8]
     55c:	6abb      	ldr	r3, [r7, #40]	; 0x28
     55e:	62fb      	str	r3, [r7, #44]	; 0x2c
     560:	68bb      	ldr	r3, [r7, #8]
     562:	62bb      	str	r3, [r7, #40]	; 0x28
     564:	ed97 7a03 	vldr	s14, [r7, #12]
     568:	edd7 7a04 	vldr	s15, [r7, #16]
     56c:	eeb4 7ae7 	vcmpe.f32	s14, s15
     570:	eef1 fa10 	vmrs	APSR_nzcv, fpscr
     574:	d411      	bmi.n	59a <eig_decomp+0xca>
     576:	e9d7 2308 	ldrd	r2, r3, [r7, #32]
     57a:	1c54      	adds	r4, r2, #1
     57c:	f143 0500 	adc.w	r5, r3, #0
     580:	e9c7 4508 	strd	r4, r5, [r7, #32]
     584:	697b      	ldr	r3, [r7, #20]
     586:	461a      	mov	r2, r3
     588:	f04f 0300 	mov.w	r3, #0
     58c:	e9d7 0108 	ldrd	r0, r1, [r7, #32]
     590:	4299      	cmp	r1, r3
     592:	bf08      	it	eq
     594:	4290      	cmpeq	r0, r2
     596:	d3cf      	bcc.n	538 <eig_decomp+0x68>
     598:	e000      	b.n	59c <eig_decomp+0xcc>
     59a:	bf00      	nop
     59c:	683b      	ldr	r3, [r7, #0]
     59e:	6afa      	ldr	r2, [r7, #44]	; 0x2c
     5a0:	60da      	str	r2, [r3, #12]
     5a2:	683b      	ldr	r3, [r7, #0]
     5a4:	6aba      	ldr	r2, [r7, #40]	; 0x28
     5a6:	601a      	str	r2, [r3, #0]
     5a8:	bf00      	nop
     5aa:	3730      	adds	r7, #48	; 0x30
     5ac:	46bd      	mov	sp, r7
     5ae:	bdb0      	pop	{r4, r5, r7, pc}

000005b0 <_start>:
     5b0:	f000 fa2c 	bl	a0c <main>

000005b4 <Reset_Handler>:
     5b4:	b580      	push	{r7, lr}
     5b6:	b084      	sub	sp, #16
     5b8:	af00      	add	r7, sp, #0
     5ba:	f000 f84d 	bl	658 <SystemInit>
     5be:	4b1f      	ldr	r3, [pc, #124]	; (63c <Reset_Handler+0x88>)
     5c0:	60fb      	str	r3, [r7, #12]
     5c2:	e019      	b.n	5f8 <Reset_Handler+0x44>
     5c4:	2300      	movs	r3, #0
     5c6:	60bb      	str	r3, [r7, #8]
     5c8:	e00e      	b.n	5e8 <Reset_Handler+0x34>
     5ca:	68fb      	ldr	r3, [r7, #12]
     5cc:	681a      	ldr	r2, [r3, #0]
     5ce:	68bb      	ldr	r3, [r7, #8]
     5d0:	009b      	lsls	r3, r3, #2
     5d2:	441a      	add	r2, r3
     5d4:	68fb      	ldr	r3, [r7, #12]
     5d6:	6859      	ldr	r1, [r3, #4]
     5d8:	68bb      	ldr	r3, [r7, #8]
     5da:	009b      	lsls	r3, r3, #2
     5dc:	440b      	add	r3, r1
     5de:	6812      	ldr	r2, [r2, #0]
     5e0:	601a      	str	r2, [r3, #0]
     5e2:	68bb      	ldr	r3, [r7, #8]
     5e4:	3301      	adds	r3, #1
     5e6:	60bb      	str	r3, [r7, #8]
     5e8:	68fb      	ldr	r3, [r7, #12]
     5ea:	689b      	ldr	r3, [r3, #8]
     5ec:	68ba      	ldr	r2, [r7, #8]
     5ee:	429a      	cmp	r2, r3
     5f0:	d3eb      	bcc.n	5ca <Reset_Handler+0x16>
     5f2:	68fb      	ldr	r3, [r7, #12]
     5f4:	330c      	adds	r3, #12
     5f6:	60fb      	str	r3, [r7, #12]
     5f8:	68fb      	ldr	r3, [r7, #12]
     5fa:	4a11      	ldr	r2, [pc, #68]	; (640 <Reset_Handler+0x8c>)
     5fc:	4293      	cmp	r3, r2
     5fe:	d3e1      	bcc.n	5c4 <Reset_Handler+0x10>
     600:	4b10      	ldr	r3, [pc, #64]	; (644 <Reset_Handler+0x90>)
     602:	607b      	str	r3, [r7, #4]
     604:	e014      	b.n	630 <Reset_Handler+0x7c>
     606:	2300      	movs	r3, #0
     608:	603b      	str	r3, [r7, #0]
     60a:	e009      	b.n	620 <Reset_Handler+0x6c>
     60c:	687b      	ldr	r3, [r7, #4]
     60e:	681a      	ldr	r2, [r3, #0]
     610:	683b      	ldr	r3, [r7, #0]
     612:	009b      	lsls	r3, r3, #2
     614:	4413      	add	r3, r2
     616:	2200      	movs	r2, #0
     618:	601a      	str	r2, [r3, #0]
     61a:	683b      	ldr	r3, [r7, #0]
     61c:	3301      	adds	r3, #1
     61e:	603b      	str	r3, [r7, #0]
     620:	687b      	ldr	r3, [r7, #4]
     622:	685b      	ldr	r3, [r3, #4]
     624:	683a      	ldr	r2, [r7, #0]
     626:	429a      	cmp	r2, r3
     628:	d3f0      	bcc.n	60c <Reset_Handler+0x58>
     62a:	687b      	ldr	r3, [r7, #4]
     62c:	3308      	adds	r3, #8
     62e:	607b      	str	r3, [r7, #4]
     630:	687b      	ldr	r3, [r7, #4]
     632:	4a05      	ldr	r2, [pc, #20]	; (648 <Reset_Handler+0x94>)
     634:	4293      	cmp	r3, r2
     636:	d3e6      	bcc.n	606 <Reset_Handler+0x52>
     638:	f7ff ffba 	bl	5b0 <_start>
     63c:	0001ff34 	.word	0x0001ff34
     640:	0001ff40 	.word	0x0001ff40
     644:	0001ff40 	.word	0x0001ff40
     648:	0001ff40 	.word	0x0001ff40

0000064c <HardFault_Handler>:
     64c:	b480      	push	{r7}
     64e:	af00      	add	r7, sp, #0
     650:	e7fe      	b.n	650 <HardFault_Handler+0x4>

00000652 <Default_Handler>:
     652:	b480      	push	{r7}
     654:	af00      	add	r7, sp, #0
     656:	e7fe      	b.n	656 <Default_Handler+0x4>

00000658 <SystemInit>:
     658:	b480      	push	{r7}
     65a:	af00      	add	r7, sp, #0
     65c:	4b09      	ldr	r3, [pc, #36]	; (684 <SystemInit+0x2c>)
     65e:	4a0a      	ldr	r2, [pc, #40]	; (688 <SystemInit+0x30>)
     660:	609a      	str	r2, [r3, #8]
     662:	4b08      	ldr	r3, [pc, #32]	; (684 <SystemInit+0x2c>)
     664:	f8d3 3088 	ldr.w	r3, [r3, #136]	; 0x88
     668:	4a06      	ldr	r2, [pc, #24]	; (684 <SystemInit+0x2c>)
     66a:	f443 0370 	orr.w	r3, r3, #15728640	; 0xf00000
     66e:	f8c2 3088 	str.w	r3, [r2, #136]	; 0x88
     672:	4b06      	ldr	r3, [pc, #24]	; (68c <SystemInit+0x34>)
     674:	4a06      	ldr	r2, [pc, #24]	; (690 <SystemInit+0x38>)
     676:	601a      	str	r2, [r3, #0]
     678:	bf00      	nop
     67a:	46bd      	mov	sp, r7
     67c:	f85d 7b04 	ldr.w	r7, [sp], #4
     680:	4770      	bx	lr
     682:	bf00      	nop
     684:	e000ed00 	.word	0xe000ed00
     688:	00000000 	.word	0x00000000
     68c:	20000000 	.word	0x20000000
     690:	017d7840 	.word	0x017d7840

00000694 <initialize>:
     694:	b480      	push	{r7}
     696:	b085      	sub	sp, #20
     698:	af00      	add	r7, sp, #0
     69a:	60f8      	str	r0, [r7, #12]
     69c:	60b9      	str	r1, [r7, #8]
     69e:	607a      	str	r2, [r7, #4]
     6a0:	603b      	str	r3, [r7, #0]
     6a2:	687b      	ldr	r3, [r7, #4]
     6a4:	69ba      	ldr	r2, [r7, #24]
     6a6:	625a      	str	r2, [r3, #36]	; 0x24
     6a8:	687b      	ldr	r3, [r7, #4]
     6aa:	6bba      	ldr	r2, [r7, #56]	; 0x38
     6ac:	605a      	str	r2, [r3, #4]
     6ae:	687b      	ldr	r3, [r7, #4]
     6b0:	6b3a      	ldr	r2, [r7, #48]	; 0x30
     6b2:	609a      	str	r2, [r3, #8]
     6b4:	687b      	ldr	r3, [r7, #4]
     6b6:	6b7a      	ldr	r2, [r7, #52]	; 0x34
     6b8:	60da      	str	r2, [r3, #12]
     6ba:	687b      	ldr	r3, [r7, #4]
     6bc:	6bfa      	ldr	r2, [r7, #60]	; 0x3c
     6be:	635a      	str	r2, [r3, #52]	; 0x34
     6c0:	687b      	ldr	r3, [r7, #4]
     6c2:	6c3a      	ldr	r2, [r7, #64]	; 0x40
     6c4:	62da      	str	r2, [r3, #44]	; 0x2c
     6c6:	687b      	ldr	r3, [r7, #4]
     6c8:	683a      	ldr	r2, [r7, #0]
     6ca:	619a      	str	r2, [r3, #24]
     6cc:	687b      	ldr	r3, [r7, #4]
     6ce:	69fa      	ldr	r2, [r7, #28]
     6d0:	61da      	str	r2, [r3, #28]
     6d2:	687b      	ldr	r3, [r7, #4]
     6d4:	6a3a      	ldr	r2, [r7, #32]
     6d6:	621a      	str	r2, [r3, #32]
     6d8:	687b      	ldr	r3, [r7, #4]
     6da:	68fa      	ldr	r2, [r7, #12]
     6dc:	615a      	str	r2, [r3, #20]
     6de:	687b      	ldr	r3, [r7, #4]
     6e0:	6a7a      	ldr	r2, [r7, #36]	; 0x24
     6e2:	629a      	str	r2, [r3, #40]	; 0x28
     6e4:	687b      	ldr	r3, [r7, #4]
     6e6:	6aba      	ldr	r2, [r7, #40]	; 0x28
     6e8:	631a      	str	r2, [r3, #48]	; 0x30
     6ea:	687b      	ldr	r3, [r7, #4]
     6ec:	f897 202c 	ldrb.w	r2, [r7, #44]	; 0x2c
     6f0:	f883 2038 	strb.w	r2, [r3, #56]	; 0x38
     6f4:	68bb      	ldr	r3, [r7, #8]
     6f6:	6bba      	ldr	r2, [r7, #56]	; 0x38
     6f8:	60da      	str	r2, [r3, #12]
     6fa:	bf00      	nop
     6fc:	3714      	adds	r7, #20
     6fe:	46bd      	mov	sp, r7
     700:	f85d 7b04 	ldr.w	r7, [sp], #4
     704:	4770      	bx	lr
	...

00000708 <fft_obs_matrix>:
     708:	b580      	push	{r7, lr}
     70a:	b084      	sub	sp, #16
     70c:	af00      	add	r7, sp, #0
     70e:	6078      	str	r0, [r7, #4]
     710:	6039      	str	r1, [r7, #0]
     712:	2300      	movs	r3, #0
     714:	60fb      	str	r3, [r7, #12]
     716:	e01d      	b.n	754 <fft_obs_matrix+0x4c>
     718:	68fb      	ldr	r3, [r7, #12]
     71a:	687a      	ldr	r2, [r7, #4]
     71c:	fb02 f303 	mul.w	r3, r2, r3
     720:	009b      	lsls	r3, r3, #2
     722:	4a11      	ldr	r2, [pc, #68]	; (768 <fft_obs_matrix+0x60>)
     724:	1899      	adds	r1, r3, r2
     726:	4b11      	ldr	r3, [pc, #68]	; (76c <fft_obs_matrix+0x64>)
     728:	781b      	ldrb	r3, [r3, #0]
     72a:	4a11      	ldr	r2, [pc, #68]	; (770 <fft_obs_matrix+0x68>)
     72c:	4811      	ldr	r0, [pc, #68]	; (774 <fft_obs_matrix+0x6c>)
     72e:	f000 fa77 	bl	c20 <arm_rfft_fast_f32>
     732:	687b      	ldr	r3, [r7, #4]
     734:	085b      	lsrs	r3, r3, #1
     736:	3301      	adds	r3, #1
     738:	68fa      	ldr	r2, [r7, #12]
     73a:	fb02 f303 	mul.w	r3, r2, r3
     73e:	009b      	lsls	r3, r3, #2
     740:	4a09      	ldr	r2, [pc, #36]	; (768 <fft_obs_matrix+0x60>)
     742:	4413      	add	r3, r2
     744:	683a      	ldr	r2, [r7, #0]
     746:	4619      	mov	r1, r3
     748:	4809      	ldr	r0, [pc, #36]	; (770 <fft_obs_matrix+0x68>)
     74a:	f001 faf3 	bl	1d34 <arm_cmplx_mag_f32>
     74e:	68fb      	ldr	r3, [r7, #12]
     750:	3301      	adds	r3, #1
     752:	60fb      	str	r3, [r7, #12]
     754:	68fa      	ldr	r2, [r7, #12]
     756:	683b      	ldr	r3, [r7, #0]
     758:	429a      	cmp	r2, r3
     75a:	d3dd      	bcc.n	718 <fft_obs_matrix+0x10>
     75c:	bf00      	nop
     75e:	bf00      	nop
     760:	3710      	adds	r7, #16
     762:	46bd      	mov	sp, r7
     764:	bd80      	pop	{r7, pc}
     766:	bf00      	nop
     768:	20000450 	.word	0x20000450
     76c:	2000059c 	.word	0x2000059c
     770:	20000438 	.word	0x20000438
     774:	200004ec 	.word	0x200004ec

00000778 <mean>:
     778:	b480      	push	{r7}
     77a:	b087      	sub	sp, #28
     77c:	af00      	add	r7, sp, #0
     77e:	60f8      	str	r0, [r7, #12]
     780:	60b9      	str	r1, [r7, #8]
     782:	607a      	str	r2, [r7, #4]
     784:	f04f 0300 	mov.w	r3, #0
     788:	617b      	str	r3, [r7, #20]
     78a:	2300      	movs	r3, #0
     78c:	613b      	str	r3, [r7, #16]
     78e:	e011      	b.n	7b4 <mean+0x3c>
     790:	693b      	ldr	r3, [r7, #16]
     792:	68ba      	ldr	r2, [r7, #8]
     794:	fb02 f303 	mul.w	r3, r2, r3
     798:	009b      	lsls	r3, r3, #2
     79a:	68fa      	ldr	r2, [r7, #12]
     79c:	4413      	add	r3, r2
     79e:	edd3 7a00 	vldr	s15, [r3]
     7a2:	ed97 7a05 	vldr	s14, [r7, #20]
     7a6:	ee77 7a27 	vadd.f32	s15, s14, s15
     7aa:	edc7 7a05 	vstr	s15, [r7, #20]
     7ae:	693b      	ldr	r3, [r7, #16]
     7b0:	3301      	adds	r3, #1
     7b2:	613b      	str	r3, [r7, #16]
     7b4:	693a      	ldr	r2, [r7, #16]
     7b6:	687b      	ldr	r3, [r7, #4]
     7b8:	429a      	cmp	r2, r3
     7ba:	d3e9      	bcc.n	790 <mean+0x18>
     7bc:	687b      	ldr	r3, [r7, #4]
     7be:	ee07 3a90 	vmov	s15, r3
     7c2:	eef8 7a67 	vcvt.f32.u32	s15, s15
     7c6:	ed97 7a05 	vldr	s14, [r7, #20]
     7ca:	eec7 6a27 	vdiv.f32	s13, s14, s15
     7ce:	eef0 7a66 	vmov.f32	s15, s13
     7d2:	eeb0 0a67 	vmov.f32	s0, s15
     7d6:	371c      	adds	r7, #28
     7d8:	46bd      	mov	sp, r7
     7da:	f85d 7b04 	ldr.w	r7, [sp], #4
     7de:	4770      	bx	lr

000007e0 <calc_means>:
     7e0:	b590      	push	{r4, r7, lr}
     7e2:	b087      	sub	sp, #28
     7e4:	af00      	add	r7, sp, #0
     7e6:	60f8      	str	r0, [r7, #12]
     7e8:	60b9      	str	r1, [r7, #8]
     7ea:	607a      	str	r2, [r7, #4]
     7ec:	603b      	str	r3, [r7, #0]
     7ee:	2300      	movs	r3, #0
     7f0:	617b      	str	r3, [r7, #20]
     7f2:	e019      	b.n	828 <calc_means+0x48>
     7f4:	697b      	ldr	r3, [r7, #20]
     7f6:	009b      	lsls	r3, r3, #2
     7f8:	68ba      	ldr	r2, [r7, #8]
     7fa:	4413      	add	r3, r2
     7fc:	f04f 0200 	mov.w	r2, #0
     800:	601a      	str	r2, [r3, #0]
     802:	697b      	ldr	r3, [r7, #20]
     804:	009b      	lsls	r3, r3, #2
     806:	68fa      	ldr	r2, [r7, #12]
     808:	18d0      	adds	r0, r2, r3
     80a:	697b      	ldr	r3, [r7, #20]
     80c:	009b      	lsls	r3, r3, #2
     80e:	68ba      	ldr	r2, [r7, #8]
     810:	18d4      	adds	r4, r2, r3
     812:	683a      	ldr	r2, [r7, #0]
     814:	6879      	ldr	r1, [r7, #4]
     816:	f7ff ffaf 	bl	778 <mean>
     81a:	eef0 7a40 	vmov.f32	s15, s0
     81e:	edc4 7a00 	vstr	s15, [r4]
     822:	697b      	ldr	r3, [r7, #20]
     824:	3301      	adds	r3, #1
     826:	617b      	str	r3, [r7, #20]
     828:	697a      	ldr	r2, [r7, #20]
     82a:	687b      	ldr	r3, [r7, #4]
     82c:	429a      	cmp	r2, r3
     82e:	d3e1      	bcc.n	7f4 <calc_means+0x14>
     830:	bf00      	nop
     832:	bf00      	nop
     834:	371c      	adds	r7, #28
     836:	46bd      	mov	sp, r7
     838:	bd90      	pop	{r4, r7, pc}

0000083a <cov>:
     83a:	b580      	push	{r7, lr}
     83c:	b088      	sub	sp, #32
     83e:	af00      	add	r7, sp, #0
     840:	60f8      	str	r0, [r7, #12]
     842:	60b9      	str	r1, [r7, #8]
     844:	607a      	str	r2, [r7, #4]
     846:	603b      	str	r3, [r7, #0]
     848:	6abb      	ldr	r3, [r7, #40]	; 0x28
     84a:	683a      	ldr	r2, [r7, #0]
     84c:	6879      	ldr	r1, [r7, #4]
     84e:	68f8      	ldr	r0, [r7, #12]
     850:	f7ff ffc6 	bl	7e0 <calc_means>
     854:	2300      	movs	r3, #0
     856:	61fb      	str	r3, [r7, #28]
     858:	e099      	b.n	98e <cov+0x154>
     85a:	69fb      	ldr	r3, [r7, #28]
     85c:	61bb      	str	r3, [r7, #24]
     85e:	e08e      	b.n	97e <cov+0x144>
     860:	69fb      	ldr	r3, [r7, #28]
     862:	683a      	ldr	r2, [r7, #0]
     864:	fb02 f203 	mul.w	r2, r2, r3
     868:	69bb      	ldr	r3, [r7, #24]
     86a:	4413      	add	r3, r2
     86c:	009b      	lsls	r3, r3, #2
     86e:	68ba      	ldr	r2, [r7, #8]
     870:	4413      	add	r3, r2
     872:	f04f 0200 	mov.w	r2, #0
     876:	601a      	str	r2, [r3, #0]
     878:	2300      	movs	r3, #0
     87a:	617b      	str	r3, [r7, #20]
     87c:	e042      	b.n	904 <cov+0xca>
     87e:	69fb      	ldr	r3, [r7, #28]
     880:	683a      	ldr	r2, [r7, #0]
     882:	fb02 f203 	mul.w	r2, r2, r3
     886:	69bb      	ldr	r3, [r7, #24]
     888:	4413      	add	r3, r2
     88a:	009b      	lsls	r3, r3, #2
     88c:	68ba      	ldr	r2, [r7, #8]
     88e:	4413      	add	r3, r2
     890:	ed93 7a00 	vldr	s14, [r3]
     894:	697b      	ldr	r3, [r7, #20]
     896:	683a      	ldr	r2, [r7, #0]
     898:	fb02 f203 	mul.w	r2, r2, r3
     89c:	69fb      	ldr	r3, [r7, #28]
     89e:	4413      	add	r3, r2
     8a0:	009b      	lsls	r3, r3, #2
     8a2:	68fa      	ldr	r2, [r7, #12]
     8a4:	4413      	add	r3, r2
     8a6:	edd3 6a00 	vldr	s13, [r3]
     8aa:	69fb      	ldr	r3, [r7, #28]
     8ac:	009b      	lsls	r3, r3, #2
     8ae:	687a      	ldr	r2, [r7, #4]
     8b0:	4413      	add	r3, r2
     8b2:	edd3 7a00 	vldr	s15, [r3]
     8b6:	ee76 6ae7 	vsub.f32	s13, s13, s15
     8ba:	697b      	ldr	r3, [r7, #20]
     8bc:	683a      	ldr	r2, [r7, #0]
     8be:	fb02 f203 	mul.w	r2, r2, r3
     8c2:	69bb      	ldr	r3, [r7, #24]
     8c4:	4413      	add	r3, r2
     8c6:	009b      	lsls	r3, r3, #2
     8c8:	68fa      	ldr	r2, [r7, #12]
     8ca:	4413      	add	r3, r2
     8cc:	ed93 6a00 	vldr	s12, [r3]
     8d0:	69bb      	ldr	r3, [r7, #24]
     8d2:	009b      	lsls	r3, r3, #2
     8d4:	687a      	ldr	r2, [r7, #4]
     8d6:	4413      	add	r3, r2
     8d8:	edd3 7a00 	vldr	s15, [r3]
     8dc:	ee76 7a67 	vsub.f32	s15, s12, s15
     8e0:	ee66 7aa7 	vmul.f32	s15, s13, s15
     8e4:	69fb      	ldr	r3, [r7, #28]
     8e6:	683a      	ldr	r2, [r7, #0]
     8e8:	fb02 f203 	mul.w	r2, r2, r3
     8ec:	69bb      	ldr	r3, [r7, #24]
     8ee:	4413      	add	r3, r2
     8f0:	009b      	lsls	r3, r3, #2
     8f2:	68ba      	ldr	r2, [r7, #8]
     8f4:	4413      	add	r3, r2
     8f6:	ee77 7a27 	vadd.f32	s15, s14, s15
     8fa:	edc3 7a00 	vstr	s15, [r3]
     8fe:	697b      	ldr	r3, [r7, #20]
     900:	3301      	adds	r3, #1
     902:	617b      	str	r3, [r7, #20]
     904:	697b      	ldr	r3, [r7, #20]
     906:	6aba      	ldr	r2, [r7, #40]	; 0x28
     908:	429a      	cmp	r2, r3
     90a:	d8b8      	bhi.n	87e <cov+0x44>
     90c:	69fb      	ldr	r3, [r7, #28]
     90e:	683a      	ldr	r2, [r7, #0]
     910:	fb02 f203 	mul.w	r2, r2, r3
     914:	69bb      	ldr	r3, [r7, #24]
     916:	4413      	add	r3, r2
     918:	009b      	lsls	r3, r3, #2
     91a:	68ba      	ldr	r2, [r7, #8]
     91c:	4413      	add	r3, r2
     91e:	edd3 6a00 	vldr	s13, [r3]
     922:	6abb      	ldr	r3, [r7, #40]	; 0x28
     924:	3b01      	subs	r3, #1
     926:	ee07 3a90 	vmov	s15, r3
     92a:	eeb8 7a67 	vcvt.f32.u32	s14, s15
     92e:	69fb      	ldr	r3, [r7, #28]
     930:	683a      	ldr	r2, [r7, #0]
     932:	fb02 f203 	mul.w	r2, r2, r3
     936:	69bb      	ldr	r3, [r7, #24]
     938:	4413      	add	r3, r2
     93a:	009b      	lsls	r3, r3, #2
     93c:	68ba      	ldr	r2, [r7, #8]
     93e:	4413      	add	r3, r2
     940:	eec6 7a87 	vdiv.f32	s15, s13, s14
     944:	edc3 7a00 	vstr	s15, [r3]
     948:	69fa      	ldr	r2, [r7, #28]
     94a:	69bb      	ldr	r3, [r7, #24]
     94c:	429a      	cmp	r2, r3
     94e:	d013      	beq.n	978 <cov+0x13e>
     950:	69fb      	ldr	r3, [r7, #28]
     952:	683a      	ldr	r2, [r7, #0]
     954:	fb02 f203 	mul.w	r2, r2, r3
     958:	69bb      	ldr	r3, [r7, #24]
     95a:	4413      	add	r3, r2
     95c:	009b      	lsls	r3, r3, #2
     95e:	68ba      	ldr	r2, [r7, #8]
     960:	441a      	add	r2, r3
     962:	69bb      	ldr	r3, [r7, #24]
     964:	6839      	ldr	r1, [r7, #0]
     966:	fb01 f103 	mul.w	r1, r1, r3
     96a:	69fb      	ldr	r3, [r7, #28]
     96c:	440b      	add	r3, r1
     96e:	009b      	lsls	r3, r3, #2
     970:	68b9      	ldr	r1, [r7, #8]
     972:	440b      	add	r3, r1
     974:	6812      	ldr	r2, [r2, #0]
     976:	601a      	str	r2, [r3, #0]
     978:	69bb      	ldr	r3, [r7, #24]
     97a:	3301      	adds	r3, #1
     97c:	61bb      	str	r3, [r7, #24]
     97e:	69bb      	ldr	r3, [r7, #24]
     980:	683a      	ldr	r2, [r7, #0]
     982:	429a      	cmp	r2, r3
     984:	f63f af6c 	bhi.w	860 <cov+0x26>
     988:	69fb      	ldr	r3, [r7, #28]
     98a:	3301      	adds	r3, #1
     98c:	61fb      	str	r3, [r7, #28]
     98e:	69fb      	ldr	r3, [r7, #28]
     990:	683a      	ldr	r2, [r7, #0]
     992:	429a      	cmp	r2, r3
     994:	f63f af61 	bhi.w	85a <cov+0x20>
     998:	bf00      	nop
     99a:	bf00      	nop
     99c:	3720      	adds	r7, #32
     99e:	46bd      	mov	sp, r7
     9a0:	bd80      	pop	{r7, pc}
	...

000009a4 <fft_pca>:
     9a4:	b580      	push	{r7, lr}
     9a6:	b084      	sub	sp, #16
     9a8:	af02      	add	r7, sp, #8
     9aa:	6078      	str	r0, [r7, #4]
     9ac:	4b11      	ldr	r3, [pc, #68]	; (9f4 <fft_pca+0x50>)
     9ae:	681b      	ldr	r3, [r3, #0]
     9b0:	4a11      	ldr	r2, [pc, #68]	; (9f8 <fft_pca+0x54>)
     9b2:	6812      	ldr	r2, [r2, #0]
     9b4:	4611      	mov	r1, r2
     9b6:	4618      	mov	r0, r3
     9b8:	f7ff fea6 	bl	708 <fft_obs_matrix>
     9bc:	4b0d      	ldr	r3, [pc, #52]	; (9f4 <fft_pca+0x50>)
     9be:	681b      	ldr	r3, [r3, #0]
     9c0:	085b      	lsrs	r3, r3, #1
     9c2:	3301      	adds	r3, #1
     9c4:	4a0b      	ldr	r2, [pc, #44]	; (9f4 <fft_pca+0x50>)
     9c6:	6013      	str	r3, [r2, #0]
     9c8:	4b0a      	ldr	r3, [pc, #40]	; (9f4 <fft_pca+0x50>)
     9ca:	681a      	ldr	r2, [r3, #0]
     9cc:	4b0a      	ldr	r3, [pc, #40]	; (9f8 <fft_pca+0x54>)
     9ce:	681b      	ldr	r3, [r3, #0]
     9d0:	9300      	str	r3, [sp, #0]
     9d2:	4613      	mov	r3, r2
     9d4:	4a09      	ldr	r2, [pc, #36]	; (9fc <fft_pca+0x58>)
     9d6:	490a      	ldr	r1, [pc, #40]	; (a00 <fft_pca+0x5c>)
     9d8:	480a      	ldr	r0, [pc, #40]	; (a04 <fft_pca+0x60>)
     9da:	f7ff ff2e 	bl	83a <cov>
     9de:	687b      	ldr	r3, [r7, #4]
     9e0:	681b      	ldr	r3, [r3, #0]
     9e2:	4619      	mov	r1, r3
     9e4:	4808      	ldr	r0, [pc, #32]	; (a08 <fft_pca+0x64>)
     9e6:	f7ff fd73 	bl	4d0 <eig_decomp>
     9ea:	bf00      	nop
     9ec:	3708      	adds	r7, #8
     9ee:	46bd      	mov	sp, r7
     9f0:	bd80      	pop	{r7, pc}
     9f2:	bf00      	nop
     9f4:	2000044c 	.word	0x2000044c
     9f8:	20000504 	.word	0x20000504
     9fc:	20000588 	.word	0x20000588
     a00:	200005b4 	.word	0x200005b4
     a04:	20000450 	.word	0x20000450
     a08:	200004e4 	.word	0x200004e4

00000a0c <main>:
     a0c:	b5f0      	push	{r4, r5, r6, r7, lr}
     a0e:	b0a3      	sub	sp, #140	; 0x8c
     a10:	af0c      	add	r7, sp, #48	; 0x30
     a12:	4b24      	ldr	r3, [pc, #144]	; (aa4 <main+0x98>)
     a14:	2201      	movs	r2, #1
     a16:	701a      	strb	r2, [r3, #0]
     a18:	4b23      	ldr	r3, [pc, #140]	; (aa8 <main+0x9c>)
     a1a:	2208      	movs	r2, #8
     a1c:	601a      	str	r2, [r3, #0]
     a1e:	4b23      	ldr	r3, [pc, #140]	; (aac <main+0xa0>)
     a20:	2204      	movs	r2, #4
     a22:	601a      	str	r2, [r3, #0]
     a24:	4b22      	ldr	r3, [pc, #136]	; (ab0 <main+0xa4>)
     a26:	2220      	movs	r2, #32
     a28:	601a      	str	r2, [r3, #0]
     a2a:	4b21      	ldr	r3, [pc, #132]	; (ab0 <main+0xa4>)
     a2c:	681b      	ldr	r3, [r3, #0]
     a2e:	b29b      	uxth	r3, r3
     a30:	4619      	mov	r1, r3
     a32:	4820      	ldr	r0, [pc, #128]	; (ab4 <main+0xa8>)
     a34:	f000 f9a8 	bl	d88 <arm_rfft_fast_init_f32>
     a38:	4b1b      	ldr	r3, [pc, #108]	; (aa8 <main+0x9c>)
     a3a:	681b      	ldr	r3, [r3, #0]
     a3c:	b299      	uxth	r1, r3
     a3e:	4b1b      	ldr	r3, [pc, #108]	; (aac <main+0xa0>)
     a40:	681b      	ldr	r3, [r3, #0]
     a42:	b29a      	uxth	r2, r3
     a44:	4b1c      	ldr	r3, [pc, #112]	; (ab8 <main+0xac>)
     a46:	481d      	ldr	r0, [pc, #116]	; (abc <main+0xb0>)
     a48:	f001 f8ac 	bl	1ba4 <arm_mat_init_f32>
     a4c:	4b16      	ldr	r3, [pc, #88]	; (aa8 <main+0x9c>)
     a4e:	681b      	ldr	r3, [r3, #0]
     a50:	4a16      	ldr	r2, [pc, #88]	; (aac <main+0xa0>)
     a52:	6812      	ldr	r2, [r2, #0]
     a54:	4916      	ldr	r1, [pc, #88]	; (ab0 <main+0xa4>)
     a56:	6809      	ldr	r1, [r1, #0]
     a58:	4812      	ldr	r0, [pc, #72]	; (aa4 <main+0x98>)
     a5a:	7800      	ldrb	r0, [r0, #0]
     a5c:	f107 051c 	add.w	r5, r7, #28
     a60:	1d3c      	adds	r4, r7, #4
     a62:	4e17      	ldr	r6, [pc, #92]	; (ac0 <main+0xb4>)
     a64:	960a      	str	r6, [sp, #40]	; 0x28
     a66:	4e17      	ldr	r6, [pc, #92]	; (ac4 <main+0xb8>)
     a68:	9609      	str	r6, [sp, #36]	; 0x24
     a6a:	4e17      	ldr	r6, [pc, #92]	; (ac8 <main+0xbc>)
     a6c:	9608      	str	r6, [sp, #32]
     a6e:	4e17      	ldr	r6, [pc, #92]	; (acc <main+0xc0>)
     a70:	9607      	str	r6, [sp, #28]
     a72:	4e17      	ldr	r6, [pc, #92]	; (ad0 <main+0xc4>)
     a74:	9606      	str	r6, [sp, #24]
     a76:	9005      	str	r0, [sp, #20]
     a78:	9104      	str	r1, [sp, #16]
     a7a:	490e      	ldr	r1, [pc, #56]	; (ab4 <main+0xa8>)
     a7c:	9103      	str	r1, [sp, #12]
     a7e:	9202      	str	r2, [sp, #8]
     a80:	9301      	str	r3, [sp, #4]
     a82:	4b0d      	ldr	r3, [pc, #52]	; (ab8 <main+0xac>)
     a84:	9300      	str	r3, [sp, #0]
     a86:	4b0d      	ldr	r3, [pc, #52]	; (abc <main+0xb0>)
     a88:	462a      	mov	r2, r5
     a8a:	4621      	mov	r1, r4
     a8c:	4811      	ldr	r0, [pc, #68]	; (ad4 <main+0xc8>)
     a8e:	f7ff fe01 	bl	694 <initialize>
     a92:	f107 031c 	add.w	r3, r7, #28
     a96:	4618      	mov	r0, r3
     a98:	f7ff ff84 	bl	9a4 <fft_pca>
     a9c:	bf00      	nop
     a9e:	375c      	adds	r7, #92	; 0x5c
     aa0:	46bd      	mov	sp, r7
     aa2:	bdf0      	pop	{r4, r5, r6, r7, pc}
     aa4:	2000059c 	.word	0x2000059c
     aa8:	2000044c 	.word	0x2000044c
     aac:	20000504 	.word	0x20000504
     ab0:	200004e0 	.word	0x200004e0
     ab4:	200004ec 	.word	0x200004ec
     ab8:	20000450 	.word	0x20000450
     abc:	200004e4 	.word	0x200004e4
     ac0:	20000508 	.word	0x20000508
     ac4:	200004d0 	.word	0x200004d0
     ac8:	200005a0 	.word	0x200005a0
     acc:	20000588 	.word	0x20000588
     ad0:	200005b4 	.word	0x200005b4
     ad4:	20000438 	.word	0x20000438

00000ad8 <stage_rfft_f32>:
     ad8:	edd1 7a01 	vldr	s15, [r1, #4]
     adc:	ed91 6a00 	vldr	s12, [r1]
     ae0:	ee77 7aa7 	vadd.f32	s15, s15, s15
     ae4:	eef0 6a00 	vmov.f32	s13, #0	; 0x40000000  2.0
     ae8:	eeb0 7a67 	vmov.f32	s14, s15
     aec:	eea6 7a26 	vfma.f32	s14, s12, s13
     af0:	b410      	push	{r4}
     af2:	eed6 7a26 	vfnms.f32	s15, s12, s13
     af6:	8804      	ldrh	r4, [r0, #0]
     af8:	6940      	ldr	r0, [r0, #20]
     afa:	eef6 3a00 	vmov.f32	s7, #96	; 0x3f000000  0.5
     afe:	ee27 7a23 	vmul.f32	s14, s14, s7
     b02:	ee67 7aa3 	vmul.f32	s15, s15, s7
     b06:	3c01      	subs	r4, #1
     b08:	eb01 03c4 	add.w	r3, r1, r4, lsl #3
     b0c:	ed82 7a00 	vstr	s14, [r2]
     b10:	edc2 7a01 	vstr	s15, [r2, #4]
     b14:	3010      	adds	r0, #16
     b16:	3210      	adds	r2, #16
     b18:	3b08      	subs	r3, #8
     b1a:	3110      	adds	r1, #16
     b1c:	edd3 6a03 	vldr	s13, [r3, #12]
     b20:	ed11 5a01 	vldr	s10, [r1, #-4]
     b24:	edd3 7a02 	vldr	s15, [r3, #8]
     b28:	ed11 4a02 	vldr	s8, [r1, #-8]
     b2c:	ed50 5a01 	vldr	s11, [r0, #-4]
     b30:	ed10 6a02 	vldr	s12, [r0, #-8]
     b34:	ee77 4ac4 	vsub.f32	s9, s15, s8
     b38:	ee35 7a66 	vsub.f32	s14, s10, s13
     b3c:	ee77 7a84 	vadd.f32	s15, s15, s8
     b40:	eea5 7aa4 	vfma.f32	s14, s11, s9
     b44:	3c01      	subs	r4, #1
     b46:	2c00      	cmp	r4, #0
     b48:	eee6 7a24 	vfma.f32	s15, s12, s9
     b4c:	f1a3 0308 	sub.w	r3, r3, #8
     b50:	f101 0108 	add.w	r1, r1, #8
     b54:	ee76 6a85 	vadd.f32	s13, s13, s10
     b58:	f100 0008 	add.w	r0, r0, #8
     b5c:	eee5 7aa6 	vfma.f32	s15, s11, s13
     b60:	f102 0208 	add.w	r2, r2, #8
     b64:	eea6 7a66 	vfms.f32	s14, s12, s13
     b68:	ee67 7aa3 	vmul.f32	s15, s15, s7
     b6c:	ee27 7a23 	vmul.f32	s14, s14, s7
     b70:	ed42 7a04 	vstr	s15, [r2, #-16]
     b74:	ed02 7a03 	vstr	s14, [r2, #-12]
     b78:	dcd0      	bgt.n	b1c <stage_rfft_f32+0x44>
     b7a:	f85d 4b04 	ldr.w	r4, [sp], #4
     b7e:	4770      	bx	lr

00000b80 <merge_rfft_f32>:
     b80:	edd1 7a00 	vldr	s15, [r1]
     b84:	edd1 6a01 	vldr	s13, [r1, #4]
     b88:	b430      	push	{r4, r5}
     b8a:	ee37 7aa6 	vadd.f32	s14, s15, s13
     b8e:	8804      	ldrh	r4, [r0, #0]
     b90:	6940      	ldr	r0, [r0, #20]
     b92:	ee77 7ae6 	vsub.f32	s15, s15, s13
     b96:	eef6 3a00 	vmov.f32	s7, #96	; 0x3f000000  0.5
     b9a:	1e65      	subs	r5, r4, #1
     b9c:	ee27 7a23 	vmul.f32	s14, s14, s7
     ba0:	ee67 7aa3 	vmul.f32	s15, s15, s7
     ba4:	2d00      	cmp	r5, #0
     ba6:	ed82 7a00 	vstr	s14, [r2]
     baa:	edc2 7a01 	vstr	s15, [r2, #4]
     bae:	eb01 03c5 	add.w	r3, r1, r5, lsl #3
     bb2:	dd32      	ble.n	c1a <__HEAP_SIZE+0x1a>
     bb4:	eba3 04c4 	sub.w	r4, r3, r4, lsl #3
     bb8:	3010      	adds	r0, #16
     bba:	3210      	adds	r2, #16
     bbc:	3110      	adds	r1, #16
     bbe:	3b08      	subs	r3, #8
     bc0:	edd3 6a03 	vldr	s13, [r3, #12]
     bc4:	edd3 7a02 	vldr	s15, [r3, #8]
     bc8:	ed11 5a01 	vldr	s10, [r1, #-4]
     bcc:	ed11 4a02 	vldr	s8, [r1, #-8]
     bd0:	ed50 5a01 	vldr	s11, [r0, #-4]
     bd4:	ed10 6a02 	vldr	s12, [r0, #-8]
     bd8:	ee74 4a67 	vsub.f32	s9, s8, s15
     bdc:	ee35 7a66 	vsub.f32	s14, s10, s13
     be0:	ee77 7a84 	vadd.f32	s15, s15, s8
     be4:	eea5 7aa4 	vfma.f32	s14, s11, s9
     be8:	3b08      	subs	r3, #8
     bea:	429c      	cmp	r4, r3
     bec:	eee6 7a64 	vfms.f32	s15, s12, s9
     bf0:	f101 0108 	add.w	r1, r1, #8
     bf4:	f100 0008 	add.w	r0, r0, #8
     bf8:	ee76 6a85 	vadd.f32	s13, s13, s10
     bfc:	f102 0208 	add.w	r2, r2, #8
     c00:	eee5 7ae6 	vfms.f32	s15, s11, s13
     c04:	eea6 7a66 	vfms.f32	s14, s12, s13
     c08:	ee67 7aa3 	vmul.f32	s15, s15, s7
     c0c:	ee27 7a23 	vmul.f32	s14, s14, s7
     c10:	ed42 7a04 	vstr	s15, [r2, #-16]
     c14:	ed02 7a03 	vstr	s14, [r2, #-12]
     c18:	d1d2      	bne.n	bc0 <merge_rfft_f32+0x40>
     c1a:	bc30      	pop	{r4, r5}
     c1c:	4770      	bx	lr
     c1e:	bf00      	nop

00000c20 <arm_rfft_fast_f32>:
     c20:	e92d 41f0 	stmdb	sp!, {r4, r5, r6, r7, r8, lr}
     c24:	461c      	mov	r4, r3
     c26:	4605      	mov	r5, r0
     c28:	4616      	mov	r6, r2
     c2a:	b14b      	cbz	r3, c40 <arm_rfft_fast_f32+0x20>
     c2c:	f7ff ffa8 	bl	b80 <merge_rfft_f32>
     c30:	4622      	mov	r2, r4
     c32:	4631      	mov	r1, r6
     c34:	4628      	mov	r0, r5
     c36:	2301      	movs	r3, #1
     c38:	e8bd 41f0 	ldmia.w	sp!, {r4, r5, r6, r7, r8, lr}
     c3c:	f000 bbe2 	b.w	1404 <arm_cfft_f32>
     c40:	460f      	mov	r7, r1
     c42:	461a      	mov	r2, r3
     c44:	2301      	movs	r3, #1
     c46:	f000 fbdd 	bl	1404 <arm_cfft_f32>
     c4a:	4632      	mov	r2, r6
     c4c:	4639      	mov	r1, r7
     c4e:	4628      	mov	r0, r5
     c50:	e8bd 41f0 	ldmia.w	sp!, {r4, r5, r6, r7, r8, lr}
     c54:	f7ff bf40 	b.w	ad8 <stage_rfft_f32>

00000c58 <arm_rfft_32_fast_init_f32>:
     c58:	b150      	cbz	r0, c70 <arm_rfft_32_fast_init_f32+0x18>
     c5a:	b510      	push	{r4, lr}
     c5c:	2110      	movs	r1, #16
     c5e:	4604      	mov	r4, r0
     c60:	f000 fc48 	bl	14f4 <arm_cfft_init_f32>
     c64:	b918      	cbnz	r0, c6e <arm_rfft_32_fast_init_f32+0x16>
     c66:	4b04      	ldr	r3, [pc, #16]	; (c78 <arm_rfft_32_fast_init_f32+0x20>)
     c68:	6163      	str	r3, [r4, #20]
     c6a:	2220      	movs	r2, #32
     c6c:	8222      	strh	r2, [r4, #16]
     c6e:	bd10      	pop	{r4, pc}
     c70:	f04f 30ff 	mov.w	r0, #4294967295	; 0xffffffff
     c74:	4770      	bx	lr
     c76:	bf00      	nop
     c78:	0001b524 	.word	0x0001b524

00000c7c <arm_rfft_64_fast_init_f32>:
     c7c:	b150      	cbz	r0, c94 <arm_rfft_64_fast_init_f32+0x18>
     c7e:	b510      	push	{r4, lr}
     c80:	2120      	movs	r1, #32
     c82:	4604      	mov	r4, r0
     c84:	f000 fc36 	bl	14f4 <arm_cfft_init_f32>
     c88:	b918      	cbnz	r0, c92 <arm_rfft_64_fast_init_f32+0x16>
     c8a:	4b04      	ldr	r3, [pc, #16]	; (c9c <arm_rfft_64_fast_init_f32+0x20>)
     c8c:	6163      	str	r3, [r4, #20]
     c8e:	2240      	movs	r2, #64	; 0x40
     c90:	8222      	strh	r2, [r4, #16]
     c92:	bd10      	pop	{r4, pc}
     c94:	f04f 30ff 	mov.w	r0, #4294967295	; 0xffffffff
     c98:	4770      	bx	lr
     c9a:	bf00      	nop
     c9c:	0001fda4 	.word	0x0001fda4

00000ca0 <arm_rfft_128_fast_init_f32>:
     ca0:	b150      	cbz	r0, cb8 <arm_rfft_128_fast_init_f32+0x18>
     ca2:	b510      	push	{r4, lr}
     ca4:	2140      	movs	r1, #64	; 0x40
     ca6:	4604      	mov	r4, r0
     ca8:	f000 fc24 	bl	14f4 <arm_cfft_init_f32>
     cac:	b918      	cbnz	r0, cb6 <arm_rfft_128_fast_init_f32+0x16>
     cae:	4b04      	ldr	r3, [pc, #16]	; (cc0 <arm_rfft_128_fast_init_f32+0x20>)
     cb0:	6163      	str	r3, [r4, #20]
     cb2:	2280      	movs	r2, #128	; 0x80
     cb4:	8222      	strh	r2, [r4, #16]
     cb6:	bd10      	pop	{r4, pc}
     cb8:	f04f 30ff 	mov.w	r0, #4294967295	; 0xffffffff
     cbc:	4770      	bx	lr
     cbe:	bf00      	nop
     cc0:	00018f24 	.word	0x00018f24

00000cc4 <arm_rfft_256_fast_init_f32>:
     cc4:	b158      	cbz	r0, cde <arm_rfft_256_fast_init_f32+0x1a>
     cc6:	b510      	push	{r4, lr}
     cc8:	2180      	movs	r1, #128	; 0x80
     cca:	4604      	mov	r4, r0
     ccc:	f000 fc12 	bl	14f4 <arm_cfft_init_f32>
     cd0:	b920      	cbnz	r0, cdc <arm_rfft_256_fast_init_f32+0x18>
     cd2:	4b04      	ldr	r3, [pc, #16]	; (ce4 <arm_rfft_256_fast_init_f32+0x20>)
     cd4:	6163      	str	r3, [r4, #20]
     cd6:	f44f 7280 	mov.w	r2, #256	; 0x100
     cda:	8222      	strh	r2, [r4, #16]
     cdc:	bd10      	pop	{r4, pc}
     cde:	f04f 30ff 	mov.w	r0, #4294967295	; 0xffffffff
     ce2:	4770      	bx	lr
     ce4:	0001b124 	.word	0x0001b124

00000ce8 <arm_rfft_512_fast_init_f32>:
     ce8:	b160      	cbz	r0, d04 <arm_rfft_512_fast_init_f32+0x1c>
     cea:	b510      	push	{r4, lr}
     cec:	f44f 7180 	mov.w	r1, #256	; 0x100
     cf0:	4604      	mov	r4, r0
     cf2:	f000 fbff 	bl	14f4 <arm_cfft_init_f32>
     cf6:	b920      	cbnz	r0, d02 <arm_rfft_512_fast_init_f32+0x1a>
     cf8:	4b04      	ldr	r3, [pc, #16]	; (d0c <arm_rfft_512_fast_init_f32+0x24>)
     cfa:	6163      	str	r3, [r4, #20]
     cfc:	f44f 7200 	mov.w	r2, #512	; 0x200
     d00:	8222      	strh	r2, [r4, #16]
     d02:	bd10      	pop	{r4, pc}
     d04:	f04f 30ff 	mov.w	r0, #4294967295	; 0xffffffff
     d08:	4770      	bx	lr
     d0a:	bf00      	nop
     d0c:	0001f5a4 	.word	0x0001f5a4

00000d10 <arm_rfft_1024_fast_init_f32>:
     d10:	b160      	cbz	r0, d2c <arm_rfft_1024_fast_init_f32+0x1c>
     d12:	b510      	push	{r4, lr}
     d14:	f44f 7100 	mov.w	r1, #512	; 0x200
     d18:	4604      	mov	r4, r0
     d1a:	f000 fbeb 	bl	14f4 <arm_cfft_init_f32>
     d1e:	b920      	cbnz	r0, d2a <arm_rfft_1024_fast_init_f32+0x1a>
     d20:	4b04      	ldr	r3, [pc, #16]	; (d34 <arm_rfft_1024_fast_init_f32+0x24>)
     d22:	6163      	str	r3, [r4, #20]
     d24:	f44f 6280 	mov.w	r2, #1024	; 0x400
     d28:	8222      	strh	r2, [r4, #16]
     d2a:	bd10      	pop	{r4, pc}
     d2c:	f04f 30ff 	mov.w	r0, #4294967295	; 0xffffffff
     d30:	4770      	bx	lr
     d32:	bf00      	nop
     d34:	00017f24 	.word	0x00017f24

00000d38 <arm_rfft_2048_fast_init_f32>:
     d38:	b160      	cbz	r0, d54 <arm_rfft_2048_fast_init_f32+0x1c>
     d3a:	b510      	push	{r4, lr}
     d3c:	f44f 6180 	mov.w	r1, #1024	; 0x400
     d40:	4604      	mov	r4, r0
     d42:	f000 fbd7 	bl	14f4 <arm_cfft_init_f32>
     d46:	b920      	cbnz	r0, d52 <arm_rfft_2048_fast_init_f32+0x1a>
     d48:	4b04      	ldr	r3, [pc, #16]	; (d5c <arm_rfft_2048_fast_init_f32+0x24>)
     d4a:	6163      	str	r3, [r4, #20]
     d4c:	f44f 6200 	mov.w	r2, #2048	; 0x800
     d50:	8222      	strh	r2, [r4, #16]
     d52:	bd10      	pop	{r4, pc}
     d54:	f04f 30ff 	mov.w	r0, #4294967295	; 0xffffffff
     d58:	4770      	bx	lr
     d5a:	bf00      	nop
     d5c:	00019124 	.word	0x00019124

00000d60 <arm_rfft_4096_fast_init_f32>:
     d60:	b160      	cbz	r0, d7c <arm_rfft_4096_fast_init_f32+0x1c>
     d62:	b510      	push	{r4, lr}
     d64:	f44f 6100 	mov.w	r1, #2048	; 0x800
     d68:	4604      	mov	r4, r0
     d6a:	f000 fbc3 	bl	14f4 <arm_cfft_init_f32>
     d6e:	b920      	cbnz	r0, d7a <arm_rfft_4096_fast_init_f32+0x1a>
     d70:	4b04      	ldr	r3, [pc, #16]	; (d84 <arm_rfft_4096_fast_init_f32+0x24>)
     d72:	6163      	str	r3, [r4, #20]
     d74:	f44f 5280 	mov.w	r2, #4096	; 0x1000
     d78:	8222      	strh	r2, [r4, #16]
     d7a:	bd10      	pop	{r4, pc}
     d7c:	f04f 30ff 	mov.w	r0, #4294967295	; 0xffffffff
     d80:	4770      	bx	lr
     d82:	bf00      	nop
     d84:	0001b5a4 	.word	0x0001b5a4

00000d88 <arm_rfft_fast_init_f32>:
     d88:	f5b1 7f00 	cmp.w	r1, #512	; 0x200
     d8c:	d024      	beq.n	dd8 <arm_rfft_fast_init_f32+0x50>
     d8e:	d807      	bhi.n	da0 <arm_rfft_fast_init_f32+0x18>
     d90:	2980      	cmp	r1, #128	; 0x80
     d92:	d01c      	beq.n	dce <arm_rfft_fast_init_f32+0x46>
     d94:	d90c      	bls.n	db0 <arm_rfft_fast_init_f32+0x28>
     d96:	f5b1 7f80 	cmp.w	r1, #256	; 0x100
     d9a:	d11a      	bne.n	dd2 <arm_rfft_fast_init_f32+0x4a>
     d9c:	4b0f      	ldr	r3, [pc, #60]	; (ddc <arm_rfft_fast_init_f32+0x54>)
     d9e:	4718      	bx	r3
     da0:	f5b1 6f00 	cmp.w	r1, #2048	; 0x800
     da4:	d011      	beq.n	dca <arm_rfft_fast_init_f32+0x42>
     da6:	f5b1 5f80 	cmp.w	r1, #4096	; 0x1000
     daa:	d107      	bne.n	dbc <arm_rfft_fast_init_f32+0x34>
     dac:	4b0c      	ldr	r3, [pc, #48]	; (de0 <arm_rfft_fast_init_f32+0x58>)
     dae:	4718      	bx	r3
     db0:	2920      	cmp	r1, #32
     db2:	d008      	beq.n	dc6 <arm_rfft_fast_init_f32+0x3e>
     db4:	2940      	cmp	r1, #64	; 0x40
     db6:	d10c      	bne.n	dd2 <arm_rfft_fast_init_f32+0x4a>
     db8:	4b0a      	ldr	r3, [pc, #40]	; (de4 <arm_rfft_fast_init_f32+0x5c>)
     dba:	e7f0      	b.n	d9e <arm_rfft_fast_init_f32+0x16>
     dbc:	f5b1 6f80 	cmp.w	r1, #1024	; 0x400
     dc0:	d107      	bne.n	dd2 <arm_rfft_fast_init_f32+0x4a>
     dc2:	4b09      	ldr	r3, [pc, #36]	; (de8 <arm_rfft_fast_init_f32+0x60>)
     dc4:	e7eb      	b.n	d9e <arm_rfft_fast_init_f32+0x16>
     dc6:	4b09      	ldr	r3, [pc, #36]	; (dec <arm_rfft_fast_init_f32+0x64>)
     dc8:	e7e9      	b.n	d9e <arm_rfft_fast_init_f32+0x16>
     dca:	4b09      	ldr	r3, [pc, #36]	; (df0 <arm_rfft_fast_init_f32+0x68>)
     dcc:	e7e7      	b.n	d9e <arm_rfft_fast_init_f32+0x16>
     dce:	4b09      	ldr	r3, [pc, #36]	; (df4 <arm_rfft_fast_init_f32+0x6c>)
     dd0:	e7e5      	b.n	d9e <arm_rfft_fast_init_f32+0x16>
     dd2:	f04f 30ff 	mov.w	r0, #4294967295	; 0xffffffff
     dd6:	4770      	bx	lr
     dd8:	4b07      	ldr	r3, [pc, #28]	; (df8 <arm_rfft_fast_init_f32+0x70>)
     dda:	e7e0      	b.n	d9e <arm_rfft_fast_init_f32+0x16>
     ddc:	00000cc5 	.word	0x00000cc5
     de0:	00000d61 	.word	0x00000d61
     de4:	00000c7d 	.word	0x00000c7d
     de8:	00000d11 	.word	0x00000d11
     dec:	00000c59 	.word	0x00000c59
     df0:	00000d39 	.word	0x00000d39
     df4:	00000ca1 	.word	0x00000ca1
     df8:	00000ce9 	.word	0x00000ce9

00000dfc <arm_cfft_radix8by2_f32>:
     dfc:	e92d 41f0 	stmdb	sp!, {r4, r5, r6, r7, r8, lr}
     e00:	f8b0 e000 	ldrh.w	lr, [r0]
     e04:	6842      	ldr	r2, [r0, #4]
     e06:	ed2d 8b08 	vpush	{d8-d11}
     e0a:	4607      	mov	r7, r0
     e0c:	4608      	mov	r0, r1
     e0e:	eb00 088e 	add.w	r8, r0, lr, lsl #2
     e12:	ea4f 015e 	mov.w	r1, lr, lsr #1
     e16:	ea5f 0ede 	movs.w	lr, lr, lsr #3
     e1a:	b082      	sub	sp, #8
     e1c:	f000 80a0 	beq.w	f60 <arm_cfft_radix8by2_f32+0x164>
     e20:	008c      	lsls	r4, r1, #2
     e22:	3410      	adds	r4, #16
     e24:	f100 0310 	add.w	r3, r0, #16
     e28:	1906      	adds	r6, r0, r4
     e2a:	eb03 1e0e 	add.w	lr, r3, lr, lsl #4
     e2e:	4444      	add	r4, r8
     e30:	f102 0c10 	add.w	ip, r2, #16
     e34:	f108 0510 	add.w	r5, r8, #16
     e38:	ed15 2a04 	vldr	s4, [r5, #-16]
     e3c:	ed55 2a03 	vldr	s5, [r5, #-12]
     e40:	ed14 5a04 	vldr	s10, [r4, #-16]
     e44:	ed54 5a03 	vldr	s11, [r4, #-12]
     e48:	ed53 4a04 	vldr	s9, [r3, #-16]
     e4c:	ed55 8a02 	vldr	s17, [r5, #-8]
     e50:	ed15 8a01 	vldr	s16, [r5, #-4]
     e54:	ed16 3a04 	vldr	s6, [r6, #-16]
     e58:	ed56 3a03 	vldr	s7, [r6, #-12]
     e5c:	ed54 7a02 	vldr	s15, [r4, #-8]
     e60:	ed14 7a01 	vldr	s14, [r4, #-4]
     e64:	ed13 4a03 	vldr	s8, [r3, #-12]
     e68:	ed53 6a02 	vldr	s13, [r3, #-8]
     e6c:	ed13 6a01 	vldr	s12, [r3, #-4]
     e70:	ed16 0a02 	vldr	s0, [r6, #-8]
     e74:	ed56 0a01 	vldr	s1, [r6, #-4]
     e78:	ee74 ba82 	vadd.f32	s23, s9, s4
     e7c:	ee34 ba22 	vadd.f32	s22, s8, s5
     e80:	ee73 9a05 	vadd.f32	s19, s6, s10
     e84:	ee33 9aa5 	vadd.f32	s18, s7, s11
     e88:	ee30 1a27 	vadd.f32	s2, s0, s15
     e8c:	ee70 1a87 	vadd.f32	s3, s1, s14
     e90:	ee76 aaa8 	vadd.f32	s21, s13, s17
     e94:	ee36 aa08 	vadd.f32	s20, s12, s16
     e98:	ed43 ba04 	vstr	s23, [r3, #-16]
     e9c:	ed03 ba03 	vstr	s22, [r3, #-12]
     ea0:	ed43 aa02 	vstr	s21, [r3, #-8]
     ea4:	ed03 aa01 	vstr	s20, [r3, #-4]
     ea8:	ed06 1a02 	vstr	s2, [r6, #-8]
     eac:	ed46 1a01 	vstr	s3, [r6, #-4]
     eb0:	ed46 9a04 	vstr	s19, [r6, #-16]
     eb4:	ed06 9a03 	vstr	s18, [r6, #-12]
     eb8:	ee74 4ac2 	vsub.f32	s9, s9, s4
     ebc:	ee34 4a62 	vsub.f32	s8, s8, s5
     ec0:	ee35 5a43 	vsub.f32	s10, s10, s6
     ec4:	ee75 5ae3 	vsub.f32	s11, s11, s7
     ec8:	ed1c 3a04 	vldr	s6, [ip, #-16]
     ecc:	ed5c 3a03 	vldr	s7, [ip, #-12]
     ed0:	ee23 2a65 	vnmul.f32	s4, s6, s11
     ed4:	ee64 1a23 	vmul.f32	s3, s8, s7
     ed8:	ee23 1ae4 	vnmul.f32	s2, s7, s9
     edc:	ee65 2a03 	vmul.f32	s5, s10, s6
     ee0:	eea4 1a03 	vfma.f32	s2, s8, s6
     ee4:	3310      	adds	r3, #16
     ee6:	4573      	cmp	r3, lr
     ee8:	eee4 1a83 	vfma.f32	s3, s9, s6
     eec:	f106 0610 	add.w	r6, r6, #16
     ef0:	f10c 0c10 	add.w	ip, ip, #16
     ef4:	eea5 2a23 	vfma.f32	s4, s10, s7
     ef8:	f105 0510 	add.w	r5, r5, #16
     efc:	f104 0410 	add.w	r4, r4, #16
     f00:	eee5 2aa3 	vfma.f32	s5, s11, s7
     f04:	ed05 1a07 	vstr	s2, [r5, #-28]	; 0xffffffe4
     f08:	ed45 1a08 	vstr	s3, [r5, #-32]	; 0xffffffe0
     f0c:	ed04 2a08 	vstr	s4, [r4, #-32]	; 0xffffffe0
     f10:	ed44 2a07 	vstr	s5, [r4, #-28]	; 0xffffffe4
     f14:	ed5c 5a05 	vldr	s11, [ip, #-20]	; 0xffffffec
     f18:	ed1c 5a06 	vldr	s10, [ip, #-24]	; 0xffffffe8
     f1c:	ee76 6ae8 	vsub.f32	s13, s13, s17
     f20:	ee36 6a48 	vsub.f32	s12, s12, s16
     f24:	ee77 7ac0 	vsub.f32	s15, s15, s0
     f28:	ee37 7a60 	vsub.f32	s14, s14, s1
     f2c:	ee26 3a25 	vmul.f32	s6, s12, s11
     f30:	ee65 3ae6 	vnmul.f32	s7, s11, s13
     f34:	ee27 4a85 	vmul.f32	s8, s15, s10
     f38:	ee65 4a47 	vnmul.f32	s9, s10, s14
     f3c:	eee6 3a05 	vfma.f32	s7, s12, s10
     f40:	eea6 3a85 	vfma.f32	s6, s13, s10
     f44:	eea7 4a25 	vfma.f32	s8, s14, s11
     f48:	eee7 4aa5 	vfma.f32	s9, s15, s11
     f4c:	ed05 3a06 	vstr	s6, [r5, #-24]	; 0xffffffe8
     f50:	ed45 3a05 	vstr	s7, [r5, #-20]	; 0xffffffec
     f54:	ed04 4a05 	vstr	s8, [r4, #-20]	; 0xffffffec
     f58:	ed44 4a06 	vstr	s9, [r4, #-24]	; 0xffffffe8
     f5c:	f47f af6c 	bne.w	e38 <arm_cfft_radix8by2_f32+0x3c>
     f60:	b289      	uxth	r1, r1
     f62:	2302      	movs	r3, #2
     f64:	9101      	str	r1, [sp, #4]
     f66:	f000 fb37 	bl	15d8 <arm_radix8_butterfly_f32>
     f6a:	9901      	ldr	r1, [sp, #4]
     f6c:	687a      	ldr	r2, [r7, #4]
     f6e:	4640      	mov	r0, r8
     f70:	2302      	movs	r3, #2
     f72:	b002      	add	sp, #8
     f74:	ecbd 8b08 	vpop	{d8-d11}
     f78:	e8bd 41f0 	ldmia.w	sp!, {r4, r5, r6, r7, r8, lr}
     f7c:	f000 bb2c 	b.w	15d8 <arm_radix8_butterfly_f32>

00000f80 <arm_cfft_radix8by4_f32>:
     f80:	8803      	ldrh	r3, [r0, #0]
     f82:	ed91 7a00 	vldr	s14, [r1]
     f86:	edd1 7a01 	vldr	s15, [r1, #4]
     f8a:	e92d 4ff0 	stmdb	sp!, {r4, r5, r6, r7, r8, r9, sl, fp, lr}
     f8e:	085b      	lsrs	r3, r3, #1
     f90:	eb01 02c3 	add.w	r2, r1, r3, lsl #3
     f94:	edd2 5a00 	vldr	s11, [r2]
     f98:	6847      	ldr	r7, [r0, #4]
     f9a:	ed92 4a01 	vldr	s8, [r2, #4]
     f9e:	eb02 0883 	add.w	r8, r2, r3, lsl #2
     fa2:	ed2d 8b0e 	vpush	{d8-d14}
     fa6:	ed98 5a00 	vldr	s10, [r8]
     faa:	edd8 2a01 	vldr	s5, [r8, #4]
     fae:	ee37 6a25 	vadd.f32	s12, s14, s11
     fb2:	eb01 0583 	add.w	r5, r1, r3, lsl #2
     fb6:	edd5 4a00 	vldr	s9, [r5]
     fba:	ed95 3a01 	vldr	s6, [r5, #4]
     fbe:	ee75 6a06 	vadd.f32	s13, s10, s12
     fc2:	b08f      	sub	sp, #60	; 0x3c
     fc4:	ee76 6aa4 	vadd.f32	s13, s13, s9
     fc8:	900d      	str	r0, [sp, #52]	; 0x34
     fca:	4608      	mov	r0, r1
     fcc:	edc0 6a00 	vstr	s13, [r0]
     fd0:	ee37 7a65 	vsub.f32	s14, s14, s11
     fd4:	ee77 6a84 	vadd.f32	s13, s15, s8
     fd8:	edd8 5a01 	vldr	s11, [r8, #4]
     fdc:	ed95 2a01 	vldr	s4, [r5, #4]
     fe0:	920a      	str	r2, [sp, #40]	; 0x28
     fe2:	ee77 7ac4 	vsub.f32	s15, s15, s8
     fe6:	ee36 6a64 	vsub.f32	s12, s12, s9
     fea:	ee76 5aa5 	vadd.f32	s11, s13, s11
     fee:	ee73 3a07 	vadd.f32	s7, s6, s14
     ff2:	ee35 4a27 	vadd.f32	s8, s10, s15
     ff6:	4614      	mov	r4, r2
     ff8:	ee76 6ac3 	vsub.f32	s13, s13, s6
     ffc:	3408      	adds	r4, #8
     ffe:	462e      	mov	r6, r5
    1000:	ee74 7aa7 	vadd.f32	s15, s9, s15
    1004:	3108      	adds	r1, #8
    1006:	3608      	adds	r6, #8
    1008:	9406      	str	r4, [sp, #24]
    100a:	ee32 7a87 	vadd.f32	s14, s5, s14
    100e:	ee36 6a45 	vsub.f32	s12, s12, s10
    1012:	ee76 6ae2 	vsub.f32	s13, s13, s5
    1016:	ee75 5a82 	vadd.f32	s11, s11, s4
    101a:	ee73 3ae2 	vsub.f32	s7, s7, s5
    101e:	ee74 4a64 	vsub.f32	s9, s8, s9
    1022:	463c      	mov	r4, r7
    1024:	9103      	str	r1, [sp, #12]
    1026:	9607      	str	r6, [sp, #28]
    1028:	4611      	mov	r1, r2
    102a:	f107 0608 	add.w	r6, r7, #8
    102e:	085a      	lsrs	r2, r3, #1
    1030:	3418      	adds	r4, #24
    1032:	edc0 5a01 	vstr	s11, [r0, #4]
    1036:	920c      	str	r2, [sp, #48]	; 0x30
    1038:	edc5 3a00 	vstr	s7, [r5]
    103c:	edc5 4a01 	vstr	s9, [r5, #4]
    1040:	9602      	str	r6, [sp, #8]
    1042:	ed81 6a00 	vstr	s12, [r1]
    1046:	edc1 6a01 	vstr	s13, [r1, #4]
    104a:	9401      	str	r4, [sp, #4]
    104c:	ee37 7a43 	vsub.f32	s14, s14, s6
    1050:	ee77 7ac5 	vsub.f32	s15, s15, s10
    1054:	3a02      	subs	r2, #2
    1056:	463e      	mov	r6, r7
    1058:	460c      	mov	r4, r1
    105a:	4641      	mov	r1, r8
    105c:	3610      	adds	r6, #16
    105e:	3108      	adds	r1, #8
    1060:	0852      	lsrs	r2, r2, #1
    1062:	970b      	str	r7, [sp, #44]	; 0x2c
    1064:	9509      	str	r5, [sp, #36]	; 0x24
    1066:	9604      	str	r6, [sp, #16]
    1068:	ed88 7a00 	vstr	s14, [r8]
    106c:	9105      	str	r1, [sp, #20]
    106e:	edc8 7a01 	vstr	s15, [r8, #4]
    1072:	9208      	str	r2, [sp, #32]
    1074:	f000 812f 	beq.w	12d6 <arm_cfft_radix8by4_f32+0x356>
    1078:	4639      	mov	r1, r7
    107a:	009b      	lsls	r3, r3, #2
    107c:	4622      	mov	r2, r4
    107e:	3b0c      	subs	r3, #12
    1080:	f101 0930 	add.w	r9, r1, #48	; 0x30
    1084:	9908      	ldr	r1, [sp, #32]
    1086:	f1a5 0c0c 	sub.w	ip, r5, #12
    108a:	46b3      	mov	fp, r6
    108c:	f107 0a20 	add.w	sl, r7, #32
    1090:	4443      	add	r3, r8
    1092:	f102 0710 	add.w	r7, r2, #16
    1096:	f100 0e10 	add.w	lr, r0, #16
    109a:	3510      	adds	r5, #16
    109c:	3c0c      	subs	r4, #12
    109e:	f1a8 060c 	sub.w	r6, r8, #12
    10a2:	f108 0210 	add.w	r2, r8, #16
    10a6:	ed12 5a02 	vldr	s10, [r2, #-8]
    10aa:	ed57 6a02 	vldr	s13, [r7, #-8]
    10ae:	ed15 0a02 	vldr	s0, [r5, #-8]
    10b2:	ed5e 5a02 	vldr	s11, [lr, #-8]
    10b6:	ed17 7a01 	vldr	s14, [r7, #-4]
    10ba:	ed52 0a01 	vldr	s1, [r2, #-4]
    10be:	ed15 9a01 	vldr	s18, [r5, #-4]
    10c2:	ed5e 4a01 	vldr	s9, [lr, #-4]
    10c6:	ee75 3aa6 	vadd.f32	s7, s11, s13
    10ca:	ee70 7a05 	vadd.f32	s15, s0, s10
    10ce:	ee75 5ae6 	vsub.f32	s11, s11, s13
    10d2:	ee77 7aa3 	vadd.f32	s15, s15, s7
    10d6:	ee34 4a87 	vadd.f32	s8, s9, s14
    10da:	ed4e 7a02 	vstr	s15, [lr, #-8]
    10de:	ed52 6a01 	vldr	s13, [r2, #-4]
    10e2:	ed55 7a01 	vldr	s15, [r5, #-4]
    10e6:	ee77 7aa6 	vadd.f32	s15, s15, s13
    10ea:	ee74 4ac7 	vsub.f32	s9, s9, s14
    10ee:	ee77 7a84 	vadd.f32	s15, s15, s8
    10f2:	ee75 dae0 	vsub.f32	s27, s11, s1
    10f6:	ed4e 7a01 	vstr	s15, [lr, #-4]
    10fa:	ed96 7a02 	vldr	s14, [r6, #8]
    10fe:	ed93 ba02 	vldr	s22, [r3, #8]
    1102:	ed9c 1a02 	vldr	s2, [ip, #8]
    1106:	edd4 7a02 	vldr	s15, [r4, #8]
    110a:	edd6 1a01 	vldr	s3, [r6, #4]
    110e:	edd3 9a01 	vldr	s19, [r3, #4]
    1112:	edd4 8a01 	vldr	s17, [r4, #4]
    1116:	ed9c 8a01 	vldr	s16, [ip, #4]
    111a:	ee71 aa07 	vadd.f32	s21, s2, s14
    111e:	ee37 aa8b 	vadd.f32	s20, s15, s22
    1122:	ee38 3a21 	vadd.f32	s6, s16, s3
    1126:	ee7a 2a8a 	vadd.f32	s5, s21, s20
    112a:	ee37 6acb 	vsub.f32	s12, s15, s22
    112e:	edcc 2a02 	vstr	s5, [ip, #8]
    1132:	edd3 2a01 	vldr	s5, [r3, #4]
    1136:	ed94 2a01 	vldr	s4, [r4, #4]
    113a:	ee32 2a22 	vadd.f32	s4, s4, s5
    113e:	ee71 2a29 	vadd.f32	s5, s2, s19
    1142:	ee32 2a03 	vadd.f32	s4, s4, s6
    1146:	ee72 2ac7 	vsub.f32	s5, s5, s14
    114a:	ed8c 2a01 	vstr	s4, [ip, #4]
    114e:	ee74 6ac0 	vsub.f32	s13, s9, s0
    1152:	ee36 ca61 	vsub.f32	s24, s12, s3
    1156:	ed5b ba01 	vldr	s23, [fp, #-4]
    115a:	ed5b ca02 	vldr	s25, [fp, #-8]
    115e:	ee72 2ae8 	vsub.f32	s5, s5, s17
    1162:	ee7d da89 	vadd.f32	s27, s27, s18
    1166:	ee76 6a85 	vadd.f32	s13, s13, s10
    116a:	ee3c ca08 	vadd.f32	s24, s24, s16
    116e:	ee22 eaac 	vmul.f32	s28, s5, s25
    1172:	ee2b daed 	vnmul.f32	s26, s23, s27
    1176:	ee66 eaab 	vmul.f32	s29, s13, s23
    117a:	ee2c 2acc 	vnmul.f32	s4, s25, s24
    117e:	eea6 daac 	vfma.f32	s26, s13, s25
    1182:	3901      	subs	r1, #1
    1184:	f10e 0e08 	add.w	lr, lr, #8
    1188:	eef0 6a4e 	vmov.f32	s13, s28
    118c:	eea2 2aab 	vfma.f32	s4, s5, s23
    1190:	f1ac 0c08 	sub.w	ip, ip, #8
    1194:	f10b 0b08 	add.w	fp, fp, #8
    1198:	eeec 6a2b 	vfma.f32	s13, s24, s23
    119c:	f105 0508 	add.w	r5, r5, #8
    11a0:	f1a4 0408 	sub.w	r4, r4, #8
    11a4:	eeed eaac 	vfma.f32	s29, s27, s25
    11a8:	f10a 0a10 	add.w	sl, sl, #16
    11ac:	f107 0708 	add.w	r7, r7, #8
    11b0:	ee7a 7ae7 	vsub.f32	s15, s21, s15
    11b4:	ee33 3a68 	vsub.f32	s6, s6, s17
    11b8:	ed05 da03 	vstr	s26, [r5, #-12]
    11bc:	ed45 ea04 	vstr	s29, [r5, #-16]
    11c0:	ee73 3ac0 	vsub.f32	s7, s7, s0
    11c4:	ed84 2a04 	vstr	s4, [r4, #16]
    11c8:	edc4 6a03 	vstr	s13, [r4, #12]
    11cc:	ee34 4a49 	vsub.f32	s8, s8, s18
    11d0:	ed5a 6a07 	vldr	s13, [sl, #-28]	; 0xffffffe4
    11d4:	ed5a 2a08 	vldr	s5, [sl, #-32]	; 0xffffffe0
    11d8:	ee33 3a69 	vsub.f32	s6, s6, s19
    11dc:	ee77 7acb 	vsub.f32	s15, s15, s22
    11e0:	ee73 3ac5 	vsub.f32	s7, s7, s10
    11e4:	ee34 4a60 	vsub.f32	s8, s8, s1
    11e8:	ee67 7aa6 	vmul.f32	s15, s15, s13
    11ec:	ee26 2ac3 	vnmul.f32	s4, s13, s6
    11f0:	ee3a aa6a 	vsub.f32	s20, s20, s21
    11f4:	ee64 aa26 	vmul.f32	s21, s8, s13
    11f8:	ee66 6ae3 	vnmul.f32	s13, s13, s7
    11fc:	eee3 7a62 	vfms.f32	s15, s6, s5
    1200:	f1a6 0608 	sub.w	r6, r6, #8
    1204:	f109 0918 	add.w	r9, r9, #24
    1208:	eeb0 3a42 	vmov.f32	s6, s4
    120c:	eee4 6a22 	vfma.f32	s13, s8, s5
    1210:	f102 0208 	add.w	r2, r2, #8
    1214:	f1a3 0308 	sub.w	r3, r3, #8
    1218:	eeaa 3a22 	vfma.f32	s6, s20, s5
    121c:	eee3 aaa2 	vfma.f32	s21, s7, s5
    1220:	ee37 7a29 	vadd.f32	s14, s14, s19
    1224:	ee34 5ac5 	vsub.f32	s10, s9, s10
    1228:	ee75 5ac9 	vsub.f32	s11, s11, s18
    122c:	ee36 6a48 	vsub.f32	s12, s12, s16
    1230:	ee37 7a68 	vsub.f32	s14, s14, s17
    1234:	ed47 aa04 	vstr	s21, [r7, #-16]
    1238:	ed47 6a03 	vstr	s13, [r7, #-12]
    123c:	ed86 3a04 	vstr	s6, [r6, #16]
    1240:	edc6 7a03 	vstr	s15, [r6, #12]
    1244:	ee75 6aa0 	vadd.f32	s13, s11, s1
    1248:	ee76 7a21 	vadd.f32	s15, s12, s3
    124c:	ed59 5a0c 	vldr	s11, [r9, #-48]	; 0xffffffd0
    1250:	ed19 6a0b 	vldr	s12, [r9, #-44]	; 0xffffffd4
    1254:	ee35 5a00 	vadd.f32	s10, s10, s0
    1258:	ee37 7a41 	vsub.f32	s14, s14, s2
    125c:	ee65 3a06 	vmul.f32	s7, s10, s12
    1260:	ee27 4a25 	vmul.f32	s8, s14, s11
    1264:	ee65 4ae7 	vnmul.f32	s9, s11, s15
    1268:	eee6 3aa5 	vfma.f32	s7, s13, s11
    126c:	ee26 3a66 	vnmul.f32	s6, s12, s13
    1270:	eef0 6a44 	vmov.f32	s13, s8
    1274:	eee7 6a86 	vfma.f32	s13, s15, s12
    1278:	eef0 7a64 	vmov.f32	s15, s9
    127c:	eea5 3a25 	vfma.f32	s6, s10, s11
    1280:	eee7 7a06 	vfma.f32	s15, s14, s12
    1284:	ed02 3a03 	vstr	s6, [r2, #-12]
    1288:	ed42 3a04 	vstr	s7, [r2, #-16]
    128c:	edc3 6a03 	vstr	s13, [r3, #12]
    1290:	edc3 7a04 	vstr	s15, [r3, #16]
    1294:	f47f af07 	bne.w	10a6 <arm_cfft_radix8by4_f32+0x126>
    1298:	9a08      	ldr	r2, [sp, #32]
    129a:	9903      	ldr	r1, [sp, #12]
    129c:	eb01 01c2 	add.w	r1, r1, r2, lsl #3
    12a0:	9103      	str	r1, [sp, #12]
    12a2:	9902      	ldr	r1, [sp, #8]
    12a4:	eb01 01c2 	add.w	r1, r1, r2, lsl #3
    12a8:	9102      	str	r1, [sp, #8]
    12aa:	9907      	ldr	r1, [sp, #28]
    12ac:	eb01 01c2 	add.w	r1, r1, r2, lsl #3
    12b0:	9107      	str	r1, [sp, #28]
    12b2:	9904      	ldr	r1, [sp, #16]
    12b4:	eb01 1102 	add.w	r1, r1, r2, lsl #4
    12b8:	9104      	str	r1, [sp, #16]
    12ba:	9906      	ldr	r1, [sp, #24]
    12bc:	eb01 01c2 	add.w	r1, r1, r2, lsl #3
    12c0:	9106      	str	r1, [sp, #24]
    12c2:	9905      	ldr	r1, [sp, #20]
    12c4:	eb02 0342 	add.w	r3, r2, r2, lsl #1
    12c8:	eb01 02c2 	add.w	r2, r1, r2, lsl #3
    12cc:	9205      	str	r2, [sp, #20]
    12ce:	9a01      	ldr	r2, [sp, #4]
    12d0:	eb02 03c3 	add.w	r3, r2, r3, lsl #3
    12d4:	9301      	str	r3, [sp, #4]
    12d6:	9b07      	ldr	r3, [sp, #28]
    12d8:	9903      	ldr	r1, [sp, #12]
    12da:	9e06      	ldr	r6, [sp, #24]
    12dc:	9d05      	ldr	r5, [sp, #20]
    12de:	edd3 4a00 	vldr	s9, [r3]
    12e2:	edd5 7a00 	vldr	s15, [r5]
    12e6:	edd1 3a00 	vldr	s7, [r1]
    12ea:	edd6 6a00 	vldr	s13, [r6]
    12ee:	edd3 2a01 	vldr	s5, [r3, #4]
    12f2:	ed95 3a01 	vldr	s6, [r5, #4]
    12f6:	ed96 4a01 	vldr	s8, [r6, #4]
    12fa:	ed91 7a01 	vldr	s14, [r1, #4]
    12fe:	9a02      	ldr	r2, [sp, #8]
    1300:	9c01      	ldr	r4, [sp, #4]
    1302:	ee34 5aa7 	vadd.f32	s10, s9, s15
    1306:	ee73 5aa6 	vadd.f32	s11, s7, s13
    130a:	ee73 6ae6 	vsub.f32	s13, s7, s13
    130e:	ee35 5a25 	vadd.f32	s10, s10, s11
    1312:	ee37 6a04 	vadd.f32	s12, s14, s8
    1316:	ed81 5a00 	vstr	s10, [r1]
    131a:	edd5 3a01 	vldr	s7, [r5, #4]
    131e:	ed93 5a01 	vldr	s10, [r3, #4]
    1322:	ee35 5a23 	vadd.f32	s10, s10, s7
    1326:	ee37 7a44 	vsub.f32	s14, s14, s8
    132a:	ee35 5a06 	vadd.f32	s10, s10, s12
    132e:	ee37 4a64 	vsub.f32	s8, s14, s9
    1332:	ee76 3ac3 	vsub.f32	s7, s13, s6
    1336:	ed81 5a01 	vstr	s10, [r1, #4]
    133a:	ed92 5a01 	vldr	s10, [r2, #4]
    133e:	edd2 1a00 	vldr	s3, [r2]
    1342:	f8bd 1030 	ldrh.w	r1, [sp, #48]	; 0x30
    1346:	9a0b      	ldr	r2, [sp, #44]	; 0x2c
    1348:	9102      	str	r1, [sp, #8]
    134a:	ee73 3aa2 	vadd.f32	s7, s7, s5
    134e:	ee34 4a27 	vadd.f32	s8, s8, s15
    1352:	ee75 5ae4 	vsub.f32	s11, s11, s9
    1356:	ee24 2a05 	vmul.f32	s4, s8, s10
    135a:	ee25 5a63 	vnmul.f32	s10, s10, s7
    135e:	eea3 2aa1 	vfma.f32	s4, s7, s3
    1362:	eea4 5a21 	vfma.f32	s10, s8, s3
    1366:	ed83 2a00 	vstr	s4, [r3]
    136a:	ed83 5a01 	vstr	s10, [r3, #4]
    136e:	ee36 6a62 	vsub.f32	s12, s12, s5
    1372:	9b04      	ldr	r3, [sp, #16]
    1374:	ee36 6a43 	vsub.f32	s12, s12, s6
    1378:	ed93 5a01 	vldr	s10, [r3, #4]
    137c:	edd3 3a00 	vldr	s7, [r3]
    1380:	ee75 5ae7 	vsub.f32	s11, s11, s15
    1384:	ee26 4a05 	vmul.f32	s8, s12, s10
    1388:	ee25 5a65 	vnmul.f32	s10, s10, s11
    138c:	eea5 4aa3 	vfma.f32	s8, s11, s7
    1390:	2304      	movs	r3, #4
    1392:	eea6 5a23 	vfma.f32	s10, s12, s7
    1396:	ee77 7a67 	vsub.f32	s15, s14, s15
    139a:	ee36 7ae2 	vsub.f32	s14, s13, s5
    139e:	ed86 4a00 	vstr	s8, [r6]
    13a2:	ed86 5a01 	vstr	s10, [r6, #4]
    13a6:	ee77 7aa4 	vadd.f32	s15, s15, s9
    13aa:	ee37 7a03 	vadd.f32	s14, s14, s6
    13ae:	edd4 6a01 	vldr	s13, [r4, #4]
    13b2:	edd4 5a00 	vldr	s11, [r4]
    13b6:	ee27 6aa6 	vmul.f32	s12, s15, s13
    13ba:	ee66 6ac7 	vnmul.f32	s13, s13, s14
    13be:	eea7 6a25 	vfma.f32	s12, s14, s11
    13c2:	eee7 6aa5 	vfma.f32	s13, s15, s11
    13c6:	ed85 6a00 	vstr	s12, [r5]
    13ca:	edc5 6a01 	vstr	s13, [r5, #4]
    13ce:	f000 f903 	bl	15d8 <arm_radix8_butterfly_f32>
    13d2:	9c0d      	ldr	r4, [sp, #52]	; 0x34
    13d4:	9902      	ldr	r1, [sp, #8]
    13d6:	9809      	ldr	r0, [sp, #36]	; 0x24
    13d8:	6862      	ldr	r2, [r4, #4]
    13da:	9101      	str	r1, [sp, #4]
    13dc:	2304      	movs	r3, #4
    13de:	f000 f8fb 	bl	15d8 <arm_radix8_butterfly_f32>
    13e2:	980a      	ldr	r0, [sp, #40]	; 0x28
    13e4:	9901      	ldr	r1, [sp, #4]
    13e6:	6862      	ldr	r2, [r4, #4]
    13e8:	2304      	movs	r3, #4
    13ea:	f000 f8f5 	bl	15d8 <arm_radix8_butterfly_f32>
    13ee:	9901      	ldr	r1, [sp, #4]
    13f0:	6862      	ldr	r2, [r4, #4]
    13f2:	4640      	mov	r0, r8
    13f4:	2304      	movs	r3, #4
    13f6:	b00f      	add	sp, #60	; 0x3c
    13f8:	ecbd 8b0e 	vpop	{d8-d14}
    13fc:	e8bd 4ff0 	ldmia.w	sp!, {r4, r5, r6, r7, r8, r9, sl, fp, lr}
    1400:	f000 b8ea 	b.w	15d8 <arm_radix8_butterfly_f32>

00001404 <arm_cfft_f32>:
    1404:	2a01      	cmp	r2, #1
    1406:	e92d 43f8 	stmdb	sp!, {r3, r4, r5, r6, r7, r8, r9, lr}
    140a:	8805      	ldrh	r5, [r0, #0]
    140c:	4607      	mov	r7, r0
    140e:	4690      	mov	r8, r2
    1410:	460c      	mov	r4, r1
    1412:	4699      	mov	r9, r3
    1414:	d05c      	beq.n	14d0 <arm_cfft_f32+0xcc>
    1416:	f5b5 7f80 	cmp.w	r5, #256	; 0x100
    141a:	d054      	beq.n	14c6 <arm_cfft_f32+0xc2>
    141c:	d810      	bhi.n	1440 <arm_cfft_f32+0x3c>
    141e:	2d40      	cmp	r5, #64	; 0x40
    1420:	d015      	beq.n	144e <arm_cfft_f32+0x4a>
    1422:	d94c      	bls.n	14be <arm_cfft_f32+0xba>
    1424:	2d80      	cmp	r5, #128	; 0x80
    1426:	d103      	bne.n	1430 <arm_cfft_f32+0x2c>
    1428:	4621      	mov	r1, r4
    142a:	4638      	mov	r0, r7
    142c:	f7ff fce6 	bl	dfc <arm_cfft_radix8by2_f32>
    1430:	f1b9 0f00 	cmp.w	r9, #0
    1434:	d114      	bne.n	1460 <arm_cfft_f32+0x5c>
    1436:	f1b8 0f01 	cmp.w	r8, #1
    143a:	d019      	beq.n	1470 <arm_cfft_f32+0x6c>
    143c:	e8bd 83f8 	ldmia.w	sp!, {r3, r4, r5, r6, r7, r8, r9, pc}
    1440:	f5b5 6f00 	cmp.w	r5, #2048	; 0x800
    1444:	d03f      	beq.n	14c6 <arm_cfft_f32+0xc2>
    1446:	d933      	bls.n	14b0 <arm_cfft_f32+0xac>
    1448:	f5b5 5f80 	cmp.w	r5, #4096	; 0x1000
    144c:	d1f0      	bne.n	1430 <arm_cfft_f32+0x2c>
    144e:	687a      	ldr	r2, [r7, #4]
    1450:	2301      	movs	r3, #1
    1452:	4629      	mov	r1, r5
    1454:	4620      	mov	r0, r4
    1456:	f000 f8bf 	bl	15d8 <arm_radix8_butterfly_f32>
    145a:	f1b9 0f00 	cmp.w	r9, #0
    145e:	d0ea      	beq.n	1436 <arm_cfft_f32+0x32>
    1460:	68ba      	ldr	r2, [r7, #8]
    1462:	89b9      	ldrh	r1, [r7, #12]
    1464:	4620      	mov	r0, r4
    1466:	f000 f897 	bl	1598 <arm_bitreversal_32>
    146a:	f1b8 0f01 	cmp.w	r8, #1
    146e:	d1e5      	bne.n	143c <arm_cfft_f32+0x38>
    1470:	ee07 5a90 	vmov	s15, r5
    1474:	eef8 7a67 	vcvt.f32.u32	s15, s15
    1478:	eeb7 7a00 	vmov.f32	s14, #112	; 0x3f800000  1.0
    147c:	eec7 6a27 	vdiv.f32	s13, s14, s15
    1480:	2d00      	cmp	r5, #0
    1482:	d0db      	beq.n	143c <arm_cfft_f32+0x38>
    1484:	f104 0108 	add.w	r1, r4, #8
    1488:	2300      	movs	r3, #0
    148a:	3301      	adds	r3, #1
    148c:	429d      	cmp	r5, r3
    148e:	f101 0108 	add.w	r1, r1, #8
    1492:	ed11 7a04 	vldr	s14, [r1, #-16]
    1496:	ed51 7a03 	vldr	s15, [r1, #-12]
    149a:	ee27 7a26 	vmul.f32	s14, s14, s13
    149e:	ee67 7ae6 	vnmul.f32	s15, s15, s13
    14a2:	ed01 7a04 	vstr	s14, [r1, #-16]
    14a6:	ed41 7a03 	vstr	s15, [r1, #-12]
    14aa:	d1ee      	bne.n	148a <arm_cfft_f32+0x86>
    14ac:	e8bd 83f8 	ldmia.w	sp!, {r3, r4, r5, r6, r7, r8, r9, pc}
    14b0:	f5b5 7f00 	cmp.w	r5, #512	; 0x200
    14b4:	d0cb      	beq.n	144e <arm_cfft_f32+0x4a>
    14b6:	f5b5 6f80 	cmp.w	r5, #1024	; 0x400
    14ba:	d0b5      	beq.n	1428 <arm_cfft_f32+0x24>
    14bc:	e7b8      	b.n	1430 <arm_cfft_f32+0x2c>
    14be:	2d10      	cmp	r5, #16
    14c0:	d0b2      	beq.n	1428 <arm_cfft_f32+0x24>
    14c2:	2d20      	cmp	r5, #32
    14c4:	d1b4      	bne.n	1430 <arm_cfft_f32+0x2c>
    14c6:	4621      	mov	r1, r4
    14c8:	4638      	mov	r0, r7
    14ca:	f7ff fd59 	bl	f80 <arm_cfft_radix8by4_f32>
    14ce:	e7af      	b.n	1430 <arm_cfft_f32+0x2c>
    14d0:	b16d      	cbz	r5, 14ee <arm_cfft_f32+0xea>
    14d2:	310c      	adds	r1, #12
    14d4:	2600      	movs	r6, #0
    14d6:	ed51 7a02 	vldr	s15, [r1, #-8]
    14da:	3601      	adds	r6, #1
    14dc:	eef1 7a67 	vneg.f32	s15, s15
    14e0:	42b5      	cmp	r5, r6
    14e2:	ed41 7a02 	vstr	s15, [r1, #-8]
    14e6:	f101 0108 	add.w	r1, r1, #8
    14ea:	d1f4      	bne.n	14d6 <arm_cfft_f32+0xd2>
    14ec:	e793      	b.n	1416 <arm_cfft_f32+0x12>
    14ee:	2b00      	cmp	r3, #0
    14f0:	d0a4      	beq.n	143c <arm_cfft_f32+0x38>
    14f2:	e7b5      	b.n	1460 <arm_cfft_f32+0x5c>

000014f4 <arm_cfft_init_f32>:
    14f4:	4603      	mov	r3, r0
    14f6:	f5b1 7f80 	cmp.w	r1, #256	; 0x100
    14fa:	f04f 0000 	mov.w	r0, #0
    14fe:	b410      	push	{r4}
    1500:	8019      	strh	r1, [r3, #0]
    1502:	6058      	str	r0, [r3, #4]
    1504:	d033      	beq.n	156e <arm_cfft_init_f32+0x7a>
    1506:	d918      	bls.n	153a <arm_cfft_init_f32+0x46>
    1508:	f5b1 6f00 	cmp.w	r1, #2048	; 0x800
    150c:	d027      	beq.n	155e <arm_cfft_init_f32+0x6a>
    150e:	d90c      	bls.n	152a <arm_cfft_init_f32+0x36>
    1510:	f5b1 5f80 	cmp.w	r1, #4096	; 0x1000
    1514:	d11e      	bne.n	1554 <arm_cfft_init_f32+0x60>
    1516:	4a17      	ldr	r2, [pc, #92]	; (1574 <arm_cfft_init_f32+0x80>)
    1518:	8994      	ldrh	r4, [r2, #12]
    151a:	819c      	strh	r4, [r3, #12]
    151c:	e9d2 2101 	ldrd	r2, r1, [r2, #4]
    1520:	e9c3 2101 	strd	r2, r1, [r3, #4]
    1524:	f85d 4b04 	ldr.w	r4, [sp], #4
    1528:	4770      	bx	lr
    152a:	f5b1 7f00 	cmp.w	r1, #512	; 0x200
    152e:	d018      	beq.n	1562 <arm_cfft_init_f32+0x6e>
    1530:	f5b1 6f80 	cmp.w	r1, #1024	; 0x400
    1534:	d10e      	bne.n	1554 <arm_cfft_init_f32+0x60>
    1536:	4a10      	ldr	r2, [pc, #64]	; (1578 <arm_cfft_init_f32+0x84>)
    1538:	e7ee      	b.n	1518 <arm_cfft_init_f32+0x24>
    153a:	2940      	cmp	r1, #64	; 0x40
    153c:	d013      	beq.n	1566 <arm_cfft_init_f32+0x72>
    153e:	d903      	bls.n	1548 <arm_cfft_init_f32+0x54>
    1540:	2980      	cmp	r1, #128	; 0x80
    1542:	d107      	bne.n	1554 <arm_cfft_init_f32+0x60>
    1544:	4a0d      	ldr	r2, [pc, #52]	; (157c <arm_cfft_init_f32+0x88>)
    1546:	e7e7      	b.n	1518 <arm_cfft_init_f32+0x24>
    1548:	2910      	cmp	r1, #16
    154a:	d00e      	beq.n	156a <arm_cfft_init_f32+0x76>
    154c:	2920      	cmp	r1, #32
    154e:	d101      	bne.n	1554 <arm_cfft_init_f32+0x60>
    1550:	4a0b      	ldr	r2, [pc, #44]	; (1580 <arm_cfft_init_f32+0x8c>)
    1552:	e7e1      	b.n	1518 <arm_cfft_init_f32+0x24>
    1554:	f04f 30ff 	mov.w	r0, #4294967295	; 0xffffffff
    1558:	f85d 4b04 	ldr.w	r4, [sp], #4
    155c:	4770      	bx	lr
    155e:	4a09      	ldr	r2, [pc, #36]	; (1584 <arm_cfft_init_f32+0x90>)
    1560:	e7da      	b.n	1518 <arm_cfft_init_f32+0x24>
    1562:	4a09      	ldr	r2, [pc, #36]	; (1588 <arm_cfft_init_f32+0x94>)
    1564:	e7d8      	b.n	1518 <arm_cfft_init_f32+0x24>
    1566:	4a09      	ldr	r2, [pc, #36]	; (158c <arm_cfft_init_f32+0x98>)
    1568:	e7d6      	b.n	1518 <arm_cfft_init_f32+0x24>
    156a:	4a09      	ldr	r2, [pc, #36]	; (1590 <arm_cfft_init_f32+0x9c>)
    156c:	e7d4      	b.n	1518 <arm_cfft_init_f32+0x24>
    156e:	4a09      	ldr	r2, [pc, #36]	; (1594 <arm_cfft_init_f32+0xa0>)
    1570:	e7d2      	b.n	1518 <arm_cfft_init_f32+0x24>
    1572:	bf00      	nop
    1574:	0001ff04 	.word	0x0001ff04
    1578:	0001fea4 	.word	0x0001fea4
    157c:	0001feb4 	.word	0x0001feb4
    1580:	0001fef4 	.word	0x0001fef4
    1584:	0001fed4 	.word	0x0001fed4
    1588:	0001ff14 	.word	0x0001ff14
    158c:	0001ff24 	.word	0x0001ff24
    1590:	0001fec4 	.word	0x0001fec4
    1594:	0001fee4 	.word	0x0001fee4

00001598 <arm_bitreversal_32>:
    1598:	b1e9      	cbz	r1, 15d6 <arm_bitreversal_32+0x3e>
    159a:	b5f0      	push	{r4, r5, r6, r7, lr}
    159c:	2500      	movs	r5, #0
    159e:	f102 0e02 	add.w	lr, r2, #2
    15a2:	f83e 4015 	ldrh.w	r4, [lr, r5, lsl #1]
    15a6:	f832 3015 	ldrh.w	r3, [r2, r5, lsl #1]
    15aa:	08a4      	lsrs	r4, r4, #2
    15ac:	089b      	lsrs	r3, r3, #2
    15ae:	f850 6024 	ldr.w	r6, [r0, r4, lsl #2]
    15b2:	f850 c023 	ldr.w	ip, [r0, r3, lsl #2]
    15b6:	f840 6023 	str.w	r6, [r0, r3, lsl #2]
    15ba:	00a6      	lsls	r6, r4, #2
    15bc:	009b      	lsls	r3, r3, #2
    15be:	f840 c024 	str.w	ip, [r0, r4, lsl #2]
    15c2:	3304      	adds	r3, #4
    15c4:	1d34      	adds	r4, r6, #4
    15c6:	3502      	adds	r5, #2
    15c8:	58c6      	ldr	r6, [r0, r3]
    15ca:	5907      	ldr	r7, [r0, r4]
    15cc:	50c7      	str	r7, [r0, r3]
    15ce:	428d      	cmp	r5, r1
    15d0:	5106      	str	r6, [r0, r4]
    15d2:	d3e6      	bcc.n	15a2 <arm_bitreversal_32+0xa>
    15d4:	bdf0      	pop	{r4, r5, r6, r7, pc}
    15d6:	4770      	bx	lr

000015d8 <arm_radix8_butterfly_f32>:
    15d8:	e92d 4ff0 	stmdb	sp!, {r4, r5, r6, r7, r8, r9, sl, fp, lr}
    15dc:	ed2d 8b10 	vpush	{d8-d15}
    15e0:	b097      	sub	sp, #92	; 0x5c
    15e2:	e9cd 3212 	strd	r3, r2, [sp, #72]	; 0x48
    15e6:	4603      	mov	r3, r0
    15e8:	3304      	adds	r3, #4
    15ea:	eddf cacb 	vldr	s25, [pc, #812]	; 1918 <arm_radix8_butterfly_f32+0x340>
    15ee:	9014      	str	r0, [sp, #80]	; 0x50
    15f0:	468a      	mov	sl, r1
    15f2:	468b      	mov	fp, r1
    15f4:	9315      	str	r3, [sp, #84]	; 0x54
    15f6:	9c14      	ldr	r4, [sp, #80]	; 0x50
    15f8:	ea4f 06db 	mov.w	r6, fp, lsr #3
    15fc:	eb04 1246 	add.w	r2, r4, r6, lsl #5
    1600:	eb02 1006 	add.w	r0, r2, r6, lsl #4
    1604:	0131      	lsls	r1, r6, #4
    1606:	eba6 0386 	sub.w	r3, r6, r6, lsl #2
    160a:	ea4f 08c6 	mov.w	r8, r6, lsl #3
    160e:	eb06 0546 	add.w	r5, r6, r6, lsl #1
    1612:	e9cd 0100 	strd	r0, r1, [sp]
    1616:	eb00 03c3 	add.w	r3, r0, r3, lsl #3
    161a:	3104      	adds	r1, #4
    161c:	f108 0004 	add.w	r0, r8, #4
    1620:	9611      	str	r6, [sp, #68]	; 0x44
    1622:	4420      	add	r0, r4
    1624:	4421      	add	r1, r4
    1626:	012c      	lsls	r4, r5, #4
    1628:	ebc6 0cc6 	rsb	ip, r6, r6, lsl #3
    162c:	9403      	str	r4, [sp, #12]
    162e:	00ec      	lsls	r4, r5, #3
    1630:	9d11      	ldr	r5, [sp, #68]	; 0x44
    1632:	9404      	str	r4, [sp, #16]
    1634:	ea4f 04cc 	mov.w	r4, ip, lsl #3
    1638:	9405      	str	r4, [sp, #20]
    163a:	016c      	lsls	r4, r5, #5
    163c:	eb06 0e86 	add.w	lr, r6, r6, lsl #2
    1640:	9402      	str	r4, [sp, #8]
    1642:	9d15      	ldr	r5, [sp, #84]	; 0x54
    1644:	9c00      	ldr	r4, [sp, #0]
    1646:	eb03 1746 	add.w	r7, r3, r6, lsl #5
    164a:	ea4f 0ece 	mov.w	lr, lr, lsl #3
    164e:	eb02 06c6 	add.w	r6, r2, r6, lsl #3
    1652:	ea4f 09cb 	mov.w	r9, fp, lsl #3
    1656:	f04f 0c00 	mov.w	ip, #0
    165a:	ed51 aa01 	vldr	s21, [r1, #-4]
    165e:	edd3 1a00 	vldr	s3, [r3]
    1662:	ed92 7a00 	vldr	s14, [r2]
    1666:	ed94 5a00 	vldr	s10, [r4]
    166a:	ed96 4a00 	vldr	s8, [r6]
    166e:	edd7 7a00 	vldr	s15, [r7]
    1672:	ed15 2a01 	vldr	s4, [r5, #-4]
    1676:	ed50 6a01 	vldr	s13, [r0, #-4]
    167a:	ee32 ba07 	vadd.f32	s22, s4, s14
    167e:	ee76 0a84 	vadd.f32	s1, s13, s8
    1682:	ee7a 5a85 	vadd.f32	s11, s21, s10
    1686:	ee31 0aa7 	vadd.f32	s0, s3, s15
    168a:	ee3b 6a25 	vadd.f32	s12, s22, s11
    168e:	ee70 4a80 	vadd.f32	s9, s1, s0
    1692:	ee76 6ac4 	vsub.f32	s13, s13, s8
    1696:	ee36 4a24 	vadd.f32	s8, s12, s9
    169a:	ee36 6a64 	vsub.f32	s12, s12, s9
    169e:	ed05 4a01 	vstr	s8, [r5, #-4]
    16a2:	ed82 6a00 	vstr	s12, [r2]
    16a6:	edd0 ba00 	vldr	s23, [r0]
    16aa:	edd6 2a01 	vldr	s5, [r6, #4]
    16ae:	edd3 9a01 	vldr	s19, [r3, #4]
    16b2:	ed95 aa00 	vldr	s20, [r5]
    16b6:	ed92 6a01 	vldr	s12, [r2, #4]
    16ba:	ed97 3a01 	vldr	s6, [r7, #4]
    16be:	ed91 ca00 	vldr	s24, [r1]
    16c2:	edd4 4a01 	vldr	s9, [r4, #4]
    16c6:	ee7b 3ae2 	vsub.f32	s7, s23, s5
    16ca:	ee36 9ae1 	vsub.f32	s18, s13, s3
    16ce:	ee32 2a47 	vsub.f32	s4, s4, s14
    16d2:	ee73 8ae9 	vsub.f32	s17, s7, s19
    16d6:	ee3a 4a46 	vsub.f32	s8, s20, s12
    16da:	ee39 9a27 	vadd.f32	s18, s18, s15
    16de:	ee78 8a83 	vadd.f32	s17, s17, s6
    16e2:	eeb0 8a42 	vmov.f32	s16, s4
    16e6:	eea9 8a6c 	vfms.f32	s16, s18, s25
    16ea:	44dc      	add	ip, fp
    16ec:	45e2      	cmp	sl, ip
    16ee:	ee73 3ac3 	vsub.f32	s7, s7, s6
    16f2:	eeb0 1a44 	vmov.f32	s2, s8
    16f6:	eea8 1aec 	vfms.f32	s2, s17, s25
    16fa:	ee76 7ae7 	vsub.f32	s15, s13, s15
    16fe:	ee33 7aa9 	vadd.f32	s14, s7, s19
    1702:	ee7c 3a64 	vsub.f32	s7, s24, s9
    1706:	ee77 7aa1 	vadd.f32	s15, s15, s3
    170a:	ee3a 6a06 	vadd.f32	s12, s20, s12
    170e:	ee7a 1ac5 	vsub.f32	s3, s21, s10
    1712:	ee3c aa24 	vadd.f32	s20, s24, s9
    1716:	ee74 4acc 	vsub.f32	s9, s9, s24
    171a:	ee39 3a83 	vadd.f32	s6, s19, s6
    171e:	ee35 5a6a 	vsub.f32	s10, s10, s21
    1722:	eef0 9a63 	vmov.f32	s19, s7
    1726:	eef0 aa48 	vmov.f32	s21, s16
    172a:	eee7 9a2c 	vfma.f32	s19, s14, s25
    172e:	eea8 4aac 	vfma.f32	s8, s17, s25
    1732:	eee7 4a2c 	vfma.f32	s9, s14, s25
    1736:	eee7 aa6c 	vfms.f32	s21, s14, s25
    173a:	eef0 8a41 	vmov.f32	s17, s2
    173e:	eeb0 7a42 	vmov.f32	s14, s4
    1742:	eeb0 2a61 	vmov.f32	s4, s3
    1746:	ee7b 6a65 	vsub.f32	s13, s22, s11
    174a:	ee7b 2aa2 	vadd.f32	s5, s23, s5
    174e:	ee76 5a4a 	vsub.f32	s11, s12, s20
    1752:	eea9 7a2c 	vfma.f32	s14, s18, s25
    1756:	eea7 2aac 	vfma.f32	s4, s15, s25
    175a:	eea7 5aac 	vfma.f32	s10, s15, s25
    175e:	eee7 8aec 	vfms.f32	s17, s15, s25
    1762:	ee32 ba83 	vadd.f32	s22, s5, s6
    1766:	ee76 bac3 	vsub.f32	s23, s13, s6
    176a:	ee35 9ae0 	vsub.f32	s18, s11, s1
    176e:	ee75 7ac0 	vsub.f32	s15, s11, s0
    1772:	ee36 6a0a 	vadd.f32	s12, s12, s20
    1776:	ee76 6ae2 	vsub.f32	s13, s13, s5
    177a:	ee36 aa0b 	vadd.f32	s20, s12, s22
    177e:	ee76 6a83 	vadd.f32	s13, s13, s6
    1782:	ee77 7aa0 	vadd.f32	s15, s15, s1
    1786:	ee34 3a42 	vsub.f32	s6, s8, s4
    178a:	ee77 0a29 	vadd.f32	s1, s14, s19
    178e:	ee36 6a4b 	vsub.f32	s12, s12, s22
    1792:	ee7b 2aa2 	vadd.f32	s5, s23, s5
    1796:	ee39 0a00 	vadd.f32	s0, s18, s0
    179a:	ee73 3aaa 	vadd.f32	s7, s7, s21
    179e:	ee78 4a24 	vadd.f32	s9, s16, s9
    17a2:	ee37 7a69 	vsub.f32	s14, s14, s19
    17a6:	ee31 5a05 	vadd.f32	s10, s2, s10
    17aa:	ee71 5aa8 	vadd.f32	s11, s3, s17
    17ae:	ee32 4a04 	vadd.f32	s8, s4, s8
    17b2:	ed85 aa00 	vstr	s20, [r5]
    17b6:	ed82 6a01 	vstr	s12, [r2, #4]
    17ba:	444d      	add	r5, r9
    17bc:	ed41 2a01 	vstr	s5, [r1, #-4]
    17c0:	444a      	add	r2, r9
    17c2:	edc4 6a00 	vstr	s13, [r4]
    17c6:	ed81 0a00 	vstr	s0, [r1]
    17ca:	edc4 7a01 	vstr	s15, [r4, #4]
    17ce:	4449      	add	r1, r9
    17d0:	ed40 0a01 	vstr	s1, [r0, #-4]
    17d4:	444c      	add	r4, r9
    17d6:	ed87 7a00 	vstr	s14, [r7]
    17da:	edc6 3a00 	vstr	s7, [r6]
    17de:	edc3 4a00 	vstr	s9, [r3]
    17e2:	ed80 3a00 	vstr	s6, [r0]
    17e6:	ed87 4a01 	vstr	s8, [r7, #4]
    17ea:	4448      	add	r0, r9
    17ec:	ed86 5a01 	vstr	s10, [r6, #4]
    17f0:	444f      	add	r7, r9
    17f2:	edc3 5a01 	vstr	s11, [r3, #4]
    17f6:	444e      	add	r6, r9
    17f8:	444b      	add	r3, r9
    17fa:	f63f af2e 	bhi.w	165a <arm_radix8_butterfly_f32+0x82>
    17fe:	9b11      	ldr	r3, [sp, #68]	; 0x44
    1800:	2b07      	cmp	r3, #7
    1802:	f240 81c9 	bls.w	1b98 <arm_radix8_butterfly_f32+0x5c0>
    1806:	9d02      	ldr	r5, [sp, #8]
    1808:	9e14      	ldr	r6, [sp, #80]	; 0x50
    180a:	9b01      	ldr	r3, [sp, #4]
    180c:	9803      	ldr	r0, [sp, #12]
    180e:	9904      	ldr	r1, [sp, #16]
    1810:	9a05      	ldr	r2, [sp, #20]
    1812:	3508      	adds	r5, #8
    1814:	1975      	adds	r5, r6, r5
    1816:	330c      	adds	r3, #12
    1818:	950e      	str	r5, [sp, #56]	; 0x38
    181a:	4635      	mov	r5, r6
    181c:	18eb      	adds	r3, r5, r3
    181e:	f108 0808 	add.w	r8, r8, #8
    1822:	f10e 0408 	add.w	r4, lr, #8
    1826:	3008      	adds	r0, #8
    1828:	3108      	adds	r1, #8
    182a:	3208      	adds	r2, #8
    182c:	9307      	str	r3, [sp, #28]
    182e:	f105 030c 	add.w	r3, r5, #12
    1832:	4446      	add	r6, r8
    1834:	f04f 0e00 	mov.w	lr, #0
    1838:	192c      	adds	r4, r5, r4
    183a:	1828      	adds	r0, r5, r0
    183c:	1869      	adds	r1, r5, r1
    183e:	18aa      	adds	r2, r5, r2
    1840:	9308      	str	r3, [sp, #32]
    1842:	465b      	mov	r3, fp
    1844:	960d      	str	r6, [sp, #52]	; 0x34
    1846:	46f3      	mov	fp, lr
    1848:	940c      	str	r4, [sp, #48]	; 0x30
    184a:	900b      	str	r0, [sp, #44]	; 0x2c
    184c:	910a      	str	r1, [sp, #40]	; 0x28
    184e:	9209      	str	r2, [sp, #36]	; 0x24
    1850:	f04f 0801 	mov.w	r8, #1
    1854:	469e      	mov	lr, r3
    1856:	9b12      	ldr	r3, [sp, #72]	; 0x48
    1858:	449b      	add	fp, r3
    185a:	9b13      	ldr	r3, [sp, #76]	; 0x4c
    185c:	eb03 03cb 	add.w	r3, r3, fp, lsl #3
    1860:	eb03 02cb 	add.w	r2, r3, fp, lsl #3
    1864:	9310      	str	r3, [sp, #64]	; 0x40
    1866:	eb02 03cb 	add.w	r3, r2, fp, lsl #3
    186a:	eb03 01cb 	add.w	r1, r3, fp, lsl #3
    186e:	9102      	str	r1, [sp, #8]
    1870:	eb01 01cb 	add.w	r1, r1, fp, lsl #3
    1874:	eb01 05cb 	add.w	r5, r1, fp, lsl #3
    1878:	eb05 06cb 	add.w	r6, r5, fp, lsl #3
    187c:	edd6 7a00 	vldr	s15, [r6]
    1880:	930f      	str	r3, [sp, #60]	; 0x3c
    1882:	ebab 038b 	sub.w	r3, fp, fp, lsl #2
    1886:	9101      	str	r1, [sp, #4]
    1888:	eb06 1303 	add.w	r3, r6, r3, lsl #4
    188c:	eb03 07cb 	add.w	r7, r3, fp, lsl #3
    1890:	edd3 aa01 	vldr	s21, [r3, #4]
    1894:	edcd 7a06 	vstr	s15, [sp, #24]
    1898:	9b01      	ldr	r3, [sp, #4]
    189a:	edd5 7a00 	vldr	s15, [r5]
    189e:	ed97 ba01 	vldr	s22, [r7, #4]
    18a2:	edcd 7a05 	vstr	s15, [sp, #20]
    18a6:	edd3 7a00 	vldr	s15, [r3]
    18aa:	9b02      	ldr	r3, [sp, #8]
    18ac:	edcd 7a04 	vstr	s15, [sp, #16]
    18b0:	edd3 7a00 	vldr	s15, [r3]
    18b4:	9b0f      	ldr	r3, [sp, #60]	; 0x3c
    18b6:	edcd 7a03 	vstr	s15, [sp, #12]
    18ba:	eb07 0ccb 	add.w	ip, r7, fp, lsl #3
    18be:	edd3 7a00 	vldr	s15, [r3]
    18c2:	eddc ba01 	vldr	s23, [ip, #4]
    18c6:	edcd 7a02 	vstr	s15, [sp, #8]
    18ca:	eb0c 01cb 	add.w	r1, ip, fp, lsl #3
    18ce:	edd2 7a00 	vldr	s15, [r2]
    18d2:	9a10      	ldr	r2, [sp, #64]	; 0x40
    18d4:	9100      	str	r1, [sp, #0]
    18d6:	eb01 00cb 	add.w	r0, r1, fp, lsl #3
    18da:	4601      	mov	r1, r0
    18dc:	ed91 da01 	vldr	s26, [r1, #4]
    18e0:	edcd 7a01 	vstr	s15, [sp, #4]
    18e4:	9900      	ldr	r1, [sp, #0]
    18e6:	edd2 7a00 	vldr	s15, [r2]
    18ea:	ed91 ca01 	vldr	s24, [r1, #4]
    18ee:	eb00 00cb 	add.w	r0, r0, fp, lsl #3
    18f2:	eb00 04cb 	add.w	r4, r0, fp, lsl #3
    18f6:	ed94 ea01 	vldr	s28, [r4, #4]
    18fa:	edd0 da01 	vldr	s27, [r0, #4]
    18fe:	edcd 7a00 	vstr	s15, [sp]
    1902:	e9dd 7607 	ldrd	r7, r6, [sp, #28]
    1906:	e9dd 5409 	ldrd	r5, r4, [sp, #36]	; 0x24
    190a:	e9dd 010b 	ldrd	r0, r1, [sp, #44]	; 0x2c
    190e:	e9dd 230d 	ldrd	r2, r3, [sp, #52]	; 0x34
    1912:	46c4      	mov	ip, r8
    1914:	e002      	b.n	191c <arm_radix8_butterfly_f32+0x344>
    1916:	bf00      	nop
    1918:	3f3504f3 	.word	0x3f3504f3
    191c:	ed94 9a00 	vldr	s18, [r4]
    1920:	ed90 fa00 	vldr	s30, [r0]
    1924:	ed91 6a00 	vldr	s12, [r1]
    1928:	edd5 7a00 	vldr	s15, [r5]
    192c:	edd3 6a00 	vldr	s13, [r3]
    1930:	ed57 4a01 	vldr	s9, [r7, #-4]
    1934:	ed92 5a00 	vldr	s10, [r2]
    1938:	ed56 3a01 	vldr	s7, [r6, #-4]
    193c:	ed96 aa00 	vldr	s20, [r6]
    1940:	ee35 0a06 	vadd.f32	s0, s10, s12
    1944:	ee73 5aa6 	vadd.f32	s11, s7, s13
    1948:	ee39 8a27 	vadd.f32	s16, s18, s15
    194c:	ee34 7a8f 	vadd.f32	s14, s9, s30
    1950:	ee70 2a08 	vadd.f32	s5, s0, s16
    1954:	ee75 ea87 	vadd.f32	s29, s11, s14
    1958:	ee35 5a46 	vsub.f32	s10, s10, s12
    195c:	ee3e 6aa2 	vadd.f32	s12, s29, s5
    1960:	ee73 3ae6 	vsub.f32	s7, s7, s13
    1964:	ed06 6a01 	vstr	s12, [r6, #-4]
    1968:	edd1 9a01 	vldr	s19, [r1, #4]
    196c:	edd2 fa01 	vldr	s31, [r2, #4]
    1970:	edd4 6a01 	vldr	s13, [r4, #4]
    1974:	edd3 1a01 	vldr	s3, [r3, #4]
    1978:	ed95 3a01 	vldr	s6, [r5, #4]
    197c:	edd0 8a01 	vldr	s17, [r0, #4]
    1980:	ed97 4a00 	vldr	s8, [r7]
    1984:	ee3f 6ae9 	vsub.f32	s12, s31, s19
    1988:	ee35 1a49 	vsub.f32	s2, s10, s18
    198c:	ee76 0a66 	vsub.f32	s1, s12, s13
    1990:	ee31 1a27 	vadd.f32	s2, s2, s15
    1994:	ee3a 2a61 	vsub.f32	s4, s20, s3
    1998:	ee75 7a67 	vsub.f32	s15, s10, s15
    199c:	ee70 0a83 	vadd.f32	s1, s1, s6
    19a0:	ee3f 5aa9 	vadd.f32	s10, s31, s19
    19a4:	ee74 9acf 	vsub.f32	s19, s9, s30
    19a8:	ee77 7a89 	vadd.f32	s15, s15, s18
    19ac:	ee7a 1a21 	vadd.f32	s3, s20, s3
    19b0:	eeb0 aa42 	vmov.f32	s20, s4
    19b4:	ee74 fa68 	vsub.f32	s31, s8, s17
    19b8:	eea0 aaec 	vfms.f32	s20, s1, s25
    19bc:	44f4      	add	ip, lr
    19be:	45e2      	cmp	sl, ip
    19c0:	ee35 7ac7 	vsub.f32	s14, s11, s14
    19c4:	eeb0 9a63 	vmov.f32	s18, s7
    19c8:	ee74 5a28 	vadd.f32	s11, s8, s17
    19cc:	ee38 4ac4 	vsub.f32	s8, s17, s8
    19d0:	eef0 8a69 	vmov.f32	s17, s19
    19d4:	eea1 9a6c 	vfms.f32	s18, s2, s25
    19d8:	eee7 8aac 	vfma.f32	s17, s15, s25
    19dc:	ee36 6a43 	vsub.f32	s12, s12, s6
    19e0:	ee7f 4a64 	vsub.f32	s9, s30, s9
    19e4:	ee36 6a26 	vadd.f32	s12, s12, s13
    19e8:	eea0 2aac 	vfma.f32	s4, s1, s25
    19ec:	eef0 0a4a 	vmov.f32	s1, s20
    19f0:	eee7 0aec 	vfms.f32	s1, s15, s25
    19f4:	eee7 4aac 	vfma.f32	s9, s15, s25
    19f8:	eef0 7a68 	vmov.f32	s15, s17
    19fc:	eef0 8a49 	vmov.f32	s17, s18
    1a00:	ee36 3a83 	vadd.f32	s6, s13, s6
    1a04:	eee6 8a6c 	vfms.f32	s17, s12, s25
    1a08:	eee1 3a2c 	vfma.f32	s7, s2, s25
    1a0c:	eeb0 1a6f 	vmov.f32	s2, s31
    1a10:	eea6 1a2c 	vfma.f32	s2, s12, s25
    1a14:	ee71 6ae5 	vsub.f32	s13, s3, s11
    1a18:	eea6 4a2c 	vfma.f32	s8, s12, s25
    1a1c:	ee71 5aa5 	vadd.f32	s11, s3, s11
    1a20:	ee75 1a03 	vadd.f32	s3, s10, s6
    1a24:	ee7e 2ae2 	vsub.f32	s5, s29, s5
    1a28:	ee37 fa43 	vsub.f32	s30, s14, s6
    1a2c:	ee75 eae1 	vsub.f32	s29, s11, s3
    1a30:	eeb0 6a68 	vmov.f32	s12, s17
    1a34:	ee76 8ac0 	vsub.f32	s17, s13, s0
    1a38:	ee34 4a09 	vadd.f32	s8, s8, s18
    1a3c:	ee76 fa2f 	vadd.f32	s31, s12, s31
    1a40:	ee76 6ac8 	vsub.f32	s13, s13, s16
    1a44:	ee33 6a81 	vadd.f32	s12, s7, s2
    1a48:	ee38 8a88 	vadd.f32	s16, s17, s16
    1a4c:	ee73 3ac1 	vsub.f32	s7, s7, s2
    1a50:	ee37 7a45 	vsub.f32	s14, s14, s10
    1a54:	ee2c 1a2e 	vmul.f32	s2, s24, s29
    1a58:	ee3f 5a05 	vadd.f32	s10, s30, s10
    1a5c:	ee22 9acc 	vnmul.f32	s18, s5, s24
    1a60:	ed9d fa03 	vldr	s30, [sp, #12]
    1a64:	ee70 6a26 	vadd.f32	s13, s0, s13
    1a68:	ee33 7a07 	vadd.f32	s14, s6, s14
    1a6c:	eeaf 1a22 	vfma.f32	s2, s30, s5
    1a70:	eeaf 9a2e 	vfma.f32	s18, s30, s29
    1a74:	ee7a 4a24 	vadd.f32	s9, s20, s9
    1a78:	ed9d fa01 	vldr	s30, [sp, #4]
    1a7c:	ee79 9aa0 	vadd.f32	s19, s19, s1
    1a80:	ee25 aa4b 	vnmul.f32	s20, s10, s22
    1a84:	ee72 0a67 	vsub.f32	s1, s4, s15
    1a88:	ee37 2a82 	vadd.f32	s4, s15, s4
    1a8c:	ee6b 7a08 	vmul.f32	s15, s22, s16
    1a90:	eeaf aa08 	vfma.f32	s20, s30, s16
    1a94:	eeef 7a05 	vfma.f32	s15, s30, s10
    1a98:	ee2d 3aa6 	vmul.f32	s6, s27, s13
    1a9c:	ed9d fa05 	vldr	s30, [sp, #20]
    1aa0:	ee67 8a6d 	vnmul.f32	s17, s14, s27
    1aa4:	eeaf 3a07 	vfma.f32	s6, s30, s14
    1aa8:	eeef 8a26 	vfma.f32	s17, s30, s13
    1aac:	ee66 2a6a 	vnmul.f32	s5, s12, s21
    1ab0:	ed9d fa00 	vldr	s30, [sp]
    1ab4:	ee2a 0aa0 	vmul.f32	s0, s21, s1
    1ab8:	eeef 2a20 	vfma.f32	s5, s30, s1
    1abc:	ee6e ea02 	vmul.f32	s29, s28, s4
    1ac0:	eddd 0a06 	vldr	s1, [sp, #24]
    1ac4:	ee23 5ace 	vnmul.f32	s10, s7, s28
    1ac8:	eee0 eaa3 	vfma.f32	s29, s1, s7
    1acc:	ee2b 8aa9 	vmul.f32	s16, s23, s19
    1ad0:	eddd 3a02 	vldr	s7, [sp, #8]
    1ad4:	eeaf 0a06 	vfma.f32	s0, s30, s12
    1ad8:	eea3 8a84 	vfma.f32	s16, s7, s8
    1adc:	ee24 7a6b 	vnmul.f32	s14, s8, s23
    1ae0:	ee6d 6a24 	vmul.f32	s13, s26, s9
    1ae4:	ed9d 4a04 	vldr	s8, [sp, #16]
    1ae8:	ee2f 6acd 	vnmul.f32	s12, s31, s26
    1aec:	eea0 5a82 	vfma.f32	s10, s1, s4
    1af0:	eea3 7aa9 	vfma.f32	s14, s7, s19
    1af4:	eee4 6a2f 	vfma.f32	s13, s8, s31
    1af8:	eea4 6a24 	vfma.f32	s12, s8, s9
    1afc:	ee75 5aa1 	vadd.f32	s11, s11, s3
    1b00:	edc6 5a00 	vstr	s11, [r6]
    1b04:	ed83 1a00 	vstr	s2, [r3]
    1b08:	ed83 9a01 	vstr	s18, [r3, #4]
    1b0c:	444e      	add	r6, r9
    1b0e:	ed47 7a01 	vstr	s15, [r7, #-4]
    1b12:	ed87 aa00 	vstr	s20, [r7]
    1b16:	444b      	add	r3, r9
    1b18:	ed80 3a00 	vstr	s6, [r0]
    1b1c:	edc0 8a01 	vstr	s17, [r0, #4]
    1b20:	444f      	add	r7, r9
    1b22:	ed82 0a00 	vstr	s0, [r2]
    1b26:	4448      	add	r0, r9
    1b28:	edc2 2a01 	vstr	s5, [r2, #4]
    1b2c:	edc5 ea00 	vstr	s29, [r5]
    1b30:	ed85 5a01 	vstr	s10, [r5, #4]
    1b34:	444a      	add	r2, r9
    1b36:	edc1 6a00 	vstr	s13, [r1]
    1b3a:	ed81 6a01 	vstr	s12, [r1, #4]
    1b3e:	444d      	add	r5, r9
    1b40:	ed84 8a00 	vstr	s16, [r4]
    1b44:	ed84 7a01 	vstr	s14, [r4, #4]
    1b48:	4449      	add	r1, r9
    1b4a:	444c      	add	r4, r9
    1b4c:	f63f aee6 	bhi.w	191c <arm_radix8_butterfly_f32+0x344>
    1b50:	9b0e      	ldr	r3, [sp, #56]	; 0x38
    1b52:	3308      	adds	r3, #8
    1b54:	930e      	str	r3, [sp, #56]	; 0x38
    1b56:	9b0d      	ldr	r3, [sp, #52]	; 0x34
    1b58:	3308      	adds	r3, #8
    1b5a:	930d      	str	r3, [sp, #52]	; 0x34
    1b5c:	9b0c      	ldr	r3, [sp, #48]	; 0x30
    1b5e:	3308      	adds	r3, #8
    1b60:	930c      	str	r3, [sp, #48]	; 0x30
    1b62:	9b0b      	ldr	r3, [sp, #44]	; 0x2c
    1b64:	3308      	adds	r3, #8
    1b66:	930b      	str	r3, [sp, #44]	; 0x2c
    1b68:	9b0a      	ldr	r3, [sp, #40]	; 0x28
    1b6a:	3308      	adds	r3, #8
    1b6c:	930a      	str	r3, [sp, #40]	; 0x28
    1b6e:	9b09      	ldr	r3, [sp, #36]	; 0x24
    1b70:	3308      	adds	r3, #8
    1b72:	9309      	str	r3, [sp, #36]	; 0x24
    1b74:	9b08      	ldr	r3, [sp, #32]
    1b76:	3308      	adds	r3, #8
    1b78:	9308      	str	r3, [sp, #32]
    1b7a:	9b07      	ldr	r3, [sp, #28]
    1b7c:	3308      	adds	r3, #8
    1b7e:	9307      	str	r3, [sp, #28]
    1b80:	9b11      	ldr	r3, [sp, #68]	; 0x44
    1b82:	f108 0801 	add.w	r8, r8, #1
    1b86:	4543      	cmp	r3, r8
    1b88:	f47f ae65 	bne.w	1856 <arm_radix8_butterfly_f32+0x27e>
    1b8c:	469b      	mov	fp, r3
    1b8e:	9b12      	ldr	r3, [sp, #72]	; 0x48
    1b90:	00db      	lsls	r3, r3, #3
    1b92:	b29b      	uxth	r3, r3
    1b94:	9312      	str	r3, [sp, #72]	; 0x48
    1b96:	e52e      	b.n	15f6 <arm_radix8_butterfly_f32+0x1e>
    1b98:	b017      	add	sp, #92	; 0x5c
    1b9a:	ecbd 8b10 	vpop	{d8-d15}
    1b9e:	e8bd 8ff0 	ldmia.w	sp!, {r4, r5, r6, r7, r8, r9, sl, fp, pc}
    1ba2:	bf00      	nop

00001ba4 <arm_mat_init_f32>:
    1ba4:	8001      	strh	r1, [r0, #0]
    1ba6:	8042      	strh	r2, [r0, #2]
    1ba8:	6043      	str	r3, [r0, #4]
    1baa:	4770      	bx	lr

00001bac <arm_mat_vec_mult_f32>:
    1bac:	e92d 4ff0 	stmdb	sp!, {r4, r5, r6, r7, r8, r9, sl, fp, lr}
    1bb0:	8803      	ldrh	r3, [r0, #0]
    1bb2:	f8b0 a002 	ldrh.w	sl, [r0, #2]
    1bb6:	f8d0 b004 	ldr.w	fp, [r0, #4]
    1bba:	b087      	sub	sp, #28
    1bbc:	0898      	lsrs	r0, r3, #2
    1bbe:	089c      	lsrs	r4, r3, #2
    1bc0:	9302      	str	r3, [sp, #8]
    1bc2:	9003      	str	r0, [sp, #12]
    1bc4:	d058      	beq.n	1c78 <arm_mat_vec_mult_f32+0xcc>
    1bc6:	f10a 33ff 	add.w	r3, sl, #4294967295	; 0xffffffff
    1bca:	b29b      	uxth	r3, r3
    1bcc:	3801      	subs	r0, #1
    1bce:	3301      	adds	r3, #1
    1bd0:	b284      	uxth	r4, r0
    1bd2:	009b      	lsls	r3, r3, #2
    1bd4:	f102 0020 	add.w	r0, r2, #32
    1bd8:	ea4f 098a 	mov.w	r9, sl, lsl #2
    1bdc:	9301      	str	r3, [sp, #4]
    1bde:	eb00 1304 	add.w	r3, r0, r4, lsl #4
    1be2:	4657      	mov	r7, sl
    1be4:	9404      	str	r4, [sp, #16]
    1be6:	fa1f f889 	uxth.w	r8, r9
    1bea:	f102 0c10 	add.w	ip, r2, #16
    1bee:	f04f 0e00 	mov.w	lr, #0
    1bf2:	469a      	mov	sl, r3
    1bf4:	9205      	str	r2, [sp, #20]
    1bf6:	ed9f 7a4e 	vldr	s14, [pc, #312]	; 1d30 <arm_mat_vec_mult_f32+0x184>
    1bfa:	eb0b 038e 	add.w	r3, fp, lr, lsl #2
    1bfe:	eb03 0249 	add.w	r2, r3, r9, lsl #1
    1c02:	eb02 0409 	add.w	r4, r2, r9
    1c06:	eb03 0009 	add.w	r0, r3, r9
    1c0a:	eef0 6a47 	vmov.f32	s13, s14
    1c0e:	eeb0 6a47 	vmov.f32	s12, s14
    1c12:	eef0 5a47 	vmov.f32	s11, s14
    1c16:	b1b7      	cbz	r7, 1c46 <arm_mat_vec_mult_f32+0x9a>
    1c18:	9d01      	ldr	r5, [sp, #4]
    1c1a:	195e      	adds	r6, r3, r5
    1c1c:	460d      	mov	r5, r1
    1c1e:	ecf3 3a01 	vldmia	r3!, {s7}
    1c22:	ecf5 7a01 	vldmia	r5!, {s15}
    1c26:	ecb0 4a01 	vldmia	r0!, {s8}
    1c2a:	ecf2 4a01 	vldmia	r2!, {s9}
    1c2e:	ecb4 5a01 	vldmia	r4!, {s10}
    1c32:	429e      	cmp	r6, r3
    1c34:	eee7 5aa3 	vfma.f32	s11, s15, s7
    1c38:	eea7 6a84 	vfma.f32	s12, s15, s8
    1c3c:	eee7 6aa4 	vfma.f32	s13, s15, s9
    1c40:	eea7 7a85 	vfma.f32	s14, s15, s10
    1c44:	d1eb      	bne.n	1c1e <arm_mat_vec_mult_f32+0x72>
    1c46:	ed4c 5a04 	vstr	s11, [ip, #-16]
    1c4a:	ed0c 6a03 	vstr	s12, [ip, #-12]
    1c4e:	ed4c 6a02 	vstr	s13, [ip, #-8]
    1c52:	ed0c 7a01 	vstr	s14, [ip, #-4]
    1c56:	f10c 0c10 	add.w	ip, ip, #16
    1c5a:	44c6      	add	lr, r8
    1c5c:	45d4      	cmp	ip, sl
    1c5e:	fa1f fe8e 	uxth.w	lr, lr
    1c62:	d1c8      	bne.n	1bf6 <arm_mat_vec_mult_f32+0x4a>
    1c64:	e9dd 3204 	ldrd	r3, r2, [sp, #16]
    1c68:	9803      	ldr	r0, [sp, #12]
    1c6a:	3301      	adds	r3, #1
    1c6c:	fb18 f400 	smulbb	r4, r8, r0
    1c70:	46ba      	mov	sl, r7
    1c72:	eb02 1203 	add.w	r2, r2, r3, lsl #4
    1c76:	b2a4      	uxth	r4, r4
    1c78:	9b02      	ldr	r3, [sp, #8]
    1c7a:	f013 0303 	ands.w	r3, r3, #3
    1c7e:	d03e      	beq.n	1cfe <arm_mat_vec_mult_f32+0x152>
    1c80:	ea4f 0c5a 	mov.w	ip, sl, lsr #1
    1c84:	1e5e      	subs	r6, r3, #1
    1c86:	f10c 33ff 	add.w	r3, ip, #4294967295	; 0xffffffff
    1c8a:	b29b      	uxth	r3, r3
    1c8c:	b2b6      	uxth	r6, r6
    1c8e:	f103 0e01 	add.w	lr, r3, #1
    1c92:	3601      	adds	r6, #1
    1c94:	f101 0510 	add.w	r5, r1, #16
    1c98:	ea4f 09ce 	mov.w	r9, lr, lsl #3
    1c9c:	eb02 0686 	add.w	r6, r2, r6, lsl #2
    1ca0:	eb05 05c3 	add.w	r5, r5, r3, lsl #3
    1ca4:	eb01 0ece 	add.w	lr, r1, lr, lsl #3
    1ca8:	f00a 0801 	and.w	r8, sl, #1
    1cac:	ed9f 7a20 	vldr	s14, [pc, #128]	; 1d30 <arm_mat_vec_mult_f32+0x184>
    1cb0:	eb0b 0784 	add.w	r7, fp, r4, lsl #2
    1cb4:	f1bc 0f00 	cmp.w	ip, #0
    1cb8:	d037      	beq.n	1d2a <arm_mat_vec_mult_f32+0x17e>
    1cba:	f101 0308 	add.w	r3, r1, #8
    1cbe:	f107 0008 	add.w	r0, r7, #8
    1cc2:	ed53 7a01 	vldr	s15, [r3, #-4]
    1cc6:	ed50 5a01 	vldr	s11, [r0, #-4]
    1cca:	ed13 6a02 	vldr	s12, [r3, #-8]
    1cce:	ed50 6a02 	vldr	s13, [r0, #-8]
    1cd2:	ee67 7aa5 	vmul.f32	s15, s15, s11
    1cd6:	3308      	adds	r3, #8
    1cd8:	eee6 7a26 	vfma.f32	s15, s12, s13
    1cdc:	429d      	cmp	r5, r3
    1cde:	f100 0008 	add.w	r0, r0, #8
    1ce2:	ee37 7a27 	vadd.f32	s14, s14, s15
    1ce6:	d1ec      	bne.n	1cc2 <arm_mat_vec_mult_f32+0x116>
    1ce8:	444f      	add	r7, r9
    1cea:	4673      	mov	r3, lr
    1cec:	f1b8 0f00 	cmp.w	r8, #0
    1cf0:	d108      	bne.n	1d04 <arm_mat_vec_mult_f32+0x158>
    1cf2:	eca2 7a01 	vstmia	r2!, {s14}
    1cf6:	4454      	add	r4, sl
    1cf8:	4296      	cmp	r6, r2
    1cfa:	b2a4      	uxth	r4, r4
    1cfc:	d1d6      	bne.n	1cac <arm_mat_vec_mult_f32+0x100>
    1cfe:	b007      	add	sp, #28
    1d00:	e8bd 8ff0 	ldmia.w	sp!, {r4, r5, r6, r7, r8, r9, sl, fp, pc}
    1d04:	edd7 6a00 	vldr	s13, [r7]
    1d08:	edd3 7a00 	vldr	s15, [r3]
    1d0c:	eea6 7aa7 	vfma.f32	s14, s13, s15
    1d10:	4454      	add	r4, sl
    1d12:	b2a4      	uxth	r4, r4
    1d14:	eca2 7a01 	vstmia	r2!, {s14}
    1d18:	4296      	cmp	r6, r2
    1d1a:	d0f0      	beq.n	1cfe <arm_mat_vec_mult_f32+0x152>
    1d1c:	ed9f 7a04 	vldr	s14, [pc, #16]	; 1d30 <arm_mat_vec_mult_f32+0x184>
    1d20:	eb0b 0784 	add.w	r7, fp, r4, lsl #2
    1d24:	f1bc 0f00 	cmp.w	ip, #0
    1d28:	d1c7      	bne.n	1cba <arm_mat_vec_mult_f32+0x10e>
    1d2a:	460b      	mov	r3, r1
    1d2c:	e7de      	b.n	1cec <arm_mat_vec_mult_f32+0x140>
    1d2e:	bf00      	nop
    1d30:	00000000 	.word	0x00000000

00001d34 <arm_cmplx_mag_f32>:
    1d34:	b470      	push	{r4, r5, r6}
    1d36:	0896      	lsrs	r6, r2, #2
    1d38:	d03e      	beq.n	1db8 <arm_cmplx_mag_f32+0x84>
    1d3a:	f100 0320 	add.w	r3, r0, #32
    1d3e:	f101 0410 	add.w	r4, r1, #16
    1d42:	4635      	mov	r5, r6
    1d44:	ed53 7a07 	vldr	s15, [r3, #-28]	; 0xffffffe4
    1d48:	ed13 7a08 	vldr	s14, [r3, #-32]	; 0xffffffe0
    1d4c:	ee67 7aa7 	vmul.f32	s15, s15, s15
    1d50:	3d01      	subs	r5, #1
    1d52:	eee7 7a07 	vfma.f32	s15, s14, s14
    1d56:	f103 0320 	add.w	r3, r3, #32
    1d5a:	f104 0410 	add.w	r4, r4, #16
    1d5e:	eeb1 7ae7 	vsqrt.f32	s14, s15
    1d62:	ed04 7a08 	vstr	s14, [r4, #-32]	; 0xffffffe0
    1d66:	ed53 7a0d 	vldr	s15, [r3, #-52]	; 0xffffffcc
    1d6a:	ed13 7a0e 	vldr	s14, [r3, #-56]	; 0xffffffc8
    1d6e:	ee67 7aa7 	vmul.f32	s15, s15, s15
    1d72:	eee7 7a07 	vfma.f32	s15, s14, s14
    1d76:	eeb1 7ae7 	vsqrt.f32	s14, s15
    1d7a:	ed04 7a07 	vstr	s14, [r4, #-28]	; 0xffffffe4
    1d7e:	ed53 7a0b 	vldr	s15, [r3, #-44]	; 0xffffffd4
    1d82:	ed13 7a0c 	vldr	s14, [r3, #-48]	; 0xffffffd0
    1d86:	ee67 7aa7 	vmul.f32	s15, s15, s15
    1d8a:	eee7 7a07 	vfma.f32	s15, s14, s14
    1d8e:	eeb1 7ae7 	vsqrt.f32	s14, s15
    1d92:	ed04 7a06 	vstr	s14, [r4, #-24]	; 0xffffffe8
    1d96:	ed53 7a09 	vldr	s15, [r3, #-36]	; 0xffffffdc
    1d9a:	ed13 7a0a 	vldr	s14, [r3, #-40]	; 0xffffffd8
    1d9e:	ee67 7aa7 	vmul.f32	s15, s15, s15
    1da2:	eee7 7a07 	vfma.f32	s15, s14, s14
    1da6:	eeb1 7ae7 	vsqrt.f32	s14, s15
    1daa:	ed04 7a05 	vstr	s14, [r4, #-20]	; 0xffffffec
    1dae:	d1c9      	bne.n	1d44 <arm_cmplx_mag_f32+0x10>
    1db0:	eb00 1046 	add.w	r0, r0, r6, lsl #5
    1db4:	eb01 1106 	add.w	r1, r1, r6, lsl #4
    1db8:	f012 0203 	ands.w	r2, r2, #3
    1dbc:	d027      	beq.n	1e0e <arm_cmplx_mag_f32+0xda>
    1dbe:	edd0 7a01 	vldr	s15, [r0, #4]
    1dc2:	ed90 7a00 	vldr	s14, [r0]
    1dc6:	ee67 7aa7 	vmul.f32	s15, s15, s15
    1dca:	3a01      	subs	r2, #1
    1dcc:	eee7 7a07 	vfma.f32	s15, s14, s14
    1dd0:	eeb1 7ae7 	vsqrt.f32	s14, s15
    1dd4:	ed81 7a00 	vstr	s14, [r1]
    1dd8:	d019      	beq.n	1e0e <arm_cmplx_mag_f32+0xda>
    1dda:	edd0 7a03 	vldr	s15, [r0, #12]
    1dde:	ed90 7a02 	vldr	s14, [r0, #8]
    1de2:	ee67 7aa7 	vmul.f32	s15, s15, s15
    1de6:	2a01      	cmp	r2, #1
    1de8:	eee7 7a07 	vfma.f32	s15, s14, s14
    1dec:	eeb1 7ae7 	vsqrt.f32	s14, s15
    1df0:	ed81 7a01 	vstr	s14, [r1, #4]
    1df4:	d00b      	beq.n	1e0e <arm_cmplx_mag_f32+0xda>
    1df6:	edd0 7a05 	vldr	s15, [r0, #20]
    1dfa:	ed90 7a04 	vldr	s14, [r0, #16]
    1dfe:	ee67 7aa7 	vmul.f32	s15, s15, s15
    1e02:	eee7 7a07 	vfma.f32	s15, s14, s14
    1e06:	eeb1 7ae7 	vsqrt.f32	s14, s15
    1e0a:	ed81 7a02 	vstr	s14, [r1, #8]
    1e0e:	bc70      	pop	{r4, r5, r6}
    1e10:	4770      	bx	lr
    1e12:	bf00      	nop

00001e14 <arm_dot_prod_f32>:
    1e14:	b4f0      	push	{r4, r5, r6, r7}
    1e16:	0897      	lsrs	r7, r2, #2
    1e18:	ed9f 7a24 	vldr	s14, [pc, #144]	; 1eac <arm_dot_prod_f32+0x98>
    1e1c:	d028      	beq.n	1e70 <arm_dot_prod_f32+0x5c>
    1e1e:	f100 0510 	add.w	r5, r0, #16
    1e22:	f101 0410 	add.w	r4, r1, #16
    1e26:	463e      	mov	r6, r7
    1e28:	ed55 7a03 	vldr	s15, [r5, #-12]
    1e2c:	ed54 3a03 	vldr	s7, [r4, #-12]
    1e30:	ed15 4a04 	vldr	s8, [r5, #-16]
    1e34:	ed54 4a04 	vldr	s9, [r4, #-16]
    1e38:	ed15 5a02 	vldr	s10, [r5, #-8]
    1e3c:	ed54 5a02 	vldr	s11, [r4, #-8]
    1e40:	ed15 6a01 	vldr	s12, [r5, #-4]
    1e44:	ed54 6a01 	vldr	s13, [r4, #-4]
    1e48:	ee67 7aa3 	vmul.f32	s15, s15, s7
    1e4c:	3e01      	subs	r6, #1
    1e4e:	eee4 7a24 	vfma.f32	s15, s8, s9
    1e52:	f105 0510 	add.w	r5, r5, #16
    1e56:	f104 0410 	add.w	r4, r4, #16
    1e5a:	eee5 7a25 	vfma.f32	s15, s10, s11
    1e5e:	eee6 7a26 	vfma.f32	s15, s12, s13
    1e62:	ee37 7a27 	vadd.f32	s14, s14, s15
    1e66:	d1df      	bne.n	1e28 <arm_dot_prod_f32+0x14>
    1e68:	eb00 1007 	add.w	r0, r0, r7, lsl #4
    1e6c:	eb01 1107 	add.w	r1, r1, r7, lsl #4
    1e70:	f012 0203 	ands.w	r2, r2, #3
    1e74:	d015      	beq.n	1ea2 <arm_dot_prod_f32+0x8e>
    1e76:	edd1 6a00 	vldr	s13, [r1]
    1e7a:	edd0 7a00 	vldr	s15, [r0]
    1e7e:	3a01      	subs	r2, #1
    1e80:	eea6 7aa7 	vfma.f32	s14, s13, s15
    1e84:	d00d      	beq.n	1ea2 <arm_dot_prod_f32+0x8e>
    1e86:	edd1 6a01 	vldr	s13, [r1, #4]
    1e8a:	edd0 7a01 	vldr	s15, [r0, #4]
    1e8e:	2a01      	cmp	r2, #1
    1e90:	eea6 7aa7 	vfma.f32	s14, s13, s15
    1e94:	d005      	beq.n	1ea2 <arm_dot_prod_f32+0x8e>
    1e96:	edd0 6a02 	vldr	s13, [r0, #8]
    1e9a:	edd1 7a02 	vldr	s15, [r1, #8]
    1e9e:	eea6 7aa7 	vfma.f32	s14, s13, s15
    1ea2:	bcf0      	pop	{r4, r5, r6, r7}
    1ea4:	ed83 7a00 	vstr	s14, [r3]
    1ea8:	4770      	bx	lr
    1eaa:	bf00      	nop
    1eac:	00000000 	.word	0x00000000

00001eb0 <arm_scale_f32>:
    1eb0:	b470      	push	{r4, r5, r6}
    1eb2:	0896      	lsrs	r6, r2, #2
    1eb4:	d026      	beq.n	1f04 <arm_scale_f32+0x54>
    1eb6:	f100 0410 	add.w	r4, r0, #16
    1eba:	f101 0310 	add.w	r3, r1, #16
    1ebe:	4635      	mov	r5, r6
    1ec0:	ed14 6a03 	vldr	s12, [r4, #-12]
    1ec4:	ed54 6a02 	vldr	s13, [r4, #-8]
    1ec8:	ed14 7a01 	vldr	s14, [r4, #-4]
    1ecc:	ed54 7a04 	vldr	s15, [r4, #-16]
    1ed0:	ee20 6a06 	vmul.f32	s12, s0, s12
    1ed4:	ee60 6a26 	vmul.f32	s13, s0, s13
    1ed8:	ee20 7a07 	vmul.f32	s14, s0, s14
    1edc:	ee67 7a80 	vmul.f32	s15, s15, s0
    1ee0:	3d01      	subs	r5, #1
    1ee2:	ed03 6a03 	vstr	s12, [r3, #-12]
    1ee6:	ed43 6a02 	vstr	s13, [r3, #-8]
    1eea:	ed03 7a01 	vstr	s14, [r3, #-4]
    1eee:	ed43 7a04 	vstr	s15, [r3, #-16]
    1ef2:	f104 0410 	add.w	r4, r4, #16
    1ef6:	f103 0310 	add.w	r3, r3, #16
    1efa:	d1e1      	bne.n	1ec0 <arm_scale_f32+0x10>
    1efc:	eb00 1006 	add.w	r0, r0, r6, lsl #4
    1f00:	eb01 1106 	add.w	r1, r1, r6, lsl #4
    1f04:	f012 0203 	ands.w	r2, r2, #3
    1f08:	d015      	beq.n	1f36 <arm_scale_f32+0x86>
    1f0a:	edd0 7a00 	vldr	s15, [r0]
    1f0e:	ee67 7a80 	vmul.f32	s15, s15, s0
    1f12:	3a01      	subs	r2, #1
    1f14:	edc1 7a00 	vstr	s15, [r1]
    1f18:	d00d      	beq.n	1f36 <arm_scale_f32+0x86>
    1f1a:	edd0 7a01 	vldr	s15, [r0, #4]
    1f1e:	ee67 7a80 	vmul.f32	s15, s15, s0
    1f22:	2a01      	cmp	r2, #1
    1f24:	edc1 7a01 	vstr	s15, [r1, #4]
    1f28:	d005      	beq.n	1f36 <arm_scale_f32+0x86>
    1f2a:	edd0 7a02 	vldr	s15, [r0, #8]
    1f2e:	ee27 0a80 	vmul.f32	s0, s15, s0
    1f32:	ed81 0a02 	vstr	s0, [r1, #8]
    1f36:	bc70      	pop	{r4, r5, r6}
    1f38:	4770      	bx	lr
    1f3a:	bf00      	nop

00001f3c <sqrt>:
    1f3c:	b538      	push	{r3, r4, r5, lr}
    1f3e:	ed2d 8b02 	vpush	{d8}
    1f42:	ec55 4b10 	vmov	r4, r5, d0
    1f46:	f000 f833 	bl	1fb0 <__ieee754_sqrt>
    1f4a:	4b18      	ldr	r3, [pc, #96]	; (1fac <sqrt+0x70>)
    1f4c:	eeb0 8a40 	vmov.f32	s16, s0
    1f50:	eef0 8a60 	vmov.f32	s17, s1
    1f54:	f993 3000 	ldrsb.w	r3, [r3]
    1f58:	3301      	adds	r3, #1
    1f5a:	d00d      	beq.n	1f78 <sqrt+0x3c>
    1f5c:	4622      	mov	r2, r4
    1f5e:	462b      	mov	r3, r5
    1f60:	4620      	mov	r0, r4
    1f62:	4629      	mov	r1, r5
    1f64:	f000 fd46 	bl	29f4 <__aeabi_dcmpun>
    1f68:	b930      	cbnz	r0, 1f78 <sqrt+0x3c>
    1f6a:	4620      	mov	r0, r4
    1f6c:	4629      	mov	r1, r5
    1f6e:	2200      	movs	r2, #0
    1f70:	2300      	movs	r3, #0
    1f72:	f000 fd17 	bl	29a4 <__aeabi_dcmplt>
    1f76:	b930      	cbnz	r0, 1f86 <sqrt+0x4a>
    1f78:	eeb0 0a48 	vmov.f32	s0, s16
    1f7c:	eef0 0a68 	vmov.f32	s1, s17
    1f80:	ecbd 8b02 	vpop	{d8}
    1f84:	bd38      	pop	{r3, r4, r5, pc}
    1f86:	f000 fd9b 	bl	2ac0 <__errno>
    1f8a:	2200      	movs	r2, #0
    1f8c:	2300      	movs	r3, #0
    1f8e:	2121      	movs	r1, #33	; 0x21
    1f90:	6001      	str	r1, [r0, #0]
    1f92:	4610      	mov	r0, r2
    1f94:	4619      	mov	r1, r3
    1f96:	f000 fbbd 	bl	2714 <__aeabi_ddiv>
    1f9a:	ec41 0b18 	vmov	d8, r0, r1
    1f9e:	eeb0 0a48 	vmov.f32	s0, s16
    1fa2:	eef0 0a68 	vmov.f32	s1, s17
    1fa6:	ecbd 8b02 	vpop	{d8}
    1faa:	bd38      	pop	{r3, r4, r5, pc}
    1fac:	20000004 	.word	0x20000004

00001fb0 <__ieee754_sqrt>:
    1fb0:	e92d 41f0 	stmdb	sp!, {r4, r5, r6, r7, r8, lr}
    1fb4:	4963      	ldr	r1, [pc, #396]	; (2144 <__ieee754_sqrt+0x194>)
    1fb6:	ec55 4b10 	vmov	r4, r5, d0
    1fba:	43a9      	bics	r1, r5
    1fbc:	f000 809f 	beq.w	20fe <__ieee754_sqrt+0x14e>
    1fc0:	2d00      	cmp	r5, #0
    1fc2:	462b      	mov	r3, r5
    1fc4:	ee10 2a10 	vmov	r2, s0
    1fc8:	dd52      	ble.n	2070 <__ieee754_sqrt+0xc0>
    1fca:	ea5f 5e25 	movs.w	lr, r5, asr #20
    1fce:	f000 80b1 	beq.w	2134 <__ieee754_sqrt+0x184>
    1fd2:	f3c3 0313 	ubfx	r3, r3, #0, #20
    1fd6:	f2ae 3eff 	subw	lr, lr, #1023	; 0x3ff
    1fda:	f443 1380 	orr.w	r3, r3, #1048576	; 0x100000
    1fde:	0fd1      	lsrs	r1, r2, #31
    1fe0:	f01e 0f01 	tst.w	lr, #1
    1fe4:	eb01 0343 	add.w	r3, r1, r3, lsl #1
    1fe8:	ea4f 0442 	mov.w	r4, r2, lsl #1
    1fec:	d003      	beq.n	1ff6 <__ieee754_sqrt+0x46>
    1fee:	0fe4      	lsrs	r4, r4, #31
    1ff0:	eb04 0343 	add.w	r3, r4, r3, lsl #1
    1ff4:	0094      	lsls	r4, r2, #2
    1ff6:	f04f 0c00 	mov.w	ip, #0
    1ffa:	ea4f 0e6e 	mov.w	lr, lr, asr #1
    1ffe:	4666      	mov	r6, ip
    2000:	2516      	movs	r5, #22
    2002:	f44f 1200 	mov.w	r2, #2097152	; 0x200000
    2006:	18b1      	adds	r1, r6, r2
    2008:	4299      	cmp	r1, r3
    200a:	dc02      	bgt.n	2012 <__ieee754_sqrt+0x62>
    200c:	1a5b      	subs	r3, r3, r1
    200e:	188e      	adds	r6, r1, r2
    2010:	4494      	add	ip, r2
    2012:	005b      	lsls	r3, r3, #1
    2014:	3d01      	subs	r5, #1
    2016:	eb03 73d4 	add.w	r3, r3, r4, lsr #31
    201a:	ea4f 0252 	mov.w	r2, r2, lsr #1
    201e:	ea4f 0444 	mov.w	r4, r4, lsl #1
    2022:	d1f0      	bne.n	2006 <__ieee754_sqrt+0x56>
    2024:	462f      	mov	r7, r5
    2026:	2020      	movs	r0, #32
    2028:	f04f 4200 	mov.w	r2, #2147483648	; 0x80000000
    202c:	e009      	b.n	2042 <__ieee754_sqrt+0x92>
    202e:	d041      	beq.n	20b4 <__ieee754_sqrt+0x104>
    2030:	0fe1      	lsrs	r1, r4, #31
    2032:	3801      	subs	r0, #1
    2034:	ea4f 0252 	mov.w	r2, r2, lsr #1
    2038:	eb01 0343 	add.w	r3, r1, r3, lsl #1
    203c:	ea4f 0444 	mov.w	r4, r4, lsl #1
    2040:	d041      	beq.n	20c6 <__ieee754_sqrt+0x116>
    2042:	42b3      	cmp	r3, r6
    2044:	eb02 0105 	add.w	r1, r2, r5
    2048:	ddf1      	ble.n	202e <__ieee754_sqrt+0x7e>
    204a:	2900      	cmp	r1, #0
    204c:	eb01 0502 	add.w	r5, r1, r2
    2050:	db09      	blt.n	2066 <__ieee754_sqrt+0xb6>
    2052:	46b0      	mov	r8, r6
    2054:	1b9b      	subs	r3, r3, r6
    2056:	42a1      	cmp	r1, r4
    2058:	bf88      	it	hi
    205a:	f103 33ff 	addhi.w	r3, r3, #4294967295	; 0xffffffff
    205e:	1a64      	subs	r4, r4, r1
    2060:	4417      	add	r7, r2
    2062:	4646      	mov	r6, r8
    2064:	e7e4      	b.n	2030 <__ieee754_sqrt+0x80>
    2066:	2d00      	cmp	r5, #0
    2068:	dbf3      	blt.n	2052 <__ieee754_sqrt+0xa2>
    206a:	f106 0801 	add.w	r8, r6, #1
    206e:	e7f1      	b.n	2054 <__ieee754_sqrt+0xa4>
    2070:	f025 4100 	bic.w	r1, r5, #2147483648	; 0x80000000
    2074:	4321      	orrs	r1, r4
    2076:	d039      	beq.n	20ec <__ieee754_sqrt+0x13c>
    2078:	2d00      	cmp	r5, #0
    207a:	d150      	bne.n	211e <__ieee754_sqrt+0x16e>
    207c:	0ad4      	lsrs	r4, r2, #11
    207e:	3b15      	subs	r3, #21
    2080:	0552      	lsls	r2, r2, #21
    2082:	4621      	mov	r1, r4
    2084:	2c00      	cmp	r4, #0
    2086:	d0f9      	beq.n	207c <__ieee754_sqrt+0xcc>
    2088:	02e5      	lsls	r5, r4, #11
    208a:	d456      	bmi.n	213a <__ieee754_sqrt+0x18a>
    208c:	2000      	movs	r0, #0
    208e:	e000      	b.n	2092 <__ieee754_sqrt+0xe2>
    2090:	4628      	mov	r0, r5
    2092:	0049      	lsls	r1, r1, #1
    2094:	02cc      	lsls	r4, r1, #11
    2096:	f100 0501 	add.w	r5, r0, #1
    209a:	d5f9      	bpl.n	2090 <__ieee754_sqrt+0xe0>
    209c:	460c      	mov	r4, r1
    209e:	4611      	mov	r1, r2
    20a0:	40aa      	lsls	r2, r5
    20a2:	f1c5 0520 	rsb	r5, r5, #32
    20a6:	fa21 f505 	lsr.w	r5, r1, r5
    20aa:	eba3 0e00 	sub.w	lr, r3, r0
    20ae:	ea45 0304 	orr.w	r3, r5, r4
    20b2:	e78e      	b.n	1fd2 <__ieee754_sqrt+0x22>
    20b4:	42a1      	cmp	r1, r4
    20b6:	d8bb      	bhi.n	2030 <__ieee754_sqrt+0x80>
    20b8:	2900      	cmp	r1, #0
    20ba:	eb01 0502 	add.w	r5, r1, r2
    20be:	dbd2      	blt.n	2066 <__ieee754_sqrt+0xb6>
    20c0:	4698      	mov	r8, r3
    20c2:	2300      	movs	r3, #0
    20c4:	e7cb      	b.n	205e <__ieee754_sqrt+0xae>
    20c6:	4323      	orrs	r3, r4
    20c8:	d112      	bne.n	20f0 <__ieee754_sqrt+0x140>
    20ca:	0878      	lsrs	r0, r7, #1
    20cc:	ea4f 016c 	mov.w	r1, ip, asr #1
    20d0:	f101 517f 	add.w	r1, r1, #1069547520	; 0x3fc00000
    20d4:	f01c 0f01 	tst.w	ip, #1
    20d8:	f501 1100 	add.w	r1, r1, #2097152	; 0x200000
    20dc:	bf18      	it	ne
    20de:	f040 4000 	orrne.w	r0, r0, #2147483648	; 0x80000000
    20e2:	eb01 530e 	add.w	r3, r1, lr, lsl #20
    20e6:	4602      	mov	r2, r0
    20e8:	ec43 2b10 	vmov	d0, r2, r3
    20ec:	e8bd 81f0 	ldmia.w	sp!, {r4, r5, r6, r7, r8, pc}
    20f0:	1c7b      	adds	r3, r7, #1
    20f2:	bf16      	itet	ne
    20f4:	1c78      	addne	r0, r7, #1
    20f6:	f10c 0c01 	addeq.w	ip, ip, #1
    20fa:	0840      	lsrne	r0, r0, #1
    20fc:	e7e6      	b.n	20cc <__ieee754_sqrt+0x11c>
    20fe:	ee10 2a10 	vmov	r2, s0
    2102:	462b      	mov	r3, r5
    2104:	ee10 0a10 	vmov	r0, s0
    2108:	4629      	mov	r1, r5
    210a:	f000 f9d9 	bl	24c0 <__aeabi_dmul>
    210e:	4622      	mov	r2, r4
    2110:	462b      	mov	r3, r5
    2112:	f000 f81f 	bl	2154 <__adddf3>
    2116:	ec41 0b10 	vmov	d0, r0, r1
    211a:	e8bd 81f0 	ldmia.w	sp!, {r4, r5, r6, r7, r8, pc}
    211e:	4620      	mov	r0, r4
    2120:	4629      	mov	r1, r5
    2122:	f000 f815 	bl	2150 <__aeabi_dsub>
    2126:	4602      	mov	r2, r0
    2128:	460b      	mov	r3, r1
    212a:	f000 faf3 	bl	2714 <__aeabi_ddiv>
    212e:	ec41 0b10 	vmov	d0, r0, r1
    2132:	e7db      	b.n	20ec <__ieee754_sqrt+0x13c>
    2134:	4629      	mov	r1, r5
    2136:	4673      	mov	r3, lr
    2138:	e7a8      	b.n	208c <__ieee754_sqrt+0xdc>
    213a:	4611      	mov	r1, r2
    213c:	2520      	movs	r5, #32
    213e:	f04f 30ff 	mov.w	r0, #4294967295	; 0xffffffff
    2142:	e7b0      	b.n	20a6 <__ieee754_sqrt+0xf6>
    2144:	7ff00000 	.word	0x7ff00000

00002148 <__aeabi_drsub>:
    2148:	f081 4100 	eor.w	r1, r1, #2147483648	; 0x80000000
    214c:	e002      	b.n	2154 <__adddf3>
    214e:	bf00      	nop

00002150 <__aeabi_dsub>:
    2150:	f083 4300 	eor.w	r3, r3, #2147483648	; 0x80000000

00002154 <__adddf3>:
    2154:	b530      	push	{r4, r5, lr}
    2156:	ea4f 0441 	mov.w	r4, r1, lsl #1
    215a:	ea4f 0543 	mov.w	r5, r3, lsl #1
    215e:	ea94 0f05 	teq	r4, r5
    2162:	bf08      	it	eq
    2164:	ea90 0f02 	teqeq	r0, r2
    2168:	bf1f      	itttt	ne
    216a:	ea54 0c00 	orrsne.w	ip, r4, r0
    216e:	ea55 0c02 	orrsne.w	ip, r5, r2
    2172:	ea7f 5c64 	mvnsne.w	ip, r4, asr #21
    2176:	ea7f 5c65 	mvnsne.w	ip, r5, asr #21
    217a:	f000 80e2 	beq.w	2342 <__adddf3+0x1ee>
    217e:	ea4f 5454 	mov.w	r4, r4, lsr #21
    2182:	ebd4 5555 	rsbs	r5, r4, r5, lsr #21
    2186:	bfb8      	it	lt
    2188:	426d      	neglt	r5, r5
    218a:	dd0c      	ble.n	21a6 <__adddf3+0x52>
    218c:	442c      	add	r4, r5
    218e:	ea80 0202 	eor.w	r2, r0, r2
    2192:	ea81 0303 	eor.w	r3, r1, r3
    2196:	ea82 0000 	eor.w	r0, r2, r0
    219a:	ea83 0101 	eor.w	r1, r3, r1
    219e:	ea80 0202 	eor.w	r2, r0, r2
    21a2:	ea81 0303 	eor.w	r3, r1, r3
    21a6:	2d36      	cmp	r5, #54	; 0x36
    21a8:	bf88      	it	hi
    21aa:	bd30      	pophi	{r4, r5, pc}
    21ac:	f011 4f00 	tst.w	r1, #2147483648	; 0x80000000
    21b0:	ea4f 3101 	mov.w	r1, r1, lsl #12
    21b4:	f44f 1c80 	mov.w	ip, #1048576	; 0x100000
    21b8:	ea4c 3111 	orr.w	r1, ip, r1, lsr #12
    21bc:	d002      	beq.n	21c4 <__adddf3+0x70>
    21be:	4240      	negs	r0, r0
    21c0:	eb61 0141 	sbc.w	r1, r1, r1, lsl #1
    21c4:	f013 4f00 	tst.w	r3, #2147483648	; 0x80000000
    21c8:	ea4f 3303 	mov.w	r3, r3, lsl #12
    21cc:	ea4c 3313 	orr.w	r3, ip, r3, lsr #12
    21d0:	d002      	beq.n	21d8 <__adddf3+0x84>
    21d2:	4252      	negs	r2, r2
    21d4:	eb63 0343 	sbc.w	r3, r3, r3, lsl #1
    21d8:	ea94 0f05 	teq	r4, r5
    21dc:	f000 80a7 	beq.w	232e <__adddf3+0x1da>
    21e0:	f1a4 0401 	sub.w	r4, r4, #1
    21e4:	f1d5 0e20 	rsbs	lr, r5, #32
    21e8:	db0d      	blt.n	2206 <__adddf3+0xb2>
    21ea:	fa02 fc0e 	lsl.w	ip, r2, lr
    21ee:	fa22 f205 	lsr.w	r2, r2, r5
    21f2:	1880      	adds	r0, r0, r2
    21f4:	f141 0100 	adc.w	r1, r1, #0
    21f8:	fa03 f20e 	lsl.w	r2, r3, lr
    21fc:	1880      	adds	r0, r0, r2
    21fe:	fa43 f305 	asr.w	r3, r3, r5
    2202:	4159      	adcs	r1, r3
    2204:	e00e      	b.n	2224 <__adddf3+0xd0>
    2206:	f1a5 0520 	sub.w	r5, r5, #32
    220a:	f10e 0e20 	add.w	lr, lr, #32
    220e:	2a01      	cmp	r2, #1
    2210:	fa03 fc0e 	lsl.w	ip, r3, lr
    2214:	bf28      	it	cs
    2216:	f04c 0c02 	orrcs.w	ip, ip, #2
    221a:	fa43 f305 	asr.w	r3, r3, r5
    221e:	18c0      	adds	r0, r0, r3
    2220:	eb51 71e3 	adcs.w	r1, r1, r3, asr #31
    2224:	f001 4500 	and.w	r5, r1, #2147483648	; 0x80000000
    2228:	d507      	bpl.n	223a <__adddf3+0xe6>
    222a:	f04f 0e00 	mov.w	lr, #0
    222e:	f1dc 0c00 	rsbs	ip, ip, #0
    2232:	eb7e 0000 	sbcs.w	r0, lr, r0
    2236:	eb6e 0101 	sbc.w	r1, lr, r1
    223a:	f5b1 1f80 	cmp.w	r1, #1048576	; 0x100000
    223e:	d31b      	bcc.n	2278 <__adddf3+0x124>
    2240:	f5b1 1f00 	cmp.w	r1, #2097152	; 0x200000
    2244:	d30c      	bcc.n	2260 <__adddf3+0x10c>
    2246:	0849      	lsrs	r1, r1, #1
    2248:	ea5f 0030 	movs.w	r0, r0, rrx
    224c:	ea4f 0c3c 	mov.w	ip, ip, rrx
    2250:	f104 0401 	add.w	r4, r4, #1
    2254:	ea4f 5244 	mov.w	r2, r4, lsl #21
    2258:	f512 0f80 	cmn.w	r2, #4194304	; 0x400000
    225c:	f080 809a 	bcs.w	2394 <__adddf3+0x240>
    2260:	f1bc 4f00 	cmp.w	ip, #2147483648	; 0x80000000
    2264:	bf08      	it	eq
    2266:	ea5f 0c50 	movseq.w	ip, r0, lsr #1
    226a:	f150 0000 	adcs.w	r0, r0, #0
    226e:	eb41 5104 	adc.w	r1, r1, r4, lsl #20
    2272:	ea41 0105 	orr.w	r1, r1, r5
    2276:	bd30      	pop	{r4, r5, pc}
    2278:	ea5f 0c4c 	movs.w	ip, ip, lsl #1
    227c:	4140      	adcs	r0, r0
    227e:	eb41 0101 	adc.w	r1, r1, r1
    2282:	3c01      	subs	r4, #1
    2284:	bf28      	it	cs
    2286:	f5b1 1f80 	cmpcs.w	r1, #1048576	; 0x100000
    228a:	d2e9      	bcs.n	2260 <__adddf3+0x10c>
    228c:	f091 0f00 	teq	r1, #0
    2290:	bf04      	itt	eq
    2292:	4601      	moveq	r1, r0
    2294:	2000      	moveq	r0, #0
    2296:	fab1 f381 	clz	r3, r1
    229a:	bf08      	it	eq
    229c:	3320      	addeq	r3, #32
    229e:	f1a3 030b 	sub.w	r3, r3, #11
    22a2:	f1b3 0220 	subs.w	r2, r3, #32
    22a6:	da0c      	bge.n	22c2 <__adddf3+0x16e>
    22a8:	320c      	adds	r2, #12
    22aa:	dd08      	ble.n	22be <__adddf3+0x16a>
    22ac:	f102 0c14 	add.w	ip, r2, #20
    22b0:	f1c2 020c 	rsb	r2, r2, #12
    22b4:	fa01 f00c 	lsl.w	r0, r1, ip
    22b8:	fa21 f102 	lsr.w	r1, r1, r2
    22bc:	e00c      	b.n	22d8 <__adddf3+0x184>
    22be:	f102 0214 	add.w	r2, r2, #20
    22c2:	bfd8      	it	le
    22c4:	f1c2 0c20 	rsble	ip, r2, #32
    22c8:	fa01 f102 	lsl.w	r1, r1, r2
    22cc:	fa20 fc0c 	lsr.w	ip, r0, ip
    22d0:	bfdc      	itt	le
    22d2:	ea41 010c 	orrle.w	r1, r1, ip
    22d6:	4090      	lslle	r0, r2
    22d8:	1ae4      	subs	r4, r4, r3
    22da:	bfa2      	ittt	ge
    22dc:	eb01 5104 	addge.w	r1, r1, r4, lsl #20
    22e0:	4329      	orrge	r1, r5
    22e2:	bd30      	popge	{r4, r5, pc}
    22e4:	ea6f 0404 	mvn.w	r4, r4
    22e8:	3c1f      	subs	r4, #31
    22ea:	da1c      	bge.n	2326 <__adddf3+0x1d2>
    22ec:	340c      	adds	r4, #12
    22ee:	dc0e      	bgt.n	230e <__adddf3+0x1ba>
    22f0:	f104 0414 	add.w	r4, r4, #20
    22f4:	f1c4 0220 	rsb	r2, r4, #32
    22f8:	fa20 f004 	lsr.w	r0, r0, r4
    22fc:	fa01 f302 	lsl.w	r3, r1, r2
    2300:	ea40 0003 	orr.w	r0, r0, r3
    2304:	fa21 f304 	lsr.w	r3, r1, r4
    2308:	ea45 0103 	orr.w	r1, r5, r3
    230c:	bd30      	pop	{r4, r5, pc}
    230e:	f1c4 040c 	rsb	r4, r4, #12
    2312:	f1c4 0220 	rsb	r2, r4, #32
    2316:	fa20 f002 	lsr.w	r0, r0, r2
    231a:	fa01 f304 	lsl.w	r3, r1, r4
    231e:	ea40 0003 	orr.w	r0, r0, r3
    2322:	4629      	mov	r1, r5
    2324:	bd30      	pop	{r4, r5, pc}
    2326:	fa21 f004 	lsr.w	r0, r1, r4
    232a:	4629      	mov	r1, r5
    232c:	bd30      	pop	{r4, r5, pc}
    232e:	f094 0f00 	teq	r4, #0
    2332:	f483 1380 	eor.w	r3, r3, #1048576	; 0x100000
    2336:	bf06      	itte	eq
    2338:	f481 1180 	eoreq.w	r1, r1, #1048576	; 0x100000
    233c:	3401      	addeq	r4, #1
    233e:	3d01      	subne	r5, #1
    2340:	e74e      	b.n	21e0 <__adddf3+0x8c>
    2342:	ea7f 5c64 	mvns.w	ip, r4, asr #21
    2346:	bf18      	it	ne
    2348:	ea7f 5c65 	mvnsne.w	ip, r5, asr #21
    234c:	d029      	beq.n	23a2 <__adddf3+0x24e>
    234e:	ea94 0f05 	teq	r4, r5
    2352:	bf08      	it	eq
    2354:	ea90 0f02 	teqeq	r0, r2
    2358:	d005      	beq.n	2366 <__adddf3+0x212>
    235a:	ea54 0c00 	orrs.w	ip, r4, r0
    235e:	bf04      	itt	eq
    2360:	4619      	moveq	r1, r3
    2362:	4610      	moveq	r0, r2
    2364:	bd30      	pop	{r4, r5, pc}
    2366:	ea91 0f03 	teq	r1, r3
    236a:	bf1e      	ittt	ne
    236c:	2100      	movne	r1, #0
    236e:	2000      	movne	r0, #0
    2370:	bd30      	popne	{r4, r5, pc}
    2372:	ea5f 5c54 	movs.w	ip, r4, lsr #21
    2376:	d105      	bne.n	2384 <__adddf3+0x230>
    2378:	0040      	lsls	r0, r0, #1
    237a:	4149      	adcs	r1, r1
    237c:	bf28      	it	cs
    237e:	f041 4100 	orrcs.w	r1, r1, #2147483648	; 0x80000000
    2382:	bd30      	pop	{r4, r5, pc}
    2384:	f514 0480 	adds.w	r4, r4, #4194304	; 0x400000
    2388:	bf3c      	itt	cc
    238a:	f501 1180 	addcc.w	r1, r1, #1048576	; 0x100000
    238e:	bd30      	popcc	{r4, r5, pc}
    2390:	f001 4500 	and.w	r5, r1, #2147483648	; 0x80000000
    2394:	f045 41fe 	orr.w	r1, r5, #2130706432	; 0x7f000000
    2398:	f441 0170 	orr.w	r1, r1, #15728640	; 0xf00000
    239c:	f04f 0000 	mov.w	r0, #0
    23a0:	bd30      	pop	{r4, r5, pc}
    23a2:	ea7f 5c64 	mvns.w	ip, r4, asr #21
    23a6:	bf1a      	itte	ne
    23a8:	4619      	movne	r1, r3
    23aa:	4610      	movne	r0, r2
    23ac:	ea7f 5c65 	mvnseq.w	ip, r5, asr #21
    23b0:	bf1c      	itt	ne
    23b2:	460b      	movne	r3, r1
    23b4:	4602      	movne	r2, r0
    23b6:	ea50 3401 	orrs.w	r4, r0, r1, lsl #12
    23ba:	bf06      	itte	eq
    23bc:	ea52 3503 	orrseq.w	r5, r2, r3, lsl #12
    23c0:	ea91 0f03 	teqeq	r1, r3
    23c4:	f441 2100 	orrne.w	r1, r1, #524288	; 0x80000
    23c8:	bd30      	pop	{r4, r5, pc}
    23ca:	bf00      	nop

000023cc <__aeabi_ui2d>:
    23cc:	f090 0f00 	teq	r0, #0
    23d0:	bf04      	itt	eq
    23d2:	2100      	moveq	r1, #0
    23d4:	4770      	bxeq	lr
    23d6:	b530      	push	{r4, r5, lr}
    23d8:	f44f 6480 	mov.w	r4, #1024	; 0x400
    23dc:	f104 0432 	add.w	r4, r4, #50	; 0x32
    23e0:	f04f 0500 	mov.w	r5, #0
    23e4:	f04f 0100 	mov.w	r1, #0
    23e8:	e750      	b.n	228c <__adddf3+0x138>
    23ea:	bf00      	nop

000023ec <__aeabi_i2d>:
    23ec:	f090 0f00 	teq	r0, #0
    23f0:	bf04      	itt	eq
    23f2:	2100      	moveq	r1, #0
    23f4:	4770      	bxeq	lr
    23f6:	b530      	push	{r4, r5, lr}
    23f8:	f44f 6480 	mov.w	r4, #1024	; 0x400
    23fc:	f104 0432 	add.w	r4, r4, #50	; 0x32
    2400:	f010 4500 	ands.w	r5, r0, #2147483648	; 0x80000000
    2404:	bf48      	it	mi
    2406:	4240      	negmi	r0, r0
    2408:	f04f 0100 	mov.w	r1, #0
    240c:	e73e      	b.n	228c <__adddf3+0x138>
    240e:	bf00      	nop

00002410 <__aeabi_f2d>:
    2410:	0042      	lsls	r2, r0, #1
    2412:	ea4f 01e2 	mov.w	r1, r2, asr #3
    2416:	ea4f 0131 	mov.w	r1, r1, rrx
    241a:	ea4f 7002 	mov.w	r0, r2, lsl #28
    241e:	bf1f      	itttt	ne
    2420:	f012 437f 	andsne.w	r3, r2, #4278190080	; 0xff000000
    2424:	f093 4f7f 	teqne	r3, #4278190080	; 0xff000000
    2428:	f081 5160 	eorne.w	r1, r1, #939524096	; 0x38000000
    242c:	4770      	bxne	lr
    242e:	f032 427f 	bics.w	r2, r2, #4278190080	; 0xff000000
    2432:	bf08      	it	eq
    2434:	4770      	bxeq	lr
    2436:	f093 4f7f 	teq	r3, #4278190080	; 0xff000000
    243a:	bf04      	itt	eq
    243c:	f441 2100 	orreq.w	r1, r1, #524288	; 0x80000
    2440:	4770      	bxeq	lr
    2442:	b530      	push	{r4, r5, lr}
    2444:	f44f 7460 	mov.w	r4, #896	; 0x380
    2448:	f001 4500 	and.w	r5, r1, #2147483648	; 0x80000000
    244c:	f021 4100 	bic.w	r1, r1, #2147483648	; 0x80000000
    2450:	e71c      	b.n	228c <__adddf3+0x138>
    2452:	bf00      	nop

00002454 <__aeabi_ul2d>:
    2454:	ea50 0201 	orrs.w	r2, r0, r1
    2458:	bf08      	it	eq
    245a:	4770      	bxeq	lr
    245c:	b530      	push	{r4, r5, lr}
    245e:	f04f 0500 	mov.w	r5, #0
    2462:	e00a      	b.n	247a <__aeabi_l2d+0x16>

00002464 <__aeabi_l2d>:
    2464:	ea50 0201 	orrs.w	r2, r0, r1
    2468:	bf08      	it	eq
    246a:	4770      	bxeq	lr
    246c:	b530      	push	{r4, r5, lr}
    246e:	f011 4500 	ands.w	r5, r1, #2147483648	; 0x80000000
    2472:	d502      	bpl.n	247a <__aeabi_l2d+0x16>
    2474:	4240      	negs	r0, r0
    2476:	eb61 0141 	sbc.w	r1, r1, r1, lsl #1
    247a:	f44f 6480 	mov.w	r4, #1024	; 0x400
    247e:	f104 0432 	add.w	r4, r4, #50	; 0x32
    2482:	ea5f 5c91 	movs.w	ip, r1, lsr #22
    2486:	f43f aed8 	beq.w	223a <__adddf3+0xe6>
    248a:	f04f 0203 	mov.w	r2, #3
    248e:	ea5f 0cdc 	movs.w	ip, ip, lsr #3
    2492:	bf18      	it	ne
    2494:	3203      	addne	r2, #3
    2496:	ea5f 0cdc 	movs.w	ip, ip, lsr #3
    249a:	bf18      	it	ne
    249c:	3203      	addne	r2, #3
    249e:	eb02 02dc 	add.w	r2, r2, ip, lsr #3
    24a2:	f1c2 0320 	rsb	r3, r2, #32
    24a6:	fa00 fc03 	lsl.w	ip, r0, r3
    24aa:	fa20 f002 	lsr.w	r0, r0, r2
    24ae:	fa01 fe03 	lsl.w	lr, r1, r3
    24b2:	ea40 000e 	orr.w	r0, r0, lr
    24b6:	fa21 f102 	lsr.w	r1, r1, r2
    24ba:	4414      	add	r4, r2
    24bc:	e6bd      	b.n	223a <__adddf3+0xe6>
    24be:	bf00      	nop

000024c0 <__aeabi_dmul>:
    24c0:	b570      	push	{r4, r5, r6, lr}
    24c2:	f04f 0cff 	mov.w	ip, #255	; 0xff
    24c6:	f44c 6ce0 	orr.w	ip, ip, #1792	; 0x700
    24ca:	ea1c 5411 	ands.w	r4, ip, r1, lsr #20
    24ce:	bf1d      	ittte	ne
    24d0:	ea1c 5513 	andsne.w	r5, ip, r3, lsr #20
    24d4:	ea94 0f0c 	teqne	r4, ip
    24d8:	ea95 0f0c 	teqne	r5, ip
    24dc:	f000 f8de 	bleq	269c <__aeabi_dmul+0x1dc>
    24e0:	442c      	add	r4, r5
    24e2:	ea81 0603 	eor.w	r6, r1, r3
    24e6:	ea21 514c 	bic.w	r1, r1, ip, lsl #21
    24ea:	ea23 534c 	bic.w	r3, r3, ip, lsl #21
    24ee:	ea50 3501 	orrs.w	r5, r0, r1, lsl #12
    24f2:	bf18      	it	ne
    24f4:	ea52 3503 	orrsne.w	r5, r2, r3, lsl #12
    24f8:	f441 1180 	orr.w	r1, r1, #1048576	; 0x100000
    24fc:	f443 1380 	orr.w	r3, r3, #1048576	; 0x100000
    2500:	d038      	beq.n	2574 <__aeabi_dmul+0xb4>
    2502:	fba0 ce02 	umull	ip, lr, r0, r2
    2506:	f04f 0500 	mov.w	r5, #0
    250a:	fbe1 e502 	umlal	lr, r5, r1, r2
    250e:	f006 4200 	and.w	r2, r6, #2147483648	; 0x80000000
    2512:	fbe0 e503 	umlal	lr, r5, r0, r3
    2516:	f04f 0600 	mov.w	r6, #0
    251a:	fbe1 5603 	umlal	r5, r6, r1, r3
    251e:	f09c 0f00 	teq	ip, #0
    2522:	bf18      	it	ne
    2524:	f04e 0e01 	orrne.w	lr, lr, #1
    2528:	f1a4 04ff 	sub.w	r4, r4, #255	; 0xff
    252c:	f5b6 7f00 	cmp.w	r6, #512	; 0x200
    2530:	f564 7440 	sbc.w	r4, r4, #768	; 0x300
    2534:	d204      	bcs.n	2540 <__aeabi_dmul+0x80>
    2536:	ea5f 0e4e 	movs.w	lr, lr, lsl #1
    253a:	416d      	adcs	r5, r5
    253c:	eb46 0606 	adc.w	r6, r6, r6
    2540:	ea42 21c6 	orr.w	r1, r2, r6, lsl #11
    2544:	ea41 5155 	orr.w	r1, r1, r5, lsr #21
    2548:	ea4f 20c5 	mov.w	r0, r5, lsl #11
    254c:	ea40 505e 	orr.w	r0, r0, lr, lsr #21
    2550:	ea4f 2ece 	mov.w	lr, lr, lsl #11
    2554:	f1b4 0cfd 	subs.w	ip, r4, #253	; 0xfd
    2558:	bf88      	it	hi
    255a:	f5bc 6fe0 	cmphi.w	ip, #1792	; 0x700
    255e:	d81e      	bhi.n	259e <__aeabi_dmul+0xde>
    2560:	f1be 4f00 	cmp.w	lr, #2147483648	; 0x80000000
    2564:	bf08      	it	eq
    2566:	ea5f 0e50 	movseq.w	lr, r0, lsr #1
    256a:	f150 0000 	adcs.w	r0, r0, #0
    256e:	eb41 5104 	adc.w	r1, r1, r4, lsl #20
    2572:	bd70      	pop	{r4, r5, r6, pc}
    2574:	f006 4600 	and.w	r6, r6, #2147483648	; 0x80000000
    2578:	ea46 0101 	orr.w	r1, r6, r1
    257c:	ea40 0002 	orr.w	r0, r0, r2
    2580:	ea81 0103 	eor.w	r1, r1, r3
    2584:	ebb4 045c 	subs.w	r4, r4, ip, lsr #1
    2588:	bfc2      	ittt	gt
    258a:	ebd4 050c 	rsbsgt	r5, r4, ip
    258e:	ea41 5104 	orrgt.w	r1, r1, r4, lsl #20
    2592:	bd70      	popgt	{r4, r5, r6, pc}
    2594:	f441 1180 	orr.w	r1, r1, #1048576	; 0x100000
    2598:	f04f 0e00 	mov.w	lr, #0
    259c:	3c01      	subs	r4, #1
    259e:	f300 80ab 	bgt.w	26f8 <__aeabi_dmul+0x238>
    25a2:	f114 0f36 	cmn.w	r4, #54	; 0x36
    25a6:	bfde      	ittt	le
    25a8:	2000      	movle	r0, #0
    25aa:	f001 4100 	andle.w	r1, r1, #2147483648	; 0x80000000
    25ae:	bd70      	pople	{r4, r5, r6, pc}
    25b0:	f1c4 0400 	rsb	r4, r4, #0
    25b4:	3c20      	subs	r4, #32
    25b6:	da35      	bge.n	2624 <__aeabi_dmul+0x164>
    25b8:	340c      	adds	r4, #12
    25ba:	dc1b      	bgt.n	25f4 <__aeabi_dmul+0x134>
    25bc:	f104 0414 	add.w	r4, r4, #20
    25c0:	f1c4 0520 	rsb	r5, r4, #32
    25c4:	fa00 f305 	lsl.w	r3, r0, r5
    25c8:	fa20 f004 	lsr.w	r0, r0, r4
    25cc:	fa01 f205 	lsl.w	r2, r1, r5
    25d0:	ea40 0002 	orr.w	r0, r0, r2
    25d4:	f001 4200 	and.w	r2, r1, #2147483648	; 0x80000000
    25d8:	f021 4100 	bic.w	r1, r1, #2147483648	; 0x80000000
    25dc:	eb10 70d3 	adds.w	r0, r0, r3, lsr #31
    25e0:	fa21 f604 	lsr.w	r6, r1, r4
    25e4:	eb42 0106 	adc.w	r1, r2, r6
    25e8:	ea5e 0e43 	orrs.w	lr, lr, r3, lsl #1
    25ec:	bf08      	it	eq
    25ee:	ea20 70d3 	biceq.w	r0, r0, r3, lsr #31
    25f2:	bd70      	pop	{r4, r5, r6, pc}
    25f4:	f1c4 040c 	rsb	r4, r4, #12
    25f8:	f1c4 0520 	rsb	r5, r4, #32
    25fc:	fa00 f304 	lsl.w	r3, r0, r4
    2600:	fa20 f005 	lsr.w	r0, r0, r5
    2604:	fa01 f204 	lsl.w	r2, r1, r4
    2608:	ea40 0002 	orr.w	r0, r0, r2
    260c:	f001 4100 	and.w	r1, r1, #2147483648	; 0x80000000
    2610:	eb10 70d3 	adds.w	r0, r0, r3, lsr #31
    2614:	f141 0100 	adc.w	r1, r1, #0
    2618:	ea5e 0e43 	orrs.w	lr, lr, r3, lsl #1
    261c:	bf08      	it	eq
    261e:	ea20 70d3 	biceq.w	r0, r0, r3, lsr #31
    2622:	bd70      	pop	{r4, r5, r6, pc}
    2624:	f1c4 0520 	rsb	r5, r4, #32
    2628:	fa00 f205 	lsl.w	r2, r0, r5
    262c:	ea4e 0e02 	orr.w	lr, lr, r2
    2630:	fa20 f304 	lsr.w	r3, r0, r4
    2634:	fa01 f205 	lsl.w	r2, r1, r5
    2638:	ea43 0302 	orr.w	r3, r3, r2
    263c:	fa21 f004 	lsr.w	r0, r1, r4
    2640:	f001 4100 	and.w	r1, r1, #2147483648	; 0x80000000
    2644:	fa21 f204 	lsr.w	r2, r1, r4
    2648:	ea20 0002 	bic.w	r0, r0, r2
    264c:	eb00 70d3 	add.w	r0, r0, r3, lsr #31
    2650:	ea5e 0e43 	orrs.w	lr, lr, r3, lsl #1
    2654:	bf08      	it	eq
    2656:	ea20 70d3 	biceq.w	r0, r0, r3, lsr #31
    265a:	bd70      	pop	{r4, r5, r6, pc}
    265c:	f094 0f00 	teq	r4, #0
    2660:	d10f      	bne.n	2682 <__aeabi_dmul+0x1c2>
    2662:	f001 4600 	and.w	r6, r1, #2147483648	; 0x80000000
    2666:	0040      	lsls	r0, r0, #1
    2668:	eb41 0101 	adc.w	r1, r1, r1
    266c:	f411 1f80 	tst.w	r1, #1048576	; 0x100000
    2670:	bf08      	it	eq
    2672:	3c01      	subeq	r4, #1
    2674:	d0f7      	beq.n	2666 <__aeabi_dmul+0x1a6>
    2676:	ea41 0106 	orr.w	r1, r1, r6
    267a:	f095 0f00 	teq	r5, #0
    267e:	bf18      	it	ne
    2680:	4770      	bxne	lr
    2682:	f003 4600 	and.w	r6, r3, #2147483648	; 0x80000000
    2686:	0052      	lsls	r2, r2, #1
    2688:	eb43 0303 	adc.w	r3, r3, r3
    268c:	f413 1f80 	tst.w	r3, #1048576	; 0x100000
    2690:	bf08      	it	eq
    2692:	3d01      	subeq	r5, #1
    2694:	d0f7      	beq.n	2686 <__aeabi_dmul+0x1c6>
    2696:	ea43 0306 	orr.w	r3, r3, r6
    269a:	4770      	bx	lr
    269c:	ea94 0f0c 	teq	r4, ip
    26a0:	ea0c 5513 	and.w	r5, ip, r3, lsr #20
    26a4:	bf18      	it	ne
    26a6:	ea95 0f0c 	teqne	r5, ip
    26aa:	d00c      	beq.n	26c6 <__aeabi_dmul+0x206>
    26ac:	ea50 0641 	orrs.w	r6, r0, r1, lsl #1
    26b0:	bf18      	it	ne
    26b2:	ea52 0643 	orrsne.w	r6, r2, r3, lsl #1
    26b6:	d1d1      	bne.n	265c <__aeabi_dmul+0x19c>
    26b8:	ea81 0103 	eor.w	r1, r1, r3
    26bc:	f001 4100 	and.w	r1, r1, #2147483648	; 0x80000000
    26c0:	f04f 0000 	mov.w	r0, #0
    26c4:	bd70      	pop	{r4, r5, r6, pc}
    26c6:	ea50 0641 	orrs.w	r6, r0, r1, lsl #1
    26ca:	bf06      	itte	eq
    26cc:	4610      	moveq	r0, r2
    26ce:	4619      	moveq	r1, r3
    26d0:	ea52 0643 	orrsne.w	r6, r2, r3, lsl #1
    26d4:	d019      	beq.n	270a <__aeabi_dmul+0x24a>
    26d6:	ea94 0f0c 	teq	r4, ip
    26da:	d102      	bne.n	26e2 <__aeabi_dmul+0x222>
    26dc:	ea50 3601 	orrs.w	r6, r0, r1, lsl #12
    26e0:	d113      	bne.n	270a <__aeabi_dmul+0x24a>
    26e2:	ea95 0f0c 	teq	r5, ip
    26e6:	d105      	bne.n	26f4 <__aeabi_dmul+0x234>
    26e8:	ea52 3603 	orrs.w	r6, r2, r3, lsl #12
    26ec:	bf1c      	itt	ne
    26ee:	4610      	movne	r0, r2
    26f0:	4619      	movne	r1, r3
    26f2:	d10a      	bne.n	270a <__aeabi_dmul+0x24a>
    26f4:	ea81 0103 	eor.w	r1, r1, r3
    26f8:	f001 4100 	and.w	r1, r1, #2147483648	; 0x80000000
    26fc:	f041 41fe 	orr.w	r1, r1, #2130706432	; 0x7f000000
    2700:	f441 0170 	orr.w	r1, r1, #15728640	; 0xf00000
    2704:	f04f 0000 	mov.w	r0, #0
    2708:	bd70      	pop	{r4, r5, r6, pc}
    270a:	f041 41fe 	orr.w	r1, r1, #2130706432	; 0x7f000000
    270e:	f441 0178 	orr.w	r1, r1, #16252928	; 0xf80000
    2712:	bd70      	pop	{r4, r5, r6, pc}

00002714 <__aeabi_ddiv>:
    2714:	b570      	push	{r4, r5, r6, lr}
    2716:	f04f 0cff 	mov.w	ip, #255	; 0xff
    271a:	f44c 6ce0 	orr.w	ip, ip, #1792	; 0x700
    271e:	ea1c 5411 	ands.w	r4, ip, r1, lsr #20
    2722:	bf1d      	ittte	ne
    2724:	ea1c 5513 	andsne.w	r5, ip, r3, lsr #20
    2728:	ea94 0f0c 	teqne	r4, ip
    272c:	ea95 0f0c 	teqne	r5, ip
    2730:	f000 f8a7 	bleq	2882 <__aeabi_ddiv+0x16e>
    2734:	eba4 0405 	sub.w	r4, r4, r5
    2738:	ea81 0e03 	eor.w	lr, r1, r3
    273c:	ea52 3503 	orrs.w	r5, r2, r3, lsl #12
    2740:	ea4f 3101 	mov.w	r1, r1, lsl #12
    2744:	f000 8088 	beq.w	2858 <__aeabi_ddiv+0x144>
    2748:	ea4f 3303 	mov.w	r3, r3, lsl #12
    274c:	f04f 5580 	mov.w	r5, #268435456	; 0x10000000
    2750:	ea45 1313 	orr.w	r3, r5, r3, lsr #4
    2754:	ea43 6312 	orr.w	r3, r3, r2, lsr #24
    2758:	ea4f 2202 	mov.w	r2, r2, lsl #8
    275c:	ea45 1511 	orr.w	r5, r5, r1, lsr #4
    2760:	ea45 6510 	orr.w	r5, r5, r0, lsr #24
    2764:	ea4f 2600 	mov.w	r6, r0, lsl #8
    2768:	f00e 4100 	and.w	r1, lr, #2147483648	; 0x80000000
    276c:	429d      	cmp	r5, r3
    276e:	bf08      	it	eq
    2770:	4296      	cmpeq	r6, r2
    2772:	f144 04fd 	adc.w	r4, r4, #253	; 0xfd
    2776:	f504 7440 	add.w	r4, r4, #768	; 0x300
    277a:	d202      	bcs.n	2782 <__aeabi_ddiv+0x6e>
    277c:	085b      	lsrs	r3, r3, #1
    277e:	ea4f 0232 	mov.w	r2, r2, rrx
    2782:	1ab6      	subs	r6, r6, r2
    2784:	eb65 0503 	sbc.w	r5, r5, r3
    2788:	085b      	lsrs	r3, r3, #1
    278a:	ea4f 0232 	mov.w	r2, r2, rrx
    278e:	f44f 1080 	mov.w	r0, #1048576	; 0x100000
    2792:	f44f 2c00 	mov.w	ip, #524288	; 0x80000
    2796:	ebb6 0e02 	subs.w	lr, r6, r2
    279a:	eb75 0e03 	sbcs.w	lr, r5, r3
    279e:	bf22      	ittt	cs
    27a0:	1ab6      	subcs	r6, r6, r2
    27a2:	4675      	movcs	r5, lr
    27a4:	ea40 000c 	orrcs.w	r0, r0, ip
    27a8:	085b      	lsrs	r3, r3, #1
    27aa:	ea4f 0232 	mov.w	r2, r2, rrx
    27ae:	ebb6 0e02 	subs.w	lr, r6, r2
    27b2:	eb75 0e03 	sbcs.w	lr, r5, r3
    27b6:	bf22      	ittt	cs
    27b8:	1ab6      	subcs	r6, r6, r2
    27ba:	4675      	movcs	r5, lr
    27bc:	ea40 005c 	orrcs.w	r0, r0, ip, lsr #1
    27c0:	085b      	lsrs	r3, r3, #1
    27c2:	ea4f 0232 	mov.w	r2, r2, rrx
    27c6:	ebb6 0e02 	subs.w	lr, r6, r2
    27ca:	eb75 0e03 	sbcs.w	lr, r5, r3
    27ce:	bf22      	ittt	cs
    27d0:	1ab6      	subcs	r6, r6, r2
    27d2:	4675      	movcs	r5, lr
    27d4:	ea40 009c 	orrcs.w	r0, r0, ip, lsr #2
    27d8:	085b      	lsrs	r3, r3, #1
    27da:	ea4f 0232 	mov.w	r2, r2, rrx
    27de:	ebb6 0e02 	subs.w	lr, r6, r2
    27e2:	eb75 0e03 	sbcs.w	lr, r5, r3
    27e6:	bf22      	ittt	cs
    27e8:	1ab6      	subcs	r6, r6, r2
    27ea:	4675      	movcs	r5, lr
    27ec:	ea40 00dc 	orrcs.w	r0, r0, ip, lsr #3
    27f0:	ea55 0e06 	orrs.w	lr, r5, r6
    27f4:	d018      	beq.n	2828 <__aeabi_ddiv+0x114>
    27f6:	ea4f 1505 	mov.w	r5, r5, lsl #4
    27fa:	ea45 7516 	orr.w	r5, r5, r6, lsr #28
    27fe:	ea4f 1606 	mov.w	r6, r6, lsl #4
    2802:	ea4f 03c3 	mov.w	r3, r3, lsl #3
    2806:	ea43 7352 	orr.w	r3, r3, r2, lsr #29
    280a:	ea4f 02c2 	mov.w	r2, r2, lsl #3
    280e:	ea5f 1c1c 	movs.w	ip, ip, lsr #4
    2812:	d1c0      	bne.n	2796 <__aeabi_ddiv+0x82>
    2814:	f411 1f80 	tst.w	r1, #1048576	; 0x100000
    2818:	d10b      	bne.n	2832 <__aeabi_ddiv+0x11e>
    281a:	ea41 0100 	orr.w	r1, r1, r0
    281e:	f04f 0000 	mov.w	r0, #0
    2822:	f04f 4c00 	mov.w	ip, #2147483648	; 0x80000000
    2826:	e7b6      	b.n	2796 <__aeabi_ddiv+0x82>
    2828:	f411 1f80 	tst.w	r1, #1048576	; 0x100000
    282c:	bf04      	itt	eq
    282e:	4301      	orreq	r1, r0
    2830:	2000      	moveq	r0, #0
    2832:	f1b4 0cfd 	subs.w	ip, r4, #253	; 0xfd
    2836:	bf88      	it	hi
    2838:	f5bc 6fe0 	cmphi.w	ip, #1792	; 0x700
    283c:	f63f aeaf 	bhi.w	259e <__aeabi_dmul+0xde>
    2840:	ebb5 0c03 	subs.w	ip, r5, r3
    2844:	bf04      	itt	eq
    2846:	ebb6 0c02 	subseq.w	ip, r6, r2
    284a:	ea5f 0c50 	movseq.w	ip, r0, lsr #1
    284e:	f150 0000 	adcs.w	r0, r0, #0
    2852:	eb41 5104 	adc.w	r1, r1, r4, lsl #20
    2856:	bd70      	pop	{r4, r5, r6, pc}
    2858:	f00e 4e00 	and.w	lr, lr, #2147483648	; 0x80000000
    285c:	ea4e 3111 	orr.w	r1, lr, r1, lsr #12
    2860:	eb14 045c 	adds.w	r4, r4, ip, lsr #1
    2864:	bfc2      	ittt	gt
    2866:	ebd4 050c 	rsbsgt	r5, r4, ip
    286a:	ea41 5104 	orrgt.w	r1, r1, r4, lsl #20
    286e:	bd70      	popgt	{r4, r5, r6, pc}
    2870:	f441 1180 	orr.w	r1, r1, #1048576	; 0x100000
    2874:	f04f 0e00 	mov.w	lr, #0
    2878:	3c01      	subs	r4, #1
    287a:	e690      	b.n	259e <__aeabi_dmul+0xde>
    287c:	ea45 0e06 	orr.w	lr, r5, r6
    2880:	e68d      	b.n	259e <__aeabi_dmul+0xde>
    2882:	ea0c 5513 	and.w	r5, ip, r3, lsr #20
    2886:	ea94 0f0c 	teq	r4, ip
    288a:	bf08      	it	eq
    288c:	ea95 0f0c 	teqeq	r5, ip
    2890:	f43f af3b 	beq.w	270a <__aeabi_dmul+0x24a>
    2894:	ea94 0f0c 	teq	r4, ip
    2898:	d10a      	bne.n	28b0 <__aeabi_ddiv+0x19c>
    289a:	ea50 3401 	orrs.w	r4, r0, r1, lsl #12
    289e:	f47f af34 	bne.w	270a <__aeabi_dmul+0x24a>
    28a2:	ea95 0f0c 	teq	r5, ip
    28a6:	f47f af25 	bne.w	26f4 <__aeabi_dmul+0x234>
    28aa:	4610      	mov	r0, r2
    28ac:	4619      	mov	r1, r3
    28ae:	e72c      	b.n	270a <__aeabi_dmul+0x24a>
    28b0:	ea95 0f0c 	teq	r5, ip
    28b4:	d106      	bne.n	28c4 <__aeabi_ddiv+0x1b0>
    28b6:	ea52 3503 	orrs.w	r5, r2, r3, lsl #12
    28ba:	f43f aefd 	beq.w	26b8 <__aeabi_dmul+0x1f8>
    28be:	4610      	mov	r0, r2
    28c0:	4619      	mov	r1, r3
    28c2:	e722      	b.n	270a <__aeabi_dmul+0x24a>
    28c4:	ea50 0641 	orrs.w	r6, r0, r1, lsl #1
    28c8:	bf18      	it	ne
    28ca:	ea52 0643 	orrsne.w	r6, r2, r3, lsl #1
    28ce:	f47f aec5 	bne.w	265c <__aeabi_dmul+0x19c>
    28d2:	ea50 0441 	orrs.w	r4, r0, r1, lsl #1
    28d6:	f47f af0d 	bne.w	26f4 <__aeabi_dmul+0x234>
    28da:	ea52 0543 	orrs.w	r5, r2, r3, lsl #1
    28de:	f47f aeeb 	bne.w	26b8 <__aeabi_dmul+0x1f8>
    28e2:	e712      	b.n	270a <__aeabi_dmul+0x24a>

000028e4 <__gedf2>:
    28e4:	f04f 3cff 	mov.w	ip, #4294967295	; 0xffffffff
    28e8:	e006      	b.n	28f8 <__cmpdf2+0x4>
    28ea:	bf00      	nop

000028ec <__ledf2>:
    28ec:	f04f 0c01 	mov.w	ip, #1
    28f0:	e002      	b.n	28f8 <__cmpdf2+0x4>
    28f2:	bf00      	nop

000028f4 <__cmpdf2>:
    28f4:	f04f 0c01 	mov.w	ip, #1
    28f8:	f84d cd04 	str.w	ip, [sp, #-4]!
    28fc:	ea4f 0c41 	mov.w	ip, r1, lsl #1
    2900:	ea7f 5c6c 	mvns.w	ip, ip, asr #21
    2904:	ea4f 0c43 	mov.w	ip, r3, lsl #1
    2908:	bf18      	it	ne
    290a:	ea7f 5c6c 	mvnsne.w	ip, ip, asr #21
    290e:	d01b      	beq.n	2948 <__cmpdf2+0x54>
    2910:	b001      	add	sp, #4
    2912:	ea50 0c41 	orrs.w	ip, r0, r1, lsl #1
    2916:	bf0c      	ite	eq
    2918:	ea52 0c43 	orrseq.w	ip, r2, r3, lsl #1
    291c:	ea91 0f03 	teqne	r1, r3
    2920:	bf02      	ittt	eq
    2922:	ea90 0f02 	teqeq	r0, r2
    2926:	2000      	moveq	r0, #0
    2928:	4770      	bxeq	lr
    292a:	f110 0f00 	cmn.w	r0, #0
    292e:	ea91 0f03 	teq	r1, r3
    2932:	bf58      	it	pl
    2934:	4299      	cmppl	r1, r3
    2936:	bf08      	it	eq
    2938:	4290      	cmpeq	r0, r2
    293a:	bf2c      	ite	cs
    293c:	17d8      	asrcs	r0, r3, #31
    293e:	ea6f 70e3 	mvncc.w	r0, r3, asr #31
    2942:	f040 0001 	orr.w	r0, r0, #1
    2946:	4770      	bx	lr
    2948:	ea4f 0c41 	mov.w	ip, r1, lsl #1
    294c:	ea7f 5c6c 	mvns.w	ip, ip, asr #21
    2950:	d102      	bne.n	2958 <__cmpdf2+0x64>
    2952:	ea50 3c01 	orrs.w	ip, r0, r1, lsl #12
    2956:	d107      	bne.n	2968 <__cmpdf2+0x74>
    2958:	ea4f 0c43 	mov.w	ip, r3, lsl #1
    295c:	ea7f 5c6c 	mvns.w	ip, ip, asr #21
    2960:	d1d6      	bne.n	2910 <__cmpdf2+0x1c>
    2962:	ea52 3c03 	orrs.w	ip, r2, r3, lsl #12
    2966:	d0d3      	beq.n	2910 <__cmpdf2+0x1c>
    2968:	f85d 0b04 	ldr.w	r0, [sp], #4
    296c:	4770      	bx	lr
    296e:	bf00      	nop

00002970 <__aeabi_cdrcmple>:
    2970:	4684      	mov	ip, r0
    2972:	4610      	mov	r0, r2
    2974:	4662      	mov	r2, ip
    2976:	468c      	mov	ip, r1
    2978:	4619      	mov	r1, r3
    297a:	4663      	mov	r3, ip
    297c:	e000      	b.n	2980 <__aeabi_cdcmpeq>
    297e:	bf00      	nop

00002980 <__aeabi_cdcmpeq>:
    2980:	b501      	push	{r0, lr}
    2982:	f7ff ffb7 	bl	28f4 <__cmpdf2>
    2986:	2800      	cmp	r0, #0
    2988:	bf48      	it	mi
    298a:	f110 0f00 	cmnmi.w	r0, #0
    298e:	bd01      	pop	{r0, pc}

00002990 <__aeabi_dcmpeq>:
    2990:	f84d ed08 	str.w	lr, [sp, #-8]!
    2994:	f7ff fff4 	bl	2980 <__aeabi_cdcmpeq>
    2998:	bf0c      	ite	eq
    299a:	2001      	moveq	r0, #1
    299c:	2000      	movne	r0, #0
    299e:	f85d fb08 	ldr.w	pc, [sp], #8
    29a2:	bf00      	nop

000029a4 <__aeabi_dcmplt>:
    29a4:	f84d ed08 	str.w	lr, [sp, #-8]!
    29a8:	f7ff ffea 	bl	2980 <__aeabi_cdcmpeq>
    29ac:	bf34      	ite	cc
    29ae:	2001      	movcc	r0, #1
    29b0:	2000      	movcs	r0, #0
    29b2:	f85d fb08 	ldr.w	pc, [sp], #8
    29b6:	bf00      	nop

000029b8 <__aeabi_dcmple>:
    29b8:	f84d ed08 	str.w	lr, [sp, #-8]!
    29bc:	f7ff ffe0 	bl	2980 <__aeabi_cdcmpeq>
    29c0:	bf94      	ite	ls
    29c2:	2001      	movls	r0, #1
    29c4:	2000      	movhi	r0, #0
    29c6:	f85d fb08 	ldr.w	pc, [sp], #8
    29ca:	bf00      	nop

000029cc <__aeabi_dcmpge>:
    29cc:	f84d ed08 	str.w	lr, [sp, #-8]!
    29d0:	f7ff ffce 	bl	2970 <__aeabi_cdrcmple>
    29d4:	bf94      	ite	ls
    29d6:	2001      	movls	r0, #1
    29d8:	2000      	movhi	r0, #0
    29da:	f85d fb08 	ldr.w	pc, [sp], #8
    29de:	bf00      	nop

000029e0 <__aeabi_dcmpgt>:
    29e0:	f84d ed08 	str.w	lr, [sp, #-8]!
    29e4:	f7ff ffc4 	bl	2970 <__aeabi_cdrcmple>
    29e8:	bf34      	ite	cc
    29ea:	2001      	movcc	r0, #1
    29ec:	2000      	movcs	r0, #0
    29ee:	f85d fb08 	ldr.w	pc, [sp], #8
    29f2:	bf00      	nop

000029f4 <__aeabi_dcmpun>:
    29f4:	ea4f 0c41 	mov.w	ip, r1, lsl #1
    29f8:	ea7f 5c6c 	mvns.w	ip, ip, asr #21
    29fc:	d102      	bne.n	2a04 <__aeabi_dcmpun+0x10>
    29fe:	ea50 3c01 	orrs.w	ip, r0, r1, lsl #12
    2a02:	d10a      	bne.n	2a1a <__aeabi_dcmpun+0x26>
    2a04:	ea4f 0c43 	mov.w	ip, r3, lsl #1
    2a08:	ea7f 5c6c 	mvns.w	ip, ip, asr #21
    2a0c:	d102      	bne.n	2a14 <__aeabi_dcmpun+0x20>
    2a0e:	ea52 3c03 	orrs.w	ip, r2, r3, lsl #12
    2a12:	d102      	bne.n	2a1a <__aeabi_dcmpun+0x26>
    2a14:	f04f 0000 	mov.w	r0, #0
    2a18:	4770      	bx	lr
    2a1a:	f04f 0001 	mov.w	r0, #1
    2a1e:	4770      	bx	lr

00002a20 <__aeabi_d2f>:
    2a20:	ea4f 0241 	mov.w	r2, r1, lsl #1
    2a24:	f1b2 43e0 	subs.w	r3, r2, #1879048192	; 0x70000000
    2a28:	bf24      	itt	cs
    2a2a:	f5b3 1c00 	subscs.w	ip, r3, #2097152	; 0x200000
    2a2e:	f1dc 5cfe 	rsbscs	ip, ip, #532676608	; 0x1fc00000
    2a32:	d90d      	bls.n	2a50 <__aeabi_d2f+0x30>
    2a34:	f001 4c00 	and.w	ip, r1, #2147483648	; 0x80000000
    2a38:	ea4f 02c0 	mov.w	r2, r0, lsl #3
    2a3c:	ea4c 7050 	orr.w	r0, ip, r0, lsr #29
    2a40:	f1b2 4f00 	cmp.w	r2, #2147483648	; 0x80000000
    2a44:	eb40 0083 	adc.w	r0, r0, r3, lsl #2
    2a48:	bf08      	it	eq
    2a4a:	f020 0001 	biceq.w	r0, r0, #1
    2a4e:	4770      	bx	lr
    2a50:	f011 4f80 	tst.w	r1, #1073741824	; 0x40000000
    2a54:	d121      	bne.n	2a9a <__aeabi_d2f+0x7a>
    2a56:	f113 7238 	adds.w	r2, r3, #48234496	; 0x2e00000
    2a5a:	bfbc      	itt	lt
    2a5c:	f001 4000 	andlt.w	r0, r1, #2147483648	; 0x80000000
    2a60:	4770      	bxlt	lr
    2a62:	f441 1180 	orr.w	r1, r1, #1048576	; 0x100000
    2a66:	ea4f 5252 	mov.w	r2, r2, lsr #21
    2a6a:	f1c2 0218 	rsb	r2, r2, #24
    2a6e:	f1c2 0c20 	rsb	ip, r2, #32
    2a72:	fa10 f30c 	lsls.w	r3, r0, ip
    2a76:	fa20 f002 	lsr.w	r0, r0, r2
    2a7a:	bf18      	it	ne
    2a7c:	f040 0001 	orrne.w	r0, r0, #1
    2a80:	ea4f 23c1 	mov.w	r3, r1, lsl #11
    2a84:	ea4f 23d3 	mov.w	r3, r3, lsr #11
    2a88:	fa03 fc0c 	lsl.w	ip, r3, ip
    2a8c:	ea40 000c 	orr.w	r0, r0, ip
    2a90:	fa23 f302 	lsr.w	r3, r3, r2
    2a94:	ea4f 0343 	mov.w	r3, r3, lsl #1
    2a98:	e7cc      	b.n	2a34 <__aeabi_d2f+0x14>
    2a9a:	ea7f 5362 	mvns.w	r3, r2, asr #21
    2a9e:	d107      	bne.n	2ab0 <__aeabi_d2f+0x90>
    2aa0:	ea50 3301 	orrs.w	r3, r0, r1, lsl #12
    2aa4:	bf1e      	ittt	ne
    2aa6:	f04f 40fe 	movne.w	r0, #2130706432	; 0x7f000000
    2aaa:	f440 0040 	orrne.w	r0, r0, #12582912	; 0xc00000
    2aae:	4770      	bxne	lr
    2ab0:	f001 4000 	and.w	r0, r1, #2147483648	; 0x80000000
    2ab4:	f040 40fe 	orr.w	r0, r0, #2130706432	; 0x7f000000
    2ab8:	f440 0000 	orr.w	r0, r0, #8388608	; 0x800000
    2abc:	4770      	bx	lr
    2abe:	bf00      	nop

00002ac0 <__errno>:
    2ac0:	4b01      	ldr	r3, [pc, #4]	; (2ac8 <__errno+0x8>)
    2ac2:	6818      	ldr	r0, [r3, #0]
    2ac4:	4770      	bx	lr
    2ac6:	bf00      	nop
    2ac8:	20000008 	.word	0x20000008

00002acc <armBitRevIndexTable1024>:
    2acc:	10000008 02000010 12000018 04000020     ............ ...
    2adc:	14000028 06000030 16000038 08000040     (...0...8...@...
    2aec:	18000048 0a000050 1a000058 0c000060     H...P...X...`...
    2afc:	1c000068 0e000070 1e000078 08000080     h...p...x.......
    2b0c:	10400088 02400090 12400098 044000a0     ..@...@...@...@.
    2b1c:	144000a8 064000b0 164000b8 084000c0     ..@...@...@...@.
    2b2c:	184000c8 0a4000d0 1a4000d8 0c4000e0     ..@...@...@...@.
    2b3c:	1c4000e8 0e4000f0 1e4000f8 08000100     ..@...@...@.....
    2b4c:	10800108 02800110 12800118 04800120     ............ ...
    2b5c:	14800128 06800130 16800138 08800140     (...0...8...@...
    2b6c:	18800148 0a800150 1a800158 0c800160     H...P...X...`...
    2b7c:	1c800168 0e800170 1e800178 08400180     h...p...x.....@.
    2b8c:	10c00188 02c00190 12c00198 04c001a0     ................
    2b9c:	14c001a8 06c001b0 16c001b8 08c001c0     ................
    2bac:	18c001c8 0ac001d0 1ac001d8 0cc001e0     ................
    2bbc:	1cc001e8 0ec001f0 1ec001f8 08000200     ................
    2bcc:	11000208 03000210 13000218 05000220     ............ ...
    2bdc:	15000228 07000230 17000238 09000240     (...0...8...@...
    2bec:	19000248 0b000250 1b000258 0d000260     H...P...X...`...
    2bfc:	1d000268 0f000270 1f000278 08800280     h...p...x.......
    2c0c:	11400288 03400290 13400298 054002a0     ..@...@...@...@.
    2c1c:	154002a8 074002b0 174002b8 094002c0     ..@...@...@...@.
    2c2c:	194002c8 0b4002d0 1b4002d8 0d4002e0     ..@...@...@...@.
    2c3c:	1d4002e8 0f4002f0 1f4002f8 08400300     ..@...@...@...@.
    2c4c:	11800308 03800310 13800318 05800320     ............ ...
    2c5c:	15800328 07800330 17800338 09800340     (...0...8...@...
    2c6c:	19800348 0b800350 1b800358 0d800360     H...P...X...`...
    2c7c:	1d800368 0f800370 1f800378 08c00380     h...p...x.......
    2c8c:	11c00388 03c00390 13c00398 05c003a0     ................
    2c9c:	15c003a8 07c003b0 17c003b8 09c003c0     ................
    2cac:	19c003c8 0bc003d0 1bc003d8 0dc003e0     ................
    2cbc:	1dc003e8 0fc003f0 1fc003f8 10000400     ................
    2ccc:	10080408 11000410 12080418 10080420     ............ ...
    2cdc:	14080428 06080430 16080438 08080440     (...0...8...@...
    2cec:	18080448 0a080450 1a080458 0c080460     H...P...X...`...
    2cfc:	1c080468 0e080470 1e080478 18000480     h...p...x.......
    2d0c:	10480488 19000490 12480498 180804a0     ..H.......H.....
    2d1c:	144804a8 064804b0 164804b8 084804c0     ..H...H...H...H.
    2d2c:	184804c8 0a4804d0 1a4804d8 0c4804e0     ..H...H...H...H.
    2d3c:	1c4804e8 0e4804f0 1e4804f8 10400500     ..H...H...H...@.
    2d4c:	10880508 11400510 12880518 10480520     ......@..... .H.
    2d5c:	14880528 06880530 16880538 08880540     (...0...8...@...
    2d6c:	18880548 0a880550 1a880558 0c880560     H...P...X...`...
    2d7c:	1c880568 0e880570 1e880578 18400580     h...p...x.....@.
    2d8c:	10c80588 19400590 12c80598 184805a0     ......@.......H.
    2d9c:	14c805a8 06c805b0 16c805b8 08c805c0     ................
    2dac:	18c805c8 0ac805d0 1ac805d8 0cc805e0     ................
    2dbc:	1cc805e8 0ec805f0 1ec805f8 10800600     ................
    2dcc:	11080608 11800610 13080618 10880620     ............ ...
    2ddc:	15080628 07080630 17080638 09080640     (...0...8...@...
    2dec:	19080648 0b080650 1b080658 0d080660     H...P...X...`...
    2dfc:	1d080668 0f080670 1f080678 18800680     h...p...x.......
    2e0c:	11480688 19800690 13480698 188806a0     ..H.......H.....
    2e1c:	154806a8 074806b0 174806b8 094806c0     ..H...H...H...H.
    2e2c:	194806c8 0b4806d0 1b4806d8 0d4806e0     ..H...H...H...H.
    2e3c:	1d4806e8 0f4806f0 1f4806f8 10c00700     ..H...H...H.....
    2e4c:	11880708 11c00710 13880718 10c80720     ............ ...
    2e5c:	15880728 07880730 17880738 09880740     (...0...8...@...
    2e6c:	19880748 0b880750 1b880758 0d880760     H...P...X...`...
    2e7c:	1d880768 0f880770 1f880778 18c00780     h...p...x.......
    2e8c:	11c80788 19c00790 13c80798 18c807a0     ................
    2e9c:	15c807a8 07c807b0 17c807b8 09c807c0     ................
    2eac:	19c807c8 0bc807d0 1bc807d8 0dc807e0     ................
    2ebc:	1dc807e8 0fc807f0 1fc807f8 10100808     ................
    2ecc:	08400810 12100818 11000820 14100828     ..@..... ...(...
    2edc:	11800830 16100838 18100848 0a100850     0...8...H...P...
    2eec:	1a100858 0c100860 1c100868 0e100870     X...`...h...p...
    2efc:	1e100878 0a000880 10500888 0b000890     x.........P.....
    2f0c:	12500898 0a0808a0 145008a8 0b0808b0     ..P.......P.....
    2f1c:	165008b8 0a1008c0 185008c8 0a5008d0     ..P.......P...P.
    2f2c:	1a5008d8 0c5008e0 1c5008e8 0e5008f0     ..P...P...P...P.
    2f3c:	1e5008f8 10900908 09800910 12900918     ..P.............
    2f4c:	19000920 14900928 19800930 16900938      ...(...0...8...
    2f5c:	0b000940 18900948 0a900950 1a900958     @...H...P...X...
    2f6c:	0c900960 1c900968 0e900970 1e900978     `...h...p...x...
    2f7c:	0a400980 10d00988 0b400990 12d00998     ..@.......@.....
    2f8c:	0a4809a0 14d009a8 0b4809b0 16d009b8     ..H.......H.....
    2f9c:	0a5009c0 18d009c8 0ad009d0 1ad009d8     ..P.............
    2fac:	0cd009e0 1cd009e8 0ed009f0 1ed009f8     ................
    2fbc:	11100a08 13100a18 11400a20 15100a28     ........ .@.(...
    2fcc:	11c00a30 17100a38 19100a48 0b100a50     0...8...H...P...
    2fdc:	1b100a58 0d100a60 1d100a68 0f100a70     X...`...h...p...
    2fec:	1f100a78 11500a88 0b800a90 13500a98     x.....P.......P.
    2ffc:	11500aa0 15500aa8 0b880ab0 17500ab8     ..P...P.......P.
    300c:	0b800ac0 19500ac8 0b500ad0 1b500ad8     ......P...P...P.
    301c:	0d500ae0 1d500ae8 0f500af0 1f500af8     ..P...P...P...P.
    302c:	11900b08 13900b18 19400b20 15900b28     ........ .@.(...
    303c:	19c00b30 17900b38 19900b48 0b900b50     0...8...H...P...
    304c:	1b900b58 0d900b60 1d900b68 0f900b70     X...`...h...p...
    305c:	1f900b78 11d00b88 0bc00b90 13d00b98     x...............
    306c:	19500ba0 15d00ba8 0bc80bb0 17d00bb8     ..P.............
    307c:	19d00bc8 1bd00bd8 0dd00be0 1dd00be8     ................
    308c:	0fd00bf0 1fd00bf8 12000c00 10180c08     ................
    309c:	13000c10 12180c18 12080c20 14180c28     ........ ...(...
    30ac:	13080c30 16180c38 12100c40 18180c48     0...8...@...H...
    30bc:	13100c50 1a180c58 12180c60 1c180c68     P...X...`...h...
    30cc:	0e180c70 1e180c78 1a000c80 10580c88     p...x.........X.
    30dc:	1b000c90 12580c98 1a080ca0 14580ca8     ......X.......X.
    30ec:	1b080cb0 16580cb8 1a100cc0 18580cc8     ......X.......X.
    30fc:	1b100cd0 1a580cd8 1a180ce0 1c580ce8     ......X.......X.
    310c:	0e580cf0 1e580cf8 12400d00 10980d08     ..X...X...@.....
    311c:	13400d10 12980d18 12480d20 14980d28     ..@..... .H.(...
    312c:	13480d30 16980d38 12500d40 18980d48     0.H.8...@.P.H...
    313c:	13500d50 1a980d58 12580d60 1c980d68     P.P.X...`.X.h...
    314c:	0e980d70 1e980d78 1a400d80 10d80d88     p...x.....@.....
    315c:	1b400d90 12d80d98 1a480da0 14d80da8     ..@.......H.....
    316c:	1b480db0 16d80db8 1a500dc0 18d80dc8     ..H.......P.....
    317c:	1b500dd0 1ad80dd8 1a580de0 1cd80de8     ..P.......X.....
    318c:	0ed80df0 1ed80df8 12800e00 11180e08     ................
    319c:	13800e10 13180e18 12880e20 15180e28     ........ ...(...
    31ac:	13880e30 17180e38 12900e40 19180e48     0...8...@...H...
    31bc:	13900e50 1b180e58 12980e60 1d180e68     P...X...`...h...
    31cc:	0f180e70 1f180e78 1a800e80 11580e88     p...x.........X.
    31dc:	1b800e90 13580e98 1a880ea0 15580ea8     ......X.......X.
    31ec:	1b880eb0 17580eb8 1a900ec0 19580ec8     ......X.......X.
    31fc:	1b900ed0 1b580ed8 1a980ee0 1d580ee8     ......X.......X.
    320c:	0f580ef0 1f580ef8 12c00f00 11980f08     ..X...X.........
    321c:	13c00f10 13980f18 12c80f20 15980f28     ........ ...(...
    322c:	13c80f30 17980f38 12d00f40 19980f48     0...8...@...H...
    323c:	13d00f50 1b980f58 12d80f60 1d980f68     P...X...`...h...
    324c:	0f980f70 1f980f78 1ac00f80 11d80f88     p...x...........
    325c:	1bc00f90 13d80f98 1ac80fa0 15d80fa8     ................
    326c:	1bc80fb0 17d80fb8 1ad00fc0 19d80fc8     ................
    327c:	1bd00fd0 1bd80fd8 1ad80fe0 1dd80fe8     ................
    328c:	1bd80ff0 1fd80ff8 10201008 10401010     .......... ...@.
    329c:	12201018 14201028 10881030 16201038     .. .(. .0...8. .
    32ac:	11001040 18201048 11401050 1a201058     @...H. .P.@.X. .
    32bc:	12081060 1c201068 12881070 1e201078     `...h. .p...x. .
    32cc:	12001080 12081088 12401090 12601098     ..........@...`.
    32dc:	122010a0 146010a8 126010b0 166010b8     .. ...`...`...`.
    32ec:	130010c0 186010c8 134010d0 1a6010d8     ......`...@...`.
    32fc:	121810e0 1c6010e8 129810f0 1e6010f8     ......`.......`.
    330c:	12201108 11401110 12a01118 18081120     .. ...@..... ...
    331c:	14a01128 18881130 16a01138 18a01148     (...0...8...H...
    332c:	1aa01158 1a081160 1ca01168 1a881170     X...`...h...p...
    333c:	1ea01178 12101180 12181188 12501190     x.............P.
    334c:	12e01198 181811a0 14e011a8 189811b0     ................
    335c:	16e011b8 131011c0 18e011c8 135011d0     ..............P.
    336c:	1ae011d8 1a1811e0 1ce011e8 1a9811f0     ................
    337c:	1ee011f8 18001200 18081208 18401210     ..............@.
    338c:	13201218 18201220 15201228 18601230     .. . . .(. .0.`.
    339c:	17201238 19001240 19201248 19401250     8. .@...H. .P.@.
    33ac:	1b201258 19201260 1d201268 12c81270     X. .`. .h. .p...
    33bc:	1f201278 1a001280 1a081288 1a401290     x. ...........@.
    33cc:	13601298 1a2012a0 156012a8 1a6012b0     ..`... ...`...`.
    33dc:	176012b8 1b0012c0 196012c8 1b4012d0     ..`.......`...@.
    33ec:	1b6012d8 1b2012e0 1d6012e8 1b6012f0     ..`... ...`...`.
    33fc:	1f6012f8 18101300 18181308 18501310     ..`...........P.
    340c:	13a01318 18481320 15a01328 18c81330     .... .H.(...0...
    341c:	17a01338 19101340 19a01348 19501350     8...@...H...P.P.
    342c:	1ba01358 1a481360 1da01368 1ac81370     X...`.H.h...p...
    343c:	1fa01378 1a101380 1a181388 1a501390     x.............P.
    344c:	13e01398 185813a0 15e013a8 18d813b0     ......X.........
    345c:	17e013b8 1b1013c0 19e013c8 1b5013d0     ..............P.
    346c:	1be013d8 1a5813e0 1de013e8 1ad813f0     ......X.........
    347c:	1fe013f8 14201408 15001410 15201418     ...... ....... .
    348c:	15081430 16281438 15001440 18281448     0...8.(.@...H.(.
    349c:	15101450 1a281458 15201460 1c281468     P...X.(.`. .h.(.
    34ac:	15181470 1e281478 1c001480 1c201488     p...x.(....... .
    34bc:	1d001490 1d201498 1c0814a0 1c2814a8     ...... .......(.
    34cc:	1d0814b0 166814b8 1c1014c0 186814c8     ......h.......h.
    34dc:	1d1014d0 1a6814d8 1c1814e0 1c6814e8     ......h.......h.
    34ec:	1d1814f0 1e6814f8 15201508 15401510     ......h... ...@.
    34fc:	15601518 18281520 1c281528 15481530     ..`. .(.(.(.0.H.
    350c:	16a81538 18a81548 1aa81558 1a281560     8...H...X...`.(.
    351c:	1ca81568 1aa81570 1ea81578 1c401580     h...p...x.....@.
    352c:	1c601588 1d401590 1d601598 1c4815a0     ..`...@...`...H.
    353c:	1c6815a8 1d4815b0 16e815b8 1c5015c0     ..h...H.......P.
    354c:	18e815c8 1d5015d0 1ae815d8 1c5815e0     ......P.......X.
    355c:	1ce815e8 1d5815f0 1ee815f8 1c001600     ......X.........
    356c:	1c081608 1c401610 1c481618 1c201620     ......@...H. . .
    357c:	1c281628 1c601630 17281638 1d001640     (.(.0.`.8.(.@...
    358c:	19281648 1d401650 1b281658 1d201660     H.(.P.@.X.(.`. .
    359c:	1d281668 1d601670 1f281678 1c801680     h.(.p.`.x.(.....
    35ac:	1ca01688 1d801690 1da01698 1c8816a0     ................
    35bc:	1ca816a8 1d8816b0 176816b8 1c9016c0     ..........h.....
    35cc:	196816c8 1d9016d0 1b6816d8 1c9816e0     ..h.......h.....
    35dc:	1d6816e8 1d9816f0 1f6816f8 1c101700     ..h.......h.....
    35ec:	1c181708 1c501710 1c581718 18681720     ......P...X. .h.
    35fc:	1c681728 18e81730 17a81738 1d101740     (.h.0...8...@...
    360c:	19a81748 1d501750 1ba81758 1a681760     H...P.P.X...`.h.
    361c:	1da81768 1ae81770 1fa81778 1cc01780     h...p...x.......
    362c:	1ce01788 1dc01790 1de01798 1cc817a0     ................
    363c:	1ce817a8 1dc817b0 17e817b8 1cd017c0     ................
    364c:	19e817c8 1dd017d0 1be817d8 1cd817e0     ................
    365c:	1de817e8 1dd817f0 1fe817f8 18601818     ..............`.
    366c:	18481830 1c601838 1a301858 1c301868     0.H.8.`.X.0.h.0.
    367c:	1a181870 1e301878 1a001880 1a081888     p...x.0.........
    368c:	1b001890 19601898 1a2018a0 1a2818a8     ......`... ...(.
    369c:	1b2018b0 1d6018b8 1a1018c0 1a1818c8     .. ...`.........
    36ac:	1b1018d0 1a7018d8 1a3018e0 1c7018e8     ......p...0...p.
    36bc:	1a5818f0 1e7018f8 19201908 1a601918     ..X...p... ...`.
    36cc:	1d081928 19881930 1d881938 1b201948     (...0...8...H. .
    36dc:	1ab01958 1b081960 1cb01968 1b881970     X...`...h...p...
    36ec:	1eb01978 1a401980 1a481988 1b401990     x.....@...H...@.
    36fc:	1b601998 1a6019a0 1d1819a8 1b6019b0     ..`...`.......`.
    370c:	1d9819b8 1a5019c0 1a5819c8 1b5019d0     ......P...X...P.
    371c:	1af019d8 1b1819e0 1cf019e8 1b9819f0     ................
    372c:	1ef019f8 1c701a38 1b301a58 1d301a68     ....8.p.X.0.h.0.
    373c:	1b181a70 1f301a78 1ac01a90 1ac81a98     p...x.0.........
    374c:	1ae01ab0 1ae81ab8 1b801ac0 1b881ac8     ................
    375c:	1bc01ad0 1b701ad8 1ba01ae0 1d701ae8     ......p.......p.
    376c:	1be01af0 1f701af8 1d481b28 1dc81b38     ......p.(.H.8...
    377c:	1b601b48 1bb01b58 1db01b68 1bc81b70     H.`.X...h...p...
    378c:	1fb01b78 1bc01b90 1bc81b98 1d581ba8     x.............X.
    379c:	1be01bb0 1dd81bb8 1bf01bd8 1df01be8     ................
    37ac:	1ff01bf8 1c201c08 1c301c18 1c681c38     ...... ...0.8.h.
    37bc:	1c601c48 1c701c58 1e381c78 1e001c80     H.`.X.p.x.8.....
    37cc:	1e201c88 1f001c90 1f201c98 1e081ca0     .. ....... .....
    37dc:	1e281ca8 1f081cb0 1f281cb8 1e101cc0     ..(.......(.....
    37ec:	1e301cc8 1f101cd0 1f301cd8 1e181ce0     ..0.......0.....
    37fc:	1e381ce8 1f181cf0 1e781cf8 1d201d08     ..8.......x... .
    380c:	1d301d18 1da81d38 1d601d48 1d701d58     ..0.8...H.`.X.p.
    381c:	1f281d68 1eb81d78 1e401d80 1e601d88     h.(.x.....@...`.
    382c:	1f401d90 1f601d98 1e481da0 1e681da8     ..@...`...H...h.
    383c:	1f481db0 1f681db8 1e501dc0 1e701dc8     ..H...h...P...p.
    384c:	1f501dd0 1f701dd8 1e581de0 1e781de8     ..P...p...X...x.
    385c:	1f581df0 1ef81df8 1e201e08 1e301e18     ..X....... ...0.
    386c:	1e601e48 1e701e58 1f381e78 1ea01e88     H.`.X.p.x.8.....
    387c:	1f801e90 1fa01e98 1f881eb0 1fa81eb8     ................
    388c:	1f801ec0 1f881ec8 1f901ed0 1fb01ed8     ................
    389c:	1fa01ee0 1fa81ee8 1f981ef0 1f781ef8     ..............x.
    38ac:	1f201f08 1f301f18 1f601f48 1f701f58     .. ...0.H.`.X.p.
    38bc:	1fb81f78 1fa01f88 1fc01f90 1fe01f98     x...............
    38cc:	1fc81fb0 1fe81fb8 1fe01fc8 1ff01fd8     ................

000038dc <armBitRevIndexTable128>:
    38dc:	02000008 00400010 02400018 00800020     ......@...@. ...
    38ec:	02800028 00c00030 02c00038 01000040     (...0...8...@...
    38fc:	03000048 01400050 03400058 01800060     H...P.@.X.@.`...
    390c:	03800068 01c00070 03c00078 02000080     h...p...x.......
    391c:	02080088 03000090 02480098 020800a0     ..........H.....
    392c:	028800a8 00c800b0 02c800b8 010800c0     ................
    393c:	030800c8 014800d0 034800d8 018800e0     ......H...H.....
    394c:	038800e8 01c800f0 03c800f8 02100108     ................
    395c:	01400110 02500118 03000120 02900128     ..@...P. ...(...
    396c:	01480130 02d00138 03100148 03500158     0.H.8...H...X.P.
    397c:	01900160 03900168 01d00170 03d00178     `...h...p...x...
    398c:	02400180 02180188 03400190 02580198     ..@.......@...X.
    399c:	024801a0 029801a8 034801b0 02d801b8     ..H.......H.....
    39ac:	025001c0 031801c8 035001d0 035801d8     ..P.......P...X.
    39bc:	025801e0 039801e8 035801f0 03d801f8     ..X.......X.....
    39cc:	02200208 02400210 02600218 02a00228     .. ...@...`.(...
    39dc:	02600230 02e00238 03000240 03200248     0.`.8...@...H. .
    39ec:	03400250 03600258 03200260 03a00268     P.@.X.`.`. .h...
    39fc:	03600270 03e00278 02a00288 03800290     p.`.x...........
    3a0c:	03a00298 038802b0 02e802b8 038002c0     ................
    3a1c:	032802c8 039002d0 036802d8 03a002e0     ..(.......h.....
    3a2c:	03a802e8 039802f0 03e802f8 03200308     .............. .
    3a3c:	03400310 03600318 03880328 03600330     ..@...`.(...0.`.
    3a4c:	03980338 03600348 03700358 03b00368     8...H.`.X.p.h...
    3a5c:	03f00378 03a00388 03c00390 03e00398     x...............
    3a6c:	03c803b0 03e803b8 03e003c8 03f003d8     ................

00003a7c <armBitRevIndexTable16>:
    3a7c:	00400008 00480018 00400010 00500028     ..@...H...@.(.P.
    3a8c:	00400020 00580038 00480030 00680058      .@.8.X.0.H.X.h.
    3a9c:	00600048 00700068                       H.`.h.p.

00003aa4 <armBitRevIndexTable2048>:
    3aa4:	10000008 20000010 30000018 02000020     ....... ...0 ...
    3ab4:	12000028 22000030 32000038 04000040     (...0.."8..2@...
    3ac4:	14000048 24000050 34000058 06000060     H...P..$X..4`...
    3ad4:	16000068 26000070 36000078 08000080     h...p..&x..6....
    3ae4:	18000088 28000090 38000098 0a0000a0     .......(...8....
    3af4:	1a0000a8 2a0000b0 3a0000b8 0c0000c0     .......*...:....
    3b04:	1c0000c8 2c0000d0 3c0000d8 0e0000e0     .......,...<....
    3b14:	1e0000e8 2e0000f0 3e0000f8 04000100     ...........>....
    3b24:	10400108 20400110 30400118 02400120     ..@...@ ..@0 .@.
    3b34:	12400128 22400130 32400138 04400140     (.@.0.@"8.@2@.@.
    3b44:	14400148 24400150 34400158 06400160     H.@.P.@$X.@4`.@.
    3b54:	16400168 26400170 36400178 08400180     h.@.p.@&x.@6..@.
    3b64:	18400188 28400190 38400198 0a4001a0     ..@...@(..@8..@.
    3b74:	1a4001a8 2a4001b0 3a4001b8 0c4001c0     ..@...@*..@:..@.
    3b84:	1c4001c8 2c4001d0 3c4001d8 0e4001e0     ..@...@,..@<..@.
    3b94:	1e4001e8 2e4001f0 3e4001f8 08000200     ..@...@...@>....
    3ba4:	10800208 20800210 30800218 02800220     ....... ...0 ...
    3bb4:	12800228 22800230 32800238 04800240     (...0.."8..2@...
    3bc4:	14800248 24800250 34800258 06800260     H...P..$X..4`...
    3bd4:	16800268 26800270 36800278 08800280     h...p..&x..6....
    3be4:	18800288 28800290 38800298 0a8002a0     .......(...8....
    3bf4:	1a8002a8 2a8002b0 3a8002b8 0c8002c0     .......*...:....
    3c04:	1c8002c8 2c8002d0 3c8002d8 0e8002e0     .......,...<....
    3c14:	1e8002e8 2e8002f0 3e8002f8 0c000300     ...........>....
    3c24:	10c00308 20c00310 30c00318 0c800320     ....... ...0 ...
    3c34:	12c00328 22c00330 32c00338 04c00340     (...0.."8..2@...
    3c44:	14c00348 24c00350 34c00358 06c00360     H...P..$X..4`...
    3c54:	16c00368 26c00370 36c00378 08c00380     h...p..&x..6....
    3c64:	18c00388 28c00390 38c00398 0ac003a0     .......(...8....
    3c74:	1ac003a8 2ac003b0 3ac003b8 0cc003c0     .......*...:....
    3c84:	1cc003c8 2cc003d0 3cc003d8 0ec003e0     .......,...<....
    3c94:	1ec003e8 2ec003f0 3ec003f8 11000408     ...........>....
    3ca4:	21000410 31000418 0c000420 13000428     ...!...1 ...(...
    3cb4:	23000430 33000438 05000440 15000448     0..#8..3@...H...
    3cc4:	25000450 35000458 07000460 17000468     P..%X..5`...h...
    3cd4:	27000470 37000478 09000480 19000488     p..'x..7........
    3ce4:	29000490 39000498 0b0004a0 1b0004a8     ...)...9........
    3cf4:	2b0004b0 3b0004b8 0d0004c0 1d0004c8     ...+...;........
    3d04:	2d0004d0 3d0004d8 0f0004e0 1f0004e8     ...-...=........
    3d14:	2f0004f0 3f0004f8 11400508 21400510     .../...?..@...@!
    3d24:	31400518 0d000520 13400528 23400530     ..@1 ...(.@.0.@#
    3d34:	33400538 15400548 25400550 35400558     8.@3H.@.P.@%X.@5
    3d44:	07400560 17400568 27400570 37400578     `.@.h.@.p.@'x.@7
    3d54:	09400580 19400588 29400590 39400598     ..@...@...@)..@9
    3d64:	0b4005a0 1b4005a8 2b4005b0 3b4005b8     ..@...@...@+..@;
    3d74:	0d4005c0 1d4005c8 2d4005d0 3d4005d8     ..@...@...@-..@=
    3d84:	0f4005e0 1f4005e8 2f4005f0 3f4005f8     ..@...@...@/..@?
    3d94:	08400600 11800608 21800610 31800618     ..@........!...1
    3da4:	08c00620 13800628 23800630 33800638      ...(...0..#8..3
    3db4:	09400640 15800648 25800650 35800658     @.@.H...P..%X..5
    3dc4:	07800660 17800668 27800670 37800678     `...h...p..'x..7
    3dd4:	09800680 19800688 29800690 39800698     ...........)...9
    3de4:	0b8006a0 1b8006a8 2b8006b0 3b8006b8     ...........+...;
    3df4:	0d8006c0 1d8006c8 2d8006d0 3d8006d8     ...........-...=
    3e04:	0f8006e0 1f8006e8 2f8006f0 3f8006f8     .........../...?
    3e14:	0c400700 11c00708 21c00710 31c00718     ..@........!...1
    3e24:	0cc00720 13c00728 23c00730 33c00738      ...(...0..#8..3
    3e34:	0d400740 15c00748 25c00750 35c00758     @.@.H...P..%X..5
    3e44:	07c00760 17c00768 27c00770 37c00778     `...h...p..'x..7
    3e54:	09c00780 19c00788 29c00790 39c00798     ...........)...9
    3e64:	0bc007a0 1bc007a8 2bc007b0 3bc007b8     ...........+...;
    3e74:	0dc007c0 1dc007c8 2dc007d0 3dc007d8     ...........-...=
    3e84:	0fc007e0 1fc007e8 2fc007f0 3fc007f8     .........../...?
    3e94:	10000800 10080808 20080810 30080818     ........... ...0
    3ea4:	10800820 12080828 22080830 32080838      ...(...0.."8..2
    3eb4:	11000840 14080848 24080850 34080858     @...H...P..$X..4
    3ec4:	11800860 16080868 26080870 36080878     `...h...p..&x..6
    3ed4:	10080880 18080888 28080890 38080898     ...........(...8
    3ee4:	0a0808a0 1a0808a8 2a0808b0 3a0808b8     ...........*...:
    3ef4:	0c0808c0 1c0808c8 2c0808d0 3c0808d8     ...........,...<
    3f04:	0e0808e0 1e0808e8 2e0808f0 3e0808f8     ...............>
    3f14:	14000900 10480908 20480910 30480918     ......H...H ..H0
    3f24:	14800920 12480928 22480930 32480938      ...(.H.0.H"8.H2
    3f34:	15000940 14480948 24480950 34480958     @...H.H.P.H$X.H4
    3f44:	15800960 16480968 26480970 36480978     `...h.H.p.H&x.H6
    3f54:	14080980 18480988 28480990 38480998     ......H...H(..H8
    3f64:	0a4809a0 1a4809a8 2a4809b0 3a4809b8     ..H...H...H*..H:
    3f74:	0c4809c0 1c4809c8 2c4809d0 3c4809d8     ..H...H...H,..H<
    3f84:	0e4809e0 1e4809e8 2e4809f0 3e4809f8     ..H...H...H...H>
    3f94:	18000a00 10880a08 20880a10 30880a18     ........... ...0
    3fa4:	18800a20 12880a28 22880a30 32880a38      ...(...0.."8..2
    3fb4:	19000a40 14880a48 24880a50 34880a58     @...H...P..$X..4
    3fc4:	19800a60 16880a68 26880a70 36880a78     `...h...p..&x..6
    3fd4:	18080a80 18880a88 28880a90 38880a98     ...........(...8
    3fe4:	18880aa0 1a880aa8 2a880ab0 3a880ab8     ...........*...:
    3ff4:	0c880ac0 1c880ac8 2c880ad0 3c880ad8     ...........,...<
    4004:	0e880ae0 1e880ae8 2e880af0 3e880af8     ...............>
    4014:	1c000b00 10c80b08 20c80b10 30c80b18     ........... ...0
    4024:	1c800b20 12c80b28 22c80b30 32c80b38      ...(...0.."8..2
    4034:	1d000b40 14c80b48 24c80b50 34c80b58     @...H...P..$X..4
    4044:	1d800b60 16c80b68 26c80b70 36c80b78     `...h...p..&x..6
    4054:	1c080b80 18c80b88 28c80b90 38c80b98     ...........(...8
    4064:	1c880ba0 1ac80ba8 2ac80bb0 3ac80bb8     ...........*...:
    4074:	0cc80bc0 1cc80bc8 2cc80bd0 3cc80bd8     ...........,...<
    4084:	0ec80be0 1ec80be8 2ec80bf0 3ec80bf8     ...............>
    4094:	10400c00 11080c08 21080c10 31080c18     ..@........!...1
    40a4:	10c00c20 13080c28 23080c30 33080c38      ...(...0..#8..3
    40b4:	11400c40 15080c48 25080c50 35080c58     @.@.H...P..%X..5
    40c4:	11c00c60 17080c68 27080c70 37080c78     `...h...p..'x..7
    40d4:	10480c80 19080c88 29080c90 39080c98     ..H........)...9
    40e4:	10c80ca0 1b080ca8 2b080cb0 3b080cb8     ...........+...;
    40f4:	0d080cc0 1d080cc8 2d080cd0 3d080cd8     ...........-...=
    4104:	0f080ce0 1f080ce8 2f080cf0 3f080cf8     .........../...?
    4114:	14400d00 11480d08 21480d10 31480d18     ..@...H...H!..H1
    4124:	14c00d20 13480d28 23480d30 33480d38      ...(.H.0.H#8.H3
    4134:	15400d40 15480d48 25480d50 35480d58     @.@.H.H.P.H%X.H5
    4144:	15c00d60 17480d68 27480d70 37480d78     `...h.H.p.H'x.H7
    4154:	14480d80 19480d88 29480d90 39480d98     ..H...H...H)..H9
    4164:	14c80da0 1b480da8 2b480db0 3b480db8     ......H...H+..H;
    4174:	15480dc0 1d480dc8 2d480dd0 3d480dd8     ..H...H...H-..H=
    4184:	0f480de0 1f480de8 2f480df0 3f480df8     ..H...H...H/..H?
    4194:	18400e00 11880e08 21880e10 31880e18     ..@........!...1
    41a4:	18c00e20 13880e28 23880e30 33880e38      ...(...0..#8..3
    41b4:	19400e40 15880e48 25880e50 35880e58     @.@.H...P..%X..5
    41c4:	19c00e60 17880e68 27880e70 37880e78     `...h...p..'x..7
    41d4:	18480e80 19880e88 29880e90 39880e98     ..H........)...9
    41e4:	18c80ea0 1b880ea8 2b880eb0 3b880eb8     ...........+...;
    41f4:	19480ec0 1d880ec8 2d880ed0 3d880ed8     ..H........-...=
    4204:	0f880ee0 1f880ee8 2f880ef0 3f880ef8     .........../...?
    4214:	1c400f00 11c80f08 21c80f10 31c80f18     ..@........!...1
    4224:	1cc00f20 13c80f28 23c80f30 33c80f38      ...(...0..#8..3
    4234:	1d400f40 15c80f48 25c80f50 35c80f58     @.@.H...P..%X..5
    4244:	1dc00f60 17c80f68 27c80f70 37c80f78     `...h...p..'x..7
    4254:	1c480f80 19c80f88 29c80f90 39c80f98     ..H........)...9
    4264:	1cc80fa0 1bc80fa8 2bc80fb0 3bc80fb8     ...........+...;
    4274:	1d480fc0 1dc80fc8 2dc80fd0 3dc80fd8     ..H........-...=
    4284:	1dc80fe0 1fc80fe8 2fc80ff0 3fc80ff8     .........../...?
    4294:	20001000 10101008 20101010 30101018     ... ....... ...0
    42a4:	20801020 12101028 22101030 32101038      .. (...0.."8..2
    42b4:	21001040 14101048 24101050 34101058     @..!H...P..$X..4
    42c4:	21801060 16101068 26101070 36101078     `..!h...p..&x..6
    42d4:	20081080 18101088 28101090 38101098     ... .......(...8
    42e4:	208810a0 1a1010a8 2a1010b0 3a1010b8     ... .......*...:
    42f4:	210810c0 1c1010c8 2c1010d0 3c1010d8     ...!.......,...<
    4304:	218810e0 1e1010e8 2e1010f0 3e1010f8     ...!...........>
    4314:	24001100 24101108 20501110 30501118     ...$...$..P ..P0
    4324:	24801120 12501128 22501130 32501138      ..$(.P.0.P"8.P2
    4334:	25001140 14501148 24501150 34501158     @..%H.P.P.P$X.P4
    4344:	25801160 16501168 26501170 36501178     `..%h.P.p.P&x.P6
    4354:	24081180 18501188 28501190 38501198     ...$..P...P(..P8
    4364:	248811a0 1a5011a8 2a5011b0 3a5011b8     ...$..P...P*..P:
    4374:	250811c0 1c5011c8 2c5011d0 3c5011d8     ...%..P...P,..P<
    4384:	258811e0 1e5011e8 2e5011f0 3e5011f8     ...%..P...P...P>
    4394:	28001200 28101208 20901210 30901218     ...(...(... ...0
    43a4:	28801220 12901228 22901230 32901238      ..((...0.."8..2
    43b4:	29001240 14901248 24901250 34901258     @..)H...P..$X..4
    43c4:	29801260 16901268 26901270 36901278     `..)h...p..&x..6
    43d4:	28081280 18901288 28901290 38901298     ...(.......(...8
    43e4:	288812a0 1a9012a8 2a9012b0 3a9012b8     ...(.......*...:
    43f4:	290812c0 1c9012c8 2c9012d0 3c9012d8     ...).......,...<
    4404:	298812e0 1e9012e8 2e9012f0 3e9012f8     ...)...........>
    4414:	2c001300 2c101308 20d01310 30d01318     ...,...,... ...0
    4424:	2c801320 2c901328 22d01330 32d01338      ..,(..,0.."8..2
    4434:	2d001340 14d01348 24d01350 34d01358     @..-H...P..$X..4
    4444:	2d801360 16d01368 26d01370 36d01378     `..-h...p..&x..6
    4454:	2c081380 18d01388 28d01390 38d01398     ...,.......(...8
    4464:	2c8813a0 1ad013a8 2ad013b0 3ad013b8     ...,.......*...:
    4474:	2d0813c0 1cd013c8 2cd013d0 3cd013d8     ...-.......,...<
    4484:	2d8813e0 1ed013e8 2ed013f0 3ed013f8     ...-...........>
    4494:	20401400 20501408 21101410 31101418     ..@ ..P ...!...1
    44a4:	20c01420 20d01428 23101430 33101438      .. (.. 0..#8..3
    44b4:	21401440 15101448 25101450 35101458     @.@!H...P..%X..5
    44c4:	21c01460 17101468 27101470 37101478     `..!h...p..'x..7
    44d4:	20481480 19101488 29101490 39101498     ..H .......)...9
    44e4:	20c814a0 1b1014a8 2b1014b0 3b1014b8     ... .......+...;
    44f4:	214814c0 1d1014c8 2d1014d0 3d1014d8     ..H!.......-...=
    4504:	21c814e0 1f1014e8 2f1014f0 3f1014f8     ...!......./...?
    4514:	24401500 24501508 21501510 31501518     ..@$..P$..P!..P1
    4524:	24c01520 24d01528 23501530 33501538      ..$(..$0.P#8.P3
    4534:	25401540 15501548 25501550 35501558     @.@%H.P.P.P%X.P5
    4544:	25c01560 17501568 27501570 37501578     `..%h.P.p.P'x.P7
    4554:	24481580 19501588 29501590 39501598     ..H$..P...P)..P9
    4564:	24c815a0 1b5015a8 2b5015b0 3b5015b8     ...$..P...P+..P;
    4574:	254815c0 1d5015c8 2d5015d0 3d5015d8     ..H%..P...P-..P=
    4584:	25c815e0 1f5015e8 2f5015f0 3f5015f8     ...%..P...P/..P?
    4594:	28401600 28501608 21901610 31901618     ..@(..P(...!...1
    45a4:	28c01620 28d01628 23901630 33901638      ..((..(0..#8..3
    45b4:	29401640 29501648 25901650 35901658     @.@)H.P)P..%X..5
    45c4:	29c01660 17901668 27901670 37901678     `..)h...p..'x..7
    45d4:	28481680 19901688 29901690 39901698     ..H(.......)...9
    45e4:	28c816a0 1b9016a8 2b9016b0 3b9016b8     ...(.......+...;
    45f4:	294816c0 1d9016c8 2d9016d0 3d9016d8     ..H).......-...=
    4604:	29c816e0 1f9016e8 2f9016f0 3f9016f8     ...)......./...?
    4614:	2c401700 2c501708 21d01710 31d01718     ..@,..P,...!...1
    4624:	2cc01720 2cd01728 23d01730 33d01738      ..,(..,0..#8..3
    4634:	2d401740 2d501748 25d01750 35d01758     @.@-H.P-P..%X..5
    4644:	2dc01760 17d01768 27d01770 37d01778     `..-h...p..'x..7
    4654:	2c481780 19d01788 29d01790 39d01798     ..H,.......)...9
    4664:	2cc817a0 1bd017a8 2bd017b0 3bd017b8     ...,.......+...;
    4674:	2d4817c0 1dd017c8 2dd017d0 3dd017d8     ..H-.......-...=
    4684:	2dc817e0 1fd017e8 2fd017f0 3fd017f8     ...-......./...?
    4694:	30001800 30101808 20181810 30181818     ...0...0... ...0
    46a4:	30801820 30901828 22181830 32181838      ..0(..00.."8..2
    46b4:	31001840 31101848 24181850 34181858     @..1H..1P..$X..4
    46c4:	31801860 31901868 26181870 36181878     `..1h..1p..&x..6
    46d4:	30081880 30181888 28181890 38181898     ...0...0...(...8
    46e4:	308818a0 1a1818a8 2a1818b0 3a1818b8     ...0.......*...:
    46f4:	310818c0 1c1818c8 2c1818d0 3c1818d8     ...1.......,...<
    4704:	318818e0 1e1818e8 2e1818f0 3e1818f8     ...1...........>
    4714:	34001900 34101908 20581910 30581918     ...4...4..X ..X0
    4724:	34801920 34901928 22581930 32581938      ..4(..40.X"8.X2
    4734:	35001940 35101948 24581950 34581958     @..5H..5P.X$X.X4
    4744:	35801960 35901968 26581970 36581978     `..5h..5p.X&x.X6
    4754:	34081980 34181988 28581990 38581998     ...4...4..X(..X8
    4764:	348819a0 1a5819a8 2a5819b0 3a5819b8     ...4..X...X*..X:
    4774:	350819c0 1c5819c8 2c5819d0 3c5819d8     ...5..X...X,..X<
    4784:	358819e0 1e5819e8 2e5819f0 3e5819f8     ...5..X...X...X>
    4794:	38001a00 38101a08 20981a10 30981a18     ...8...8... ...0
    47a4:	38801a20 38901a28 22981a30 32981a38      ..8(..80.."8..2
    47b4:	39001a40 39101a48 24981a50 34981a58     @..9H..9P..$X..4
    47c4:	39801a60 39901a68 26981a70 36981a78     `..9h..9p..&x..6
    47d4:	38081a80 38181a88 28981a90 38981a98     ...8...8...(...8
    47e4:	38881aa0 38981aa8 2a981ab0 3a981ab8     ...8...8...*...:
    47f4:	39081ac0 1c981ac8 2c981ad0 3c981ad8     ...9.......,...<
    4804:	39881ae0 1e981ae8 2e981af0 3e981af8     ...9...........>
    4814:	3c001b00 3c101b08 20d81b10 30d81b18     ...<...<... ...0
    4824:	3c801b20 3c901b28 22d81b30 32d81b38      ..<(..<0.."8..2
    4834:	3d001b40 3d101b48 24d81b50 34d81b58     @..=H..=P..$X..4
    4844:	3d801b60 3d901b68 26d81b70 36d81b78     `..=h..=p..&x..6
    4854:	3c081b80 3c181b88 28d81b90 38d81b98     ...<...<...(...8
    4864:	3c881ba0 3c981ba8 2ad81bb0 3ad81bb8     ...<...<...*...:
    4874:	3d081bc0 1cd81bc8 2cd81bd0 3cd81bd8     ...=.......,...<
    4884:	3d881be0 1ed81be8 2ed81bf0 3ed81bf8     ...=...........>
    4894:	30401c00 30501c08 21181c10 31181c18     ..@0..P0...!...1
    48a4:	30c01c20 30d01c28 23181c30 33181c38      ..0(..00..#8..3
    48b4:	31401c40 31501c48 25181c50 35181c58     @.@1H.P1P..%X..5
    48c4:	31c01c60 31d01c68 27181c70 37181c78     `..1h..1p..'x..7
    48d4:	30481c80 30581c88 29181c90 39181c98     ..H0..X0...)...9
    48e4:	30c81ca0 30d81ca8 2b181cb0 3b181cb8     ...0...0...+...;
    48f4:	31481cc0 1d181cc8 2d181cd0 3d181cd8     ..H1.......-...=
    4904:	31c81ce0 1f181ce8 2f181cf0 3f181cf8     ...1......./...?
    4914:	34401d00 34501d08 21581d10 31581d18     ..@4..P4..X!..X1
    4924:	34c01d20 34d01d28 23581d30 33581d38      ..4(..40.X#8.X3
    4934:	35401d40 35501d48 25581d50 35581d58     @.@5H.P5P.X%X.X5
    4944:	35c01d60 35d01d68 27581d70 37581d78     `..5h..5p.X'x.X7
    4954:	34481d80 34581d88 29581d90 39581d98     ..H4..X4..X)..X9
    4964:	34c81da0 34d81da8 2b581db0 3b581db8     ...4...4..X+..X;
    4974:	35481dc0 35581dc8 2d581dd0 3d581dd8     ..H5..X5..X-..X=
    4984:	35c81de0 1f581de8 2f581df0 3f581df8     ...5..X...X/..X?
    4994:	38401e00 38501e08 21981e10 31981e18     ..@8..P8...!...1
    49a4:	38c01e20 38d01e28 23981e30 33981e38      ..8(..80..#8..3
    49b4:	39401e40 39501e48 25981e50 35981e58     @.@9H.P9P..%X..5
    49c4:	39c01e60 39d01e68 27981e70 37981e78     `..9h..9p..'x..7
    49d4:	38481e80 38581e88 29981e90 39981e98     ..H8..X8...)...9
    49e4:	38c81ea0 38d81ea8 2b981eb0 3b981eb8     ...8...8...+...;
    49f4:	39481ec0 39581ec8 2d981ed0 3d981ed8     ..H9..X9...-...=
    4a04:	39c81ee0 1f981ee8 2f981ef0 3f981ef8     ...9......./...?
    4a14:	3c401f00 3c501f08 21d81f10 31d81f18     ..@<..P<...!...1
    4a24:	3cc01f20 3cd01f28 23d81f30 33d81f38      ..<(..<0..#8..3
    4a34:	3d401f40 3d501f48 25d81f50 35d81f58     @.@=H.P=P..%X..5
    4a44:	3dc01f60 3dd01f68 27d81f70 37d81f78     `..=h..=p..'x..7
    4a54:	3c481f80 3c581f88 29d81f90 39d81f98     ..H<..X<...)...9
    4a64:	3cc81fa0 3cd81fa8 2bd81fb0 3bd81fb8     ...<...<...+...;
    4a74:	3d481fc0 3d581fc8 2dd81fd0 3dd81fd8     ..H=..X=...-...=
    4a84:	3dc81fe0 3dd81fe8 2fd81ff0 3fd81ff8     ...=...=.../...?
    4a94:	20802008 20202010 30202018 28802028     . . .   .  0( .(
    4aa4:	22202030 32202038 21002040 20c02048     0  "8  2@ .!H . 
    4ab4:	24202050 34202058 24102060 28c02068     P  $X  4` .$h .(
    4ac4:	26202070 36202078 30802088 28202090     p  &x  6. .0.  (
    4ad4:	38202098 300820a0 388020a8 2a2020b0     .  8. .0. .8.  *
    4ae4:	3a2020b8 210820c0 30c020c8 2c2020d0     .  :. .!. .0.  ,
    4af4:	3c2020d8 310820e0 38c020e8 2e2020f0     .  <. .1. .8.  .
    4b04:	3e2020f8 24002100 21802108 24102110     .  >.!.$.!.!.!.$
    4b14:	30602118 24202120 29802128 22602130     .!`0 ! $(!.)0!`"
    4b24:	32602138 25002140 21c02148 24602150     8!`2@!.%H!.!P!`$
    4b34:	34602158 24502160 29c02168 26602170     X!`4`!P$h!.)p!`&
    4b44:	36602178 24082180 31802188 28602190     x!`6.!.$.!.1.!`(
    4b54:	38602198 340821a0 398021a8 2a6021b0     .!`8.!.4.!.9.!`*
    4b64:	3a6021b8 250821c0 31c021c8 2c6021d0     .!`:.!.%.!.1.!`,
    4b74:	3c6021d8 350821e0 39c021e8 2e6021f0     .!`<.!.5.!.9.!`.
    4b84:	3e6021f8 30002200 30802208 30082210     .!`>.".0.".0.".0
    4b94:	30a02218 30102220 28882228 22a02230     .".0 ".0(".(0"."
    4ba4:	32a02238 30402240 30c02248 24a02250     8".2@"@0H".0P".$
    4bb4:	34a02258 30502260 28c82268 26a02270     X".4`"P0h".(p".&
    4bc4:	36a02278 30202280 30882288 28a02290     x".6." 0.".0.".(
    4bd4:	38a02298 301822a0 388822a8 2aa022b0     .".8.".0.".8.".*
    4be4:	3aa022b8 306022c0 30c822c8 2ca022d0     .".:."`0.".0.".,
    4bf4:	3ca022d8 311822e0 38c822e8 2ea022f0     .".<.".1.".8."..
    4c04:	3ea022f8 31002300 31802308 31082310     .".>.#.1.#.1.#.1
    4c14:	30e02318 31102320 29882328 31182330     .#.0 #.1(#.)0#.1
    4c24:	32e02338 31402340 31c02348 24e02350     8#.2@#@1H#.1P#.$
    4c34:	34e02358 31502360 29c82368 26e02370     X#.4`#P1h#.)p#.&
    4c44:	36e02378 24182380 31882388 28e02390     x#.6.#.$.#.1.#.(
    4c54:	38e02398 341823a0 398823a8 2ae023b0     .#.8.#.4.#.9.#.*
    4c64:	3ae023b8 251823c0 31c823c8 2ce023d0     .#.:.#.%.#.1.#.,
    4c74:	3ce023d8 351823e0 39c823e8 2ee023f0     .#.<.#.5.#.9.#..
    4c84:	3ee023f8 24802408 24202410 31202418     .#.>.$.$.$ $.$ 1
    4c94:	2c802428 31102430 33202438 25002440     ($.,0$.18$ 3@$.%
    4ca4:	24c02448 25202450 35202458 25102460     H$.$P$ %X$ 5`$.%
    4cb4:	2cc02468 27202470 37202478 34802488     h$.,p$ 'x$ 7.$.4
    4cc4:	29202490 39202498 304824a0 3c8024a8     .$ ).$ 9.$H0.$.<
    4cd4:	2b2024b0 3b2024b8 250824c0 34c024c8     .$ +.$ ;.$.%.$.4
    4ce4:	2d2024d0 3d2024d8 314824e0 3cc024e8     .$ -.$ =.$H1.$.<
    4cf4:	2f2024f0 3f2024f8 25802508 25202510     .$ /.$ ?.%.%.% %
    4d04:	31602518 2d802528 31502530 33602538     .%`1(%.-0%P18%`3
    4d14:	25c02548 25602550 35602558 2dc02568     H%.%P%`%X%`5h%.-
    4d24:	27602570 37602578 35802588 29602590     p%`'x%`7.%.5.%`)
    4d34:	39602598 344825a0 3d8025a8 2b6025b0     .%`9.%H4.%.=.%`+
    4d44:	3b6025b8 35c025c8 2d6025d0 3d6025d8     .%`;.%.5.%`-.%`=
    4d54:	354825e0 3dc025e8 2f6025f0 3f6025f8     .%H5.%.=.%`/.%`?
    4d64:	34002600 34802608 34082610 31a02618     .&.4.&.4.&.4.&.1
    4d74:	34102620 2c882628 34182630 33a02638      &.4(&.,0&.48&.3
    4d84:	34402640 34c02648 34482650 35a02658     @&@4H&.4P&H4X&.5
    4d94:	34502660 2cc82668 27a02670 37a02678     `&P4h&.,p&.'x&.7
    4da4:	34202680 34882688 29a02690 39a02698     .& 4.&.4.&.).&.9
    4db4:	305826a0 3c8826a8 2ba026b0 3ba026b8     .&X0.&.<.&.+.&.;
    4dc4:	346026c0 34c826c8 2da026d0 3da026d8     .&`4.&.4.&.-.&.=
    4dd4:	315826e0 3cc826e8 2fa026f0 3fa026f8     .&X1.&.<.&./.&.?
    4de4:	35002700 35802708 35082710 31e02718     .'.5.'.5.'.5.'.1
    4df4:	35102720 2d882728 35182730 33e02738      '.5('.-0'.58'.3
    4e04:	35402740 35c02748 35482750 35e02758     @'@5H'.5P'H5X'.5
    4e14:	35502760 2dc82768 27e02770 37e02778     `'P5h'.-p'.'x'.7
    4e24:	35202780 35882788 29e02790 39e02798     .' 5.'.5.'.).'.9
    4e34:	345827a0 3d8827a8 2be027b0 3be027b8     .'X4.'.=.'.+.'.;
    4e44:	356027c0 35c827c8 2de027d0 3de027d8     .'`5.'.5.'.-.'.=
    4e54:	355827e0 3dc827e8 2fe027f0 3fe027f8     .'X5.'.=.'./.'.?
    4e64:	28202808 28802810 30282818 28902828     .( (.(.(.((0((.(
    4e74:	28882830 32282838 2c002840 2c202848     0(.(8((2@(.,H( ,
    4e84:	2c802850 34282858 2c082860 28d02868     P(.,X((4`(.,h(.(
    4e94:	2c882870 36282878 30902888 38282898     p(.,x((6.(.0.((8
    4ea4:	302828a0 389028a8 2a2828b0 3a2828b8     .((0.(.8.((*.((:
    4eb4:	2c1028c0 30d028c8 2c2828d0 3c2828d8     .(.,.(.0.((,.((<
    4ec4:	2c1828e0 38d028e8 2e2828f0 3e2828f8     .(.,.(.8.((..((>
    4ed4:	2c002900 2c082908 2c102910 30682918     .).,.).,.).,.)h0
    4ee4:	2c202920 29902928 30d02930 32682938      ) ,().)0).08)h2
    4ef4:	2c402940 2c602948 2cc02950 34682958     @)@,H)`,P).,X)h4
    4f04:	2c482960 29d02968 2cc82970 36682978     `)H,h).)p).,x)h6
    4f14:	2c802980 31902988 2c282990 38682998     .).,.).1.)(,.)h8
    4f24:	342829a0 399029a8 2a6829b0 3a6829b8     .)(4.).9.)h*.)h:
    4f34:	2c5029c0 31d029c8 2c6829d0 3c6829d8     .)P,.).1.)h,.)h<
    4f44:	2c5829e0 39d029e8 2e6829f0 3e6829f8     .)X,.).9.)h..)h>
    4f54:	38002a00 38202a08 38802a10 30a82a18     .*.8.* 8.*.8.*.0
    4f64:	38082a20 38282a28 38882a30 32a82a38      *.8(*(80*.88*.2
    4f74:	3c002a40 3c202a48 3c802a50 34a82a58     @*.<H* <P*.<X*.4
    4f84:	3c082a60 3c282a68 3c882a70 36a82a78     `*.<h*(<p*.<x*.6
    4f94:	38102a80 30982a88 38902a90 38a82a98     .*.8.*.0.*.8.*.8
    4fa4:	38182aa0 38982aa8 38982ab0 3aa82ab8     .*.8.*.8.*.8.*.:
    4fb4:	3c102ac0 30d82ac8 2ca82ad0 3ca82ad8     .*.<.*.0.*.,.*.<
    4fc4:	3c182ae0 38d82ae8 2ea82af0 3ea82af8     .*.<.*.8.*...*.>
    4fd4:	38402b00 38602b08 38c02b10 30e82b18     .+@8.+`8.+.8.+.0
    4fe4:	38482b20 38682b28 38c82b30 32e82b38      +H8(+h80+.88+.2
    4ff4:	3c402b40 3c602b48 3cc02b50 34e82b58     @+@<H+`<P+.<X+.4
    5004:	3c482b60 3c682b68 3cc82b70 36e82b78     `+H<h+h<p+.<x+.6
    5014:	38502b80 31982b88 38d02b90 38e82b98     .+P8.+.1.+.8.+.8
    5024:	38582ba0 39982ba8 38d82bb0 3ae82bb8     .+X8.+.9.+.8.+.:
    5034:	3c502bc0 31d82bc8 2ce82bd0 3ce82bd8     .+P<.+.1.+.,.+.<
    5044:	3c582be0 39d82be8 2ee82bf0 3ee82bf8     .+X<.+.9.+...+.>
    5054:	2c202c08 2c802c10 31282c18 2c902c28     ., ,.,.,.,(1(,.,
    5064:	31902c30 33282c38 2d002c40 2d202c48     0,.18,(3@,.-H, -
    5074:	2d802c50 35282c58 2d082c60 2cd02c68     P,.-X,(5`,.-h,.,
    5084:	2d882c70 37282c78 34902c88 39282c98     p,.-x,(7.,.4.,(9
    5094:	30682ca0 3c902ca8 38682cb0 3b282cb8     .,h0.,.<.,h8.,(;
    50a4:	2d102cc0 34d02cc8 2d282cd0 3d282cd8     .,.-.,.4.,(-.,(=
    50b4:	2d182ce0 3cd02ce8 2f282cf0 3f282cf8     .,.-.,.<.,(/.,(?
    50c4:	2d202d08 2d802d10 31682d18 2d902d28     .- -.-.-.-h1(-.-
    50d4:	31d02d30 33682d38 2d602d48 2dc02d50     0-.18-h3H-`-P-.-
    50e4:	35682d58 2dd02d68 2dc82d70 37682d78     X-h5h-.-p-.-x-h7
    50f4:	35902d88 39682d98 34682da0 3d902da8     .-.5.-h9.-h4.-.=
    5104:	3c682db0 3b682db8 35d02dc8 3d682dd8     .-h<.-h;.-.5.-h=
    5114:	35682de0 3dd02de8 2f682df0 3f682df8     .-h5.-.=.-h/.-h?
    5124:	39002e00 39202e08 39802e10 31a82e18     ...9.. 9...9...1
    5134:	39082e20 39282e28 39882e30 33a82e38      ..9(.(90..98..3
    5144:	3d002e40 3d202e48 3d802e50 35a82e58     @..=H. =P..=X..5
    5154:	3d082e60 3d282e68 3d882e70 37a82e78     `..=h.(=p..=x..7
    5164:	39102e80 34982e88 39902e90 39a82e98     ...9...4...9...9
    5174:	39182ea0 3c982ea8 39982eb0 3ba82eb8     ...9...<...9...;
    5184:	3d102ec0 34d82ec8 3d902ed0 3da82ed8     ...=...4...=...=
    5194:	3d182ee0 3cd82ee8 2fa82ef0 3fa82ef8     ...=...<.../...?
    51a4:	39402f00 39602f08 39c02f10 31e82f18     ./@9./`9./.9./.1
    51b4:	39482f20 39682f28 39c82f30 33e82f38      /H9(/h90/.98/.3
    51c4:	3d402f40 3d602f48 3dc02f50 35e82f58     @/@=H/`=P/.=X/.5
    51d4:	3d482f60 3d682f68 3dc82f70 37e82f78     `/H=h/h=p/.=x/.7
    51e4:	39502f80 35982f88 39d02f90 39e82f98     ./P9./.5./.9./.9
    51f4:	39582fa0 3d982fa8 39d82fb0 3be82fb8     ./X9./.=./.9./.;
    5204:	3d502fc0 35d82fc8 3dd02fd0 3de82fd8     ./P=./.5./.=./.=
    5214:	3d582fe0 3dd82fe8 3dd82ff0 3fe82ff8     ./X=./.=./.=./.?
    5224:	30303018 32303038 31003040 31083048     .0008002@0.1H0.1
    5234:	31103050 34303058 31203060 31283068     P0.1X004`0 1h0(1
    5244:	34183070 36303078 30a03088 38303098     p0.4x006.0.0.008
    5254:	38a030a8 388830b0 3a3030b8 318030c0     .0.8.0.8.00:.0.1
    5264:	30e030c8 319030d0 3c3030d8 318830e0     .0.0.0.1.00<.0.1
    5274:	38e030e8 398830f0 3e3030f8 34003100     .0.8.0.9.00>.1.4
    5284:	34083108 34103110 34183118 34203120     .1.4.1.4.1.4 1 4
    5294:	34283128 34303130 32703138 35003140     (1(4010481p2@1.5
    52a4:	35083148 35103150 34703158 35203160     H1.5P1.5X1p4`1 5
    52b4:	35283168 34583170 36703178 34803180     h1(5p1X4x1p6.1.4
    52c4:	31a03188 34903190 38703198 348831a0     .1.1.1.4.1p8.1.4
    52d4:	39a031a8 3c8831b0 3a7031b8 358031c0     .1.9.1.<.1p:.1.5
    52e4:	31e031c8 359031d0 3c7031d8 358831e0     .1.1.1.5.1p<.1.5
    52f4:	39e031e8 3d8831f0 3e7031f8 38003200     .1.9.1.=.1p>.2.8
    5304:	38803208 38083210 38883218 38103220     .2.8.2.8.2.8 2.8
    5314:	38903228 38183230 32b03238 38403240     (2.802.882.2@2@8
    5324:	38c03248 38483250 34b03258 38503260     H2.8P2H8X2.4`2P8
    5334:	38d03268 38583270 36b03278 38203280     h2.8p2X8x2.6.2 8
    5344:	38a03288 38283290 38b03298 383032a0     .2.8.2(8.2.8.208
    5354:	38a832a8 389832b0 3ab032b8 386032c0     .2.8.2.8.2.:.2`8
    5364:	38e032c8 386832d0 3cb032d8 387032e0     .2.8.2h8.2.<.2p8
    5374:	38e832e8 399832f0 3eb032f8 39003300     .2.8.2.9.2.>.3.9
    5384:	39803308 39083310 39883318 39103320     .3.9.3.9.3.9 3.9
    5394:	39903328 39183330 39983338 39403340     (3.903.983.9@3@9
    53a4:	39c03348 39483350 34f03358 39503360     H3.9P3H9X3.4`3P9
    53b4:	39d03368 39583370 36f03378 39203380     h3.9p3X9x3.6.3 9
    53c4:	39a03388 39283390 38f03398 349833a0     .3.9.3(9.3.8.3.4
    53d4:	39a833a8 3c9833b0 3af033b8 396033c0     .3.9.3.<.3.:.3`9
    53e4:	39e033c8 396833d0 3cf033d8 359833e0     .3.9.3h9.3.<.3.5
    53f4:	39e833e8 3d9833f0 3ef033f8 34303418     .3.9.3.=.3.>.404
    5404:	39183438 35003440 35083448 35103450     84.9@4.5H4.5P4.5
    5414:	35303458 35203460 35283468 35183470     X405`4 5h4(5p4.5
    5424:	37303478 34a03488 39303498 3ca034a8     x407.4.4.409.4.<
    5434:	38c834b0 3b3034b8 358034c0 34e034c8     .4.8.40;.4.5.4.4
    5444:	359034d0 3d3034d8 358834e0 3ce034e8     .4.5.40=.4.5.4.<
    5454:	39c834f0 3f3034f8 35303518 39583538     .4.9.40?.50585X9
    5464:	35703558 37703578 35a03588 39703598     X5p5x5p7.5.5.5p9
    5474:	3da035a8 3cc835b0 3b7035b8 35e035c8     .5.=.5.<.5p;.5.5
    5484:	3d7035d8 3de035e8 3dc835f0 3f7035f8     .5p=.5.=.5.=.5p?
    5494:	3c003600 3c803608 3c083610 3c883618     .6.<.6.<.6.<.6.<
    54a4:	3c103620 3c903628 3c183630 3c983638      6.<(6.<06.<86.<
    54b4:	3c403640 3cc03648 3c483650 3cc83658     @6@<H6.<P6H<X6.<
    54c4:	3c503660 3cd03668 3c583670 37b03678     `6P<h6.<p6X<x6.7
    54d4:	3c203680 3ca03688 3c283690 39b03698     .6 <.6.<.6(<.6.9
    54e4:	3c3036a0 3ca836a8 38d836b0 3bb036b8     .60<.6.<.6.8.6.;
    54f4:	3c6036c0 3ce036c8 3c6836d0 3db036d8     .6`<.6.<.6h<.6.=
    5504:	3c7036e0 3ce836e8 39d836f0 3fb036f8     .6p<.6.<.6.9.6.?
    5514:	3d003700 3d803708 3d083710 3d883718     .7.=.7.=.7.=.7.=
    5524:	3d103720 3d903728 3d183730 3d983738      7.=(7.=07.=87.=
    5534:	3d403740 3dc03748 3d483750 3dc83758     @7@=H7.=P7H=X7.=
    5544:	3d503760 3dd03768 3d583770 37f03778     `7P=h7.=p7X=x7.7
    5554:	3d203780 3da03788 3d283790 39f03798     .7 =.7.=.7(=.7.9
    5564:	3d3037a0 3da837a8 3cd837b0 3bf037b8     .70=.7.=.7.<.7.;
    5574:	3d6037c0 3de037c8 3d6837d0 3df037d8     .7`=.7.=.7h=.7.=
    5584:	3d7037e0 3de837e8 3dd837f0 3ff037f8     .7p=.7.=.7.=.7.?
    5594:	38983838 39003840 39083848 39103850     88.8@8.9H8.9P8.9
    55a4:	39183858 39203860 39283868 39303870     X8.9`8 9h8(9p809
    55b4:	3c983878 38b038a8 3a3838b8 398038c0     x8.<.8.8.88:.8.9
    55c4:	398838c8 399038d0 3c3838d8 39a038e0     .8.9.8.9.88<.8.9
    55d4:	38f038e8 3e3838f8 39a838f0 3c003900     .8.8.88>.8.9.9.<
    55e4:	3c083908 3c103910 3c183918 3c203920     .9.<.9.<.9.< 9 <
    55f4:	3c283928 3c303930 3c383938 3d003940     (9(<090<898<@9.=
    5604:	3d083948 3d103950 3d183958 3d203960     H9.=P9.=X9.=`9 =
    5614:	3d283968 3d303970 3cd83978 3c803980     h9(=p90=x9.<.9.<
    5624:	3c883988 3c903990 3c983998 3ca039a0     .9.<.9.<.9.<.9.<
    5634:	39b039a8 3a7839b8 3ca839b0 3d8039c0     .9.9.9x:.9.<.9.=
    5644:	3d8839c8 3d9039d0 3c7839d8 3da039e0     .9.=.9.=.9x<.9.=
    5654:	39f039e8 3e7839f8 3da839f0 3a103a08     .9.9.9x>.9.=.:.:
    5664:	3a203a10 3a303a18 3a803a20 3a903a28     .: :.:0: :.:(:.:
    5674:	3aa03a30 3ab03a38 3b003a40 3b103a48     0:.:8:.:@:.;H:.;
    5684:	3b203a50 3b303a58 3b803a60 3b903a68     P: ;X:0;`:.;h:.;
    5694:	3ba03a70 3bb03a78 3aa03a88 3ab03a98     p:.;x:.;.:.:.:.:
    56a4:	3ab03aa8 3b083ac0 3b183ac8 3b283ad0     .:.:.:.;.:.;.:(;
    56b4:	3cb83ad8 3b883ae0 3b983ae8 3ba83af0     .:.<.:.;.:.;.:.;
    56c4:	3eb83af8 3e003b00 3e103b08 3e203b10     .:.>.;.>.;.>.; >
    56d4:	3e303b18 3e803b20 3e903b28 3ea03b30     .;0> ;.>(;.>0;.>
    56e4:	3eb03b38 3f003b40 3f103b48 3f203b50     8;.>@;.?H;.?P; ?
    56f4:	3f303b58 3f803b60 3f903b68 3fa03b70     X;0?`;.?h;.?p;.?
    5704:	3fb03b78 3e083b80 3e183b88 3e283b90     x;.?.;.>.;.>.;(>
    5714:	3e383b98 3e883ba0 3e983ba8 3ea83bb0     .;8>.;.>.;.>.;.>
    5724:	3eb83bb8 3f083bc0 3f183bc8 3f283bd0     .;.>.;.?.;.?.;(?
    5734:	3cf83bd8 3f883be0 3f983be8 3fa83bf0     .;.<.;.?.;.?.;.?
    5744:	3ef83bf8 3c983c38 3d003c40 3d083c48     .;.>8<.<@<.=H<.=
    5754:	3d103c50 3d183c58 3d203c60 3d283c68     P<.=X<.=`< =h<(=
    5764:	3d303c70 3d983c78 3cb03ca8 3eb03cb8     p<0=x<.=.<.<.<.>
    5774:	3d803cc0 3d883cc8 3d903cd0 3d383cd8     .<.=.<.=.<.=.<8=
    5784:	3da03ce0 3cf03ce8 3da83cf0 3f383cf8     .<.=.<.<.<.=.<8?
    5794:	3d983d38 3dd83d78 3db03da8 3fb03db8     8=.=x=.=.=.=.=.?
    57a4:	3df03de8 3e803e08 3f783df8 3e803e10     .=.=.>.>.=x?.>.>
    57b4:	3e883e18 3e803e20 3e903e28 3e883e30     .>.> >.>(>.>0>.>
    57c4:	3e983e38 3f003e40 3f203e48 3f803e50     8>.>@>.?H> ?P>.?
    57d4:	3fa03e58 3f083e60 3f283e68 3f883e70     X>.?`>.?h>(?p>.?
    57e4:	3fa83e78 3ea03e88 3ea83e98 3f103ec0     x>.?.>.>.>.>.>.?
    57f4:	3eb03ea8 3f303ec8 3f903ed0 3fb03ed8     .>.>.>0?.>.?.>.?
    5804:	3f183ee0 3f383ee8 3f983ef0 3f803f08     .>.?.>8?.>.?.?.?
    5814:	3fb83ef8 3f803f10 3f883f18 3f803f20     .>.?.?.?.?.? ?.?
    5824:	3f903f28 3f883f30 3f983f38 3f503f48     (?.?0?.?8?.?H?P?
    5834:	3f603f50 3f703f58 3fc03f60 3fd03f68     P?`?X?p?`?.?h?.?
    5844:	3fe03f70 3ff03f78 3fa03f88 3fa83f98     p?.?x?.?.?.?.?.?
    5854:	3fb03fa8 3ff03fd8 3fe03fc8 3ff03fe8     .?.?.?.?.?.?.?.?

00005864 <armBitRevIndexTable256>:
    5864:	02000008 04000010 06000018 00400020     ............ .@.
    5874:	02400028 04400030 06400038 00800040     (.@.0.@.8.@.@...
    5884:	02800048 04800050 06800058 00c00060     H...P...X...`...
    5894:	02c00068 04c00070 06c00078 01000080     h...p...x.......
    58a4:	03000088 05000090 07000098 014000a0     ..............@.
    58b4:	034000a8 054000b0 074000b8 018000c0     ..@...@...@.....
    58c4:	038000c8 058000d0 078000d8 01c000e0     ................
    58d4:	03c000e8 05c000f0 07c000f8 02000100     ................
    58e4:	02080108 04080110 06080118 02800120     ............ ...
    58f4:	02480128 04480130 06480138 03000140     (.H.0.H.8.H.@...
    5904:	02880148 04880150 06880158 03800160     H...P...X...`...
    5914:	02c80168 04c80170 06c80178 02080180     h...p...x.......
    5924:	03080188 05080190 07080198 028801a0     ................
    5934:	034801a8 054801b0 074801b8 030801c0     ..H...H...H.....
    5944:	038801c8 058801d0 078801d8 038801e0     ................
    5954:	03c801e8 05c801f0 07c801f8 02100208     ................
    5964:	04000200 04100210 06100218 04800220     ............ ...
    5974:	02500228 04500230 06500238 05000240     (.P.0.P.8.P.@...
    5984:	02900248 04900250 06900258 05800260     H...P...X...`...
    5994:	02d00268 04d00270 06d00278 04080280     h...p...x.......
    59a4:	03100288 05100290 07100298 048802a0     ................
    59b4:	035002a8 055002b0 075002b8 050802c0     ..P...P...P.....
    59c4:	039002c8 059002d0 079002d8 058802e0     ................
    59d4:	03d002e8 05d002f0 07d002f8 06000300     ................
    59e4:	06100308 04180310 06180318 06800320     ............ ...
    59f4:	06900328 04580330 06580338 07000340     (...0.X.8.X.@...
    5a04:	07100348 04980350 06980358 07800360     H...P...X...`...
    5a14:	07900368 04d80370 06d80378 06080380     h...p...x.......
    5a24:	06180388 05180390 07180398 068803a0     ................
    5a34:	069803a8 055803b0 075803b8 070803c0     ......X...X.....
    5a44:	071803c8 059803d0 079803d8 078803e0     ................
    5a54:	079803e8 05d803f0 07d803f8 04800408     ................
    5a64:	04200410 06200418 05800428 04600430     .. ... .(...0.`.
    5a74:	06600438 06000440 04880448 04a00450     8.`.@...H...P...
    5a84:	06a00458 06100460 05880468 04e00470     X...`...h...p...
    5a94:	06e00478 06800488 05200490 07200498     x......... ... .
    5aa4:	060804a0 078004a8 056004b0 076004b8     ..........`...`.
    5ab4:	062004c0 068804c8 05a004d0 07a004d8     .. .............
    5ac4:	061804e0 078804e8 05e004f0 07e004f8     ................
    5ad4:	05200508 05800510 06280518 05900528     .. .......(.(...
    5ae4:	05880530 06680538 07000540 07200548     0...8.h.@...H. .
    5af4:	07800550 06a80558 07080560 05980568     P...X...`...h...
    5b04:	07880570 06e80578 06900588 07280598     p...x.........(.
    5b14:	062805a0 079005a8 072805b0 076805b8     ..(.......(...h.
    5b24:	071005c0 069805c8 079005d0 07a805d8     ................
    5b34:	071805e0 079805e8 079805f0 07e805f8     ................
    5b44:	06300618 06700638 07000640 07800648     ..0.8.p.@...H...
    5b54:	07080650 06b00658 07100660 07900668     P...X...`...h...
    5b64:	07180670 06f00678 06a00688 07300698     p...x.........0.
    5b74:	07a006a8 078806b0 077006b8 072006c0     ..........p... .
    5b84:	07a006c8 072806d0 07b006d8 073006e0     ......(.......0.
    5b94:	07a806e8 079806f0 07f006f8 07500748     ............H.P.
    5ba4:	07980738 07600750 07700758 07c00760     8...P.`.X.p.`...
    5bb4:	07d00768 07f00778 07e00770 07f007b8     h...x...p.......
    5bc4:	07b007a8 07f007d8 07e007c8 07f007e8     ................

00005bd4 <armBitRevIndexTable32>:
    5bd4:	00400008 00800010 00c00018 00400020     ..@......... .@.
    5be4:	00480028 00880030 00c80038 00800040     (.H.0...8...@...
    5bf4:	00500048 00d00058 00900050 00c00060     H.P.X...P...`...
    5c04:	00d00068 00980070 00d80078 00c00088     h...p...x.......
    5c14:	00a00090 00d000a8 00e00098 00d000b0     ................
    5c24:	00e800b8 00f000d8 00e000c8 00f000e8     ................

00005c34 <armBitRevIndexTable4096>:
    5c34:	10000008 20000010 30000018 40000020     ....... ...0 ..@
    5c44:	50000028 60000030 70000038 02000040     (..P0..`8..p@...
    5c54:	12000048 22000050 32000058 42000060     H...P.."X..2`..B
    5c64:	52000068 62000070 72000078 04000080     h..Rp..bx..r....
    5c74:	14000088 24000090 34000098 440000a0     .......$...4...D
    5c84:	540000a8 640000b0 740000b8 060000c0     ...T...d...t....
    5c94:	160000c8 260000d0 360000d8 460000e0     .......&...6...F
    5ca4:	560000e8 660000f0 760000f8 08000100     ...V...f...v....
    5cb4:	18000108 28000110 38000118 48000120     .......(...8 ..H
    5cc4:	58000128 68000130 78000138 0a000140     (..X0..h8..x@...
    5cd4:	1a000148 2a000150 3a000158 4a000160     H...P..*X..:`..J
    5ce4:	5a000168 6a000170 7a000178 0c000180     h..Zp..jx..z....
    5cf4:	1c000188 2c000190 3c000198 4c0001a0     .......,...<...L
    5d04:	5c0001a8 6c0001b0 7c0001b8 0e0001c0     ...\...l...|....
    5d14:	1e0001c8 2e0001d0 3e0001d8 4e0001e0     ...........>...N
    5d24:	5e0001e8 6e0001f0 7e0001f8 10400208     ...^...n...~..@.
    5d34:	20400210 30400218 40400220 50400228     ..@ ..@0 .@@(.@P
    5d44:	60400230 70400238 12400248 22400250     0.@`8.@pH.@.P.@"
    5d54:	32400258 42400260 52400268 62400270     X.@2`.@Bh.@Rp.@b
    5d64:	72400278 04400280 14400288 24400290     x.@r..@...@...@$
    5d74:	34400298 444002a0 544002a8 644002b0     ..@4..@D..@T..@d
    5d84:	744002b8 064002c0 164002c8 264002d0     ..@t..@...@...@&
    5d94:	364002d8 464002e0 564002e8 664002f0     ..@6..@F..@V..@f
    5da4:	764002f8 08400300 18400308 28400310     ..@v..@...@...@(
    5db4:	38400318 48400320 58400328 68400330     ..@8 .@H(.@X0.@h
    5dc4:	78400338 0a400340 1a400348 2a400350     8.@x@.@.H.@.P.@*
    5dd4:	3a400358 4a400360 5a400368 6a400370     X.@:`.@Jh.@Zp.@j
    5de4:	7a400378 0c400380 1c400388 2c400390     x.@z..@...@...@,
    5df4:	3c400398 4c4003a0 5c4003a8 6c4003b0     ..@<..@L..@\..@l
    5e04:	7c4003b8 0e4003c0 1e4003c8 2e4003d0     ..@|..@...@...@.
    5e14:	3e4003d8 4e4003e0 5e4003e8 6e4003f0     ..@>..@N..@^..@n
    5e24:	7e4003f8 10800408 20800410 30800418     ..@~....... ...0
    5e34:	40800420 50800428 60800430 70800438      ..@(..P0..`8..p
    5e44:	12800448 22800450 32800458 42800460     H...P.."X..2`..B
    5e54:	52800468 62800470 72800478 14800488     h..Rp..bx..r....
    5e64:	24800490 34800498 448004a0 548004a8     ...$...4...D...T
    5e74:	648004b0 748004b8 068004c0 168004c8     ...d...t........
    5e84:	268004d0 368004d8 468004e0 568004e8     ...&...6...F...V
    5e94:	668004f0 768004f8 08800500 18800508     ...f...v........
    5ea4:	28800510 38800518 48800520 58800528     ...(...8 ..H(..X
    5eb4:	68800530 78800538 0a800540 1a800548     0..h8..x@...H...
    5ec4:	2a800550 3a800558 4a800560 5a800568     P..*X..:`..Jh..Z
    5ed4:	6a800570 7a800578 0c800580 1c800588     p..jx..z........
    5ee4:	2c800590 3c800598 4c8005a0 5c8005a8     ...,...<...L...\
    5ef4:	6c8005b0 7c8005b8 0e8005c0 1e8005c8     ...l...|........
    5f04:	2e8005d0 3e8005d8 4e8005e0 5e8005e8     .......>...N...^
    5f14:	6e8005f0 7e8005f8 10c00608 20c00610     ...n...~....... 
    5f24:	30c00618 40c00620 50c00628 60c00630     ...0 ..@(..P0..`
    5f34:	70c00638 12c00648 22c00650 32c00658     8..pH...P.."X..2
    5f44:	42c00660 52c00668 62c00670 72c00678     `..Bh..Rp..bx..r
    5f54:	14c00688 24c00690 34c00698 44c006a0     .......$...4...D
    5f64:	54c006a8 64c006b0 74c006b8 16c006c8     ...T...d...t....
    5f74:	26c006d0 36c006d8 46c006e0 56c006e8     ...&...6...F...V
    5f84:	66c006f0 76c006f8 08c00700 18c00708     ...f...v........
    5f94:	28c00710 38c00718 48c00720 58c00728     ...(...8 ..H(..X
    5fa4:	68c00730 78c00738 0ac00740 1ac00748     0..h8..x@...H...
    5fb4:	2ac00750 3ac00758 4ac00760 5ac00768     P..*X..:`..Jh..Z
    5fc4:	6ac00770 7ac00778 0cc00780 1cc00788     p..jx..z........
    5fd4:	2cc00790 3cc00798 4cc007a0 5cc007a8     ...,...<...L...\
    5fe4:	6cc007b0 7cc007b8 0ec007c0 1ec007c8     ...l...|........
    5ff4:	2ec007d0 3ec007d8 4ec007e0 5ec007e8     .......>...N...^
    6004:	6ec007f0 7ec007f8 11000808 21000810     ...n...~.......!
    6014:	31000818 41000820 51000828 61000830     ...1 ..A(..Q0..a
    6024:	71000838 13000848 23000850 33000858     8..qH...P..#X..3
    6034:	43000860 53000868 63000870 73000878     `..Ch..Sp..cx..s
    6044:	15000888 25000890 35000898 450008a0     .......%...5...E
    6054:	550008a8 650008b0 750008b8 170008c8     ...U...e...u....
    6064:	270008d0 370008d8 470008e0 570008e8     ...'...7...G...W
    6074:	670008f0 770008f8 19000908 29000910     ...g...w.......)
    6084:	39000918 49000920 59000928 69000930     ...9 ..I(..Y0..i
    6094:	79000938 0b000940 1b000948 2b000950     8..y@...H...P..+
    60a4:	3b000958 4b000960 5b000968 6b000970     X..;`..Kh..[p..k
    60b4:	7b000978 0d000980 1d000988 2d000990     x..{...........-
    60c4:	3d000998 4d0009a0 5d0009a8 6d0009b0     ...=...M...]...m
    60d4:	7d0009b8 0f0009c0 1f0009c8 2f0009d0     ...}.........../
    60e4:	3f0009d8 4f0009e0 5f0009e8 6f0009f0     ...?...O..._...o
    60f4:	7f0009f8 11400a08 21400a10 31400a18     ......@...@!..@1
    6104:	41400a20 51400a28 61400a30 71400a38      .@A(.@Q0.@a8.@q
    6114:	13400a48 23400a50 33400a58 43400a60     H.@.P.@#X.@3`.@C
    6124:	53400a68 63400a70 73400a78 15400a88     h.@Sp.@cx.@s..@.
    6134:	25400a90 35400a98 45400aa0 55400aa8     ..@%..@5..@E..@U
    6144:	65400ab0 75400ab8 17400ac8 27400ad0     ..@e..@u..@...@'
    6154:	37400ad8 47400ae0 57400ae8 67400af0     ..@7..@G..@W..@g
    6164:	77400af8 19400b08 29400b10 39400b18     ..@w..@...@)..@9
    6174:	49400b20 59400b28 69400b30 79400b38      .@I(.@Y0.@i8.@y
    6184:	1b400b48 2b400b50 3b400b58 4b400b60     H.@.P.@+X.@;`.@K
    6194:	5b400b68 6b400b70 7b400b78 0d400b80     h.@[p.@kx.@{..@.
    61a4:	1d400b88 2d400b90 3d400b98 4d400ba0     ..@...@-..@=..@M
    61b4:	5d400ba8 6d400bb0 7d400bb8 0f400bc0     ..@]..@m..@}..@.
    61c4:	1f400bc8 2f400bd0 3f400bd8 4f400be0     ..@...@/..@?..@O
    61d4:	5f400be8 6f400bf0 7f400bf8 11800c08     ..@_..@o..@.....
    61e4:	21800c10 31800c18 41800c20 51800c28     ...!...1 ..A(..Q
    61f4:	61800c30 71800c38 13800c48 23800c50     0..a8..qH...P..#
    6204:	33800c58 43800c60 53800c68 63800c70     X..3`..Ch..Sp..c
    6214:	73800c78 15800c88 25800c90 35800c98     x..s.......%...5
    6224:	45800ca0 55800ca8 65800cb0 75800cb8     ...E...U...e...u
    6234:	17800cc8 27800cd0 37800cd8 47800ce0     .......'...7...G
    6244:	57800ce8 67800cf0 77800cf8 19800d08     ...W...g...w....
    6254:	29800d10 39800d18 49800d20 59800d28     ...)...9 ..I(..Y
    6264:	69800d30 79800d38 1b800d48 2b800d50     0..i8..yH...P..+
    6274:	3b800d58 4b800d60 5b800d68 6b800d70     X..;`..Kh..[p..k
    6284:	7b800d78 1d800d88 2d800d90 3d800d98     x..{.......-...=
    6294:	4d800da0 5d800da8 6d800db0 7d800db8     ...M...]...m...}
    62a4:	0f800dc0 1f800dc8 2f800dd0 3f800dd8     .........../...?
    62b4:	4f800de0 5f800de8 6f800df0 7f800df8     ...O..._...o....
    62c4:	11c00e08 21c00e10 31c00e18 41c00e20     .......!...1 ..A
    62d4:	51c00e28 61c00e30 71c00e38 13c00e48     (..Q0..a8..qH...
    62e4:	23c00e50 33c00e58 43c00e60 53c00e68     P..#X..3`..Ch..S
    62f4:	63c00e70 73c00e78 15c00e88 25c00e90     p..cx..s.......%
    6304:	35c00e98 45c00ea0 55c00ea8 65c00eb0     ...5...E...U...e
    6314:	75c00eb8 17c00ec8 27c00ed0 37c00ed8     ...u.......'...7
    6324:	47c00ee0 57c00ee8 67c00ef0 77c00ef8     ...G...W...g...w
    6334:	19c00f08 29c00f10 39c00f18 49c00f20     .......)...9 ..I
    6344:	59c00f28 69c00f30 79c00f38 1bc00f48     (..Y0..i8..yH...
    6354:	2bc00f50 3bc00f58 4bc00f60 5bc00f68     P..+X..;`..Kh..[
    6364:	6bc00f70 7bc00f78 1dc00f88 2dc00f90     p..kx..{.......-
    6374:	3dc00f98 4dc00fa0 5dc00fa8 6dc00fb0     ...=...M...]...m
    6384:	7dc00fb8 1fc00fc8 2fc00fd0 3fc00fd8     ...}......./...?
    6394:	4fc00fe0 5fc00fe8 6fc00ff0 7fc00ff8     ...O..._...o....
    63a4:	20081010 30081018 40081020 50081028     ... ...0 ..@(..P
    63b4:	60081030 70081038 12081048 22081050     0..`8..pH...P.."
    63c4:	32081058 42081060 52081068 62081070     X..2`..Bh..Rp..b
    63d4:	72081078 14081088 24081090 34081098     x..r.......$...4
    63e4:	440810a0 540810a8 640810b0 740810b8     ...D...T...d...t
    63f4:	160810c8 260810d0 360810d8 460810e0     .......&...6...F
    6404:	560810e8 660810f0 760810f8 18081108     ...V...f...v....
    6414:	28081110 38081118 48081120 58081128     ...(...8 ..H(..X
    6424:	68081130 78081138 1a081148 2a081150     0..h8..xH...P..*
    6434:	3a081158 4a081160 5a081168 6a081170     X..:`..Jh..Zp..j
    6444:	7a081178 1c081188 2c081190 3c081198     x..z.......,...<
    6454:	4c0811a0 5c0811a8 6c0811b0 7c0811b8     ...L...\...l...|
    6464:	1e0811c8 2e0811d0 3e0811d8 4e0811e0     ...........>...N
    6474:	5e0811e8 6e0811f0 7e0811f8 20481210     ...^...n...~..H 
    6484:	30481218 40481220 50481228 60481230     ..H0 .H@(.HP0.H`
    6494:	70481238 22481250 32481258 42481260     8.HpP.H"X.H2`.HB
    64a4:	52481268 62481270 72481278 14481288     h.HRp.Hbx.Hr..H.
    64b4:	24481290 34481298 444812a0 544812a8     ..H$..H4..HD..HT
    64c4:	644812b0 744812b8 164812c8 264812d0     ..Hd..Ht..H...H&
    64d4:	364812d8 464812e0 564812e8 664812f0     ..H6..HF..HV..Hf
    64e4:	764812f8 18481308 28481310 38481318     ..Hv..H...H(..H8
    64f4:	48481320 58481328 68481330 78481338      .HH(.HX0.Hh8.Hx
    6504:	1a481348 2a481350 3a481358 4a481360     H.H.P.H*X.H:`.HJ
    6514:	5a481368 6a481370 7a481378 1c481388     h.HZp.Hjx.Hz..H.
    6524:	2c481390 3c481398 4c4813a0 5c4813a8     ..H,..H<..HL..H\
    6534:	6c4813b0 7c4813b8 1e4813c8 2e4813d0     ..Hl..H|..H...H.
    6544:	3e4813d8 4e4813e0 5e4813e8 6e4813f0     ..H>..HN..H^..Hn
    6554:	7e4813f8 20881410 30881418 40881420     ..H~... ...0 ..@
    6564:	50881428 60881430 70881438 22881450     (..P0..`8..pP.."
    6574:	32881458 42881460 52881468 62881470     X..2`..Bh..Rp..b
    6584:	72881478 24881490 34881498 448814a0     x..r...$...4...D
    6594:	548814a8 648814b0 748814b8 168814c8     ...T...d...t....
    65a4:	268814d0 368814d8 468814e0 568814e8     ...&...6...F...V
    65b4:	668814f0 768814f8 18881508 28881510     ...f...v.......(
    65c4:	38881518 48881520 58881528 68881530     ...8 ..H(..X0..h
    65d4:	78881538 1a881548 2a881550 3a881558     8..xH...P..*X..:
    65e4:	4a881560 5a881568 6a881570 7a881578     `..Jh..Zp..jx..z
    65f4:	1c881588 2c881590 3c881598 4c8815a0     .......,...<...L
    6604:	5c8815a8 6c8815b0 7c8815b8 1e8815c8     ...\...l...|....
    6614:	2e8815d0 3e8815d8 4e8815e0 5e8815e8     .......>...N...^
    6624:	6e8815f0 7e8815f8 20c81610 30c81618     ...n...~... ...0
    6634:	40c81620 50c81628 60c81630 70c81638      ..@(..P0..`8..p
    6644:	22c81650 32c81658 42c81660 52c81668     P.."X..2`..Bh..R
    6654:	62c81670 72c81678 24c81690 34c81698     p..bx..r...$...4
    6664:	44c816a0 54c816a8 64c816b0 74c816b8     ...D...T...d...t
    6674:	26c816d0 36c816d8 46c816e0 56c816e8     ...&...6...F...V
    6684:	66c816f0 76c816f8 18c81708 28c81710     ...f...v.......(
    6694:	38c81718 48c81720 58c81728 68c81730     ...8 ..H(..X0..h
    66a4:	78c81738 1ac81748 2ac81750 3ac81758     8..xH...P..*X..:
    66b4:	4ac81760 5ac81768 6ac81770 7ac81778     `..Jh..Zp..jx..z
    66c4:	1cc81788 2cc81790 3cc81798 4cc817a0     .......,...<...L
    66d4:	5cc817a8 6cc817b0 7cc817b8 1ec817c8     ...\...l...|....
    66e4:	2ec817d0 3ec817d8 4ec817e0 5ec817e8     .......>...N...^
    66f4:	6ec817f0 7ec817f8 21081810 31081818     ...n...~...!...1
    6704:	41081820 51081828 61081830 71081838      ..A(..Q0..a8..q
    6714:	23081850 33081858 43081860 53081868     P..#X..3`..Ch..S
    6724:	63081870 73081878 25081890 35081898     p..cx..s...%...5
    6734:	450818a0 550818a8 650818b0 750818b8     ...E...U...e...u
    6744:	270818d0 370818d8 470818e0 570818e8     ...'...7...G...W
    6754:	670818f0 770818f8 29081910 39081918     ...g...w...)...9
    6764:	49081920 59081928 69081930 79081938      ..I(..Y0..i8..y
    6774:	1b081948 2b081950 3b081958 4b081960     H...P..+X..;`..K
    6784:	5b081968 6b081970 7b081978 1d081988     h..[p..kx..{....
    6794:	2d081990 3d081998 4d0819a0 5d0819a8     ...-...=...M...]
    67a4:	6d0819b0 7d0819b8 1f0819c8 2f0819d0     ...m...}......./
    67b4:	3f0819d8 4f0819e0 5f0819e8 6f0819f0     ...?...O..._...o
    67c4:	7f0819f8 21481a10 31481a18 41481a20     ......H!..H1 .HA
    67d4:	51481a28 61481a30 71481a38 23481a50     (.HQ0.Ha8.HqP.H#
    67e4:	33481a58 43481a60 53481a68 63481a70     X.H3`.HCh.HSp.Hc
    67f4:	73481a78 25481a90 35481a98 45481aa0     x.Hs..H%..H5..HE
    6804:	55481aa8 65481ab0 75481ab8 27481ad0     ..HU..He..Hu..H'
    6814:	37481ad8 47481ae0 57481ae8 67481af0     ..H7..HG..HW..Hg
    6824:	77481af8 29481b10 39481b18 49481b20     ..Hw..H)..H9 .HI
    6834:	59481b28 69481b30 79481b38 2b481b50     (.HY0.Hi8.HyP.H+
    6844:	3b481b58 4b481b60 5b481b68 6b481b70     X.H;`.HKh.H[p.Hk
    6854:	7b481b78 1d481b88 2d481b90 3d481b98     x.H{..H...H-..H=
    6864:	4d481ba0 5d481ba8 6d481bb0 7d481bb8     ..HM..H]..Hm..H}
    6874:	1f481bc8 2f481bd0 3f481bd8 4f481be0     ..H...H/..H?..HO
    6884:	5f481be8 6f481bf0 7f481bf8 21881c10     ..H_..Ho..H....!
    6894:	31881c18 41881c20 51881c28 61881c30     ...1 ..A(..Q0..a
    68a4:	71881c38 23881c50 33881c58 43881c60     8..qP..#X..3`..C
    68b4:	53881c68 63881c70 73881c78 25881c90     h..Sp..cx..s...%
    68c4:	35881c98 45881ca0 55881ca8 65881cb0     ...5...E...U...e
    68d4:	75881cb8 27881cd0 37881cd8 47881ce0     ...u...'...7...G
    68e4:	57881ce8 67881cf0 77881cf8 29881d10     ...W...g...w...)
    68f4:	39881d18 49881d20 59881d28 69881d30     ...9 ..I(..Y0..i
    6904:	79881d38 2b881d50 3b881d58 4b881d60     8..yP..+X..;`..K
    6914:	5b881d68 6b881d70 7b881d78 2d881d90     h..[p..kx..{...-
    6924:	3d881d98 4d881da0 5d881da8 6d881db0     ...=...M...]...m
    6934:	7d881db8 1f881dc8 2f881dd0 3f881dd8     ...}......./...?
    6944:	4f881de0 5f881de8 6f881df0 7f881df8     ...O..._...o....
    6954:	21c81e10 31c81e18 41c81e20 51c81e28     ...!...1 ..A(..Q
    6964:	61c81e30 71c81e38 23c81e50 33c81e58     0..a8..qP..#X..3
    6974:	43c81e60 53c81e68 63c81e70 73c81e78     `..Ch..Sp..cx..s
    6984:	25c81e90 35c81e98 45c81ea0 55c81ea8     ...%...5...E...U
    6994:	65c81eb0 75c81eb8 27c81ed0 37c81ed8     ...e...u...'...7
    69a4:	47c81ee0 57c81ee8 67c81ef0 77c81ef8     ...G...W...g...w
    69b4:	29c81f10 39c81f18 49c81f20 59c81f28     ...)...9 ..I(..Y
    69c4:	69c81f30 79c81f38 2bc81f50 3bc81f58     0..i8..yP..+X..;
    69d4:	4bc81f60 5bc81f68 6bc81f70 7bc81f78     `..Kh..[p..kx..{
    69e4:	2dc81f90 3dc81f98 4dc81fa0 5dc81fa8     ...-...=...M...]
    69f4:	6dc81fb0 7dc81fb8 2fc81fd0 3fc81fd8     ...m...}.../...?
    6a04:	4fc81fe0 5fc81fe8 6fc81ff0 7fc81ff8     ...O..._...o....
    6a14:	30102018 40102020 50102028 60102030     . .0  .@( .P0 .`
    6a24:	70102038 22102050 32102058 42102060     8 .pP ."X .2` .B
    6a34:	52102068 62102070 72102078 24102090     h .Rp .bx .r. .$
    6a44:	34102098 441020a0 541020a8 641020b0     . .4. .D. .T. .d
    6a54:	741020b8 261020d0 361020d8 461020e0     . .t. .&. .6. .F
    6a64:	561020e8 661020f0 761020f8 28102110     . .V. .f. .v.!.(
    6a74:	38102118 48102120 58102128 68102130     .!.8 !.H(!.X0!.h
    6a84:	78102138 2a102150 3a102158 4a102160     8!.xP!.*X!.:`!.J
    6a94:	5a102168 6a102170 7a102178 2c102190     h!.Zp!.jx!.z.!.,
    6aa4:	3c102198 4c1021a0 5c1021a8 6c1021b0     .!.<.!.L.!.\.!.l
    6ab4:	7c1021b8 2e1021d0 3e1021d8 4e1021e0     .!.|.!...!.>.!.N
    6ac4:	5e1021e8 6e1021f0 7e1021f8 30502218     .!.^.!.n.!.~."P0
    6ad4:	40502220 50502228 60502230 70502238      "P@("PP0"P`8"Pp
    6ae4:	32502258 42502260 52502268 62502270     X"P2`"PBh"PRp"Pb
    6af4:	72502278 24502290 34502298 445022a0     x"Pr."P$."P4."PD
    6b04:	545022a8 645022b0 745022b8 265022d0     ."PT."Pd."Pt."P&
    6b14:	365022d8 465022e0 565022e8 665022f0     ."P6."PF."PV."Pf
    6b24:	765022f8 28502310 38502318 48502320     ."Pv.#P(.#P8 #PH
    6b34:	58502328 68502330 78502338 2a502350     (#PX0#Ph8#PxP#P*
    6b44:	3a502358 4a502360 5a502368 6a502370     X#P:`#PJh#PZp#Pj
    6b54:	7a502378 2c502390 3c502398 4c5023a0     x#Pz.#P,.#P<.#PL
    6b64:	5c5023a8 6c5023b0 7c5023b8 2e5023d0     .#P\.#Pl.#P|.#P.
    6b74:	3e5023d8 4e5023e0 5e5023e8 6e5023f0     .#P>.#PN.#P^.#Pn
    6b84:	7e5023f8 30902418 40902420 50902428     .#P~.$.0 $.@($.P
    6b94:	60902430 70902438 32902458 42902460     0$.`8$.pX$.2`$.B
    6ba4:	52902468 62902470 72902478 34902498     h$.Rp$.bx$.r.$.4
    6bb4:	449024a0 549024a8 649024b0 749024b8     .$.D.$.T.$.d.$.t
    6bc4:	269024d0 369024d8 469024e0 569024e8     .$.&.$.6.$.F.$.V
    6bd4:	669024f0 769024f8 28902510 38902518     .$.f.$.v.%.(.%.8
    6be4:	48902520 58902528 68902530 78902538      %.H(%.X0%.h8%.x
    6bf4:	2a902550 3a902558 4a902560 5a902568     P%.*X%.:`%.Jh%.Z
    6c04:	6a902570 7a902578 2c902590 3c902598     p%.jx%.z.%.,.%.<
    6c14:	4c9025a0 5c9025a8 6c9025b0 7c9025b8     .%.L.%.\.%.l.%.|
    6c24:	2e9025d0 3e9025d8 4e9025e0 5e9025e8     .%...%.>.%.N.%.^
    6c34:	6e9025f0 7e9025f8 30d02618 40d02620     .%.n.%.~.&.0 &.@
    6c44:	50d02628 60d02630 70d02638 32d02658     (&.P0&.`8&.pX&.2
    6c54:	42d02660 52d02668 62d02670 72d02678     `&.Bh&.Rp&.bx&.r
    6c64:	34d02698 44d026a0 54d026a8 64d026b0     .&.4.&.D.&.T.&.d
    6c74:	74d026b8 36d026d8 46d026e0 56d026e8     .&.t.&.6.&.F.&.V
    6c84:	66d026f0 76d026f8 28d02710 38d02718     .&.f.&.v.'.(.'.8
    6c94:	48d02720 58d02728 68d02730 78d02738      '.H('.X0'.h8'.x
    6ca4:	2ad02750 3ad02758 4ad02760 5ad02768     P'.*X'.:`'.Jh'.Z
    6cb4:	6ad02770 7ad02778 2cd02790 3cd02798     p'.jx'.z.'.,.'.<
    6cc4:	4cd027a0 5cd027a8 6cd027b0 7cd027b8     .'.L.'.\.'.l.'.|
    6cd4:	2ed027d0 3ed027d8 4ed027e0 5ed027e8     .'...'.>.'.N.'.^
    6ce4:	6ed027f0 7ed027f8 31102818 41102820     .'.n.'.~.(.1 (.A
    6cf4:	51102828 61102830 71102838 33102858     ((.Q0(.a8(.qX(.3
    6d04:	43102860 53102868 63102870 73102878     `(.Ch(.Sp(.cx(.s
    6d14:	35102898 451028a0 551028a8 651028b0     .(.5.(.E.(.U.(.e
    6d24:	751028b8 371028d8 471028e0 571028e8     .(.u.(.7.(.G.(.W
    6d34:	671028f0 771028f8 39102918 49102920     .(.g.(.w.).9 ).I
    6d44:	59102928 69102930 79102938 2b102950     ().Y0).i8).yP).+
    6d54:	3b102958 4b102960 5b102968 6b102970     X).;`).Kh).[p).k
    6d64:	7b102978 2d102990 3d102998 4d1029a0     x).{.).-.).=.).M
    6d74:	5d1029a8 6d1029b0 7d1029b8 2f1029d0     .).].).m.).}.)./
    6d84:	3f1029d8 4f1029e0 5f1029e8 6f1029f0     .).?.).O.)._.).o
    6d94:	7f1029f8 31502a18 41502a20 51502a28     .)...*P1 *PA(*PQ
    6da4:	61502a30 71502a38 33502a58 43502a60     0*Pa8*PqX*P3`*PC
    6db4:	53502a68 63502a70 73502a78 35502a98     h*PSp*Pcx*Ps.*P5
    6dc4:	45502aa0 55502aa8 65502ab0 75502ab8     .*PE.*PU.*Pe.*Pu
    6dd4:	37502ad8 47502ae0 57502ae8 67502af0     .*P7.*PG.*PW.*Pg
    6de4:	77502af8 39502b18 49502b20 59502b28     .*Pw.+P9 +PI(+PY
    6df4:	69502b30 79502b38 3b502b58 4b502b60     0+Pi8+PyX+P;`+PK
    6e04:	5b502b68 6b502b70 7b502b78 2d502b90     h+P[p+Pkx+P{.+P-
    6e14:	3d502b98 4d502ba0 5d502ba8 6d502bb0     .+P=.+PM.+P].+Pm
    6e24:	7d502bb8 2f502bd0 3f502bd8 4f502be0     .+P}.+P/.+P?.+PO
    6e34:	5f502be8 6f502bf0 7f502bf8 31902c18     .+P_.+Po.+P..,.1
    6e44:	41902c20 51902c28 61902c30 71902c38      ,.A(,.Q0,.a8,.q
    6e54:	33902c58 43902c60 53902c68 63902c70     X,.3`,.Ch,.Sp,.c
    6e64:	73902c78 35902c98 45902ca0 55902ca8     x,.s.,.5.,.E.,.U
    6e74:	65902cb0 75902cb8 37902cd8 47902ce0     .,.e.,.u.,.7.,.G
    6e84:	57902ce8 67902cf0 77902cf8 39902d18     .,.W.,.g.,.w.-.9
    6e94:	49902d20 59902d28 69902d30 79902d38      -.I(-.Y0-.i8-.y
    6ea4:	3b902d58 4b902d60 5b902d68 6b902d70     X-.;`-.Kh-.[p-.k
    6eb4:	7b902d78 3d902d98 4d902da0 5d902da8     x-.{.-.=.-.M.-.]
    6ec4:	6d902db0 7d902db8 2f902dd0 3f902dd8     .-.m.-.}.-./.-.?
    6ed4:	4f902de0 5f902de8 6f902df0 7f902df8     .-.O.-._.-.o.-..
    6ee4:	31d02e18 41d02e20 51d02e28 61d02e30     ...1 ..A(..Q0..a
    6ef4:	71d02e38 33d02e58 43d02e60 53d02e68     8..qX..3`..Ch..S
    6f04:	63d02e70 73d02e78 35d02e98 45d02ea0     p..cx..s...5...E
    6f14:	55d02ea8 65d02eb0 75d02eb8 37d02ed8     ...U...e...u...7
    6f24:	47d02ee0 57d02ee8 67d02ef0 77d02ef8     ...G...W...g...w
    6f34:	39d02f18 49d02f20 59d02f28 69d02f30     ./.9 /.I(/.Y0/.i
    6f44:	79d02f38 3bd02f58 4bd02f60 5bd02f68     8/.yX/.;`/.Kh/.[
    6f54:	6bd02f70 7bd02f78 3dd02f98 4dd02fa0     p/.kx/.{./.=./.M
    6f64:	5dd02fa8 6dd02fb0 7dd02fb8 3fd02fd8     ./.]./.m./.}./.?
    6f74:	4fd02fe0 5fd02fe8 6fd02ff0 7fd02ff8     ./.O./._./.o./..
    6f84:	40183020 50183028 60183030 70183038      0.@(0.P00.`80.p
    6f94:	32183058 42183060 52183068 62183070     X0.2`0.Bh0.Rp0.b
    6fa4:	72183078 34183098 441830a0 541830a8     x0.r.0.4.0.D.0.T
    6fb4:	641830b0 741830b8 361830d8 461830e0     .0.d.0.t.0.6.0.F
    6fc4:	561830e8 661830f0 761830f8 38183118     .0.V.0.f.0.v.1.8
    6fd4:	48183120 58183128 68183130 78183138      1.H(1.X01.h81.x
    6fe4:	3a183158 4a183160 5a183168 6a183170     X1.:`1.Jh1.Zp1.j
    6ff4:	7a183178 3c183198 4c1831a0 5c1831a8     x1.z.1.<.1.L.1.\
    7004:	6c1831b0 7c1831b8 3e1831d8 4e1831e0     .1.l.1.|.1.>.1.N
    7014:	5e1831e8 6e1831f0 7e1831f8 40583220     .1.^.1.n.1.~ 2X@
    7024:	50583228 60583230 70583238 42583260     (2XP02X`82Xp`2XB
    7034:	52583268 62583270 72583278 34583298     h2XRp2Xbx2Xr.2X4
    7044:	445832a0 545832a8 645832b0 745832b8     .2XD.2XT.2Xd.2Xt
    7054:	365832d8 465832e0 565832e8 665832f0     .2X6.2XF.2XV.2Xf
    7064:	765832f8 38583318 48583320 58583328     .2Xv.3X8 3XH(3XX
    7074:	68583330 78583338 3a583358 4a583360     03Xh83XxX3X:`3XJ
    7084:	5a583368 6a583370 7a583378 3c583398     h3XZp3Xjx3Xz.3X<
    7094:	4c5833a0 5c5833a8 6c5833b0 7c5833b8     .3XL.3X\.3Xl.3X|
    70a4:	3e5833d8 4e5833e0 5e5833e8 6e5833f0     .3X>.3XN.3X^.3Xn
    70b4:	7e5833f8 40983420 50983428 60983430     .3X~ 4.@(4.P04.`
    70c4:	70983438 42983460 52983468 62983470     84.p`4.Bh4.Rp4.b
    70d4:	72983478 449834a0 549834a8 649834b0     x4.r.4.D.4.T.4.d
    70e4:	749834b8 369834d8 469834e0 569834e8     .4.t.4.6.4.F.4.V
    70f4:	669834f0 769834f8 38983518 48983520     .4.f.4.v.5.8 5.H
    7104:	58983528 68983530 78983538 3a983558     (5.X05.h85.xX5.:
    7114:	4a983560 5a983568 6a983570 7a983578     `5.Jh5.Zp5.jx5.z
    7124:	3c983598 4c9835a0 5c9835a8 6c9835b0     .5.<.5.L.5.\.5.l
    7134:	7c9835b8 3e9835d8 4e9835e0 5e9835e8     .5.|.5.>.5.N.5.^
    7144:	6e9835f0 7e9835f8 40d83620 50d83628     .5.n.5.~ 6.@(6.P
    7154:	60d83630 70d83638 42d83660 52d83668     06.`86.p`6.Bh6.R
    7164:	62d83670 72d83678 44d836a0 54d836a8     p6.bx6.r.6.D.6.T
    7174:	64d836b0 74d836b8 46d836e0 56d836e8     .6.d.6.t.6.F.6.V
    7184:	66d836f0 76d836f8 38d83718 48d83720     .6.f.6.v.7.8 7.H
    7194:	58d83728 68d83730 78d83738 3ad83758     (7.X07.h87.xX7.:
    71a4:	4ad83760 5ad83768 6ad83770 7ad83778     `7.Jh7.Zp7.jx7.z
    71b4:	3cd83798 4cd837a0 5cd837a8 6cd837b0     .7.<.7.L.7.\.7.l
    71c4:	7cd837b8 3ed837d8 4ed837e0 5ed837e8     .7.|.7.>.7.N.7.^
    71d4:	6ed837f0 7ed837f8 41183820 51183828     .7.n.7.~ 8.A(8.Q
    71e4:	61183830 71183838 43183860 53183868     08.a88.q`8.Ch8.S
    71f4:	63183870 73183878 451838a0 551838a8     p8.cx8.s.8.E.8.U
    7204:	651838b0 751838b8 471838e0 571838e8     .8.e.8.u.8.G.8.W
    7214:	671838f0 771838f8 49183920 59183928     .8.g.8.w 9.I(9.Y
    7224:	69183930 79183938 3b183958 4b183960     09.i89.yX9.;`9.K
    7234:	5b183968 6b183970 7b183978 3d183998     h9.[p9.kx9.{.9.=
    7244:	4d1839a0 5d1839a8 6d1839b0 7d1839b8     .9.M.9.].9.m.9.}
    7254:	3f1839d8 4f1839e0 5f1839e8 6f1839f0     .9.?.9.O.9._.9.o
    7264:	7f1839f8 41583a20 51583a28 61583a30     .9.. :XA(:XQ0:Xa
    7274:	71583a38 43583a60 53583a68 63583a70     8:Xq`:XCh:XSp:Xc
    7284:	73583a78 45583aa0 55583aa8 65583ab0     x:Xs.:XE.:XU.:Xe
    7294:	75583ab8 47583ae0 57583ae8 67583af0     .:Xu.:XG.:XW.:Xg
    72a4:	77583af8 49583b20 59583b28 69583b30     .:Xw ;XI(;XY0;Xi
    72b4:	79583b38 4b583b60 5b583b68 6b583b70     8;Xy`;XKh;X[p;Xk
    72c4:	7b583b78 3d583b98 4d583ba0 5d583ba8     x;X{.;X=.;XM.;X]
    72d4:	6d583bb0 7d583bb8 3f583bd8 4f583be0     .;Xm.;X}.;X?.;XO
    72e4:	5f583be8 6f583bf0 7f583bf8 41983c20     .;X_.;Xo.;X. <.A
    72f4:	51983c28 61983c30 71983c38 43983c60     (<.Q0<.a8<.q`<.C
    7304:	53983c68 63983c70 73983c78 45983ca0     h<.Sp<.cx<.s.<.E
    7314:	55983ca8 65983cb0 75983cb8 47983ce0     .<.U.<.e.<.u.<.G
    7324:	57983ce8 67983cf0 77983cf8 49983d20     .<.W.<.g.<.w =.I
    7334:	59983d28 69983d30 79983d38 4b983d60     (=.Y0=.i8=.y`=.K
    7344:	5b983d68 6b983d70 7b983d78 4d983da0     h=.[p=.kx=.{.=.M
    7354:	5d983da8 6d983db0 7d983db8 3f983dd8     .=.].=.m.=.}.=.?
    7364:	4f983de0 5f983de8 6f983df0 7f983df8     .=.O.=._.=.o.=..
    7374:	41d83e20 51d83e28 61d83e30 71d83e38      >.A(>.Q0>.a8>.q
    7384:	43d83e60 53d83e68 63d83e70 73d83e78     `>.Ch>.Sp>.cx>.s
    7394:	45d83ea0 55d83ea8 65d83eb0 75d83eb8     .>.E.>.U.>.e.>.u
    73a4:	47d83ee0 57d83ee8 67d83ef0 77d83ef8     .>.G.>.W.>.g.>.w
    73b4:	49d83f20 59d83f28 69d83f30 79d83f38      ?.I(?.Y0?.i8?.y
    73c4:	4bd83f60 5bd83f68 6bd83f70 7bd83f78     `?.Kh?.[p?.kx?.{
    73d4:	4dd83fa0 5dd83fa8 6dd83fb0 7dd83fb8     .?.M.?.].?.m.?.}
    73e4:	4fd83fe0 5fd83fe8 6fd83ff0 7fd83ff8     .?.O.?._.?.o.?..
    73f4:	50204028 60204030 70204038 42204060     (@ P0@ `8@ p`@ B
    7404:	52204068 62204070 72204078 442040a0     h@ Rp@ bx@ r.@ D
    7414:	542040a8 642040b0 742040b8 462040e0     .@ T.@ d.@ t.@ F
    7424:	562040e8 662040f0 762040f8 48204120     .@ V.@ f.@ v A H
    7434:	58204128 68204130 78204138 4a204160     (A X0A h8A x`A J
    7444:	5a204168 6a204170 7a204178 4c2041a0     hA ZpA jxA z.A L
    7454:	5c2041a8 6c2041b0 7c2041b8 4e2041e0     .A \.A l.A |.A N
    7464:	5e2041e8 6e2041f0 7e2041f8 50604228     .A ^.A n.A ~(B`P
    7474:	60604230 70604238 52604268 62604270     0B``8B`phB`RpB`b
    7484:	72604278 446042a0 546042a8 646042b0     xB`r.B`D.B`T.B`d
    7494:	746042b8 466042e0 566042e8 666042f0     .B`t.B`F.B`V.B`f
    74a4:	766042f8 48604320 58604328 68604330     .B`v C`H(C`X0C`h
    74b4:	78604338 4a604360 5a604368 6a604370     8C`x`C`JhC`ZpC`j
    74c4:	7a604378 4c6043a0 5c6043a8 6c6043b0     xC`z.C`L.C`\.C`l
    74d4:	7c6043b8 4e6043e0 5e6043e8 6e6043f0     .C`|.C`N.C`^.C`n
    74e4:	7e6043f8 50a04428 60a04430 70a04438     .C`~(D.P0D.`8D.p
    74f4:	52a04468 62a04470 72a04478 54a044a8     hD.RpD.bxD.r.D.T
    7504:	64a044b0 74a044b8 46a044e0 56a044e8     .D.d.D.t.D.F.D.V
    7514:	66a044f0 76a044f8 48a04520 58a04528     .D.f.D.v E.H(E.X
    7524:	68a04530 78a04538 4aa04560 5aa04568     0E.h8E.x`E.JhE.Z
    7534:	6aa04570 7aa04578 4ca045a0 5ca045a8     pE.jxE.z.E.L.E.\
    7544:	6ca045b0 7ca045b8 4ea045e0 5ea045e8     .E.l.E.|.E.N.E.^
    7554:	6ea045f0 7ea045f8 50e04628 60e04630     .E.n.E.~(F.P0F.`
    7564:	70e04638 52e04668 62e04670 72e04678     8F.phF.RpF.bxF.r
    7574:	54e046a8 64e046b0 74e046b8 56e046e8     .F.T.F.d.F.t.F.V
    7584:	66e046f0 76e046f8 48e04720 58e04728     .F.f.F.v G.H(G.X
    7594:	68e04730 78e04738 4ae04760 5ae04768     0G.h8G.x`G.JhG.Z
    75a4:	6ae04770 7ae04778 4ce047a0 5ce047a8     pG.jxG.z.G.L.G.\
    75b4:	6ce047b0 7ce047b8 4ee047e0 5ee047e8     .G.l.G.|.G.N.G.^
    75c4:	6ee047f0 7ee047f8 51204828 61204830     .G.n.G.~(H Q0H a
    75d4:	71204838 53204868 63204870 73204878     8H qhH SpH cxH s
    75e4:	552048a8 652048b0 752048b8 572048e8     .H U.H e.H u.H W
    75f4:	672048f0 772048f8 59204928 69204930     .H g.H w(I Y0I i
    7604:	79204938 4b204960 5b204968 6b204970     8I y`I KhI [pI k
    7614:	7b204978 4d2049a0 5d2049a8 6d2049b0     xI {.I M.I ].I m
    7624:	7d2049b8 4f2049e0 5f2049e8 6f2049f0     .I }.I O.I _.I o
    7634:	7f2049f8 51604a28 61604a30 71604a38     .I .(J`Q0J`a8J`q
    7644:	53604a68 63604a70 73604a78 55604aa8     hJ`SpJ`cxJ`s.J`U
    7654:	65604ab0 75604ab8 57604ae8 67604af0     .J`e.J`u.J`W.J`g
    7664:	77604af8 59604b28 69604b30 79604b38     .J`w(K`Y0K`i8K`y
    7674:	5b604b68 6b604b70 7b604b78 4d604ba0     hK`[pK`kxK`{.K`M
    7684:	5d604ba8 6d604bb0 7d604bb8 4f604be0     .K`].K`m.K`}.K`O
    7694:	5f604be8 6f604bf0 7f604bf8 51a04c28     .K`_.K`o.K`.(L.Q
    76a4:	61a04c30 71a04c38 53a04c68 63a04c70     0L.a8L.qhL.SpL.c
    76b4:	73a04c78 55a04ca8 65a04cb0 75a04cb8     xL.s.L.U.L.e.L.u
    76c4:	57a04ce8 67a04cf0 77a04cf8 59a04d28     .L.W.L.g.L.w(M.Y
    76d4:	69a04d30 79a04d38 5ba04d68 6ba04d70     0M.i8M.yhM.[pM.k
    76e4:	7ba04d78 5da04da8 6da04db0 7da04db8     xM.{.M.].M.m.M.}
    76f4:	4fa04de0 5fa04de8 6fa04df0 7fa04df8     .M.O.M._.M.o.M..
    7704:	51e04e28 61e04e30 71e04e38 53e04e68     (N.Q0N.a8N.qhN.S
    7714:	63e04e70 73e04e78 55e04ea8 65e04eb0     pN.cxN.s.N.U.N.e
    7724:	75e04eb8 57e04ee8 67e04ef0 77e04ef8     .N.u.N.W.N.g.N.w
    7734:	59e04f28 69e04f30 79e04f38 5be04f68     (O.Y0O.i8O.yhO.[
    7744:	6be04f70 7be04f78 5de04fa8 6de04fb0     pO.kxO.{.O.].O.m
    7754:	7de04fb8 5fe04fe8 6fe04ff0 7fe04ff8     .O.}.O._.O.o.O..
    7764:	60285030 70285038 52285068 62285070     0P(`8P(phP(RpP(b
    7774:	72285078 542850a8 642850b0 742850b8     xP(r.P(T.P(d.P(t
    7784:	562850e8 662850f0 762850f8 58285128     .P(V.P(f.P(v(Q(X
    7794:	68285130 78285138 5a285168 6a285170     0Q(h8Q(xhQ(ZpQ(j
    77a4:	7a285178 5c2851a8 6c2851b0 7c2851b8     xQ(z.Q(\.Q(l.Q(|
    77b4:	5e2851e8 6e2851f0 7e2851f8 60685230     .Q(^.Q(n.Q(~0Rh`
    77c4:	70685238 62685270 72685278 546852a8     8RhppRhbxRhr.RhT
    77d4:	646852b0 746852b8 566852e8 666852f0     .Rhd.Rht.RhV.Rhf
    77e4:	766852f8 58685328 68685330 78685338     .Rhv(ShX0Shh8Shx
    77f4:	5a685368 6a685370 7a685378 5c6853a8     hShZpShjxShz.Sh\
    7804:	6c6853b0 7c6853b8 5e6853e8 6e6853f0     .Shl.Sh|.Sh^.Shn
    7814:	7e6853f8 60a85430 70a85438 62a85470     .Sh~0T.`8T.ppT.b
    7824:	72a85478 64a854b0 74a854b8 56a854e8     xT.r.T.d.T.t.T.V
    7834:	66a854f0 76a854f8 58a85528 68a85530     .T.f.T.v(U.X0U.h
    7844:	78a85538 5aa85568 6aa85570 7aa85578     8U.xhU.ZpU.jxU.z
    7854:	5ca855a8 6ca855b0 7ca855b8 5ea855e8     .U.\.U.l.U.|.U.^
    7864:	6ea855f0 7ea855f8 60e85630 70e85638     .U.n.U.~0V.`8V.p
    7874:	62e85670 72e85678 64e856b0 74e856b8     pV.bxV.r.V.d.V.t
    7884:	66e856f0 76e856f8 58e85728 68e85730     .V.f.V.v(W.X0W.h
    7894:	78e85738 5ae85768 6ae85770 7ae85778     8W.xhW.ZpW.jxW.z
    78a4:	5ce857a8 6ce857b0 7ce857b8 5ee857e8     .W.\.W.l.W.|.W.^
    78b4:	6ee857f0 7ee857f8 61285830 71285838     .W.n.W.~0X(a8X(q
    78c4:	63285870 73285878 652858b0 752858b8     pX(cxX(s.X(e.X(u
    78d4:	672858f0 772858f8 69285930 79285938     .X(g.X(w0Y(i8Y(y
    78e4:	5b285968 6b285970 7b285978 5d2859a8     hY([pY(kxY({.Y(]
    78f4:	6d2859b0 7d2859b8 5f2859e8 6f2859f0     .Y(m.Y(}.Y(_.Y(o
    7904:	7f2859f8 61685a30 71685a38 63685a70     .Y(.0Zha8ZhqpZhc
    7914:	73685a78 65685ab0 75685ab8 67685af0     xZhs.Zhe.Zhu.Zhg
    7924:	77685af8 69685b30 79685b38 6b685b70     .Zhw0[hi8[hyp[hk
    7934:	7b685b78 5d685ba8 6d685bb0 7d685bb8     x[h{.[h].[hm.[h}
    7944:	5f685be8 6f685bf0 7f685bf8 61a85c30     .[h_.[ho.[h.0\.a
    7954:	71a85c38 63a85c70 73a85c78 65a85cb0     8\.qp\.cx\.s.\.e
    7964:	75a85cb8 67a85cf0 77a85cf8 69a85d30     .\.u.\.g.\.w0].i
    7974:	79a85d38 6ba85d70 7ba85d78 6da85db0     8].yp].kx].{.].m
    7984:	7da85db8 5fa85de8 6fa85df0 7fa85df8     .].}.]._.].o.]..
    7994:	61e85e30 71e85e38 63e85e70 73e85e78     0^.a8^.qp^.cx^.s
    79a4:	65e85eb0 75e85eb8 67e85ef0 77e85ef8     .^.e.^.u.^.g.^.w
    79b4:	69e85f30 79e85f38 6be85f70 7be85f78     0_.i8_.yp_.kx_.{
    79c4:	6de85fb0 7de85fb8 6fe85ff0 7fe85ff8     ._.m._.}._.o._..
    79d4:	70306038 62306070 72306078 643060b0     8`0pp`0bx`0r.`0d
    79e4:	743060b8 663060f0 763060f8 68306130     .`0t.`0f.`0v0a0h
    79f4:	78306138 6a306170 7a306178 6c3061b0     8a0xpa0jxa0z.a0l
    7a04:	7c3061b8 6e3061f0 7e3061f8 70706238     .a0|.a0n.a0~8bpp
    7a14:	72706278 647062b0 747062b8 667062f0     xbpr.bpd.bpt.bpf
    7a24:	767062f8 68706330 78706338 6a706370     .bpv0cph8cpxpcpj
    7a34:	7a706378 6c7063b0 7c7063b8 6e7063f0     xcpz.cpl.cp|.cpn
    7a44:	7e7063f8 70b06438 72b06478 74b064b8     .cp~8d.pxd.r.d.t
    7a54:	66b064f0 76b064f8 68b06530 78b06538     .d.f.d.v0e.h8e.x
    7a64:	6ab06570 7ab06578 6cb065b0 7cb065b8     pe.jxe.z.e.l.e.|
    7a74:	6eb065f0 7eb065f8 70f06638 72f06678     .e.n.e.~8f.pxf.r
    7a84:	74f066b8 76f066f8 68f06730 78f06738     .f.t.f.v0g.h8g.x
    7a94:	6af06770 7af06778 6cf067b0 7cf067b8     pg.jxg.z.g.l.g.|
    7aa4:	6ef067f0 7ef067f8 71306838 73306878     .g.n.g.~8h0qxh0s
    7ab4:	753068b8 773068f8 79306938 6b306970     .h0u.h0w8i0ypi0k
    7ac4:	7b306978 6d3069b0 7d3069b8 6f3069f0     xi0{.i0m.i0}.i0o
    7ad4:	7f3069f8 71706a38 73706a78 75706ab8     .i0.8jpqxjps.jpu
    7ae4:	77706af8 79706b38 7b706b78 6d706bb0     .jpw8kpyxkp{.kpm
    7af4:	7d706bb8 6f706bf0 7f706bf8 71b06c38     .kp}.kpo.kp.8l.q
    7b04:	73b06c78 75b06cb8 77b06cf8 79b06d38     xl.s.l.u.l.w8m.y
    7b14:	7bb06d78 7db06db8 6fb06df0 7fb06df8     xm.{.m.}.m.o.m..
    7b24:	71f06e38 73f06e78 75f06eb8 77f06ef8     8n.qxn.s.n.u.n.w
    7b34:	79f06f38 7bf06f78 7df06fb8 7ff06ff8     8o.yxo.{.o.}.o..
    7b44:	72387078 743870b8 763870f8 78387138     xp8r.p8t.p8v8q8x
    7b54:	7a387178 7c3871b8 7e3871f8 747872b8     xq8z.q8|.q8~.rxt
    7b64:	767872f8 78787338 7a787378 7c7873b8     .rxv8sxxxsxz.sx|
    7b74:	7e7873f8 76b874f8 78b87538 7ab87578     .sx~.t.v8u.xxu.z
    7b84:	7cb875b8 7eb875f8 78f87738 7af87778     .u.|.u.~8w.xxw.z
    7b94:	7cf877b8 7ef877f8 7b387978 7d3879b8     .w.|.w.~xy8{.y8}
    7ba4:	7f3879f8 7d787bb8 7f787bf8 7fb87df8     .y8..{x}.{x..}..

00007bb4 <armBitRevIndexTable512>:
    7bb4:	02000008 04000010 06000018 08000020     ............ ...
    7bc4:	0a000028 0c000030 0e000038 02400048     (...0...8...H.@.
    7bd4:	04400050 06400058 08400060 0a400068     P.@.X.@.`.@.h.@.
    7be4:	0c400070 0e400078 02800088 04800090     p.@.x.@.........
    7bf4:	06800098 088000a0 0a8000a8 0c8000b0     ................
    7c04:	0e8000b8 02c000c8 04c000d0 06c000d8     ................
    7c14:	08c000e0 0ac000e8 0cc000f0 0ec000f8     ................
    7c24:	03000108 05000110 07000118 09000120     ............ ...
    7c34:	0b000128 0d000130 0f000138 03400148     (...0...8...H.@.
    7c44:	05400150 07400158 09400160 0b400168     P.@.X.@.`.@.h.@.
    7c54:	0d400170 0f400178 03800188 05800190     p.@.x.@.........
    7c64:	07800198 098001a0 0b8001a8 0d8001b0     ................
    7c74:	0f8001b8 03c001c8 05c001d0 07c001d8     ................
    7c84:	09c001e0 0bc001e8 0dc001f0 0fc001f8     ................
    7c94:	04080210 06080218 08080220 0a080228     ........ ...(...
    7ca4:	0c080230 0e080238 04480250 06480258     0...8...P.H.X.H.
    7cb4:	08480260 0a480268 0c480270 0e480278     `.H.h.H.p.H.x.H.
    7cc4:	04880290 06880298 088802a0 0a8802a8     ................
    7cd4:	0c8802b0 0e8802b8 04c802d0 06c802d8     ................
    7ce4:	08c802e0 0ac802e8 0cc802f0 0ec802f8     ................
    7cf4:	05080310 07080318 09080320 0b080328     ........ ...(...
    7d04:	0d080330 0f080338 05480350 07480358     0...8...P.H.X.H.
    7d14:	09480360 0b480368 0d480370 0f480378     `.H.h.H.p.H.x.H.
    7d24:	05880390 07880398 098803a0 0b8803a8     ................
    7d34:	0d8803b0 0f8803b8 05c803d0 07c803d8     ................
    7d44:	09c803e0 0bc803e8 0dc803f0 0fc803f8     ................
    7d54:	06100418 08100420 0a100428 0c100430     .... ...(...0...
    7d64:	0e100438 06500458 08500460 0a500468     8...X.P.`.P.h.P.
    7d74:	0c500470 0e500478 06900498 089004a0     p.P.x.P.........
    7d84:	0a9004a8 0c9004b0 0e9004b8 06d004d8     ................
    7d94:	08d004e0 0ad004e8 0cd004f0 0ed004f8     ................
    7da4:	07100518 09100520 0b100528 0d100530     .... ...(...0...
    7db4:	0f100538 07500558 09500560 0b500568     8...X.P.`.P.h.P.
    7dc4:	0d500570 0f500578 07900598 099005a0     p.P.x.P.........
    7dd4:	0b9005a8 0d9005b0 0f9005b8 07d005d8     ................
    7de4:	09d005e0 0bd005e8 0dd005f0 0fd005f8     ................
    7df4:	08180620 0a180628 0c180630 0e180638      ...(...0...8...
    7e04:	08580660 0a580668 0c580670 0e580678     `.X.h.X.p.X.x.X.
    7e14:	089806a0 0a9806a8 0c9806b0 0e9806b8     ................
    7e24:	08d806e0 0ad806e8 0cd806f0 0ed806f8     ................
    7e34:	09180720 0b180728 0d180730 0f180738      ...(...0...8...
    7e44:	09580760 0b580768 0d580770 0f580778     `.X.h.X.p.X.x.X.
    7e54:	099807a0 0b9807a8 0d9807b0 0f9807b8     ................
    7e64:	09d807e0 0bd807e8 0dd807f0 0fd807f8     ................
    7e74:	0a200828 0c200830 0e200838 0a600868     (. .0. .8. .h.`.
    7e84:	0c600870 0e600878 0aa008a8 0ca008b0     p.`.x.`.........
    7e94:	0ea008b8 0ae008e8 0ce008f0 0ee008f8     ................
    7ea4:	0b200928 0d200930 0f200938 0b600968     (. .0. .8. .h.`.
    7eb4:	0d600970 0f600978 0ba009a8 0da009b0     p.`.x.`.........
    7ec4:	0fa009b8 0be009e8 0de009f0 0fe009f8     ................
    7ed4:	0c280a30 0e280a38 0c680a70 0e680a78     0.(.8.(.p.h.x.h.
    7ee4:	0ca80ab0 0ea80ab8 0ce80af0 0ee80af8     ................
    7ef4:	0d280b30 0f280b38 0d680b70 0f680b78     0.(.8.(.p.h.x.h.
    7f04:	0da80bb0 0fa80bb8 0de80bf0 0fe80bf8     ................
    7f14:	0e300c38 0e700c78 0eb00cb8 0ef00cf8     8.0.x.p.........
    7f24:	0f300d38 0f700d78 0fb00db8 0ff00df8     8.0.x.p.........

00007f34 <armBitRevIndexTable64>:
    7f34:	00400008 00800010 00c00018 01000020     ..@......... ...
    7f44:	01400028 01800030 01c00038 00880050     (.@.0...8...P...
    7f54:	00c80058 01080060 01480068 01880070     X...`...h.H.p...
    7f64:	01c80078 00d00098 011000a0 015000a8     x.............P.
    7f74:	019000b0 01d000b8 011800e0 015800e8     ..............X.
    7f84:	019800f0 01d800f8 01600128 01a00130     ........(.`.0...
    7f94:	01e00138 01a80170 01e80178 01f001b8     8...p...x.......

00007fa4 <twiddleCoef_1024>:
    7fa4:	3f800000 00000000 3f7ffec4 3bc90f89     ...?.......?...;
    7fb4:	3f7ffb11 3c490e90 3f7ff4e6 3c96c9b6     ...?..I<...?...<
    7fc4:	3f7fec43 3cc90ab0 3f7fe129 3cfb49b9     C..?...<)..?.I.<
    7fd4:	3f7fd398 3d16c32c 3f7fc38f 3d2fe007     ...?,..=...?../=
    7fe4:	3f7fb10f 3d48fb2f 3f7f9c18 3d621468     ...?/.H=...?h.b=
    7ff4:	3f7f84ab 3d7b2b74 3f7f6ac7 3d8a200a     ...?t+{=.j.?. .=
    8004:	3f7f4e6d 3d96a905 3f7f2f9d 3da3308c     mN.?...=./.?.0.=
    8014:	3f7f0e58 3dafb680 3f7eea9d 3dbc3ac3     X..?...=..~?.:.=
    8024:	3f7ec46d 3dc8bd36 3f7e9bc9 3dd53db9     m.~?6..=..~?.=.=
    8034:	3f7e70b0 3de1bc2e 3f7e4323 3dee3876     .p~?...=#C~?v8.=
    8044:	3f7e1324 3dfab273 3f7de0b1 3e039502     $.~?s..=..}?...>
    8054:	3f7dabcc 3e09cf86 3f7d7474 3e1008b7     ..}?...>tt}?...>
    8064:	3f7d3aac 3e164083 3f7cfe73 3e1c76de     .:}?.@.>s.|?.v.>
    8074:	3f7cbfc9 3e22abb6 3f7c7eb0 3e28defc     ..|?..">.~|?..(>
    8084:	3f7c3b28 3e2f10a2 3f7bf531 3e354098     (;|?../>1.{?.@5>
    8094:	3f7baccd 3e3b6ecf 3f7b61fc 3e419b37     ..{?.n;>.a{?7.A>
    80a4:	3f7b14be 3e47c5c2 3f7ac516 3e4dee60     ..{?..G>..z?`.M>
    80b4:	3f7a7302 3e541501 3f7a1e84 3e5a3997     .sz?..T>..z?.9Z>
    80c4:	3f79c79d 3e605c13 3f796e4e 3e667c66     ..y?.\`>Nny?f|f>
    80d4:	3f791298 3e6c9a7f 3f78b47b 3e72b651     ..y?..l>{.x?Q.r>
    80e4:	3f7853f8 3e78cfcc 3f77f110 3e7ee6e1     .Sx?..x>..w?..~>
    80f4:	3f778bc5 3e827dc0 3f772417 3e8586ce     ..w?.}.>.$w?...>
    8104:	3f76ba07 3e888e93 3f764d97 3e8b9507     ..v?...>.Mv?...>
    8114:	3f75dec6 3e8e9a22 3f756d97 3e919ddd     ..u?"..>.mu?...>
    8124:	3f74fa0b 3e94a031 3f748422 3e97a117     ..t?1..>".t?...>
    8134:	3f740bdd 3e9aa086 3f73913f 3e9d9e78     ..t?...>?.s?x..>
    8144:	3f731447 3ea09ae5 3f7294f8 3ea395c5     G.s?...>..r?...>
    8154:	3f721352 3ea68f12 3f718f57 3ea986c4     R.r?...>W.q?...>
    8164:	3f710908 3eac7cd4 3f708066 3eaf713a     ..q?.|.>f.p?:q.>
    8174:	3f6ff573 3eb263ef 3f6f6830 3eb554ec     s.o?.c.>0ho?.T.>
    8184:	3f6ed89e 3eb8442a 3f6e46be 3ebb31a0     ..n?*D.>.Fn?.1.>
    8194:	3f6db293 3ebe1d4a 3f6d1c1d 3ec1071e     ..m?J..>..m?...>
    81a4:	3f6c835e 3ec3ef15 3f6be858 3ec6d529     ^.l?...>X.k?)..>
    81b4:	3f6b4b0c 3ec9b953 3f6aab7b 3ecc9b8b     .Kk?S..>{.j?...>
    81c4:	3f6a09a7 3ecf7bca 3f696591 3ed25a09     ..j?.{.>.ei?.Z.>
    81d4:	3f68bf3c 3ed53641 3f6816a8 3ed8106b     <.h?A6.>..h?k..>
    81e4:	3f676bd8 3edae880 3f66becc 3eddbe79     .kg?...>..f?y..>
    81f4:	3f660f88 3ee0924f 3f655e0b 3ee363fa     ..f?O..>.^e?.c.>
    8204:	3f64aa59 3ee63375 3f63f473 3ee900b7     Y.d?u3.>s.c?...>
    8214:	3f633c5a 3eebcbbb 3f628210 3eee9479     Z<c?...>..b?y..>
    8224:	3f61c598 3ef15aea 3f6106f2 3ef41f07     ..a?.Z.>..a?...>
    8234:	3f604621 3ef6e0cb 3f5f8327 3ef9a02d     !F`?...>'._?-..>
    8244:	3f5ebe05 3efc5d27 3f5df6be 3eff17b2     ..^?'].>..]?...>
    8254:	3f5d2d53 3f00e7e4 3f5c61c7 3f0242b1     S-]?...?.a\?.B.?
    8264:	3f5b941a 3f039c3d 3f5ac450 3f04f484     ..[?=..?P.Z?...?
    8274:	3f59f26a 3f064b82 3f591e6a 3f07a136     j.Y?.K.?j.Y?6..?
    8284:	3f584853 3f08f59b 3f577026 3f0a48ad     SHX?...?&pW?.H.?
    8294:	3f5695e5 3f0b9a6b 3f55b993 3f0cead0     ..V?k..?..U?...?
    82a4:	3f54db31 3f0e39da 3f53fac3 3f0f8784     1.T?.9.?..S?...?
    82b4:	3f531849 3f10d3cd 3f5233c6 3f121eb0     I.S?...?.3R?...?
    82c4:	3f514d3d 3f13682a 3f5064af 3f14b039     =MQ?*h.?.dP?9..?
    82d4:	3f4f7a1f 3f15f6d9 3f4e8d90 3f173c07     .zO?...?..N?.<.?
    82e4:	3f4d9f02 3f187fc0 3f4cae79 3f19c200     ..M?...?y.L?...?
    82f4:	3f4bbbf8 3f1b02c6 3f4ac77f 3f1c420c     ..K?...?..J?.B.?
    8304:	3f49d112 3f1d7fd1 3f48d8b3 3f1ebc12     ..I?...?..H?...?
    8314:	3f47de65 3f1ff6cb 3f46e22a 3f212ff9     e.G?...?*.F?./!?
    8324:	3f45e403 3f226799 3f44e3f5 3f239da9     ..E?.g"?..D?..#?
    8334:	3f43e200 3f24d225 3f42de29 3f26050a     ..C?%.$?).B?..&?
    8344:	3f41d870 3f273656 3f40d0da 3f286605     p.A?V6'?..@?.f(?
    8354:	3f3fc767 3f299415 3f3ebc1b 3f2ac082     g.??..)?..>?..*?
    8364:	3f3daef9 3f2beb4a 3f3ca003 3f2d1469     ..=?J.+?..<?i.-?
    8374:	3f3b8f3b 3f2e3bde 3f3a7ca4 3f2f61a5     ;.;?.;.?.|:?.a/?
    8384:	3f396842 3f3085bb 3f385216 3f31a81d     Bh9?..0?.R8?..1?
    8394:	3f373a23 3f32c8c9 3f36206c 3f33e7bc     #:7?..2?l 6?..3?
    83a4:	3f3504f3 3f3504f3 3f33e7bc 3f36206c     ..5?..5?..3?l 6?
    83b4:	3f32c8c9 3f373a23 3f31a81d 3f385216     ..2?#:7?..1?.R8?
    83c4:	3f3085bb 3f396842 3f2f61a5 3f3a7ca4     ..0?Bh9?.a/?.|:?
    83d4:	3f2e3bde 3f3b8f3b 3f2d1469 3f3ca003     .;.?;.;?i.-?..<?
    83e4:	3f2beb4a 3f3daef9 3f2ac082 3f3ebc1b     J.+?..=?..*?..>?
    83f4:	3f299415 3f3fc767 3f286605 3f40d0da     ..)?g.??.f(?..@?
    8404:	3f273656 3f41d870 3f26050a 3f42de29     V6'?p.A?..&?).B?
    8414:	3f24d225 3f43e200 3f239da9 3f44e3f5     %.$?..C?..#?..D?
    8424:	3f226799 3f45e403 3f212ff9 3f46e22a     .g"?..E?./!?*.F?
    8434:	3f1ff6cb 3f47de65 3f1ebc12 3f48d8b3     ...?e.G?...?..H?
    8444:	3f1d7fd1 3f49d112 3f1c420c 3f4ac77f     ...?..I?.B.?..J?
    8454:	3f1b02c6 3f4bbbf8 3f19c200 3f4cae79     ...?..K?...?y.L?
    8464:	3f187fc0 3f4d9f02 3f173c07 3f4e8d90     ...?..M?.<.?..N?
    8474:	3f15f6d9 3f4f7a1f 3f14b039 3f5064af     ...?.zO?9..?.dP?
    8484:	3f13682a 3f514d3d 3f121eb0 3f5233c6     *h.?=MQ?...?.3R?
    8494:	3f10d3cd 3f531849 3f0f8784 3f53fac3     ...?I.S?...?..S?
    84a4:	3f0e39da 3f54db31 3f0cead0 3f55b993     .9.?1.T?...?..U?
    84b4:	3f0b9a6b 3f5695e5 3f0a48ad 3f577026     k..?..V?.H.?&pW?
    84c4:	3f08f59b 3f584853 3f07a136 3f591e6a     ...?SHX?6..?j.Y?
    84d4:	3f064b82 3f59f26a 3f04f484 3f5ac450     .K.?j.Y?...?P.Z?
    84e4:	3f039c3d 3f5b941a 3f0242b1 3f5c61c7     =..?..[?.B.?.a\?
    84f4:	3f00e7e4 3f5d2d53 3eff17b2 3f5df6be     ...?S-]?...>..]?
    8504:	3efc5d27 3f5ebe05 3ef9a02d 3f5f8327     '].>..^?-..>'._?
    8514:	3ef6e0cb 3f604621 3ef41f07 3f6106f2     ...>!F`?...>..a?
    8524:	3ef15aea 3f61c598 3eee9479 3f628210     .Z.>..a?y..>..b?
    8534:	3eebcbbb 3f633c5a 3ee900b7 3f63f473     ...>Z<c?...>s.c?
    8544:	3ee63375 3f64aa59 3ee363fa 3f655e0b     u3.>Y.d?.c.>.^e?
    8554:	3ee0924f 3f660f88 3eddbe79 3f66becc     O..>..f?y..>..f?
    8564:	3edae880 3f676bd8 3ed8106b 3f6816a8     ...>.kg?k..>..h?
    8574:	3ed53641 3f68bf3c 3ed25a09 3f696591     A6.><.h?.Z.>.ei?
    8584:	3ecf7bca 3f6a09a7 3ecc9b8b 3f6aab7b     .{.>..j?...>{.j?
    8594:	3ec9b953 3f6b4b0c 3ec6d529 3f6be858     S..>.Kk?)..>X.k?
    85a4:	3ec3ef15 3f6c835e 3ec1071e 3f6d1c1d     ...>^.l?...>..m?
    85b4:	3ebe1d4a 3f6db293 3ebb31a0 3f6e46be     J..>..m?.1.>.Fn?
    85c4:	3eb8442a 3f6ed89e 3eb554ec 3f6f6830     *D.>..n?.T.>0ho?
    85d4:	3eb263ef 3f6ff573 3eaf713a 3f708066     .c.>s.o?:q.>f.p?
    85e4:	3eac7cd4 3f710908 3ea986c4 3f718f57     .|.>..q?...>W.q?
    85f4:	3ea68f12 3f721352 3ea395c5 3f7294f8     ...>R.r?...>..r?
    8604:	3ea09ae5 3f731447 3e9d9e78 3f73913f     ...>G.s?x..>?.s?
    8614:	3e9aa086 3f740bdd 3e97a117 3f748422     ...>..t?...>".t?
    8624:	3e94a031 3f74fa0b 3e919ddd 3f756d97     1..>..t?...>.mu?
    8634:	3e8e9a22 3f75dec6 3e8b9507 3f764d97     "..>..u?...>.Mv?
    8644:	3e888e93 3f76ba07 3e8586ce 3f772417     ...>..v?...>.$w?
    8654:	3e827dc0 3f778bc5 3e7ee6e1 3f77f110     .}.>..w?..~>..w?
    8664:	3e78cfcc 3f7853f8 3e72b651 3f78b47b     ..x>.Sx?Q.r>{.x?
    8674:	3e6c9a7f 3f791298 3e667c66 3f796e4e     ..l>..y?f|f>Nny?
    8684:	3e605c13 3f79c79d 3e5a3997 3f7a1e84     .\`>..y?.9Z>..z?
    8694:	3e541501 3f7a7302 3e4dee60 3f7ac516     ..T>.sz?`.M>..z?
    86a4:	3e47c5c2 3f7b14be 3e419b37 3f7b61fc     ..G>..{?7.A>.a{?
    86b4:	3e3b6ecf 3f7baccd 3e354098 3f7bf531     .n;>..{?.@5>1.{?
    86c4:	3e2f10a2 3f7c3b28 3e28defc 3f7c7eb0     ../>(;|?..(>.~|?
    86d4:	3e22abb6 3f7cbfc9 3e1c76de 3f7cfe73     ..">..|?.v.>s.|?
    86e4:	3e164083 3f7d3aac 3e1008b7 3f7d7474     .@.>.:}?...>tt}?
    86f4:	3e09cf86 3f7dabcc 3e039502 3f7de0b1     ...>..}?...>..}?
    8704:	3dfab273 3f7e1324 3dee3876 3f7e4323     s..=$.~?v8.=#C~?
    8714:	3de1bc2e 3f7e70b0 3dd53db9 3f7e9bc9     ...=.p~?.=.=..~?
    8724:	3dc8bd36 3f7ec46d 3dbc3ac3 3f7eea9d     6..=m.~?.:.=..~?
    8734:	3dafb680 3f7f0e58 3da3308c 3f7f2f9d     ...=X..?.0.=./.?
    8744:	3d96a905 3f7f4e6d 3d8a200a 3f7f6ac7     ...=mN.?. .=.j.?
    8754:	3d7b2b74 3f7f84ab 3d621468 3f7f9c18     t+{=...?h.b=...?
    8764:	3d48fb2f 3f7fb10f 3d2fe007 3f7fc38f     /.H=...?../=...?
    8774:	3d16c32c 3f7fd398 3cfb49b9 3f7fe129     ,..=...?.I.<)..?
    8784:	3cc90ab0 3f7fec43 3c96c9b6 3f7ff4e6     ...<C..?...<...?
    8794:	3c490e90 3f7ffb11 3bc90f89 3f7ffec4     ..I<...?...;...?
    87a4:	00000000 3f800000 bbc90f89 3f7ffec4     .......?.......?
    87b4:	bc490e90 3f7ffb11 bc96c9b6 3f7ff4e6     ..I....?.......?
    87c4:	bcc90ab0 3f7fec43 bcfb49b9 3f7fe129     ....C..?.I..)..?
    87d4:	bd16c32c 3f7fd398 bd2fe007 3f7fc38f     ,......?../....?
    87e4:	bd48fb2f 3f7fb10f bd621468 3f7f9c18     /.H....?h.b....?
    87f4:	bd7b2b74 3f7f84ab bd8a200a 3f7f6ac7     t+{....?. ...j.?
    8804:	bd96a905 3f7f4e6d bda3308c 3f7f2f9d     ....mN.?.0.../.?
    8814:	bdafb680 3f7f0e58 bdbc3ac3 3f7eea9d     ....X..?.:....~?
    8824:	bdc8bd36 3f7ec46d bdd53db9 3f7e9bc9     6...m.~?.=....~?
    8834:	bde1bc2e 3f7e70b0 bdee3876 3f7e4323     .....p~?v8..#C~?
    8844:	bdfab273 3f7e1324 be039502 3f7de0b1     s...$.~?......}?
    8854:	be09cf86 3f7dabcc be1008b7 3f7d7474     ......}?....tt}?
    8864:	be164083 3f7d3aac be1c76de 3f7cfe73     .@...:}?.v..s.|?
    8874:	be22abb6 3f7cbfc9 be28defc 3f7c7eb0     .."...|?..(..~|?
    8884:	be2f10a2 3f7c3b28 be354098 3f7bf531     ../.(;|?.@5.1.{?
    8894:	be3b6ecf 3f7baccd be419b37 3f7b61fc     .n;...{?7.A..a{?
    88a4:	be47c5c2 3f7b14be be4dee60 3f7ac516     ..G...{?`.M...z?
    88b4:	be541501 3f7a7302 be5a3997 3f7a1e84     ..T..sz?.9Z...z?
    88c4:	be605c13 3f79c79d be667c66 3f796e4e     .\`...y?f|f.Nny?
    88d4:	be6c9a7f 3f791298 be72b651 3f78b47b     ..l...y?Q.r.{.x?
    88e4:	be78cfcc 3f7853f8 be7ee6e1 3f77f110     ..x..Sx?..~...w?
    88f4:	be827dc0 3f778bc5 be8586ce 3f772417     .}....w?.....$w?
    8904:	be888e93 3f76ba07 be8b9507 3f764d97     ......v?.....Mv?
    8914:	be8e9a22 3f75dec6 be919ddd 3f756d97     ".....u?.....mu?
    8924:	be94a031 3f74fa0b be97a117 3f748422     1.....t?....".t?
    8934:	be9aa086 3f740bdd be9d9e78 3f73913f     ......t?x...?.s?
    8944:	bea09ae5 3f731447 bea395c5 3f7294f8     ....G.s?......r?
    8954:	bea68f12 3f721352 bea986c4 3f718f57     ....R.r?....W.q?
    8964:	beac7cd4 3f710908 beaf713a 3f708066     .|....q?:q..f.p?
    8974:	beb263ef 3f6ff573 beb554ec 3f6f6830     .c..s.o?.T..0ho?
    8984:	beb8442a 3f6ed89e bebb31a0 3f6e46be     *D....n?.1...Fn?
    8994:	bebe1d4a 3f6db293 bec1071e 3f6d1c1d     J.....m?......m?
    89a4:	bec3ef15 3f6c835e bec6d529 3f6be858     ....^.l?)...X.k?
    89b4:	bec9b953 3f6b4b0c becc9b8b 3f6aab7b     S....Kk?....{.j?
    89c4:	becf7bca 3f6a09a7 bed25a09 3f696591     .{....j?.Z...ei?
    89d4:	bed53641 3f68bf3c bed8106b 3f6816a8     A6..<.h?k.....h?
    89e4:	bedae880 3f676bd8 beddbe79 3f66becc     .....kg?y.....f?
    89f4:	bee0924f 3f660f88 bee363fa 3f655e0b     O.....f?.c...^e?
    8a04:	bee63375 3f64aa59 bee900b7 3f63f473     u3..Y.d?....s.c?
    8a14:	beebcbbb 3f633c5a beee9479 3f628210     ....Z<c?y.....b?
    8a24:	bef15aea 3f61c598 bef41f07 3f6106f2     .Z....a?......a?
    8a34:	bef6e0cb 3f604621 bef9a02d 3f5f8327     ....!F`?-...'._?
    8a44:	befc5d27 3f5ebe05 beff17b2 3f5df6be     ']....^?......]?
    8a54:	bf00e7e4 3f5d2d53 bf0242b1 3f5c61c7     ....S-]?.B...a\?
    8a64:	bf039c3d 3f5b941a bf04f484 3f5ac450     =.....[?....P.Z?
    8a74:	bf064b82 3f59f26a bf07a136 3f591e6a     .K..j.Y?6...j.Y?
    8a84:	bf08f59b 3f584853 bf0a48ad 3f577026     ....SHX?.H..&pW?
    8a94:	bf0b9a6b 3f5695e5 bf0cead0 3f55b993     k.....V?......U?
    8aa4:	bf0e39da 3f54db31 bf0f8784 3f53fac3     .9..1.T?......S?
    8ab4:	bf10d3cd 3f531849 bf121eb0 3f5233c6     ....I.S?.....3R?
    8ac4:	bf13682a 3f514d3d bf14b039 3f5064af     *h..=MQ?9....dP?
    8ad4:	bf15f6d9 3f4f7a1f bf173c07 3f4e8d90     .....zO?.<....N?
    8ae4:	bf187fc0 3f4d9f02 bf19c200 3f4cae79     ......M?....y.L?
    8af4:	bf1b02c6 3f4bbbf8 bf1c420c 3f4ac77f     ......K?.B....J?
    8b04:	bf1d7fd1 3f49d112 bf1ebc12 3f48d8b3     ......I?......H?
    8b14:	bf1ff6cb 3f47de65 bf212ff9 3f46e22a     ....e.G?./!.*.F?
    8b24:	bf226799 3f45e403 bf239da9 3f44e3f5     .g"...E?..#...D?
    8b34:	bf24d225 3f43e200 bf26050a 3f42de29     %.$...C?..&.).B?
    8b44:	bf273656 3f41d870 bf286605 3f40d0da     V6'.p.A?.f(...@?
    8b54:	bf299415 3f3fc767 bf2ac082 3f3ebc1b     ..).g.??..*...>?
    8b64:	bf2beb4a 3f3daef9 bf2d1469 3f3ca003     J.+...=?i.-...<?
    8b74:	bf2e3bde 3f3b8f3b bf2f61a5 3f3a7ca4     .;..;.;?.a/..|:?
    8b84:	bf3085bb 3f396842 bf31a81d 3f385216     ..0.Bh9?..1..R8?
    8b94:	bf32c8c9 3f373a23 bf33e7bc 3f36206c     ..2.#:7?..3.l 6?
    8ba4:	bf3504f3 3f3504f3 bf36206c 3f33e7bc     ..5...5?l 6...3?
    8bb4:	bf373a23 3f32c8c9 bf385216 3f31a81d     #:7...2?.R8...1?
    8bc4:	bf396842 3f3085bb bf3a7ca4 3f2f61a5     Bh9...0?.|:..a/?
    8bd4:	bf3b8f3b 3f2e3bde bf3ca003 3f2d1469     ;.;..;.?..<.i.-?
    8be4:	bf3daef9 3f2beb4a bf3ebc1b 3f2ac082     ..=.J.+?..>...*?
    8bf4:	bf3fc767 3f299415 bf40d0da 3f286605     g.?...)?..@..f(?
    8c04:	bf41d870 3f273656 bf42de29 3f26050a     p.A.V6'?).B...&?
    8c14:	bf43e200 3f24d225 bf44e3f5 3f239da9     ..C.%.$?..D...#?
    8c24:	bf45e403 3f226799 bf46e22a 3f212ff9     ..E..g"?*.F../!?
    8c34:	bf47de65 3f1ff6cb bf48d8b3 3f1ebc12     e.G....?..H....?
    8c44:	bf49d112 3f1d7fd1 bf4ac77f 3f1c420c     ..I....?..J..B.?
    8c54:	bf4bbbf8 3f1b02c6 bf4cae79 3f19c200     ..K....?y.L....?
    8c64:	bf4d9f02 3f187fc0 bf4e8d90 3f173c07     ..M....?..N..<.?
    8c74:	bf4f7a1f 3f15f6d9 bf5064af 3f14b039     .zO....?.dP.9..?
    8c84:	bf514d3d 3f13682a bf5233c6 3f121eb0     =MQ.*h.?.3R....?
    8c94:	bf531849 3f10d3cd bf53fac3 3f0f8784     I.S....?..S....?
    8ca4:	bf54db31 3f0e39da bf55b993 3f0cead0     1.T..9.?..U....?
    8cb4:	bf5695e5 3f0b9a6b bf577026 3f0a48ad     ..V.k..?&pW..H.?
    8cc4:	bf584853 3f08f59b bf591e6a 3f07a136     SHX....?j.Y.6..?
    8cd4:	bf59f26a 3f064b82 bf5ac450 3f04f484     j.Y..K.?P.Z....?
    8ce4:	bf5b941a 3f039c3d bf5c61c7 3f0242b1     ..[.=..?.a\..B.?
    8cf4:	bf5d2d53 3f00e7e4 bf5df6be 3eff17b2     S-]....?..]....>
    8d04:	bf5ebe05 3efc5d27 bf5f8327 3ef9a02d     ..^.'].>'._.-..>
    8d14:	bf604621 3ef6e0cb bf6106f2 3ef41f07     !F`....>..a....>
    8d24:	bf61c598 3ef15aea bf628210 3eee9479     ..a..Z.>..b.y..>
    8d34:	bf633c5a 3eebcbbb bf63f473 3ee900b7     Z<c....>s.c....>
    8d44:	bf64aa59 3ee63375 bf655e0b 3ee363fa     Y.d.u3.>.^e..c.>
    8d54:	bf660f88 3ee0924f bf66becc 3eddbe79     ..f.O..>..f.y..>
    8d64:	bf676bd8 3edae880 bf6816a8 3ed8106b     .kg....>..h.k..>
    8d74:	bf68bf3c 3ed53641 bf696591 3ed25a09     <.h.A6.>.ei..Z.>
    8d84:	bf6a09a7 3ecf7bca bf6aab7b 3ecc9b8b     ..j..{.>{.j....>
    8d94:	bf6b4b0c 3ec9b953 bf6be858 3ec6d529     .Kk.S..>X.k.)..>
    8da4:	bf6c835e 3ec3ef15 bf6d1c1d 3ec1071e     ^.l....>..m....>
    8db4:	bf6db293 3ebe1d4a bf6e46be 3ebb31a0     ..m.J..>.Fn..1.>
    8dc4:	bf6ed89e 3eb8442a bf6f6830 3eb554ec     ..n.*D.>0ho..T.>
    8dd4:	bf6ff573 3eb263ef bf708066 3eaf713a     s.o..c.>f.p.:q.>
    8de4:	bf710908 3eac7cd4 bf718f57 3ea986c4     ..q..|.>W.q....>
    8df4:	bf721352 3ea68f12 bf7294f8 3ea395c5     R.r....>..r....>
    8e04:	bf731447 3ea09ae5 bf73913f 3e9d9e78     G.s....>?.s.x..>
    8e14:	bf740bdd 3e9aa086 bf748422 3e97a117     ..t....>".t....>
    8e24:	bf74fa0b 3e94a031 bf756d97 3e919ddd     ..t.1..>.mu....>
    8e34:	bf75dec6 3e8e9a22 bf764d97 3e8b9507     ..u."..>.Mv....>
    8e44:	bf76ba07 3e888e93 bf772417 3e8586ce     ..v....>.$w....>
    8e54:	bf778bc5 3e827dc0 bf77f110 3e7ee6e1     ..w..}.>..w...~>
    8e64:	bf7853f8 3e78cfcc bf78b47b 3e72b651     .Sx...x>{.x.Q.r>
    8e74:	bf791298 3e6c9a7f bf796e4e 3e667c66     ..y...l>Nny.f|f>
    8e84:	bf79c79d 3e605c13 bf7a1e84 3e5a3997     ..y..\`>..z..9Z>
    8e94:	bf7a7302 3e541501 bf7ac516 3e4dee60     .sz...T>..z.`.M>
    8ea4:	bf7b14be 3e47c5c2 bf7b61fc 3e419b37     ..{...G>.a{.7.A>
    8eb4:	bf7baccd 3e3b6ecf bf7bf531 3e354098     ..{..n;>1.{..@5>
    8ec4:	bf7c3b28 3e2f10a2 bf7c7eb0 3e28defc     (;|.../>.~|...(>
    8ed4:	bf7cbfc9 3e22abb6 bf7cfe73 3e1c76de     ..|...">s.|..v.>
    8ee4:	bf7d3aac 3e164083 bf7d7474 3e1008b7     .:}..@.>tt}....>
    8ef4:	bf7dabcc 3e09cf86 bf7de0b1 3e039502     ..}....>..}....>
    8f04:	bf7e1324 3dfab273 bf7e4323 3dee3876     $.~.s..=#C~.v8.=
    8f14:	bf7e70b0 3de1bc2e bf7e9bc9 3dd53db9     .p~....=..~..=.=
    8f24:	bf7ec46d 3dc8bd36 bf7eea9d 3dbc3ac3     m.~.6..=..~..:.=
    8f34:	bf7f0e58 3dafb680 bf7f2f9d 3da3308c     X......=./...0.=
    8f44:	bf7f4e6d 3d96a905 bf7f6ac7 3d8a200a     mN.....=.j... .=
    8f54:	bf7f84ab 3d7b2b74 bf7f9c18 3d621468     ....t+{=....h.b=
    8f64:	bf7fb10f 3d48fb2f bf7fc38f 3d2fe007     ..../.H=....../=
    8f74:	bf7fd398 3d16c32c bf7fe129 3cfb49b9     ....,..=)....I.<
    8f84:	bf7fec43 3cc90ab0 bf7ff4e6 3c96c9b6     C......<.......<
    8f94:	bf7ffb11 3c490e90 bf7ffec4 3bc90f89     ......I<.......;
    8fa4:	bf800000 00000000 bf7ffec4 bbc90f89     ................
    8fb4:	bf7ffb11 bc490e90 bf7ff4e6 bc96c9b6     ......I.........
    8fc4:	bf7fec43 bcc90ab0 bf7fe129 bcfb49b9     C.......)....I..
    8fd4:	bf7fd398 bd16c32c bf7fc38f bd2fe007     ....,........./.
    8fe4:	bf7fb10f bd48fb2f bf7f9c18 bd621468     ..../.H.....h.b.
    8ff4:	bf7f84ab bd7b2b74 bf7f6ac7 bd8a200a     ....t+{..j... ..
    9004:	bf7f4e6d bd96a905 bf7f2f9d bda3308c     mN......./...0..
    9014:	bf7f0e58 bdafb680 bf7eea9d bdbc3ac3     X.........~..:..
    9024:	bf7ec46d bdc8bd36 bf7e9bc9 bdd53db9     m.~.6.....~..=..
    9034:	bf7e70b0 bde1bc2e bf7e4323 bdee3876     .p~.....#C~.v8..
    9044:	bf7e1324 bdfab273 bf7de0b1 be039502     $.~.s.....}.....
    9054:	bf7dabcc be09cf86 bf7d7474 be1008b7     ..}.....tt}.....
    9064:	bf7d3aac be164083 bf7cfe73 be1c76de     .:}..@..s.|..v..
    9074:	bf7cbfc9 be22abb6 bf7c7eb0 be28defc     ..|..."..~|...(.
    9084:	bf7c3b28 be2f10a2 bf7bf531 be354098     (;|.../.1.{..@5.
    9094:	bf7baccd be3b6ecf bf7b61fc be419b37     ..{..n;..a{.7.A.
    90a4:	bf7b14be be47c5c2 bf7ac516 be4dee60     ..{...G...z.`.M.
    90b4:	bf7a7302 be541501 bf7a1e84 be5a3997     .sz...T...z..9Z.
    90c4:	bf79c79d be605c13 bf796e4e be667c66     ..y..\`.Nny.f|f.
    90d4:	bf791298 be6c9a7f bf78b47b be72b651     ..y...l.{.x.Q.r.
    90e4:	bf7853f8 be78cfcc bf77f110 be7ee6e1     .Sx...x...w...~.
    90f4:	bf778bc5 be827dc0 bf772417 be8586ce     ..w..}...$w.....
    9104:	bf76ba07 be888e93 bf764d97 be8b9507     ..v......Mv.....
    9114:	bf75dec6 be8e9a22 bf756d97 be919ddd     ..u."....mu.....
    9124:	bf74fa0b be94a031 bf748422 be97a117     ..t.1...".t.....
    9134:	bf740bdd be9aa086 bf73913f be9d9e78     ..t.....?.s.x...
    9144:	bf731447 bea09ae5 bf7294f8 bea395c5     G.s.......r.....
    9154:	bf721352 bea68f12 bf718f57 bea986c4     R.r.....W.q.....
    9164:	bf710908 beac7cd4 bf708066 beaf713a     ..q..|..f.p.:q..
    9174:	bf6ff573 beb263ef bf6f6830 beb554ec     s.o..c..0ho..T..
    9184:	bf6ed89e beb8442a bf6e46be bebb31a0     ..n.*D...Fn..1..
    9194:	bf6db293 bebe1d4a bf6d1c1d bec1071e     ..m.J.....m.....
    91a4:	bf6c835e bec3ef15 bf6be858 bec6d529     ^.l.....X.k.)...
    91b4:	bf6b4b0c bec9b953 bf6aab7b becc9b8b     .Kk.S...{.j.....
    91c4:	bf6a09a7 becf7bca bf696591 bed25a09     ..j..{...ei..Z..
    91d4:	bf68bf3c bed53641 bf6816a8 bed8106b     <.h.A6....h.k...
    91e4:	bf676bd8 bedae880 bf66becc beddbe79     .kg.......f.y...
    91f4:	bf660f88 bee0924f bf655e0b bee363fa     ..f.O....^e..c..
    9204:	bf64aa59 bee63375 bf63f473 bee900b7     Y.d.u3..s.c.....
    9214:	bf633c5a beebcbbb bf628210 beee9479     Z<c.......b.y...
    9224:	bf61c598 bef15aea bf6106f2 bef41f07     ..a..Z....a.....
    9234:	bf604621 bef6e0cb bf5f8327 bef9a02d     !F`.....'._.-...
    9244:	bf5ebe05 befc5d27 bf5df6be beff17b2     ..^.']....].....
    9254:	bf5d2d53 bf00e7e4 bf5c61c7 bf0242b1     S-]......a\..B..
    9264:	bf5b941a bf039c3d bf5ac450 bf04f484     ..[.=...P.Z.....
    9274:	bf59f26a bf064b82 bf591e6a bf07a136     j.Y..K..j.Y.6...
    9284:	bf584853 bf08f59b bf577026 bf0a48ad     SHX.....&pW..H..
    9294:	bf5695e5 bf0b9a6b bf55b993 bf0cead0     ..V.k.....U.....
    92a4:	bf54db31 bf0e39da bf53fac3 bf0f8784     1.T..9....S.....
    92b4:	bf531849 bf10d3cd bf5233c6 bf121eb0     I.S......3R.....
    92c4:	bf514d3d bf13682a bf5064af bf14b039     =MQ.*h...dP.9...
    92d4:	bf4f7a1f bf15f6d9 bf4e8d90 bf173c07     .zO.......N..<..
    92e4:	bf4d9f02 bf187fc0 bf4cae79 bf19c200     ..M.....y.L.....
    92f4:	bf4bbbf8 bf1b02c6 bf4ac77f bf1c420c     ..K.......J..B..
    9304:	bf49d112 bf1d7fd1 bf48d8b3 bf1ebc12     ..I.......H.....
    9314:	bf47de65 bf1ff6cb bf46e22a bf212ff9     e.G.....*.F../!.
    9324:	bf45e403 bf226799 bf44e3f5 bf239da9     ..E..g"...D...#.
    9334:	bf43e200 bf24d225 bf42de29 bf26050a     ..C.%.$.).B...&.
    9344:	bf41d870 bf273656 bf40d0da bf286605     p.A.V6'...@..f(.
    9354:	bf3fc767 bf299415 bf3ebc1b bf2ac082     g.?...)...>...*.
    9364:	bf3daef9 bf2beb4a bf3ca003 bf2d1469     ..=.J.+...<.i.-.
    9374:	bf3b8f3b bf2e3bde bf3a7ca4 bf2f61a5     ;.;..;...|:..a/.
    9384:	bf396842 bf3085bb bf385216 bf31a81d     Bh9...0..R8...1.
    9394:	bf373a23 bf32c8c9 bf36206c bf33e7bc     #:7...2.l 6...3.
    93a4:	bf3504f3 bf3504f3 bf33e7bc bf36206c     ..5...5...3.l 6.
    93b4:	bf32c8c9 bf373a23 bf31a81d bf385216     ..2.#:7...1..R8.
    93c4:	bf3085bb bf396842 bf2f61a5 bf3a7ca4     ..0.Bh9..a/..|:.
    93d4:	bf2e3bde bf3b8f3b bf2d1469 bf3ca003     .;..;.;.i.-...<.
    93e4:	bf2beb4a bf3daef9 bf2ac082 bf3ebc1b     J.+...=...*...>.
    93f4:	bf299415 bf3fc767 bf286605 bf40d0da     ..).g.?..f(...@.
    9404:	bf273656 bf41d870 bf26050a bf42de29     V6'.p.A...&.).B.
    9414:	bf24d225 bf43e200 bf239da9 bf44e3f5     %.$...C...#...D.
    9424:	bf226799 bf45e403 bf212ff9 bf46e22a     .g"...E../!.*.F.
    9434:	bf1ff6cb bf47de65 bf1ebc12 bf48d8b3     ....e.G.......H.
    9444:	bf1d7fd1 bf49d112 bf1c420c bf4ac77f     ......I..B....J.
    9454:	bf1b02c6 bf4bbbf8 bf19c200 bf4cae79     ......K.....y.L.
    9464:	bf187fc0 bf4d9f02 bf173c07 bf4e8d90     ......M..<....N.
    9474:	bf15f6d9 bf4f7a1f bf14b039 bf5064af     .....zO.9....dP.
    9484:	bf13682a bf514d3d bf121eb0 bf5233c6     *h..=MQ......3R.
    9494:	bf10d3cd bf531849 bf0f8784 bf53fac3     ....I.S.......S.
    94a4:	bf0e39da bf54db31 bf0cead0 bf55b993     .9..1.T.......U.
    94b4:	bf0b9a6b bf5695e5 bf0a48ad bf577026     k.....V..H..&pW.
    94c4:	bf08f59b bf584853 bf07a136 bf591e6a     ....SHX.6...j.Y.
    94d4:	bf064b82 bf59f26a bf04f484 bf5ac450     .K..j.Y.....P.Z.
    94e4:	bf039c3d bf5b941a bf0242b1 bf5c61c7     =.....[..B...a\.
    94f4:	bf00e7e4 bf5d2d53 beff17b2 bf5df6be     ....S-].......].
    9504:	befc5d27 bf5ebe05 bef9a02d bf5f8327     ']....^.-...'._.
    9514:	bef6e0cb bf604621 bef41f07 bf6106f2     ....!F`.......a.
    9524:	bef15aea bf61c598 beee9479 bf628210     .Z....a.y.....b.
    9534:	beebcbbb bf633c5a bee900b7 bf63f473     ....Z<c.....s.c.
    9544:	bee63375 bf64aa59 bee363fa bf655e0b     u3..Y.d..c...^e.
    9554:	bee0924f bf660f88 beddbe79 bf66becc     O.....f.y.....f.
    9564:	bedae880 bf676bd8 bed8106b bf6816a8     .....kg.k.....h.
    9574:	bed53641 bf68bf3c bed25a09 bf696591     A6..<.h..Z...ei.
    9584:	becf7bca bf6a09a7 becc9b8b bf6aab7b     .{....j.....{.j.
    9594:	bec9b953 bf6b4b0c bec6d529 bf6be858     S....Kk.)...X.k.
    95a4:	bec3ef15 bf6c835e bec1071e bf6d1c1d     ....^.l.......m.
    95b4:	bebe1d4a bf6db293 bebb31a0 bf6e46be     J.....m..1...Fn.
    95c4:	beb8442a bf6ed89e beb554ec bf6f6830     *D....n..T..0ho.
    95d4:	beb263ef bf6ff573 beaf713a bf708066     .c..s.o.:q..f.p.
    95e4:	beac7cd4 bf710908 bea986c4 bf718f57     .|....q.....W.q.
    95f4:	bea68f12 bf721352 bea395c5 bf7294f8     ....R.r.......r.
    9604:	bea09ae5 bf731447 be9d9e78 bf73913f     ....G.s.x...?.s.
    9614:	be9aa086 bf740bdd be97a117 bf748422     ......t.....".t.
    9624:	be94a031 bf74fa0b be919ddd bf756d97     1.....t......mu.
    9634:	be8e9a22 bf75dec6 be8b9507 bf764d97     ".....u......Mv.
    9644:	be888e93 bf76ba07 be8586ce bf772417     ......v......$w.
    9654:	be827dc0 bf778bc5 be7ee6e1 bf77f110     .}....w...~...w.
    9664:	be78cfcc bf7853f8 be72b651 bf78b47b     ..x..Sx.Q.r.{.x.
    9674:	be6c9a7f bf791298 be667c66 bf796e4e     ..l...y.f|f.Nny.
    9684:	be605c13 bf79c79d be5a3997 bf7a1e84     .\`...y..9Z...z.
    9694:	be541501 bf7a7302 be4dee60 bf7ac516     ..T..sz.`.M...z.
    96a4:	be47c5c2 bf7b14be be419b37 bf7b61fc     ..G...{.7.A..a{.
    96b4:	be3b6ecf bf7baccd be354098 bf7bf531     .n;...{..@5.1.{.
    96c4:	be2f10a2 bf7c3b28 be28defc bf7c7eb0     ../.(;|...(..~|.
    96d4:	be22abb6 bf7cbfc9 be1c76de bf7cfe73     .."...|..v..s.|.
    96e4:	be164083 bf7d3aac be1008b7 bf7d7474     .@...:}.....tt}.
    96f4:	be09cf86 bf7dabcc be039502 bf7de0b1     ......}.......}.
    9704:	bdfab273 bf7e1324 bdee3876 bf7e4323     s...$.~.v8..#C~.
    9714:	bde1bc2e bf7e70b0 bdd53db9 bf7e9bc9     .....p~..=....~.
    9724:	bdc8bd36 bf7ec46d bdbc3ac3 bf7eea9d     6...m.~..:....~.
    9734:	bdafb680 bf7f0e58 bda3308c bf7f2f9d     ....X....0.../..
    9744:	bd96a905 bf7f4e6d bd8a200a bf7f6ac7     ....mN... ...j..
    9754:	bd7b2b74 bf7f84ab bd621468 bf7f9c18     t+{.....h.b.....
    9764:	bd48fb2f bf7fb10f bd2fe007 bf7fc38f     /.H......./.....
    9774:	bd16c32c bf7fd398 bcfb49b9 bf7fe129     ,........I..)...
    9784:	bcc90ab0 bf7fec43 bc96c9b6 bf7ff4e6     ....C...........
    9794:	bc490e90 bf7ffb11 bbc90f89 bf7ffec4     ..I.............
    97a4:	80000000 bf800000 3bc90f89 bf7ffec4     ...........;....
    97b4:	3c490e90 bf7ffb11 3c96c9b6 bf7ff4e6     ..I<.......<....
    97c4:	3cc90ab0 bf7fec43 3cfb49b9 bf7fe129     ...<C....I.<)...
    97d4:	3d16c32c bf7fd398 3d2fe007 bf7fc38f     ,..=....../=....
    97e4:	3d48fb2f bf7fb10f 3d621468 bf7f9c18     /.H=....h.b=....
    97f4:	3d7b2b74 bf7f84ab 3d8a200a bf7f6ac7     t+{=..... .=.j..
    9804:	3d96a905 bf7f4e6d 3da3308c bf7f2f9d     ...=mN...0.=./..
    9814:	3dafb680 bf7f0e58 3dbc3ac3 bf7eea9d     ...=X....:.=..~.
    9824:	3dc8bd36 bf7ec46d 3dd53db9 bf7e9bc9     6..=m.~..=.=..~.
    9834:	3de1bc2e bf7e70b0 3dee3876 bf7e4323     ...=.p~.v8.=#C~.
    9844:	3dfab273 bf7e1324 3e039502 bf7de0b1     s..=$.~....>..}.
    9854:	3e09cf86 bf7dabcc 3e1008b7 bf7d7474     ...>..}....>tt}.
    9864:	3e164083 bf7d3aac 3e1c76de bf7cfe73     .@.>.:}..v.>s.|.
    9874:	3e22abb6 bf7cbfc9 3e28defc bf7c7eb0     ..">..|...(>.~|.
    9884:	3e2f10a2 bf7c3b28 3e354098 bf7bf531     ../>(;|..@5>1.{.
    9894:	3e3b6ecf bf7baccd 3e419b37 bf7b61fc     .n;>..{.7.A>.a{.
    98a4:	3e47c5c2 bf7b14be 3e4dee60 bf7ac516     ..G>..{.`.M>..z.
    98b4:	3e541501 bf7a7302 3e5a3997 bf7a1e84     ..T>.sz..9Z>..z.
    98c4:	3e605c13 bf79c79d 3e667c66 bf796e4e     .\`>..y.f|f>Nny.
    98d4:	3e6c9a7f bf791298 3e72b651 bf78b47b     ..l>..y.Q.r>{.x.
    98e4:	3e78cfcc bf7853f8 3e7ee6e1 bf77f110     ..x>.Sx...~>..w.
    98f4:	3e827dc0 bf778bc5 3e8586ce bf772417     .}.>..w....>.$w.
    9904:	3e888e93 bf76ba07 3e8b9507 bf764d97     ...>..v....>.Mv.
    9914:	3e8e9a22 bf75dec6 3e919ddd bf756d97     "..>..u....>.mu.
    9924:	3e94a031 bf74fa0b 3e97a117 bf748422     1..>..t....>".t.
    9934:	3e9aa086 bf740bdd 3e9d9e78 bf73913f     ...>..t.x..>?.s.
    9944:	3ea09ae5 bf731447 3ea395c5 bf7294f8     ...>G.s....>..r.
    9954:	3ea68f12 bf721352 3ea986c4 bf718f57     ...>R.r....>W.q.
    9964:	3eac7cd4 bf710908 3eaf713a bf708066     .|.>..q.:q.>f.p.
    9974:	3eb263ef bf6ff573 3eb554ec bf6f6830     .c.>s.o..T.>0ho.
    9984:	3eb8442a bf6ed89e 3ebb31a0 bf6e46be     *D.>..n..1.>.Fn.
    9994:	3ebe1d4a bf6db293 3ec1071e bf6d1c1d     J..>..m....>..m.
    99a4:	3ec3ef15 bf6c835e 3ec6d529 bf6be858     ...>^.l.)..>X.k.
    99b4:	3ec9b953 bf6b4b0c 3ecc9b8b bf6aab7b     S..>.Kk....>{.j.
    99c4:	3ecf7bca bf6a09a7 3ed25a09 bf696591     .{.>..j..Z.>.ei.
    99d4:	3ed53641 bf68bf3c 3ed8106b bf6816a8     A6.><.h.k..>..h.
    99e4:	3edae880 bf676bd8 3eddbe79 bf66becc     ...>.kg.y..>..f.
    99f4:	3ee0924f bf660f88 3ee363fa bf655e0b     O..>..f..c.>.^e.
    9a04:	3ee63375 bf64aa59 3ee900b7 bf63f473     u3.>Y.d....>s.c.
    9a14:	3eebcbbb bf633c5a 3eee9479 bf628210     ...>Z<c.y..>..b.
    9a24:	3ef15aea bf61c598 3ef41f07 bf6106f2     .Z.>..a....>..a.
    9a34:	3ef6e0cb bf604621 3ef9a02d bf5f8327     ...>!F`.-..>'._.
    9a44:	3efc5d27 bf5ebe05 3eff17b2 bf5df6be     '].>..^....>..].
    9a54:	3f00e7e4 bf5d2d53 3f0242b1 bf5c61c7     ...?S-]..B.?.a\.
    9a64:	3f039c3d bf5b941a 3f04f484 bf5ac450     =..?..[....?P.Z.
    9a74:	3f064b82 bf59f26a 3f07a136 bf591e6a     .K.?j.Y.6..?j.Y.
    9a84:	3f08f59b bf584853 3f0a48ad bf577026     ...?SHX..H.?&pW.
    9a94:	3f0b9a6b bf5695e5 3f0cead0 bf55b993     k..?..V....?..U.
    9aa4:	3f0e39da bf54db31 3f0f8784 bf53fac3     .9.?1.T....?..S.
    9ab4:	3f10d3cd bf531849 3f121eb0 bf5233c6     ...?I.S....?.3R.
    9ac4:	3f13682a bf514d3d 3f14b039 bf5064af     *h.?=MQ.9..?.dP.
    9ad4:	3f15f6d9 bf4f7a1f 3f173c07 bf4e8d90     ...?.zO..<.?..N.
    9ae4:	3f187fc0 bf4d9f02 3f19c200 bf4cae79     ...?..M....?y.L.
    9af4:	3f1b02c6 bf4bbbf8 3f1c420c bf4ac77f     ...?..K..B.?..J.
    9b04:	3f1d7fd1 bf49d112 3f1ebc12 bf48d8b3     ...?..I....?..H.
    9b14:	3f1ff6cb bf47de65 3f212ff9 bf46e22a     ...?e.G../!?*.F.
    9b24:	3f226799 bf45e403 3f239da9 bf44e3f5     .g"?..E...#?..D.
    9b34:	3f24d225 bf43e200 3f26050a bf42de29     %.$?..C...&?).B.
    9b44:	3f273656 bf41d870 3f286605 bf40d0da     V6'?p.A..f(?..@.
    9b54:	3f299415 bf3fc767 3f2ac082 bf3ebc1b     ..)?g.?...*?..>.
    9b64:	3f2beb4a bf3daef9 3f2d1469 bf3ca003     J.+?..=.i.-?..<.
    9b74:	3f2e3bde bf3b8f3b 3f2f61a5 bf3a7ca4     .;.?;.;..a/?.|:.
    9b84:	3f3085bb bf396842 3f31a81d bf385216     ..0?Bh9...1?.R8.
    9b94:	3f32c8c9 bf373a23 3f33e7bc bf36206c     ..2?#:7...3?l 6.
    9ba4:	3f3504f3 bf3504f3 3f36206c bf33e7bc     ..5?..5.l 6?..3.
    9bb4:	3f373a23 bf32c8c9 3f385216 bf31a81d     #:7?..2..R8?..1.
    9bc4:	3f396842 bf3085bb 3f3a7ca4 bf2f61a5     Bh9?..0..|:?.a/.
    9bd4:	3f3b8f3b bf2e3bde 3f3ca003 bf2d1469     ;.;?.;....<?i.-.
    9be4:	3f3daef9 bf2beb4a 3f3ebc1b bf2ac082     ..=?J.+...>?..*.
    9bf4:	3f3fc767 bf299415 3f40d0da bf286605     g.??..)...@?.f(.
    9c04:	3f41d870 bf273656 3f42de29 bf26050a     p.A?V6'.).B?..&.
    9c14:	3f43e200 bf24d225 3f44e3f5 bf239da9     ..C?%.$...D?..#.
    9c24:	3f45e403 bf226799 3f46e22a bf212ff9     ..E?.g".*.F?./!.
    9c34:	3f47de65 bf1ff6cb 3f48d8b3 bf1ebc12     e.G?......H?....
    9c44:	3f49d112 bf1d7fd1 3f4ac77f bf1c420c     ..I?......J?.B..
    9c54:	3f4bbbf8 bf1b02c6 3f4cae79 bf19c200     ..K?....y.L?....
    9c64:	3f4d9f02 bf187fc0 3f4e8d90 bf173c07     ..M?......N?.<..
    9c74:	3f4f7a1f bf15f6d9 3f5064af bf14b039     .zO?.....dP?9...
    9c84:	3f514d3d bf13682a 3f5233c6 bf121eb0     =MQ?*h...3R?....
    9c94:	3f531849 bf10d3cd 3f53fac3 bf0f8784     I.S?......S?....
    9ca4:	3f54db31 bf0e39da 3f55b993 bf0cead0     1.T?.9....U?....
    9cb4:	3f5695e5 bf0b9a6b 3f577026 bf0a48ad     ..V?k...&pW?.H..
    9cc4:	3f584853 bf08f59b 3f591e6a bf07a136     SHX?....j.Y?6...
    9cd4:	3f59f26a bf064b82 3f5ac450 bf04f484     j.Y?.K..P.Z?....
    9ce4:	3f5b941a bf039c3d 3f5c61c7 bf0242b1     ..[?=....a\?.B..
    9cf4:	3f5d2d53 bf00e7e4 3f5df6be beff17b2     S-]?......]?....
    9d04:	3f5ebe05 befc5d27 3f5f8327 bef9a02d     ..^?']..'._?-...
    9d14:	3f604621 bef6e0cb 3f6106f2 bef41f07     !F`?......a?....
    9d24:	3f61c598 bef15aea 3f628210 beee9479     ..a?.Z....b?y...
    9d34:	3f633c5a beebcbbb 3f63f473 bee900b7     Z<c?....s.c?....
    9d44:	3f64aa59 bee63375 3f655e0b bee363fa     Y.d?u3...^e?.c..
    9d54:	3f660f88 bee0924f 3f66becc beddbe79     ..f?O.....f?y...
    9d64:	3f676bd8 bedae880 3f6816a8 bed8106b     .kg?......h?k...
    9d74:	3f68bf3c bed53641 3f696591 bed25a09     <.h?A6...ei?.Z..
    9d84:	3f6a09a7 becf7bca 3f6aab7b becc9b8b     ..j?.{..{.j?....
    9d94:	3f6b4b0c bec9b953 3f6be858 bec6d529     .Kk?S...X.k?)...
    9da4:	3f6c835e bec3ef15 3f6d1c1d bec1071e     ^.l?......m?....
    9db4:	3f6db293 bebe1d4a 3f6e46be bebb31a0     ..m?J....Fn?.1..
    9dc4:	3f6ed89e beb8442a 3f6f6830 beb554ec     ..n?*D..0ho?.T..
    9dd4:	3f6ff573 beb263ef 3f708066 beaf713a     s.o?.c..f.p?:q..
    9de4:	3f710908 beac7cd4 3f718f57 bea986c4     ..q?.|..W.q?....
    9df4:	3f721352 bea68f12 3f7294f8 bea395c5     R.r?......r?....
    9e04:	3f731447 bea09ae5 3f73913f be9d9e78     G.s?....?.s?x...
    9e14:	3f740bdd be9aa086 3f748422 be97a117     ..t?....".t?....
    9e24:	3f74fa0b be94a031 3f756d97 be919ddd     ..t?1....mu?....
    9e34:	3f75dec6 be8e9a22 3f764d97 be8b9507     ..u?"....Mv?....
    9e44:	3f76ba07 be888e93 3f772417 be8586ce     ..v?.....$w?....
    9e54:	3f778bc5 be827dc0 3f77f110 be7ee6e1     ..w?.}....w?..~.
    9e64:	3f7853f8 be78cfcc 3f78b47b be72b651     .Sx?..x.{.x?Q.r.
    9e74:	3f791298 be6c9a7f 3f796e4e be667c66     ..y?..l.Nny?f|f.
    9e84:	3f79c79d be605c13 3f7a1e84 be5a3997     ..y?.\`...z?.9Z.
    9e94:	3f7a7302 be541501 3f7ac516 be4dee60     .sz?..T...z?`.M.
    9ea4:	3f7b14be be47c5c2 3f7b61fc be419b37     ..{?..G..a{?7.A.
    9eb4:	3f7baccd be3b6ecf 3f7bf531 be354098     ..{?.n;.1.{?.@5.
    9ec4:	3f7c3b28 be2f10a2 3f7c7eb0 be28defc     (;|?../..~|?..(.
    9ed4:	3f7cbfc9 be22abb6 3f7cfe73 be1c76de     ..|?..".s.|?.v..
    9ee4:	3f7d3aac be164083 3f7d7474 be1008b7     .:}?.@..tt}?....
    9ef4:	3f7dabcc be09cf86 3f7de0b1 be039502     ..}?......}?....
    9f04:	3f7e1324 bdfab273 3f7e4323 bdee3876     $.~?s...#C~?v8..
    9f14:	3f7e70b0 bde1bc2e 3f7e9bc9 bdd53db9     .p~?......~?.=..
    9f24:	3f7ec46d bdc8bd36 3f7eea9d bdbc3ac3     m.~?6.....~?.:..
    9f34:	3f7f0e58 bdafb680 3f7f2f9d bda3308c     X..?...../.?.0..
    9f44:	3f7f4e6d bd96a905 3f7f6ac7 bd8a200a     mN.?.....j.?. ..
    9f54:	3f7f84ab bd7b2b74 3f7f9c18 bd621468     ...?t+{....?h.b.
    9f64:	3f7fb10f bd48fb2f 3f7fc38f bd2fe007     ...?/.H....?../.
    9f74:	3f7fd398 bd16c32c 3f7fe129 bcfb49b9     ...?,...)..?.I..
    9f84:	3f7fec43 bcc90ab0 3f7ff4e6 bc96c9b6     C..?.......?....
    9f94:	3f7ffb11 bc490e90 3f7ffec4 bbc90f89     ...?..I....?....

00009fa4 <twiddleCoef_128>:
    9fa4:	3f800000 00000000 3f7fb10f 3d48fb2f     ...?.......?/.H=
    9fb4:	3f7ec46d 3dc8bd36 3f7d3aac 3e164083     m.~?6..=.:}?.@.>
    9fc4:	3f7b14be 3e47c5c2 3f7853f8 3e78cfcc     ..{?..G>.Sx?..x>
    9fd4:	3f74fa0b 3e94a031 3f710908 3eac7cd4     ..t?1..>..q?.|.>
    9fe4:	3f6c835e 3ec3ef15 3f676bd8 3edae880     ^.l?...>.kg?...>
    9ff4:	3f61c598 3ef15aea 3f5b941a 3f039c3d     ..a?.Z.>..[?=..?
    a004:	3f54db31 3f0e39da 3f4d9f02 3f187fc0     1.T?.9.?..M?...?
    a014:	3f45e403 3f226799 3f3daef9 3f2beb4a     ..E?.g"?..=?J.+?
    a024:	3f3504f3 3f3504f3 3f2beb4a 3f3daef9     ..5?..5?J.+?..=?
    a034:	3f226799 3f45e403 3f187fc0 3f4d9f02     .g"?..E?...?..M?
    a044:	3f0e39da 3f54db31 3f039c3d 3f5b941a     .9.?1.T?=..?..[?
    a054:	3ef15aea 3f61c598 3edae880 3f676bd8     .Z.>..a?...>.kg?
    a064:	3ec3ef15 3f6c835e 3eac7cd4 3f710908     ...>^.l?.|.>..q?
    a074:	3e94a031 3f74fa0b 3e78cfcc 3f7853f8     1..>..t?..x>.Sx?
    a084:	3e47c5c2 3f7b14be 3e164083 3f7d3aac     ..G>..{?.@.>.:}?
    a094:	3dc8bd36 3f7ec46d 3d48fb2f 3f7fb10f     6..=m.~?/.H=...?
    a0a4:	00000000 3f800000 bd48fb2f 3f7fb10f     .......?/.H....?
    a0b4:	bdc8bd36 3f7ec46d be164083 3f7d3aac     6...m.~?.@...:}?
    a0c4:	be47c5c2 3f7b14be be78cfcc 3f7853f8     ..G...{?..x..Sx?
    a0d4:	be94a031 3f74fa0b beac7cd4 3f710908     1.....t?.|....q?
    a0e4:	bec3ef15 3f6c835e bedae880 3f676bd8     ....^.l?.....kg?
    a0f4:	bef15aea 3f61c598 bf039c3d 3f5b941a     .Z....a?=.....[?
    a104:	bf0e39da 3f54db31 bf187fc0 3f4d9f02     .9..1.T?......M?
    a114:	bf226799 3f45e403 bf2beb4a 3f3daef9     .g"...E?J.+...=?
    a124:	bf3504f3 3f3504f3 bf3daef9 3f2beb4a     ..5...5?..=.J.+?
    a134:	bf45e403 3f226799 bf4d9f02 3f187fc0     ..E..g"?..M....?
    a144:	bf54db31 3f0e39da bf5b941a 3f039c3d     1.T..9.?..[.=..?
    a154:	bf61c598 3ef15aea bf676bd8 3edae880     ..a..Z.>.kg....>
    a164:	bf6c835e 3ec3ef15 bf710908 3eac7cd4     ^.l....>..q..|.>
    a174:	bf74fa0b 3e94a031 bf7853f8 3e78cfcc     ..t.1..>.Sx...x>
    a184:	bf7b14be 3e47c5c2 bf7d3aac 3e164083     ..{...G>.:}..@.>
    a194:	bf7ec46d 3dc8bd36 bf7fb10f 3d48fb2f     m.~.6..=..../.H=
    a1a4:	bf800000 00000000 bf7fb10f bd48fb2f     ............/.H.
    a1b4:	bf7ec46d bdc8bd36 bf7d3aac be164083     m.~.6....:}..@..
    a1c4:	bf7b14be be47c5c2 bf7853f8 be78cfcc     ..{...G..Sx...x.
    a1d4:	bf74fa0b be94a031 bf710908 beac7cd4     ..t.1.....q..|..
    a1e4:	bf6c835e bec3ef15 bf676bd8 bedae880     ^.l......kg.....
    a1f4:	bf61c598 bef15aea bf5b941a bf039c3d     ..a..Z....[.=...
    a204:	bf54db31 bf0e39da bf4d9f02 bf187fc0     1.T..9....M.....
    a214:	bf45e403 bf226799 bf3daef9 bf2beb4a     ..E..g"...=.J.+.
    a224:	bf3504f3 bf3504f3 bf2beb4a bf3daef9     ..5...5.J.+...=.
    a234:	bf226799 bf45e403 bf187fc0 bf4d9f02     .g"...E.......M.
    a244:	bf0e39da bf54db31 bf039c3d bf5b941a     .9..1.T.=.....[.
    a254:	bef15aea bf61c598 bedae880 bf676bd8     .Z....a......kg.
    a264:	bec3ef15 bf6c835e beac7cd4 bf710908     ....^.l..|....q.
    a274:	be94a031 bf74fa0b be78cfcc bf7853f8     1.....t...x..Sx.
    a284:	be47c5c2 bf7b14be be164083 bf7d3aac     ..G...{..@...:}.
    a294:	bdc8bd36 bf7ec46d bd48fb2f bf7fb10f     6...m.~./.H.....
    a2a4:	80000000 bf800000 3d48fb2f bf7fb10f     ......../.H=....
    a2b4:	3dc8bd36 bf7ec46d 3e164083 bf7d3aac     6..=m.~..@.>.:}.
    a2c4:	3e47c5c2 bf7b14be 3e78cfcc bf7853f8     ..G>..{...x>.Sx.
    a2d4:	3e94a031 bf74fa0b 3eac7cd4 bf710908     1..>..t..|.>..q.
    a2e4:	3ec3ef15 bf6c835e 3edae880 bf676bd8     ...>^.l....>.kg.
    a2f4:	3ef15aea bf61c598 3f039c3d bf5b941a     .Z.>..a.=..?..[.
    a304:	3f0e39da bf54db31 3f187fc0 bf4d9f02     .9.?1.T....?..M.
    a314:	3f226799 bf45e403 3f2beb4a bf3daef9     .g"?..E.J.+?..=.
    a324:	3f3504f3 bf3504f3 3f3daef9 bf2beb4a     ..5?..5...=?J.+.
    a334:	3f45e403 bf226799 3f4d9f02 bf187fc0     ..E?.g"...M?....
    a344:	3f54db31 bf0e39da 3f5b941a bf039c3d     1.T?.9....[?=...
    a354:	3f61c598 bef15aea 3f676bd8 bedae880     ..a?.Z...kg?....
    a364:	3f6c835e bec3ef15 3f710908 beac7cd4     ^.l?......q?.|..
    a374:	3f74fa0b be94a031 3f7853f8 be78cfcc     ..t?1....Sx?..x.
    a384:	3f7b14be be47c5c2 3f7d3aac be164083     ..{?..G..:}?.@..
    a394:	3f7ec46d bdc8bd36 3f7fb10f bd48fb2f     m.~?6......?/.H.

0000a3a4 <twiddleCoef_16>:
    a3a4:	3f800000 00000000 3f6c835e 3ec3ef15     ...?....^.l?...>
    a3b4:	3f3504f3 3f3504f3 3ec3ef15 3f6c835e     ..5?..5?...>^.l?
    a3c4:	00000000 3f800000 bec3ef15 3f6c835e     .......?....^.l?
    a3d4:	bf3504f3 3f3504f3 bf6c835e 3ec3ef15     ..5...5?^.l....>
    a3e4:	bf800000 00000000 bf6c835e bec3ef15     ........^.l.....
    a3f4:	bf3504f3 bf3504f3 bec3ef15 bf6c835e     ..5...5.....^.l.
    a404:	80000000 bf800000 3ec3ef15 bf6c835e     ...........>^.l.
    a414:	3f3504f3 bf3504f3 3f6c835e bec3ef15     ..5?..5.^.l?....

0000a424 <twiddleCoef_2048>:
    a424:	3f800000 00000000 3f7fffb1 3b490fc7     ...?.......?..I;
    a434:	3f7ffec4 3bc90f89 3f7ffd39 3c16cb59     ...?...;9..?Y..<
    a444:	3f7ffb11 3c490e90 3f7ff84a 3c7b514b     ...?..I<J..?KQ{<
    a454:	3f7ff4e6 3c96c9b6 3f7ff0e3 3cafea69     ...?...<...?i..<
    a464:	3f7fec43 3cc90ab0 3f7fe705 3ce22a7b     C..?...<...?{*.<
    a474:	3f7fe129 3cfb49b9 3f7fdaaf 3d0a342f     )..?.I.<...?/4.=
    a484:	3f7fd398 3d16c32c 3f7fcbe2 3d2351cc     ...?,..=...?.Q#=
    a494:	3f7fc38f 3d2fe007 3f7fba9e 3d3c6dd5     ...?../=...?.m<=
    a4a4:	3f7fb10f 3d48fb2f 3f7fa6e3 3d55880e     ...?/.H=...?..U=
    a4b4:	3f7f9c18 3d621468 3f7f90b1 3d6ea038     ...?h.b=...?8.n=
    a4c4:	3f7f84ab 3d7b2b74 3f7f7808 3d83db0a     ...?t+{=.x.?...=
    a4d4:	3f7f6ac7 3d8a200a 3f7f5ce9 3d9064b4     .j.?. .=.\.?.d.=
    a4e4:	3f7f4e6d 3d96a905 3f7f3f54 3d9cecf9     mN.?...=T?.?...=
    a4f4:	3f7f2f9d 3da3308c 3f7f1f49 3da973ba     ./.?.0.=I..?.s.=
    a504:	3f7f0e58 3dafb680 3f7efcc9 3db5f8da     X..?...=..~?...=
    a514:	3f7eea9d 3dbc3ac3 3f7ed7d4 3dc27c39     ..~?.:.=..~?9|.=
    a524:	3f7ec46d 3dc8bd36 3f7eb069 3dcefdb7     m.~?6..=i.~?...=
    a534:	3f7e9bc9 3dd53db9 3f7e868b 3ddb7d37     ..~?.=.=..~?7}.=
    a544:	3f7e70b0 3de1bc2e 3f7e5a38 3de7fa9a     .p~?...=8Z~?...=
    a554:	3f7e4323 3dee3876 3f7e2b72 3df475c0     #C~?v8.=r+~?.u.=
    a564:	3f7e1324 3dfab273 3f7dfa38 3e007745     $.~?s..=8.}?Ew.>
    a574:	3f7de0b1 3e039502 3f7dc68c 3e06b26e     ..}?...>..}?n..>
    a584:	3f7dabcc 3e09cf86 3f7d906e 3e0cec4a     ..}?...>n.}?J..>
    a594:	3f7d7474 3e1008b7 3f7d57de 3e1324ca     tt}?...>.W}?.$.>
    a5a4:	3f7d3aac 3e164083 3f7d1cdd 3e195be0     .:}?.@.>..}?.[.>
    a5b4:	3f7cfe73 3e1c76de 3f7cdf6c 3e1f917b     s.|?.v.>l.|?{..>
    a5c4:	3f7cbfc9 3e22abb6 3f7c9f8a 3e25c58c     ..|?..">..|?..%>
    a5d4:	3f7c7eb0 3e28defc 3f7c5d3a 3e2bf804     .~|?..(>:]|?..+>
    a5e4:	3f7c3b28 3e2f10a2 3f7c187a 3e3228d4     (;|?../>z.|?.(2>
    a5f4:	3f7bf531 3e354098 3f7bd14d 3e3857ec     1.{?.@5>M.{?.W8>
    a604:	3f7baccd 3e3b6ecf 3f7b87b2 3e3e853e     ..{?.n;>..{?>.>>
    a614:	3f7b61fc 3e419b37 3f7b3bab 3e44b0b9     .a{?7.A>.;{?..D>
    a624:	3f7b14be 3e47c5c2 3f7aed37 3e4ada4f     ..{?..G>7.z?O.J>
    a634:	3f7ac516 3e4dee60 3f7a9c59 3e5101f1     ..z?`.M>Y.z?..Q>
    a644:	3f7a7302 3e541501 3f7a4910 3e57278f     .sz?..T>.Iz?.'W>
    a654:	3f7a1e84 3e5a3997 3f79f35e 3e5d4b1a     ..z?.9Z>^.y?.K]>
    a664:	3f79c79d 3e605c13 3f799b43 3e636c83     ..y?.\`>C.y?.lc>
    a674:	3f796e4e 3e667c66 3f7940c0 3e698bba     Nny?f|f>.@y?..i>
    a684:	3f791298 3e6c9a7f 3f78e3d6 3e6fa8b2     ..y?..l>..x?..o>
    a694:	3f78b47b 3e72b651 3f788486 3e75c35a     {.x?Q.r>..x?Z.u>
    a6a4:	3f7853f8 3e78cfcc 3f7822d1 3e7bdba4     .Sx?..x>."x?..{>
    a6b4:	3f77f110 3e7ee6e1 3f77beb7 3e80f8c0     ..w?..~>..w?...>
    a6c4:	3f778bc5 3e827dc0 3f77583a 3e840270     ..w?.}.>:Xw?p..>
    a6d4:	3f772417 3e8586ce 3f76ef5b 3e870ada     .$w?...>[.v?...>
    a6e4:	3f76ba07 3e888e93 3f76841b 3e8a11f8     ..v?...>..v?...>
    a6f4:	3f764d97 3e8b9507 3f76167a 3e8d17c0     .Mv?...>z.v?...>
    a704:	3f75dec6 3e8e9a22 3f75a67b 3e901c2c     ..u?"..>{.u?,..>
    a714:	3f756d97 3e919ddd 3f75341d 3e931f35     .mu?...>.4u?5..>
    a724:	3f74fa0b 3e94a031 3f74bf62 3e9620d2     ..t?1..>b.t?. .>
    a734:	3f748422 3e97a117 3f74484b 3e9920fe     ".t?...>KHt?. .>
    a744:	3f740bdd 3e9aa086 3f73ced9 3e9c1faf     ..t?...>..s?...>
    a754:	3f73913f 3e9d9e78 3f73530e 3e9f1cdf     ?.s?x..>.Ss?...>
    a764:	3f731447 3ea09ae5 3f72d4eb 3ea21887     G.s?...>..r?...>
    a774:	3f7294f8 3ea395c5 3f725470 3ea5129f     ..r?...>pTr?...>
    a784:	3f721352 3ea68f12 3f71d19f 3ea80b1f     R.r?...>..q?...>
    a794:	3f718f57 3ea986c4 3f714c7a 3eab0201     W.q?...>zLq?...>
    a7a4:	3f710908 3eac7cd4 3f70c502 3eadf73c     ..q?.|.>..p?<..>
    a7b4:	3f708066 3eaf713a 3f703b37 3eb0eacb     f.p?:q.>7;p?...>
    a7c4:	3f6ff573 3eb263ef 3f6faf1b 3eb3dca5     s.o?.c.>..o?...>
    a7d4:	3f6f6830 3eb554ec 3f6f20b0 3eb6ccc3     0ho?.T.>. o?...>
    a7e4:	3f6ed89e 3eb8442a 3f6e8ff8 3eb9bb1e     ..n?*D.>..n?...>
    a7f4:	3f6e46be 3ebb31a0 3f6dfcf2 3ebca7af     .Fn?.1.>..m?...>
    a804:	3f6db293 3ebe1d4a 3f6d67a1 3ebf926f     ..m?J..>.gm?o..>
    a814:	3f6d1c1d 3ec1071e 3f6cd007 3ec27b55     ..m?...>..l?U{.>
    a824:	3f6c835e 3ec3ef15 3f6c3624 3ec5625c     ^.l?...>$6l?\b.>
    a834:	3f6be858 3ec6d529 3f6b99fb 3ec8477c     X.k?)..>..k?|G.>
    a844:	3f6b4b0c 3ec9b953 3f6afb8c 3ecb2aae     .Kk?S..>..j?.*.>
    a854:	3f6aab7b 3ecc9b8b 3f6a5ad9 3ece0bea     {.j?...>.Zj?...>
    a864:	3f6a09a7 3ecf7bca 3f69b7e4 3ed0eb2a     ..j?.{.>..i?*..>
    a874:	3f696591 3ed25a09 3f6912ae 3ed3c867     .ei?.Z.>..i?g..>
    a884:	3f68bf3c 3ed53641 3f686b39 3ed6a399     <.h?A6.>9kh?...>
    a894:	3f6816a8 3ed8106b 3f67c187 3ed97cb9     ..h?k..>..g?.|.>
    a8a4:	3f676bd8 3edae880 3f671599 3edc53c1     .kg?...>..g?.S.>
    a8b4:	3f66becc 3eddbe79 3f666771 3edf28a9     ..f?y..>qgf?.(.>
    a8c4:	3f660f88 3ee0924f 3f65b710 3ee1fb6a     ..f?O..>..e?j..>
    a8d4:	3f655e0b 3ee363fa 3f650479 3ee4cbfe     .^e?.c.>y.e?...>
    a8e4:	3f64aa59 3ee63375 3f644fac 3ee79a5d     Y.d?u3.>.Od?]..>
    a8f4:	3f63f473 3ee900b7 3f6398ac 3eea6681     s.c?...>..c?.f.>
    a904:	3f633c5a 3eebcbbb 3f62df7b 3eed3063     Z<c?...>{.b?c0.>
    a914:	3f628210 3eee9479 3f62241a 3eeff7fb     ..b?y..>.$b?...>
    a924:	3f61c598 3ef15aea 3f61668a 3ef2bd43     ..a?.Z.>.fa?C..>
    a934:	3f6106f2 3ef41f07 3f60a6cf 3ef58035     ..a?...>..`?5..>
    a944:	3f604621 3ef6e0cb 3f5fe4e9 3ef840c8     !F`?...>.._?.@.>
    a954:	3f5f8327 3ef9a02d 3f5f20db 3efafef7     '._?-..>. _?...>
    a964:	3f5ebe05 3efc5d27 3f5e5aa6 3efdbabb     ..^?'].>.Z^?...>
    a974:	3f5df6be 3eff17b2 3f5d924d 3f003a06     ..]?...>M.]?.:.?
    a984:	3f5d2d53 3f00e7e4 3f5cc7d1 3f019573     S-]?...?..\?s..?
    a994:	3f5c61c7 3f0242b1 3f5bfb34 3f02ef9f     .a\?.B.?4.[?...?
    a9a4:	3f5b941a 3f039c3d 3f5b2c79 3f044889     ..[?=..?y,[?.H.?
    a9b4:	3f5ac450 3f04f484 3f5a5ba0 3f05a02c     P.Z?...?.[Z?,..?
    a9c4:	3f59f26a 3f064b82 3f5988ad 3f06f686     j.Y?.K.?..Y?...?
    a9d4:	3f591e6a 3f07a136 3f58b3a1 3f084b92     j.Y?6..?..X?.K.?
    a9e4:	3f584853 3f08f59b 3f57dc7f 3f099f4e     SHX?...?..W?N..?
    a9f4:	3f577026 3f0a48ad 3f570348 3f0af1b7     &pW?.H.?H.W?...?
    aa04:	3f5695e5 3f0b9a6b 3f5627fe 3f0c42c9     ..V?k..?.'V?.B.?
    aa14:	3f55b993 3f0cead0 3f554aa4 3f0d9281     ..U?...?.JU?...?
    aa24:	3f54db31 3f0e39da 3f546b3b 3f0ee0db     1.T?.9.?;kT?...?
    aa34:	3f53fac3 3f0f8784 3f5389c7 3f102dd5     ..S?...?..S?.-.?
    aa44:	3f531849 3f10d3cd 3f52a649 3f11796b     I.S?...?I.R?ky.?
    aa54:	3f5233c6 3f121eb0 3f51c0c2 3f12c39a     .3R?...?..Q?...?
    aa64:	3f514d3d 3f13682a 3f50d937 3f140c5f     =MQ?*h.?7.P?_..?
    aa74:	3f5064af 3f14b039 3f4fefa8 3f1553b7     .dP?9..?..O?.S.?
    aa84:	3f4f7a1f 3f15f6d9 3f4f0417 3f16999f     .zO?...?..O?...?
    aa94:	3f4e8d90 3f173c07 3f4e1689 3f17de12     ..N?.<.?..N?...?
    aaa4:	3f4d9f02 3f187fc0 3f4d26fd 3f19210f     ..M?...?.&M?.!.?
    aab4:	3f4cae79 3f19c200 3f4c3578 3f1a6293     y.L?...?x5L?.b.?
    aac4:	3f4bbbf8 3f1b02c6 3f4b41fa 3f1ba299     ..K?...?.AK?...?
    aad4:	3f4ac77f 3f1c420c 3f4a4c87 3f1ce11f     ..J?.B.?.LJ?...?
    aae4:	3f49d112 3f1d7fd1 3f495521 3f1e1e22     ..I?...?!UI?"..?
    aaf4:	3f48d8b3 3f1ebc12 3f485bca 3f1f599f     ..H?...?.[H?.Y.?
    ab04:	3f47de65 3f1ff6cb 3f476085 3f209393     e.G?...?.`G?.. ?
    ab14:	3f46e22a 3f212ff9 3f466354 3f21cbfb     *.F?./!?TcF?..!?
    ab24:	3f45e403 3f226799 3f456439 3f2302d3     ..E?.g"?9dE?..#?
    ab34:	3f44e3f5 3f239da9 3f446337 3f24381a     ..D?..#?7cD?.8$?
    ab44:	3f43e200 3f24d225 3f436051 3f256bcb     ..C?%.$?Q`C?.k%?
    ab54:	3f42de29 3f26050a 3f425b89 3f269de3     ).B?..&?.[B?..&?
    ab64:	3f41d870 3f273656 3f4154e1 3f27ce61     p.A?V6'?.TA?a.'?
    ab74:	3f40d0da 3f286605 3f404c5c 3f28fd41     ..@?.f(?\L@?A.(?
    ab84:	3f3fc767 3f299415 3f3f41fc 3f2a2a80     g.??..)?.A??.**?
    ab94:	3f3ebc1b 3f2ac082 3f3e35c5 3f2b561b     ..>?..*?.5>?.V+?
    aba4:	3f3daef9 3f2beb4a 3f3d27b8 3f2c800f     ..=?J.+?.'=?..,?
    abb4:	3f3ca003 3f2d1469 3f3c17d9 3f2da859     ..<?i.-?..<?Y.-?
    abc4:	3f3b8f3b 3f2e3bde 3f3b0629 3f2ecef7     ;.;?.;.?).;?...?
    abd4:	3f3a7ca4 3f2f61a5 3f39f2ac 3f2ff3e6     .|:?.a/?..9?../?
    abe4:	3f396842 3f3085bb 3f38dd65 3f311722     Bh9?..0?e.8?".1?
    abf4:	3f385216 3f31a81d 3f37c655 3f3238aa     .R8?..1?U.7?.82?
    ac04:	3f373a23 3f32c8c9 3f36ad7f 3f33587a     #:7?..2?..6?zX3?
    ac14:	3f36206c 3f33e7bc 3f3592e7 3f34768f     l 6?..3?..5?.v4?
    ac24:	3f3504f3 3f3504f3 3f34768f 3f3592e7     ..5?..5?.v4?..5?
    ac34:	3f33e7bc 3f36206c 3f33587a 3f36ad7f     ..3?l 6?zX3?..6?
    ac44:	3f32c8c9 3f373a23 3f3238aa 3f37c655     ..2?#:7?.82?U.7?
    ac54:	3f31a81d 3f385216 3f311722 3f38dd65     ..1?.R8?".1?e.8?
    ac64:	3f3085bb 3f396842 3f2ff3e6 3f39f2ac     ..0?Bh9?../?..9?
    ac74:	3f2f61a5 3f3a7ca4 3f2ecef7 3f3b0629     .a/?.|:?...?).;?
    ac84:	3f2e3bde 3f3b8f3b 3f2da859 3f3c17d9     .;.?;.;?Y.-?..<?
    ac94:	3f2d1469 3f3ca003 3f2c800f 3f3d27b8     i.-?..<?..,?.'=?
    aca4:	3f2beb4a 3f3daef9 3f2b561b 3f3e35c5     J.+?..=?.V+?.5>?
    acb4:	3f2ac082 3f3ebc1b 3f2a2a80 3f3f41fc     ..*?..>?.**?.A??
    acc4:	3f299415 3f3fc767 3f28fd41 3f404c5c     ..)?g.??A.(?\L@?
    acd4:	3f286605 3f40d0da 3f27ce61 3f4154e1     .f(?..@?a.'?.TA?
    ace4:	3f273656 3f41d870 3f269de3 3f425b89     V6'?p.A?..&?.[B?
    acf4:	3f26050a 3f42de29 3f256bcb 3f436051     ..&?).B?.k%?Q`C?
    ad04:	3f24d225 3f43e200 3f24381a 3f446337     %.$?..C?.8$?7cD?
    ad14:	3f239da9 3f44e3f5 3f2302d3 3f456439     ..#?..D?..#?9dE?
    ad24:	3f226799 3f45e403 3f21cbfb 3f466354     .g"?..E?..!?TcF?
    ad34:	3f212ff9 3f46e22a 3f209393 3f476085     ./!?*.F?.. ?.`G?
    ad44:	3f1ff6cb 3f47de65 3f1f599f 3f485bca     ...?e.G?.Y.?.[H?
    ad54:	3f1ebc12 3f48d8b3 3f1e1e22 3f495521     ...?..H?"..?!UI?
    ad64:	3f1d7fd1 3f49d112 3f1ce11f 3f4a4c87     ...?..I?...?.LJ?
    ad74:	3f1c420c 3f4ac77f 3f1ba299 3f4b41fa     .B.?..J?...?.AK?
    ad84:	3f1b02c6 3f4bbbf8 3f1a6293 3f4c3578     ...?..K?.b.?x5L?
    ad94:	3f19c200 3f4cae79 3f19210f 3f4d26fd     ...?y.L?.!.?.&M?
    ada4:	3f187fc0 3f4d9f02 3f17de12 3f4e1689     ...?..M?...?..N?
    adb4:	3f173c07 3f4e8d90 3f16999f 3f4f0417     .<.?..N?...?..O?
    adc4:	3f15f6d9 3f4f7a1f 3f1553b7 3f4fefa8     ...?.zO?.S.?..O?
    add4:	3f14b039 3f5064af 3f140c5f 3f50d937     9..?.dP?_..?7.P?
    ade4:	3f13682a 3f514d3d 3f12c39a 3f51c0c2     *h.?=MQ?...?..Q?
    adf4:	3f121eb0 3f5233c6 3f11796b 3f52a649     ...?.3R?ky.?I.R?
    ae04:	3f10d3cd 3f531849 3f102dd5 3f5389c7     ...?I.S?.-.?..S?
    ae14:	3f0f8784 3f53fac3 3f0ee0db 3f546b3b     ...?..S?...?;kT?
    ae24:	3f0e39da 3f54db31 3f0d9281 3f554aa4     .9.?1.T?...?.JU?
    ae34:	3f0cead0 3f55b993 3f0c42c9 3f5627fe     ...?..U?.B.?.'V?
    ae44:	3f0b9a6b 3f5695e5 3f0af1b7 3f570348     k..?..V?...?H.W?
    ae54:	3f0a48ad 3f577026 3f099f4e 3f57dc7f     .H.?&pW?N..?..W?
    ae64:	3f08f59b 3f584853 3f084b92 3f58b3a1     ...?SHX?.K.?..X?
    ae74:	3f07a136 3f591e6a 3f06f686 3f5988ad     6..?j.Y?...?..Y?
    ae84:	3f064b82 3f59f26a 3f05a02c 3f5a5ba0     .K.?j.Y?,..?.[Z?
    ae94:	3f04f484 3f5ac450 3f044889 3f5b2c79     ...?P.Z?.H.?y,[?
    aea4:	3f039c3d 3f5b941a 3f02ef9f 3f5bfb34     =..?..[?...?4.[?
    aeb4:	3f0242b1 3f5c61c7 3f019573 3f5cc7d1     .B.?.a\?s..?..\?
    aec4:	3f00e7e4 3f5d2d53 3f003a06 3f5d924d     ...?S-]?.:.?M.]?
    aed4:	3eff17b2 3f5df6be 3efdbabb 3f5e5aa6     ...>..]?...>.Z^?
    aee4:	3efc5d27 3f5ebe05 3efafef7 3f5f20db     '].>..^?...>. _?
    aef4:	3ef9a02d 3f5f8327 3ef840c8 3f5fe4e9     -..>'._?.@.>.._?
    af04:	3ef6e0cb 3f604621 3ef58035 3f60a6cf     ...>!F`?5..>..`?
    af14:	3ef41f07 3f6106f2 3ef2bd43 3f61668a     ...>..a?C..>.fa?
    af24:	3ef15aea 3f61c598 3eeff7fb 3f62241a     .Z.>..a?...>.$b?
    af34:	3eee9479 3f628210 3eed3063 3f62df7b     y..>..b?c0.>{.b?
    af44:	3eebcbbb 3f633c5a 3eea6681 3f6398ac     ...>Z<c?.f.>..c?
    af54:	3ee900b7 3f63f473 3ee79a5d 3f644fac     ...>s.c?]..>.Od?
    af64:	3ee63375 3f64aa59 3ee4cbfe 3f650479     u3.>Y.d?...>y.e?
    af74:	3ee363fa 3f655e0b 3ee1fb6a 3f65b710     .c.>.^e?j..>..e?
    af84:	3ee0924f 3f660f88 3edf28a9 3f666771     O..>..f?.(.>qgf?
    af94:	3eddbe79 3f66becc 3edc53c1 3f671599     y..>..f?.S.>..g?
    afa4:	3edae880 3f676bd8 3ed97cb9 3f67c187     ...>.kg?.|.>..g?
    afb4:	3ed8106b 3f6816a8 3ed6a399 3f686b39     k..>..h?...>9kh?
    afc4:	3ed53641 3f68bf3c 3ed3c867 3f6912ae     A6.><.h?g..>..i?
    afd4:	3ed25a09 3f696591 3ed0eb2a 3f69b7e4     .Z.>.ei?*..>..i?
    afe4:	3ecf7bca 3f6a09a7 3ece0bea 3f6a5ad9     .{.>..j?...>.Zj?
    aff4:	3ecc9b8b 3f6aab7b 3ecb2aae 3f6afb8c     ...>{.j?.*.>..j?
    b004:	3ec9b953 3f6b4b0c 3ec8477c 3f6b99fb     S..>.Kk?|G.>..k?
    b014:	3ec6d529 3f6be858 3ec5625c 3f6c3624     )..>X.k?\b.>$6l?
    b024:	3ec3ef15 3f6c835e 3ec27b55 3f6cd007     ...>^.l?U{.>..l?
    b034:	3ec1071e 3f6d1c1d 3ebf926f 3f6d67a1     ...>..m?o..>.gm?
    b044:	3ebe1d4a 3f6db293 3ebca7af 3f6dfcf2     J..>..m?...>..m?
    b054:	3ebb31a0 3f6e46be 3eb9bb1e 3f6e8ff8     .1.>.Fn?...>..n?
    b064:	3eb8442a 3f6ed89e 3eb6ccc3 3f6f20b0     *D.>..n?...>. o?
    b074:	3eb554ec 3f6f6830 3eb3dca5 3f6faf1b     .T.>0ho?...>..o?
    b084:	3eb263ef 3f6ff573 3eb0eacb 3f703b37     .c.>s.o?...>7;p?
    b094:	3eaf713a 3f708066 3eadf73c 3f70c502     :q.>f.p?<..>..p?
    b0a4:	3eac7cd4 3f710908 3eab0201 3f714c7a     .|.>..q?...>zLq?
    b0b4:	3ea986c4 3f718f57 3ea80b1f 3f71d19f     ...>W.q?...>..q?
    b0c4:	3ea68f12 3f721352 3ea5129f 3f725470     ...>R.r?...>pTr?
    b0d4:	3ea395c5 3f7294f8 3ea21887 3f72d4eb     ...>..r?...>..r?
    b0e4:	3ea09ae5 3f731447 3e9f1cdf 3f73530e     ...>G.s?...>.Ss?
    b0f4:	3e9d9e78 3f73913f 3e9c1faf 3f73ced9     x..>?.s?...>..s?
    b104:	3e9aa086 3f740bdd 3e9920fe 3f74484b     ...>..t?. .>KHt?
    b114:	3e97a117 3f748422 3e9620d2 3f74bf62     ...>".t?. .>b.t?
    b124:	3e94a031 3f74fa0b 3e931f35 3f75341d     1..>..t?5..>.4u?
    b134:	3e919ddd 3f756d97 3e901c2c 3f75a67b     ...>.mu?,..>{.u?
    b144:	3e8e9a22 3f75dec6 3e8d17c0 3f76167a     "..>..u?...>z.v?
    b154:	3e8b9507 3f764d97 3e8a11f8 3f76841b     ...>.Mv?...>..v?
    b164:	3e888e93 3f76ba07 3e870ada 3f76ef5b     ...>..v?...>[.v?
    b174:	3e8586ce 3f772417 3e840270 3f77583a     ...>.$w?p..>:Xw?
    b184:	3e827dc0 3f778bc5 3e80f8c0 3f77beb7     .}.>..w?...>..w?
    b194:	3e7ee6e1 3f77f110 3e7bdba4 3f7822d1     ..~>..w?..{>."x?
    b1a4:	3e78cfcc 3f7853f8 3e75c35a 3f788486     ..x>.Sx?Z.u>..x?
    b1b4:	3e72b651 3f78b47b 3e6fa8b2 3f78e3d6     Q.r>{.x?..o>..x?
    b1c4:	3e6c9a7f 3f791298 3e698bba 3f7940c0     ..l>..y?..i>.@y?
    b1d4:	3e667c66 3f796e4e 3e636c83 3f799b43     f|f>Nny?.lc>C.y?
    b1e4:	3e605c13 3f79c79d 3e5d4b1a 3f79f35e     .\`>..y?.K]>^.y?
    b1f4:	3e5a3997 3f7a1e84 3e57278f 3f7a4910     .9Z>..z?.'W>.Iz?
    b204:	3e541501 3f7a7302 3e5101f1 3f7a9c59     ..T>.sz?..Q>Y.z?
    b214:	3e4dee60 3f7ac516 3e4ada4f 3f7aed37     `.M>..z?O.J>7.z?
    b224:	3e47c5c2 3f7b14be 3e44b0b9 3f7b3bab     ..G>..{?..D>.;{?
    b234:	3e419b37 3f7b61fc 3e3e853e 3f7b87b2     7.A>.a{?>.>>..{?
    b244:	3e3b6ecf 3f7baccd 3e3857ec 3f7bd14d     .n;>..{?.W8>M.{?
    b254:	3e354098 3f7bf531 3e3228d4 3f7c187a     .@5>1.{?.(2>z.|?
    b264:	3e2f10a2 3f7c3b28 3e2bf804 3f7c5d3a     ../>(;|?..+>:]|?
    b274:	3e28defc 3f7c7eb0 3e25c58c 3f7c9f8a     ..(>.~|?..%>..|?
    b284:	3e22abb6 3f7cbfc9 3e1f917b 3f7cdf6c     ..">..|?{..>l.|?
    b294:	3e1c76de 3f7cfe73 3e195be0 3f7d1cdd     .v.>s.|?.[.>..}?
    b2a4:	3e164083 3f7d3aac 3e1324ca 3f7d57de     .@.>.:}?.$.>.W}?
    b2b4:	3e1008b7 3f7d7474 3e0cec4a 3f7d906e     ...>tt}?J..>n.}?
    b2c4:	3e09cf86 3f7dabcc 3e06b26e 3f7dc68c     ...>..}?n..>..}?
    b2d4:	3e039502 3f7de0b1 3e007745 3f7dfa38     ...>..}?Ew.>8.}?
    b2e4:	3dfab273 3f7e1324 3df475c0 3f7e2b72     s..=$.~?.u.=r+~?
    b2f4:	3dee3876 3f7e4323 3de7fa9a 3f7e5a38     v8.=#C~?...=8Z~?
    b304:	3de1bc2e 3f7e70b0 3ddb7d37 3f7e868b     ...=.p~?7}.=..~?
    b314:	3dd53db9 3f7e9bc9 3dcefdb7 3f7eb069     .=.=..~?...=i.~?
    b324:	3dc8bd36 3f7ec46d 3dc27c39 3f7ed7d4     6..=m.~?9|.=..~?
    b334:	3dbc3ac3 3f7eea9d 3db5f8da 3f7efcc9     .:.=..~?...=..~?
    b344:	3dafb680 3f7f0e58 3da973ba 3f7f1f49     ...=X..?.s.=I..?
    b354:	3da3308c 3f7f2f9d 3d9cecf9 3f7f3f54     .0.=./.?...=T?.?
    b364:	3d96a905 3f7f4e6d 3d9064b4 3f7f5ce9     ...=mN.?.d.=.\.?
    b374:	3d8a200a 3f7f6ac7 3d83db0a 3f7f7808     . .=.j.?...=.x.?
    b384:	3d7b2b74 3f7f84ab 3d6ea038 3f7f90b1     t+{=...?8.n=...?
    b394:	3d621468 3f7f9c18 3d55880e 3f7fa6e3     h.b=...?..U=...?
    b3a4:	3d48fb2f 3f7fb10f 3d3c6dd5 3f7fba9e     /.H=...?.m<=...?
    b3b4:	3d2fe007 3f7fc38f 3d2351cc 3f7fcbe2     ../=...?.Q#=...?
    b3c4:	3d16c32c 3f7fd398 3d0a342f 3f7fdaaf     ,..=...?/4.=...?
    b3d4:	3cfb49b9 3f7fe129 3ce22a7b 3f7fe705     .I.<)..?{*.<...?
    b3e4:	3cc90ab0 3f7fec43 3cafea69 3f7ff0e3     ...<C..?i..<...?
    b3f4:	3c96c9b6 3f7ff4e6 3c7b514b 3f7ff84a     ...<...?KQ{<J..?
    b404:	3c490e90 3f7ffb11 3c16cb59 3f7ffd39     ..I<...?Y..<9..?
    b414:	3bc90f89 3f7ffec4 3b490fc7 3f7fffb1     ...;...?..I;...?
    b424:	00000000 3f800000 bb490fc7 3f7fffb1     .......?..I....?
    b434:	bbc90f89 3f7ffec4 bc16cb59 3f7ffd39     .......?Y...9..?
    b444:	bc490e90 3f7ffb11 bc7b514b 3f7ff84a     ..I....?KQ{.J..?
    b454:	bc96c9b6 3f7ff4e6 bcafea69 3f7ff0e3     .......?i......?
    b464:	bcc90ab0 3f7fec43 bce22a7b 3f7fe705     ....C..?{*.....?
    b474:	bcfb49b9 3f7fe129 bd0a342f 3f7fdaaf     .I..)..?/4.....?
    b484:	bd16c32c 3f7fd398 bd2351cc 3f7fcbe2     ,......?.Q#....?
    b494:	bd2fe007 3f7fc38f bd3c6dd5 3f7fba9e     ../....?.m<....?
    b4a4:	bd48fb2f 3f7fb10f bd55880e 3f7fa6e3     /.H....?..U....?
    b4b4:	bd621468 3f7f9c18 bd6ea038 3f7f90b1     h.b....?8.n....?
    b4c4:	bd7b2b74 3f7f84ab bd83db0a 3f7f7808     t+{....?.....x.?
    b4d4:	bd8a200a 3f7f6ac7 bd9064b4 3f7f5ce9     . ...j.?.d...\.?
    b4e4:	bd96a905 3f7f4e6d bd9cecf9 3f7f3f54     ....mN.?....T?.?
    b4f4:	bda3308c 3f7f2f9d bda973ba 3f7f1f49     .0.../.?.s..I..?
    b504:	bdafb680 3f7f0e58 bdb5f8da 3f7efcc9     ....X..?......~?
    b514:	bdbc3ac3 3f7eea9d bdc27c39 3f7ed7d4     .:....~?9|....~?
    b524:	bdc8bd36 3f7ec46d bdcefdb7 3f7eb069     6...m.~?....i.~?
    b534:	bdd53db9 3f7e9bc9 bddb7d37 3f7e868b     .=....~?7}....~?
    b544:	bde1bc2e 3f7e70b0 bde7fa9a 3f7e5a38     .....p~?....8Z~?
    b554:	bdee3876 3f7e4323 bdf475c0 3f7e2b72     v8..#C~?.u..r+~?
    b564:	bdfab273 3f7e1324 be007745 3f7dfa38     s...$.~?Ew..8.}?
    b574:	be039502 3f7de0b1 be06b26e 3f7dc68c     ......}?n.....}?
    b584:	be09cf86 3f7dabcc be0cec4a 3f7d906e     ......}?J...n.}?
    b594:	be1008b7 3f7d7474 be1324ca 3f7d57de     ....tt}?.$...W}?
    b5a4:	be164083 3f7d3aac be195be0 3f7d1cdd     .@...:}?.[....}?
    b5b4:	be1c76de 3f7cfe73 be1f917b 3f7cdf6c     .v..s.|?{...l.|?
    b5c4:	be22abb6 3f7cbfc9 be25c58c 3f7c9f8a     .."...|?..%...|?
    b5d4:	be28defc 3f7c7eb0 be2bf804 3f7c5d3a     ..(..~|?..+.:]|?
    b5e4:	be2f10a2 3f7c3b28 be3228d4 3f7c187a     ../.(;|?.(2.z.|?
    b5f4:	be354098 3f7bf531 be3857ec 3f7bd14d     .@5.1.{?.W8.M.{?
    b604:	be3b6ecf 3f7baccd be3e853e 3f7b87b2     .n;...{?>.>...{?
    b614:	be419b37 3f7b61fc be44b0b9 3f7b3bab     7.A..a{?..D..;{?
    b624:	be47c5c2 3f7b14be be4ada4f 3f7aed37     ..G...{?O.J.7.z?
    b634:	be4dee60 3f7ac516 be5101f1 3f7a9c59     `.M...z?..Q.Y.z?
    b644:	be541501 3f7a7302 be57278f 3f7a4910     ..T..sz?.'W..Iz?
    b654:	be5a3997 3f7a1e84 be5d4b1a 3f79f35e     .9Z...z?.K].^.y?
    b664:	be605c13 3f79c79d be636c83 3f799b43     .\`...y?.lc.C.y?
    b674:	be667c66 3f796e4e be698bba 3f7940c0     f|f.Nny?..i..@y?
    b684:	be6c9a7f 3f791298 be6fa8b2 3f78e3d6     ..l...y?..o...x?
    b694:	be72b651 3f78b47b be75c35a 3f788486     Q.r.{.x?Z.u...x?
    b6a4:	be78cfcc 3f7853f8 be7bdba4 3f7822d1     ..x..Sx?..{.."x?
    b6b4:	be7ee6e1 3f77f110 be80f8c0 3f77beb7     ..~...w?......w?
    b6c4:	be827dc0 3f778bc5 be840270 3f77583a     .}....w?p...:Xw?
    b6d4:	be8586ce 3f772417 be870ada 3f76ef5b     .....$w?....[.v?
    b6e4:	be888e93 3f76ba07 be8a11f8 3f76841b     ......v?......v?
    b6f4:	be8b9507 3f764d97 be8d17c0 3f76167a     .....Mv?....z.v?
    b704:	be8e9a22 3f75dec6 be901c2c 3f75a67b     ".....u?,...{.u?
    b714:	be919ddd 3f756d97 be931f35 3f75341d     .....mu?5....4u?
    b724:	be94a031 3f74fa0b be9620d2 3f74bf62     1.....t?. ..b.t?
    b734:	be97a117 3f748422 be9920fe 3f74484b     ....".t?. ..KHt?
    b744:	be9aa086 3f740bdd be9c1faf 3f73ced9     ......t?......s?
    b754:	be9d9e78 3f73913f be9f1cdf 3f73530e     x...?.s?.....Ss?
    b764:	bea09ae5 3f731447 bea21887 3f72d4eb     ....G.s?......r?
    b774:	bea395c5 3f7294f8 bea5129f 3f725470     ......r?....pTr?
    b784:	bea68f12 3f721352 bea80b1f 3f71d19f     ....R.r?......q?
    b794:	bea986c4 3f718f57 beab0201 3f714c7a     ....W.q?....zLq?
    b7a4:	beac7cd4 3f710908 beadf73c 3f70c502     .|....q?<.....p?
    b7b4:	beaf713a 3f708066 beb0eacb 3f703b37     :q..f.p?....7;p?
    b7c4:	beb263ef 3f6ff573 beb3dca5 3f6faf1b     .c..s.o?......o?
    b7d4:	beb554ec 3f6f6830 beb6ccc3 3f6f20b0     .T..0ho?..... o?
    b7e4:	beb8442a 3f6ed89e beb9bb1e 3f6e8ff8     *D....n?......n?
    b7f4:	bebb31a0 3f6e46be bebca7af 3f6dfcf2     .1...Fn?......m?
    b804:	bebe1d4a 3f6db293 bebf926f 3f6d67a1     J.....m?o....gm?
    b814:	bec1071e 3f6d1c1d bec27b55 3f6cd007     ......m?U{....l?
    b824:	bec3ef15 3f6c835e bec5625c 3f6c3624     ....^.l?\b..$6l?
    b834:	bec6d529 3f6be858 bec8477c 3f6b99fb     )...X.k?|G....k?
    b844:	bec9b953 3f6b4b0c becb2aae 3f6afb8c     S....Kk?.*....j?
    b854:	becc9b8b 3f6aab7b bece0bea 3f6a5ad9     ....{.j?.....Zj?
    b864:	becf7bca 3f6a09a7 bed0eb2a 3f69b7e4     .{....j?*.....i?
    b874:	bed25a09 3f696591 bed3c867 3f6912ae     .Z...ei?g.....i?
    b884:	bed53641 3f68bf3c bed6a399 3f686b39     A6..<.h?....9kh?
    b894:	bed8106b 3f6816a8 bed97cb9 3f67c187     k.....h?.|....g?
    b8a4:	bedae880 3f676bd8 bedc53c1 3f671599     .....kg?.S....g?
    b8b4:	beddbe79 3f66becc bedf28a9 3f666771     y.....f?.(..qgf?
    b8c4:	bee0924f 3f660f88 bee1fb6a 3f65b710     O.....f?j.....e?
    b8d4:	bee363fa 3f655e0b bee4cbfe 3f650479     .c...^e?....y.e?
    b8e4:	bee63375 3f64aa59 bee79a5d 3f644fac     u3..Y.d?]....Od?
    b8f4:	bee900b7 3f63f473 beea6681 3f6398ac     ....s.c?.f....c?
    b904:	beebcbbb 3f633c5a beed3063 3f62df7b     ....Z<c?c0..{.b?
    b914:	beee9479 3f628210 beeff7fb 3f62241a     y.....b?.....$b?
    b924:	bef15aea 3f61c598 bef2bd43 3f61668a     .Z....a?C....fa?
    b934:	bef41f07 3f6106f2 bef58035 3f60a6cf     ......a?5.....`?
    b944:	bef6e0cb 3f604621 bef840c8 3f5fe4e9     ....!F`?.@...._?
    b954:	bef9a02d 3f5f8327 befafef7 3f5f20db     -...'._?..... _?
    b964:	befc5d27 3f5ebe05 befdbabb 3f5e5aa6     ']....^?.....Z^?
    b974:	beff17b2 3f5df6be bf003a06 3f5d924d     ......]?.:..M.]?
    b984:	bf00e7e4 3f5d2d53 bf019573 3f5cc7d1     ....S-]?s.....\?
    b994:	bf0242b1 3f5c61c7 bf02ef9f 3f5bfb34     .B...a\?....4.[?
    b9a4:	bf039c3d 3f5b941a bf044889 3f5b2c79     =.....[?.H..y,[?
    b9b4:	bf04f484 3f5ac450 bf05a02c 3f5a5ba0     ....P.Z?,....[Z?
    b9c4:	bf064b82 3f59f26a bf06f686 3f5988ad     .K..j.Y?......Y?
    b9d4:	bf07a136 3f591e6a bf084b92 3f58b3a1     6...j.Y?.K....X?
    b9e4:	bf08f59b 3f584853 bf099f4e 3f57dc7f     ....SHX?N.....W?
    b9f4:	bf0a48ad 3f577026 bf0af1b7 3f570348     .H..&pW?....H.W?
    ba04:	bf0b9a6b 3f5695e5 bf0c42c9 3f5627fe     k.....V?.B...'V?
    ba14:	bf0cead0 3f55b993 bf0d9281 3f554aa4     ......U?.....JU?
    ba24:	bf0e39da 3f54db31 bf0ee0db 3f546b3b     .9..1.T?....;kT?
    ba34:	bf0f8784 3f53fac3 bf102dd5 3f5389c7     ......S?.-....S?
    ba44:	bf10d3cd 3f531849 bf11796b 3f52a649     ....I.S?ky..I.R?
    ba54:	bf121eb0 3f5233c6 bf12c39a 3f51c0c2     .....3R?......Q?
    ba64:	bf13682a 3f514d3d bf140c5f 3f50d937     *h..=MQ?_...7.P?
    ba74:	bf14b039 3f5064af bf1553b7 3f4fefa8     9....dP?.S....O?
    ba84:	bf15f6d9 3f4f7a1f bf16999f 3f4f0417     .....zO?......O?
    ba94:	bf173c07 3f4e8d90 bf17de12 3f4e1689     .<....N?......N?
    baa4:	bf187fc0 3f4d9f02 bf19210f 3f4d26fd     ......M?.!...&M?
    bab4:	bf19c200 3f4cae79 bf1a6293 3f4c3578     ....y.L?.b..x5L?
    bac4:	bf1b02c6 3f4bbbf8 bf1ba299 3f4b41fa     ......K?.....AK?
    bad4:	bf1c420c 3f4ac77f bf1ce11f 3f4a4c87     .B....J?.....LJ?
    bae4:	bf1d7fd1 3f49d112 bf1e1e22 3f495521     ......I?"...!UI?
    baf4:	bf1ebc12 3f48d8b3 bf1f599f 3f485bca     ......H?.Y...[H?
    bb04:	bf1ff6cb 3f47de65 bf209393 3f476085     ....e.G?.. ..`G?
    bb14:	bf212ff9 3f46e22a bf21cbfb 3f466354     ./!.*.F?..!.TcF?
    bb24:	bf226799 3f45e403 bf2302d3 3f456439     .g"...E?..#.9dE?
    bb34:	bf239da9 3f44e3f5 bf24381a 3f446337     ..#...D?.8$.7cD?
    bb44:	bf24d225 3f43e200 bf256bcb 3f436051     %.$...C?.k%.Q`C?
    bb54:	bf26050a 3f42de29 bf269de3 3f425b89     ..&.).B?..&..[B?
    bb64:	bf273656 3f41d870 bf27ce61 3f4154e1     V6'.p.A?a.'..TA?
    bb74:	bf286605 3f40d0da bf28fd41 3f404c5c     .f(...@?A.(.\L@?
    bb84:	bf299415 3f3fc767 bf2a2a80 3f3f41fc     ..).g.??.**..A??
    bb94:	bf2ac082 3f3ebc1b bf2b561b 3f3e35c5     ..*...>?.V+..5>?
    bba4:	bf2beb4a 3f3daef9 bf2c800f 3f3d27b8     J.+...=?..,..'=?
    bbb4:	bf2d1469 3f3ca003 bf2da859 3f3c17d9     i.-...<?Y.-...<?
    bbc4:	bf2e3bde 3f3b8f3b bf2ecef7 3f3b0629     .;..;.;?....).;?
    bbd4:	bf2f61a5 3f3a7ca4 bf2ff3e6 3f39f2ac     .a/..|:?../...9?
    bbe4:	bf3085bb 3f396842 bf311722 3f38dd65     ..0.Bh9?".1.e.8?
    bbf4:	bf31a81d 3f385216 bf3238aa 3f37c655     ..1..R8?.82.U.7?
    bc04:	bf32c8c9 3f373a23 bf33587a 3f36ad7f     ..2.#:7?zX3...6?
    bc14:	bf33e7bc 3f36206c bf34768f 3f3592e7     ..3.l 6?.v4...5?
    bc24:	bf3504f3 3f3504f3 bf3592e7 3f34768f     ..5...5?..5..v4?
    bc34:	bf36206c 3f33e7bc bf36ad7f 3f33587a     l 6...3?..6.zX3?
    bc44:	bf373a23 3f32c8c9 bf37c655 3f3238aa     #:7...2?U.7..82?
    bc54:	bf385216 3f31a81d bf38dd65 3f311722     .R8...1?e.8.".1?
    bc64:	bf396842 3f3085bb bf39f2ac 3f2ff3e6     Bh9...0?..9.../?
    bc74:	bf3a7ca4 3f2f61a5 bf3b0629 3f2ecef7     .|:..a/?).;....?
    bc84:	bf3b8f3b 3f2e3bde bf3c17d9 3f2da859     ;.;..;.?..<.Y.-?
    bc94:	bf3ca003 3f2d1469 bf3d27b8 3f2c800f     ..<.i.-?.'=...,?
    bca4:	bf3daef9 3f2beb4a bf3e35c5 3f2b561b     ..=.J.+?.5>..V+?
    bcb4:	bf3ebc1b 3f2ac082 bf3f41fc 3f2a2a80     ..>...*?.A?..**?
    bcc4:	bf3fc767 3f299415 bf404c5c 3f28fd41     g.?...)?\L@.A.(?
    bcd4:	bf40d0da 3f286605 bf4154e1 3f27ce61     ..@..f(?.TA.a.'?
    bce4:	bf41d870 3f273656 bf425b89 3f269de3     p.A.V6'?.[B...&?
    bcf4:	bf42de29 3f26050a bf436051 3f256bcb     ).B...&?Q`C..k%?
    bd04:	bf43e200 3f24d225 bf446337 3f24381a     ..C.%.$?7cD..8$?
    bd14:	bf44e3f5 3f239da9 bf456439 3f2302d3     ..D...#?9dE...#?
    bd24:	bf45e403 3f226799 bf466354 3f21cbfb     ..E..g"?TcF...!?
    bd34:	bf46e22a 3f212ff9 bf476085 3f209393     *.F../!?.`G... ?
    bd44:	bf47de65 3f1ff6cb bf485bca 3f1f599f     e.G....?.[H..Y.?
    bd54:	bf48d8b3 3f1ebc12 bf495521 3f1e1e22     ..H....?!UI."..?
    bd64:	bf49d112 3f1d7fd1 bf4a4c87 3f1ce11f     ..I....?.LJ....?
    bd74:	bf4ac77f 3f1c420c bf4b41fa 3f1ba299     ..J..B.?.AK....?
    bd84:	bf4bbbf8 3f1b02c6 bf4c3578 3f1a6293     ..K....?x5L..b.?
    bd94:	bf4cae79 3f19c200 bf4d26fd 3f19210f     y.L....?.&M..!.?
    bda4:	bf4d9f02 3f187fc0 bf4e1689 3f17de12     ..M....?..N....?
    bdb4:	bf4e8d90 3f173c07 bf4f0417 3f16999f     ..N..<.?..O....?
    bdc4:	bf4f7a1f 3f15f6d9 bf4fefa8 3f1553b7     .zO....?..O..S.?
    bdd4:	bf5064af 3f14b039 bf50d937 3f140c5f     .dP.9..?7.P._..?
    bde4:	bf514d3d 3f13682a bf51c0c2 3f12c39a     =MQ.*h.?..Q....?
    bdf4:	bf5233c6 3f121eb0 bf52a649 3f11796b     .3R....?I.R.ky.?
    be04:	bf531849 3f10d3cd bf5389c7 3f102dd5     I.S....?..S..-.?
    be14:	bf53fac3 3f0f8784 bf546b3b 3f0ee0db     ..S....?;kT....?
    be24:	bf54db31 3f0e39da bf554aa4 3f0d9281     1.T..9.?.JU....?
    be34:	bf55b993 3f0cead0 bf5627fe 3f0c42c9     ..U....?.'V..B.?
    be44:	bf5695e5 3f0b9a6b bf570348 3f0af1b7     ..V.k..?H.W....?
    be54:	bf577026 3f0a48ad bf57dc7f 3f099f4e     &pW..H.?..W.N..?
    be64:	bf584853 3f08f59b bf58b3a1 3f084b92     SHX....?..X..K.?
    be74:	bf591e6a 3f07a136 bf5988ad 3f06f686     j.Y.6..?..Y....?
    be84:	bf59f26a 3f064b82 bf5a5ba0 3f05a02c     j.Y..K.?.[Z.,..?
    be94:	bf5ac450 3f04f484 bf5b2c79 3f044889     P.Z....?y,[..H.?
    bea4:	bf5b941a 3f039c3d bf5bfb34 3f02ef9f     ..[.=..?4.[....?
    beb4:	bf5c61c7 3f0242b1 bf5cc7d1 3f019573     .a\..B.?..\.s..?
    bec4:	bf5d2d53 3f00e7e4 bf5d924d 3f003a06     S-]....?M.]..:.?
    bed4:	bf5df6be 3eff17b2 bf5e5aa6 3efdbabb     ..]....>.Z^....>
    bee4:	bf5ebe05 3efc5d27 bf5f20db 3efafef7     ..^.'].>. _....>
    bef4:	bf5f8327 3ef9a02d bf5fe4e9 3ef840c8     '._.-..>.._..@.>
    bf04:	bf604621 3ef6e0cb bf60a6cf 3ef58035     !F`....>..`.5..>
    bf14:	bf6106f2 3ef41f07 bf61668a 3ef2bd43     ..a....>.fa.C..>
    bf24:	bf61c598 3ef15aea bf62241a 3eeff7fb     ..a..Z.>.$b....>
    bf34:	bf628210 3eee9479 bf62df7b 3eed3063     ..b.y..>{.b.c0.>
    bf44:	bf633c5a 3eebcbbb bf6398ac 3eea6681     Z<c....>..c..f.>
    bf54:	bf63f473 3ee900b7 bf644fac 3ee79a5d     s.c....>.Od.]..>
    bf64:	bf64aa59 3ee63375 bf650479 3ee4cbfe     Y.d.u3.>y.e....>
    bf74:	bf655e0b 3ee363fa bf65b710 3ee1fb6a     .^e..c.>..e.j..>
    bf84:	bf660f88 3ee0924f bf666771 3edf28a9     ..f.O..>qgf..(.>
    bf94:	bf66becc 3eddbe79 bf671599 3edc53c1     ..f.y..>..g..S.>
    bfa4:	bf676bd8 3edae880 bf67c187 3ed97cb9     .kg....>..g..|.>
    bfb4:	bf6816a8 3ed8106b bf686b39 3ed6a399     ..h.k..>9kh....>
    bfc4:	bf68bf3c 3ed53641 bf6912ae 3ed3c867     <.h.A6.>..i.g..>
    bfd4:	bf696591 3ed25a09 bf69b7e4 3ed0eb2a     .ei..Z.>..i.*..>
    bfe4:	bf6a09a7 3ecf7bca bf6a5ad9 3ece0bea     ..j..{.>.Zj....>
    bff4:	bf6aab7b 3ecc9b8b bf6afb8c 3ecb2aae     {.j....>..j..*.>
    c004:	bf6b4b0c 3ec9b953 bf6b99fb 3ec8477c     .Kk.S..>..k.|G.>
    c014:	bf6be858 3ec6d529 bf6c3624 3ec5625c     X.k.)..>$6l.\b.>
    c024:	bf6c835e 3ec3ef15 bf6cd007 3ec27b55     ^.l....>..l.U{.>
    c034:	bf6d1c1d 3ec1071e bf6d67a1 3ebf926f     ..m....>.gm.o..>
    c044:	bf6db293 3ebe1d4a bf6dfcf2 3ebca7af     ..m.J..>..m....>
    c054:	bf6e46be 3ebb31a0 bf6e8ff8 3eb9bb1e     .Fn..1.>..n....>
    c064:	bf6ed89e 3eb8442a bf6f20b0 3eb6ccc3     ..n.*D.>. o....>
    c074:	bf6f6830 3eb554ec bf6faf1b 3eb3dca5     0ho..T.>..o....>
    c084:	bf6ff573 3eb263ef bf703b37 3eb0eacb     s.o..c.>7;p....>
    c094:	bf708066 3eaf713a bf70c502 3eadf73c     f.p.:q.>..p.<..>
    c0a4:	bf710908 3eac7cd4 bf714c7a 3eab0201     ..q..|.>zLq....>
    c0b4:	bf718f57 3ea986c4 bf71d19f 3ea80b1f     W.q....>..q....>
    c0c4:	bf721352 3ea68f12 bf725470 3ea5129f     R.r....>pTr....>
    c0d4:	bf7294f8 3ea395c5 bf72d4eb 3ea21887     ..r....>..r....>
    c0e4:	bf731447 3ea09ae5 bf73530e 3e9f1cdf     G.s....>.Ss....>
    c0f4:	bf73913f 3e9d9e78 bf73ced9 3e9c1faf     ?.s.x..>..s....>
    c104:	bf740bdd 3e9aa086 bf74484b 3e9920fe     ..t....>KHt.. .>
    c114:	bf748422 3e97a117 bf74bf62 3e9620d2     ".t....>b.t.. .>
    c124:	bf74fa0b 3e94a031 bf75341d 3e931f35     ..t.1..>.4u.5..>
    c134:	bf756d97 3e919ddd bf75a67b 3e901c2c     .mu....>{.u.,..>
    c144:	bf75dec6 3e8e9a22 bf76167a 3e8d17c0     ..u."..>z.v....>
    c154:	bf764d97 3e8b9507 bf76841b 3e8a11f8     .Mv....>..v....>
    c164:	bf76ba07 3e888e93 bf76ef5b 3e870ada     ..v....>[.v....>
    c174:	bf772417 3e8586ce bf77583a 3e840270     .$w....>:Xw.p..>
    c184:	bf778bc5 3e827dc0 bf77beb7 3e80f8c0     ..w..}.>..w....>
    c194:	bf77f110 3e7ee6e1 bf7822d1 3e7bdba4     ..w...~>."x...{>
    c1a4:	bf7853f8 3e78cfcc bf788486 3e75c35a     .Sx...x>..x.Z.u>
    c1b4:	bf78b47b 3e72b651 bf78e3d6 3e6fa8b2     {.x.Q.r>..x...o>
    c1c4:	bf791298 3e6c9a7f bf7940c0 3e698bba     ..y...l>.@y...i>
    c1d4:	bf796e4e 3e667c66 bf799b43 3e636c83     Nny.f|f>C.y..lc>
    c1e4:	bf79c79d 3e605c13 bf79f35e 3e5d4b1a     ..y..\`>^.y..K]>
    c1f4:	bf7a1e84 3e5a3997 bf7a4910 3e57278f     ..z..9Z>.Iz..'W>
    c204:	bf7a7302 3e541501 bf7a9c59 3e5101f1     .sz...T>Y.z...Q>
    c214:	bf7ac516 3e4dee60 bf7aed37 3e4ada4f     ..z.`.M>7.z.O.J>
    c224:	bf7b14be 3e47c5c2 bf7b3bab 3e44b0b9     ..{...G>.;{...D>
    c234:	bf7b61fc 3e419b37 bf7b87b2 3e3e853e     .a{.7.A>..{.>.>>
    c244:	bf7baccd 3e3b6ecf bf7bd14d 3e3857ec     ..{..n;>M.{..W8>
    c254:	bf7bf531 3e354098 bf7c187a 3e3228d4     1.{..@5>z.|..(2>
    c264:	bf7c3b28 3e2f10a2 bf7c5d3a 3e2bf804     (;|.../>:]|...+>
    c274:	bf7c7eb0 3e28defc bf7c9f8a 3e25c58c     .~|...(>..|...%>
    c284:	bf7cbfc9 3e22abb6 bf7cdf6c 3e1f917b     ..|...">l.|.{..>
    c294:	bf7cfe73 3e1c76de bf7d1cdd 3e195be0     s.|..v.>..}..[.>
    c2a4:	bf7d3aac 3e164083 bf7d57de 3e1324ca     .:}..@.>.W}..$.>
    c2b4:	bf7d7474 3e1008b7 bf7d906e 3e0cec4a     tt}....>n.}.J..>
    c2c4:	bf7dabcc 3e09cf86 bf7dc68c 3e06b26e     ..}....>..}.n..>
    c2d4:	bf7de0b1 3e039502 bf7dfa38 3e007745     ..}....>8.}.Ew.>
    c2e4:	bf7e1324 3dfab273 bf7e2b72 3df475c0     $.~.s..=r+~..u.=
    c2f4:	bf7e4323 3dee3876 bf7e5a38 3de7fa9a     #C~.v8.=8Z~....=
    c304:	bf7e70b0 3de1bc2e bf7e868b 3ddb7d37     .p~....=..~.7}.=
    c314:	bf7e9bc9 3dd53db9 bf7eb069 3dcefdb7     ..~..=.=i.~....=
    c324:	bf7ec46d 3dc8bd36 bf7ed7d4 3dc27c39     m.~.6..=..~.9|.=
    c334:	bf7eea9d 3dbc3ac3 bf7efcc9 3db5f8da     ..~..:.=..~....=
    c344:	bf7f0e58 3dafb680 bf7f1f49 3da973ba     X......=I....s.=
    c354:	bf7f2f9d 3da3308c bf7f3f54 3d9cecf9     ./...0.=T?.....=
    c364:	bf7f4e6d 3d96a905 bf7f5ce9 3d9064b4     mN.....=.\...d.=
    c374:	bf7f6ac7 3d8a200a bf7f7808 3d83db0a     .j... .=.x.....=
    c384:	bf7f84ab 3d7b2b74 bf7f90b1 3d6ea038     ....t+{=....8.n=
    c394:	bf7f9c18 3d621468 bf7fa6e3 3d55880e     ....h.b=......U=
    c3a4:	bf7fb10f 3d48fb2f bf7fba9e 3d3c6dd5     ..../.H=.....m<=
    c3b4:	bf7fc38f 3d2fe007 bf7fcbe2 3d2351cc     ....../=.....Q#=
    c3c4:	bf7fd398 3d16c32c bf7fdaaf 3d0a342f     ....,..=..../4.=
    c3d4:	bf7fe129 3cfb49b9 bf7fe705 3ce22a7b     )....I.<....{*.<
    c3e4:	bf7fec43 3cc90ab0 bf7ff0e3 3cafea69     C......<....i..<
    c3f4:	bf7ff4e6 3c96c9b6 bf7ff84a 3c7b514b     .......<J...KQ{<
    c404:	bf7ffb11 3c490e90 bf7ffd39 3c16cb59     ......I<9...Y..<
    c414:	bf7ffec4 3bc90f89 bf7fffb1 3b490fc7     .......;......I;
    c424:	bf800000 00000000 bf7fffb1 bb490fc7     ..............I.
    c434:	bf7ffec4 bbc90f89 bf7ffd39 bc16cb59     ........9...Y...
    c444:	bf7ffb11 bc490e90 bf7ff84a bc7b514b     ......I.J...KQ{.
    c454:	bf7ff4e6 bc96c9b6 bf7ff0e3 bcafea69     ............i...
    c464:	bf7fec43 bcc90ab0 bf7fe705 bce22a7b     C...........{*..
    c474:	bf7fe129 bcfb49b9 bf7fdaaf bd0a342f     )....I....../4..
    c484:	bf7fd398 bd16c32c bf7fcbe2 bd2351cc     ....,........Q#.
    c494:	bf7fc38f bd2fe007 bf7fba9e bd3c6dd5     ....../......m<.
    c4a4:	bf7fb10f bd48fb2f bf7fa6e3 bd55880e     ..../.H.......U.
    c4b4:	bf7f9c18 bd621468 bf7f90b1 bd6ea038     ....h.b.....8.n.
    c4c4:	bf7f84ab bd7b2b74 bf7f7808 bd83db0a     ....t+{..x......
    c4d4:	bf7f6ac7 bd8a200a bf7f5ce9 bd9064b4     .j... ...\...d..
    c4e4:	bf7f4e6d bd96a905 bf7f3f54 bd9cecf9     mN......T?......
    c4f4:	bf7f2f9d bda3308c bf7f1f49 bda973ba     ./...0..I....s..
    c504:	bf7f0e58 bdafb680 bf7efcc9 bdb5f8da     X.........~.....
    c514:	bf7eea9d bdbc3ac3 bf7ed7d4 bdc27c39     ..~..:....~.9|..
    c524:	bf7ec46d bdc8bd36 bf7eb069 bdcefdb7     m.~.6...i.~.....
    c534:	bf7e9bc9 bdd53db9 bf7e868b bddb7d37     ..~..=....~.7}..
    c544:	bf7e70b0 bde1bc2e bf7e5a38 bde7fa9a     .p~.....8Z~.....
    c554:	bf7e4323 bdee3876 bf7e2b72 bdf475c0     #C~.v8..r+~..u..
    c564:	bf7e1324 bdfab273 bf7dfa38 be007745     $.~.s...8.}.Ew..
    c574:	bf7de0b1 be039502 bf7dc68c be06b26e     ..}.......}.n...
    c584:	bf7dabcc be09cf86 bf7d906e be0cec4a     ..}.....n.}.J...
    c594:	bf7d7474 be1008b7 bf7d57de be1324ca     tt}......W}..$..
    c5a4:	bf7d3aac be164083 bf7d1cdd be195be0     .:}..@....}..[..
    c5b4:	bf7cfe73 be1c76de bf7cdf6c be1f917b     s.|..v..l.|.{...
    c5c4:	bf7cbfc9 be22abb6 bf7c9f8a be25c58c     ..|..."...|...%.
    c5d4:	bf7c7eb0 be28defc bf7c5d3a be2bf804     .~|...(.:]|...+.
    c5e4:	bf7c3b28 be2f10a2 bf7c187a be3228d4     (;|.../.z.|..(2.
    c5f4:	bf7bf531 be354098 bf7bd14d be3857ec     1.{..@5.M.{..W8.
    c604:	bf7baccd be3b6ecf bf7b87b2 be3e853e     ..{..n;...{.>.>.
    c614:	bf7b61fc be419b37 bf7b3bab be44b0b9     .a{.7.A..;{...D.
    c624:	bf7b14be be47c5c2 bf7aed37 be4ada4f     ..{...G.7.z.O.J.
    c634:	bf7ac516 be4dee60 bf7a9c59 be5101f1     ..z.`.M.Y.z...Q.
    c644:	bf7a7302 be541501 bf7a4910 be57278f     .sz...T..Iz..'W.
    c654:	bf7a1e84 be5a3997 bf79f35e be5d4b1a     ..z..9Z.^.y..K].
    c664:	bf79c79d be605c13 bf799b43 be636c83     ..y..\`.C.y..lc.
    c674:	bf796e4e be667c66 bf7940c0 be698bba     Nny.f|f..@y...i.
    c684:	bf791298 be6c9a7f bf78e3d6 be6fa8b2     ..y...l...x...o.
    c694:	bf78b47b be72b651 bf788486 be75c35a     {.x.Q.r...x.Z.u.
    c6a4:	bf7853f8 be78cfcc bf7822d1 be7bdba4     .Sx...x.."x...{.
    c6b4:	bf77f110 be7ee6e1 bf77beb7 be80f8c0     ..w...~...w.....
    c6c4:	bf778bc5 be827dc0 bf77583a be840270     ..w..}..:Xw.p...
    c6d4:	bf772417 be8586ce bf76ef5b be870ada     .$w.....[.v.....
    c6e4:	bf76ba07 be888e93 bf76841b be8a11f8     ..v.......v.....
    c6f4:	bf764d97 be8b9507 bf76167a be8d17c0     .Mv.....z.v.....
    c704:	bf75dec6 be8e9a22 bf75a67b be901c2c     ..u."...{.u.,...
    c714:	bf756d97 be919ddd bf75341d be931f35     .mu......4u.5...
    c724:	bf74fa0b be94a031 bf74bf62 be9620d2     ..t.1...b.t.. ..
    c734:	bf748422 be97a117 bf74484b be9920fe     ".t.....KHt.. ..
    c744:	bf740bdd be9aa086 bf73ced9 be9c1faf     ..t.......s.....
    c754:	bf73913f be9d9e78 bf73530e be9f1cdf     ?.s.x....Ss.....
    c764:	bf731447 bea09ae5 bf72d4eb bea21887     G.s.......r.....
    c774:	bf7294f8 bea395c5 bf725470 bea5129f     ..r.....pTr.....
    c784:	bf721352 bea68f12 bf71d19f bea80b1f     R.r.......q.....
    c794:	bf718f57 bea986c4 bf714c7a beab0201     W.q.....zLq.....
    c7a4:	bf710908 beac7cd4 bf70c502 beadf73c     ..q..|....p.<...
    c7b4:	bf708066 beaf713a bf703b37 beb0eacb     f.p.:q..7;p.....
    c7c4:	bf6ff573 beb263ef bf6faf1b beb3dca5     s.o..c....o.....
    c7d4:	bf6f6830 beb554ec bf6f20b0 beb6ccc3     0ho..T... o.....
    c7e4:	bf6ed89e beb8442a bf6e8ff8 beb9bb1e     ..n.*D....n.....
    c7f4:	bf6e46be bebb31a0 bf6dfcf2 bebca7af     .Fn..1....m.....
    c804:	bf6db293 bebe1d4a bf6d67a1 bebf926f     ..m.J....gm.o...
    c814:	bf6d1c1d bec1071e bf6cd007 bec27b55     ..m.......l.U{..
    c824:	bf6c835e bec3ef15 bf6c3624 bec5625c     ^.l.....$6l.\b..
    c834:	bf6be858 bec6d529 bf6b99fb bec8477c     X.k.).....k.|G..
    c844:	bf6b4b0c bec9b953 bf6afb8c becb2aae     .Kk.S.....j..*..
    c854:	bf6aab7b becc9b8b bf6a5ad9 bece0bea     {.j......Zj.....
    c864:	bf6a09a7 becf7bca bf69b7e4 bed0eb2a     ..j..{....i.*...
    c874:	bf696591 bed25a09 bf6912ae bed3c867     .ei..Z....i.g...
    c884:	bf68bf3c bed53641 bf686b39 bed6a399     <.h.A6..9kh.....
    c894:	bf6816a8 bed8106b bf67c187 bed97cb9     ..h.k.....g..|..
    c8a4:	bf676bd8 bedae880 bf671599 bedc53c1     .kg.......g..S..
    c8b4:	bf66becc beddbe79 bf666771 bedf28a9     ..f.y...qgf..(..
    c8c4:	bf660f88 bee0924f bf65b710 bee1fb6a     ..f.O.....e.j...
    c8d4:	bf655e0b bee363fa bf650479 bee4cbfe     .^e..c..y.e.....
    c8e4:	bf64aa59 bee63375 bf644fac bee79a5d     Y.d.u3...Od.]...
    c8f4:	bf63f473 bee900b7 bf6398ac beea6681     s.c.......c..f..
    c904:	bf633c5a beebcbbb bf62df7b beed3063     Z<c.....{.b.c0..
    c914:	bf628210 beee9479 bf62241a beeff7fb     ..b.y....$b.....
    c924:	bf61c598 bef15aea bf61668a bef2bd43     ..a..Z...fa.C...
    c934:	bf6106f2 bef41f07 bf60a6cf bef58035     ..a.......`.5...
    c944:	bf604621 bef6e0cb bf5fe4e9 bef840c8     !F`......._..@..
    c954:	bf5f8327 bef9a02d bf5f20db befafef7     '._.-.... _.....
    c964:	bf5ebe05 befc5d27 bf5e5aa6 befdbabb     ..^.']...Z^.....
    c974:	bf5df6be beff17b2 bf5d924d bf003a06     ..].....M.]..:..
    c984:	bf5d2d53 bf00e7e4 bf5cc7d1 bf019573     S-].......\.s...
    c994:	bf5c61c7 bf0242b1 bf5bfb34 bf02ef9f     .a\..B..4.[.....
    c9a4:	bf5b941a bf039c3d bf5b2c79 bf044889     ..[.=...y,[..H..
    c9b4:	bf5ac450 bf04f484 bf5a5ba0 bf05a02c     P.Z......[Z.,...
    c9c4:	bf59f26a bf064b82 bf5988ad bf06f686     j.Y..K....Y.....
    c9d4:	bf591e6a bf07a136 bf58b3a1 bf084b92     j.Y.6.....X..K..
    c9e4:	bf584853 bf08f59b bf57dc7f bf099f4e     SHX.......W.N...
    c9f4:	bf577026 bf0a48ad bf570348 bf0af1b7     &pW..H..H.W.....
    ca04:	bf5695e5 bf0b9a6b bf5627fe bf0c42c9     ..V.k....'V..B..
    ca14:	bf55b993 bf0cead0 bf554aa4 bf0d9281     ..U......JU.....
    ca24:	bf54db31 bf0e39da bf546b3b bf0ee0db     1.T..9..;kT.....
    ca34:	bf53fac3 bf0f8784 bf5389c7 bf102dd5     ..S.......S..-..
    ca44:	bf531849 bf10d3cd bf52a649 bf11796b     I.S.....I.R.ky..
    ca54:	bf5233c6 bf121eb0 bf51c0c2 bf12c39a     .3R.......Q.....
    ca64:	bf514d3d bf13682a bf50d937 bf140c5f     =MQ.*h..7.P._...
    ca74:	bf5064af bf14b039 bf4fefa8 bf1553b7     .dP.9.....O..S..
    ca84:	bf4f7a1f bf15f6d9 bf4f0417 bf16999f     .zO.......O.....
    ca94:	bf4e8d90 bf173c07 bf4e1689 bf17de12     ..N..<....N.....
    caa4:	bf4d9f02 bf187fc0 bf4d26fd bf19210f     ..M......&M..!..
    cab4:	bf4cae79 bf19c200 bf4c3578 bf1a6293     y.L.....x5L..b..
    cac4:	bf4bbbf8 bf1b02c6 bf4b41fa bf1ba299     ..K......AK.....
    cad4:	bf4ac77f bf1c420c bf4a4c87 bf1ce11f     ..J..B...LJ.....
    cae4:	bf49d112 bf1d7fd1 bf495521 bf1e1e22     ..I.....!UI."...
    caf4:	bf48d8b3 bf1ebc12 bf485bca bf1f599f     ..H......[H..Y..
    cb04:	bf47de65 bf1ff6cb bf476085 bf209393     e.G......`G... .
    cb14:	bf46e22a bf212ff9 bf466354 bf21cbfb     *.F../!.TcF...!.
    cb24:	bf45e403 bf226799 bf456439 bf2302d3     ..E..g".9dE...#.
    cb34:	bf44e3f5 bf239da9 bf446337 bf24381a     ..D...#.7cD..8$.
    cb44:	bf43e200 bf24d225 bf436051 bf256bcb     ..C.%.$.Q`C..k%.
    cb54:	bf42de29 bf26050a bf425b89 bf269de3     ).B...&..[B...&.
    cb64:	bf41d870 bf273656 bf4154e1 bf27ce61     p.A.V6'..TA.a.'.
    cb74:	bf40d0da bf286605 bf404c5c bf28fd41     ..@..f(.\L@.A.(.
    cb84:	bf3fc767 bf299415 bf3f41fc bf2a2a80     g.?...)..A?..**.
    cb94:	bf3ebc1b bf2ac082 bf3e35c5 bf2b561b     ..>...*..5>..V+.
    cba4:	bf3daef9 bf2beb4a bf3d27b8 bf2c800f     ..=.J.+..'=...,.
    cbb4:	bf3ca003 bf2d1469 bf3c17d9 bf2da859     ..<.i.-...<.Y.-.
    cbc4:	bf3b8f3b bf2e3bde bf3b0629 bf2ecef7     ;.;..;..).;.....
    cbd4:	bf3a7ca4 bf2f61a5 bf39f2ac bf2ff3e6     .|:..a/...9.../.
    cbe4:	bf396842 bf3085bb bf38dd65 bf311722     Bh9...0.e.8.".1.
    cbf4:	bf385216 bf31a81d bf37c655 bf3238aa     .R8...1.U.7..82.
    cc04:	bf373a23 bf32c8c9 bf36ad7f bf33587a     #:7...2...6.zX3.
    cc14:	bf36206c bf33e7bc bf3592e7 bf34768f     l 6...3...5..v4.
    cc24:	bf3504f3 bf3504f3 bf34768f bf3592e7     ..5...5..v4...5.
    cc34:	bf33e7bc bf36206c bf33587a bf36ad7f     ..3.l 6.zX3...6.
    cc44:	bf32c8c9 bf373a23 bf3238aa bf37c655     ..2.#:7..82.U.7.
    cc54:	bf31a81d bf385216 bf311722 bf38dd65     ..1..R8.".1.e.8.
    cc64:	bf3085bb bf396842 bf2ff3e6 bf39f2ac     ..0.Bh9.../...9.
    cc74:	bf2f61a5 bf3a7ca4 bf2ecef7 bf3b0629     .a/..|:.....).;.
    cc84:	bf2e3bde bf3b8f3b bf2da859 bf3c17d9     .;..;.;.Y.-...<.
    cc94:	bf2d1469 bf3ca003 bf2c800f bf3d27b8     i.-...<...,..'=.
    cca4:	bf2beb4a bf3daef9 bf2b561b bf3e35c5     J.+...=..V+..5>.
    ccb4:	bf2ac082 bf3ebc1b bf2a2a80 bf3f41fc     ..*...>..**..A?.
    ccc4:	bf299415 bf3fc767 bf28fd41 bf404c5c     ..).g.?.A.(.\L@.
    ccd4:	bf286605 bf40d0da bf27ce61 bf4154e1     .f(...@.a.'..TA.
    cce4:	bf273656 bf41d870 bf269de3 bf425b89     V6'.p.A...&..[B.
    ccf4:	bf26050a bf42de29 bf256bcb bf436051     ..&.).B..k%.Q`C.
    cd04:	bf24d225 bf43e200 bf24381a bf446337     %.$...C..8$.7cD.
    cd14:	bf239da9 bf44e3f5 bf2302d3 bf456439     ..#...D...#.9dE.
    cd24:	bf226799 bf45e403 bf21cbfb bf466354     .g"...E...!.TcF.
    cd34:	bf212ff9 bf46e22a bf209393 bf476085     ./!.*.F... ..`G.
    cd44:	bf1ff6cb bf47de65 bf1f599f bf485bca     ....e.G..Y...[H.
    cd54:	bf1ebc12 bf48d8b3 bf1e1e22 bf495521     ......H."...!UI.
    cd64:	bf1d7fd1 bf49d112 bf1ce11f bf4a4c87     ......I......LJ.
    cd74:	bf1c420c bf4ac77f bf1ba299 bf4b41fa     .B....J......AK.
    cd84:	bf1b02c6 bf4bbbf8 bf1a6293 bf4c3578     ......K..b..x5L.
    cd94:	bf19c200 bf4cae79 bf19210f bf4d26fd     ....y.L..!...&M.
    cda4:	bf187fc0 bf4d9f02 bf17de12 bf4e1689     ......M.......N.
    cdb4:	bf173c07 bf4e8d90 bf16999f bf4f0417     .<....N.......O.
    cdc4:	bf15f6d9 bf4f7a1f bf1553b7 bf4fefa8     .....zO..S....O.
    cdd4:	bf14b039 bf5064af bf140c5f bf50d937     9....dP._...7.P.
    cde4:	bf13682a bf514d3d bf12c39a bf51c0c2     *h..=MQ.......Q.
    cdf4:	bf121eb0 bf5233c6 bf11796b bf52a649     .....3R.ky..I.R.
    ce04:	bf10d3cd bf531849 bf102dd5 bf5389c7     ....I.S..-....S.
    ce14:	bf0f8784 bf53fac3 bf0ee0db bf546b3b     ......S.....;kT.
    ce24:	bf0e39da bf54db31 bf0d9281 bf554aa4     .9..1.T......JU.
    ce34:	bf0cead0 bf55b993 bf0c42c9 bf5627fe     ......U..B...'V.
    ce44:	bf0b9a6b bf5695e5 bf0af1b7 bf570348     k.....V.....H.W.
    ce54:	bf0a48ad bf577026 bf099f4e bf57dc7f     .H..&pW.N.....W.
    ce64:	bf08f59b bf584853 bf084b92 bf58b3a1     ....SHX..K....X.
    ce74:	bf07a136 bf591e6a bf06f686 bf5988ad     6...j.Y.......Y.
    ce84:	bf064b82 bf59f26a bf05a02c bf5a5ba0     .K..j.Y.,....[Z.
    ce94:	bf04f484 bf5ac450 bf044889 bf5b2c79     ....P.Z..H..y,[.
    cea4:	bf039c3d bf5b941a bf02ef9f bf5bfb34     =.....[.....4.[.
    ceb4:	bf0242b1 bf5c61c7 bf019573 bf5cc7d1     .B...a\.s.....\.
    cec4:	bf00e7e4 bf5d2d53 bf003a06 bf5d924d     ....S-]..:..M.].
    ced4:	beff17b2 bf5df6be befdbabb bf5e5aa6     ......]......Z^.
    cee4:	befc5d27 bf5ebe05 befafef7 bf5f20db     ']....^...... _.
    cef4:	bef9a02d bf5f8327 bef840c8 bf5fe4e9     -...'._..@...._.
    cf04:	bef6e0cb bf604621 bef58035 bf60a6cf     ....!F`.5.....`.
    cf14:	bef41f07 bf6106f2 bef2bd43 bf61668a     ......a.C....fa.
    cf24:	bef15aea bf61c598 beeff7fb bf62241a     .Z....a......$b.
    cf34:	beee9479 bf628210 beed3063 bf62df7b     y.....b.c0..{.b.
    cf44:	beebcbbb bf633c5a beea6681 bf6398ac     ....Z<c..f....c.
    cf54:	bee900b7 bf63f473 bee79a5d bf644fac     ....s.c.]....Od.
    cf64:	bee63375 bf64aa59 bee4cbfe bf650479     u3..Y.d.....y.e.
    cf74:	bee363fa bf655e0b bee1fb6a bf65b710     .c...^e.j.....e.
    cf84:	bee0924f bf660f88 bedf28a9 bf666771     O.....f..(..qgf.
    cf94:	beddbe79 bf66becc bedc53c1 bf671599     y.....f..S....g.
    cfa4:	bedae880 bf676bd8 bed97cb9 bf67c187     .....kg..|....g.
    cfb4:	bed8106b bf6816a8 bed6a399 bf686b39     k.....h.....9kh.
    cfc4:	bed53641 bf68bf3c bed3c867 bf6912ae     A6..<.h.g.....i.
    cfd4:	bed25a09 bf696591 bed0eb2a bf69b7e4     .Z...ei.*.....i.
    cfe4:	becf7bca bf6a09a7 bece0bea bf6a5ad9     .{....j......Zj.
    cff4:	becc9b8b bf6aab7b becb2aae bf6afb8c     ....{.j..*....j.
    d004:	bec9b953 bf6b4b0c bec8477c bf6b99fb     S....Kk.|G....k.
    d014:	bec6d529 bf6be858 bec5625c bf6c3624     )...X.k.\b..$6l.
    d024:	bec3ef15 bf6c835e bec27b55 bf6cd007     ....^.l.U{....l.
    d034:	bec1071e bf6d1c1d bebf926f bf6d67a1     ......m.o....gm.
    d044:	bebe1d4a bf6db293 bebca7af bf6dfcf2     J.....m.......m.
    d054:	bebb31a0 bf6e46be beb9bb1e bf6e8ff8     .1...Fn.......n.
    d064:	beb8442a bf6ed89e beb6ccc3 bf6f20b0     *D....n...... o.
    d074:	beb554ec bf6f6830 beb3dca5 bf6faf1b     .T..0ho.......o.
    d084:	beb263ef bf6ff573 beb0eacb bf703b37     .c..s.o.....7;p.
    d094:	beaf713a bf708066 beadf73c bf70c502     :q..f.p.<.....p.
    d0a4:	beac7cd4 bf710908 beab0201 bf714c7a     .|....q.....zLq.
    d0b4:	bea986c4 bf718f57 bea80b1f bf71d19f     ....W.q.......q.
    d0c4:	bea68f12 bf721352 bea5129f bf725470     ....R.r.....pTr.
    d0d4:	bea395c5 bf7294f8 bea21887 bf72d4eb     ......r.......r.
    d0e4:	bea09ae5 bf731447 be9f1cdf bf73530e     ....G.s......Ss.
    d0f4:	be9d9e78 bf73913f be9c1faf bf73ced9     x...?.s.......s.
    d104:	be9aa086 bf740bdd be9920fe bf74484b     ......t.. ..KHt.
    d114:	be97a117 bf748422 be9620d2 bf74bf62     ....".t.. ..b.t.
    d124:	be94a031 bf74fa0b be931f35 bf75341d     1.....t.5....4u.
    d134:	be919ddd bf756d97 be901c2c bf75a67b     .....mu.,...{.u.
    d144:	be8e9a22 bf75dec6 be8d17c0 bf76167a     ".....u.....z.v.
    d154:	be8b9507 bf764d97 be8a11f8 bf76841b     .....Mv.......v.
    d164:	be888e93 bf76ba07 be870ada bf76ef5b     ......v.....[.v.
    d174:	be8586ce bf772417 be840270 bf77583a     .....$w.p...:Xw.
    d184:	be827dc0 bf778bc5 be80f8c0 bf77beb7     .}....w.......w.
    d194:	be7ee6e1 bf77f110 be7bdba4 bf7822d1     ..~...w...{.."x.
    d1a4:	be78cfcc bf7853f8 be75c35a bf788486     ..x..Sx.Z.u...x.
    d1b4:	be72b651 bf78b47b be6fa8b2 bf78e3d6     Q.r.{.x...o...x.
    d1c4:	be6c9a7f bf791298 be698bba bf7940c0     ..l...y...i..@y.
    d1d4:	be667c66 bf796e4e be636c83 bf799b43     f|f.Nny..lc.C.y.
    d1e4:	be605c13 bf79c79d be5d4b1a bf79f35e     .\`...y..K].^.y.
    d1f4:	be5a3997 bf7a1e84 be57278f bf7a4910     .9Z...z..'W..Iz.
    d204:	be541501 bf7a7302 be5101f1 bf7a9c59     ..T..sz...Q.Y.z.
    d214:	be4dee60 bf7ac516 be4ada4f bf7aed37     `.M...z.O.J.7.z.
    d224:	be47c5c2 bf7b14be be44b0b9 bf7b3bab     ..G...{...D..;{.
    d234:	be419b37 bf7b61fc be3e853e bf7b87b2     7.A..a{.>.>...{.
    d244:	be3b6ecf bf7baccd be3857ec bf7bd14d     .n;...{..W8.M.{.
    d254:	be354098 bf7bf531 be3228d4 bf7c187a     .@5.1.{..(2.z.|.
    d264:	be2f10a2 bf7c3b28 be2bf804 bf7c5d3a     ../.(;|...+.:]|.
    d274:	be28defc bf7c7eb0 be25c58c bf7c9f8a     ..(..~|...%...|.
    d284:	be22abb6 bf7cbfc9 be1f917b bf7cdf6c     .."...|.{...l.|.
    d294:	be1c76de bf7cfe73 be195be0 bf7d1cdd     .v..s.|..[....}.
    d2a4:	be164083 bf7d3aac be1324ca bf7d57de     .@...:}..$...W}.
    d2b4:	be1008b7 bf7d7474 be0cec4a bf7d906e     ....tt}.J...n.}.
    d2c4:	be09cf86 bf7dabcc be06b26e bf7dc68c     ......}.n.....}.
    d2d4:	be039502 bf7de0b1 be007745 bf7dfa38     ......}.Ew..8.}.
    d2e4:	bdfab273 bf7e1324 bdf475c0 bf7e2b72     s...$.~..u..r+~.
    d2f4:	bdee3876 bf7e4323 bde7fa9a bf7e5a38     v8..#C~.....8Z~.
    d304:	bde1bc2e bf7e70b0 bddb7d37 bf7e868b     .....p~.7}....~.
    d314:	bdd53db9 bf7e9bc9 bdcefdb7 bf7eb069     .=....~.....i.~.
    d324:	bdc8bd36 bf7ec46d bdc27c39 bf7ed7d4     6...m.~.9|....~.
    d334:	bdbc3ac3 bf7eea9d bdb5f8da bf7efcc9     .:....~.......~.
    d344:	bdafb680 bf7f0e58 bda973ba bf7f1f49     ....X....s..I...
    d354:	bda3308c bf7f2f9d bd9cecf9 bf7f3f54     .0.../......T?..
    d364:	bd96a905 bf7f4e6d bd9064b4 bf7f5ce9     ....mN...d...\..
    d374:	bd8a200a bf7f6ac7 bd83db0a bf7f7808     . ...j.......x..
    d384:	bd7b2b74 bf7f84ab bd6ea038 bf7f90b1     t+{.....8.n.....
    d394:	bd621468 bf7f9c18 bd55880e bf7fa6e3     h.b.......U.....
    d3a4:	bd48fb2f bf7fb10f bd3c6dd5 bf7fba9e     /.H......m<.....
    d3b4:	bd2fe007 bf7fc38f bd2351cc bf7fcbe2     ../......Q#.....
    d3c4:	bd16c32c bf7fd398 bd0a342f bf7fdaaf     ,......./4......
    d3d4:	bcfb49b9 bf7fe129 bce22a7b bf7fe705     .I..)...{*......
    d3e4:	bcc90ab0 bf7fec43 bcafea69 bf7ff0e3     ....C...i.......
    d3f4:	bc96c9b6 bf7ff4e6 bc7b514b bf7ff84a     ........KQ{.J...
    d404:	bc490e90 bf7ffb11 bc16cb59 bf7ffd39     ..I.....Y...9...
    d414:	bbc90f89 bf7ffec4 bb490fc7 bf7fffb1     ..........I.....
    d424:	80000000 bf800000 3b490fc7 bf7fffb1     ..........I;....
    d434:	3bc90f89 bf7ffec4 3c16cb59 bf7ffd39     ...;....Y..<9...
    d444:	3c490e90 bf7ffb11 3c7b514b bf7ff84a     ..I<....KQ{<J...
    d454:	3c96c9b6 bf7ff4e6 3cafea69 bf7ff0e3     ...<....i..<....
    d464:	3cc90ab0 bf7fec43 3ce22a7b bf7fe705     ...<C...{*.<....
    d474:	3cfb49b9 bf7fe129 3d0a342f bf7fdaaf     .I.<).../4.=....
    d484:	3d16c32c bf7fd398 3d2351cc bf7fcbe2     ,..=.....Q#=....
    d494:	3d2fe007 bf7fc38f 3d3c6dd5 bf7fba9e     ../=.....m<=....
    d4a4:	3d48fb2f bf7fb10f 3d55880e bf7fa6e3     /.H=......U=....
    d4b4:	3d621468 bf7f9c18 3d6ea038 bf7f90b1     h.b=....8.n=....
    d4c4:	3d7b2b74 bf7f84ab 3d83db0a bf7f7808     t+{=.......=.x..
    d4d4:	3d8a200a bf7f6ac7 3d9064b4 bf7f5ce9     . .=.j...d.=.\..
    d4e4:	3d96a905 bf7f4e6d 3d9cecf9 bf7f3f54     ...=mN.....=T?..
    d4f4:	3da3308c bf7f2f9d 3da973ba bf7f1f49     .0.=./...s.=I...
    d504:	3dafb680 bf7f0e58 3db5f8da bf7efcc9     ...=X......=..~.
    d514:	3dbc3ac3 bf7eea9d 3dc27c39 bf7ed7d4     .:.=..~.9|.=..~.
    d524:	3dc8bd36 bf7ec46d 3dcefdb7 bf7eb069     6..=m.~....=i.~.
    d534:	3dd53db9 bf7e9bc9 3ddb7d37 bf7e868b     .=.=..~.7}.=..~.
    d544:	3de1bc2e bf7e70b0 3de7fa9a bf7e5a38     ...=.p~....=8Z~.
    d554:	3dee3876 bf7e4323 3df475c0 bf7e2b72     v8.=#C~..u.=r+~.
    d564:	3dfab273 bf7e1324 3e007745 bf7dfa38     s..=$.~.Ew.>8.}.
    d574:	3e039502 bf7de0b1 3e06b26e bf7dc68c     ...>..}.n..>..}.
    d584:	3e09cf86 bf7dabcc 3e0cec4a bf7d906e     ...>..}.J..>n.}.
    d594:	3e1008b7 bf7d7474 3e1324ca bf7d57de     ...>tt}..$.>.W}.
    d5a4:	3e164083 bf7d3aac 3e195be0 bf7d1cdd     .@.>.:}..[.>..}.
    d5b4:	3e1c76de bf7cfe73 3e1f917b bf7cdf6c     .v.>s.|.{..>l.|.
    d5c4:	3e22abb6 bf7cbfc9 3e25c58c bf7c9f8a     ..">..|...%>..|.
    d5d4:	3e28defc bf7c7eb0 3e2bf804 bf7c5d3a     ..(>.~|...+>:]|.
    d5e4:	3e2f10a2 bf7c3b28 3e3228d4 bf7c187a     ../>(;|..(2>z.|.
    d5f4:	3e354098 bf7bf531 3e3857ec bf7bd14d     .@5>1.{..W8>M.{.
    d604:	3e3b6ecf bf7baccd 3e3e853e bf7b87b2     .n;>..{.>.>>..{.
    d614:	3e419b37 bf7b61fc 3e44b0b9 bf7b3bab     7.A>.a{...D>.;{.
    d624:	3e47c5c2 bf7b14be 3e4ada4f bf7aed37     ..G>..{.O.J>7.z.
    d634:	3e4dee60 bf7ac516 3e5101f1 bf7a9c59     `.M>..z...Q>Y.z.
    d644:	3e541501 bf7a7302 3e57278f bf7a4910     ..T>.sz..'W>.Iz.
    d654:	3e5a3997 bf7a1e84 3e5d4b1a bf79f35e     .9Z>..z..K]>^.y.
    d664:	3e605c13 bf79c79d 3e636c83 bf799b43     .\`>..y..lc>C.y.
    d674:	3e667c66 bf796e4e 3e698bba bf7940c0     f|f>Nny...i>.@y.
    d684:	3e6c9a7f bf791298 3e6fa8b2 bf78e3d6     ..l>..y...o>..x.
    d694:	3e72b651 bf78b47b 3e75c35a bf788486     Q.r>{.x.Z.u>..x.
    d6a4:	3e78cfcc bf7853f8 3e7bdba4 bf7822d1     ..x>.Sx...{>."x.
    d6b4:	3e7ee6e1 bf77f110 3e80f8c0 bf77beb7     ..~>..w....>..w.
    d6c4:	3e827dc0 bf778bc5 3e840270 bf77583a     .}.>..w.p..>:Xw.
    d6d4:	3e8586ce bf772417 3e870ada bf76ef5b     ...>.$w....>[.v.
    d6e4:	3e888e93 bf76ba07 3e8a11f8 bf76841b     ...>..v....>..v.
    d6f4:	3e8b9507 bf764d97 3e8d17c0 bf76167a     ...>.Mv....>z.v.
    d704:	3e8e9a22 bf75dec6 3e901c2c bf75a67b     "..>..u.,..>{.u.
    d714:	3e919ddd bf756d97 3e931f35 bf75341d     ...>.mu.5..>.4u.
    d724:	3e94a031 bf74fa0b 3e9620d2 bf74bf62     1..>..t.. .>b.t.
    d734:	3e97a117 bf748422 3e9920fe bf74484b     ...>".t.. .>KHt.
    d744:	3e9aa086 bf740bdd 3e9c1faf bf73ced9     ...>..t....>..s.
    d754:	3e9d9e78 bf73913f 3e9f1cdf bf73530e     x..>?.s....>.Ss.
    d764:	3ea09ae5 bf731447 3ea21887 bf72d4eb     ...>G.s....>..r.
    d774:	3ea395c5 bf7294f8 3ea5129f bf725470     ...>..r....>pTr.
    d784:	3ea68f12 bf721352 3ea80b1f bf71d19f     ...>R.r....>..q.
    d794:	3ea986c4 bf718f57 3eab0201 bf714c7a     ...>W.q....>zLq.
    d7a4:	3eac7cd4 bf710908 3eadf73c bf70c502     .|.>..q.<..>..p.
    d7b4:	3eaf713a bf708066 3eb0eacb bf703b37     :q.>f.p....>7;p.
    d7c4:	3eb263ef bf6ff573 3eb3dca5 bf6faf1b     .c.>s.o....>..o.
    d7d4:	3eb554ec bf6f6830 3eb6ccc3 bf6f20b0     .T.>0ho....>. o.
    d7e4:	3eb8442a bf6ed89e 3eb9bb1e bf6e8ff8     *D.>..n....>..n.
    d7f4:	3ebb31a0 bf6e46be 3ebca7af bf6dfcf2     .1.>.Fn....>..m.
    d804:	3ebe1d4a bf6db293 3ebf926f bf6d67a1     J..>..m.o..>.gm.
    d814:	3ec1071e bf6d1c1d 3ec27b55 bf6cd007     ...>..m.U{.>..l.
    d824:	3ec3ef15 bf6c835e 3ec5625c bf6c3624     ...>^.l.\b.>$6l.
    d834:	3ec6d529 bf6be858 3ec8477c bf6b99fb     )..>X.k.|G.>..k.
    d844:	3ec9b953 bf6b4b0c 3ecb2aae bf6afb8c     S..>.Kk..*.>..j.
    d854:	3ecc9b8b bf6aab7b 3ece0bea bf6a5ad9     ...>{.j....>.Zj.
    d864:	3ecf7bca bf6a09a7 3ed0eb2a bf69b7e4     .{.>..j.*..>..i.
    d874:	3ed25a09 bf696591 3ed3c867 bf6912ae     .Z.>.ei.g..>..i.
    d884:	3ed53641 bf68bf3c 3ed6a399 bf686b39     A6.><.h....>9kh.
    d894:	3ed8106b bf6816a8 3ed97cb9 bf67c187     k..>..h..|.>..g.
    d8a4:	3edae880 bf676bd8 3edc53c1 bf671599     ...>.kg..S.>..g.
    d8b4:	3eddbe79 bf66becc 3edf28a9 bf666771     y..>..f..(.>qgf.
    d8c4:	3ee0924f bf660f88 3ee1fb6a bf65b710     O..>..f.j..>..e.
    d8d4:	3ee363fa bf655e0b 3ee4cbfe bf650479     .c.>.^e....>y.e.
    d8e4:	3ee63375 bf64aa59 3ee79a5d bf644fac     u3.>Y.d.]..>.Od.
    d8f4:	3ee900b7 bf63f473 3eea6681 bf6398ac     ...>s.c..f.>..c.
    d904:	3eebcbbb bf633c5a 3eed3063 bf62df7b     ...>Z<c.c0.>{.b.
    d914:	3eee9479 bf628210 3eeff7fb bf62241a     y..>..b....>.$b.
    d924:	3ef15aea bf61c598 3ef2bd43 bf61668a     .Z.>..a.C..>.fa.
    d934:	3ef41f07 bf6106f2 3ef58035 bf60a6cf     ...>..a.5..>..`.
    d944:	3ef6e0cb bf604621 3ef840c8 bf5fe4e9     ...>!F`..@.>.._.
    d954:	3ef9a02d bf5f8327 3efafef7 bf5f20db     -..>'._....>. _.
    d964:	3efc5d27 bf5ebe05 3efdbabb bf5e5aa6     '].>..^....>.Z^.
    d974:	3eff17b2 bf5df6be 3f003a06 bf5d924d     ...>..]..:.?M.].
    d984:	3f00e7e4 bf5d2d53 3f019573 bf5cc7d1     ...?S-].s..?..\.
    d994:	3f0242b1 bf5c61c7 3f02ef9f bf5bfb34     .B.?.a\....?4.[.
    d9a4:	3f039c3d bf5b941a 3f044889 bf5b2c79     =..?..[..H.?y,[.
    d9b4:	3f04f484 bf5ac450 3f05a02c bf5a5ba0     ...?P.Z.,..?.[Z.
    d9c4:	3f064b82 bf59f26a 3f06f686 bf5988ad     .K.?j.Y....?..Y.
    d9d4:	3f07a136 bf591e6a 3f084b92 bf58b3a1     6..?j.Y..K.?..X.
    d9e4:	3f08f59b bf584853 3f099f4e bf57dc7f     ...?SHX.N..?..W.
    d9f4:	3f0a48ad bf577026 3f0af1b7 bf570348     .H.?&pW....?H.W.
    da04:	3f0b9a6b bf5695e5 3f0c42c9 bf5627fe     k..?..V..B.?.'V.
    da14:	3f0cead0 bf55b993 3f0d9281 bf554aa4     ...?..U....?.JU.
    da24:	3f0e39da bf54db31 3f0ee0db bf546b3b     .9.?1.T....?;kT.
    da34:	3f0f8784 bf53fac3 3f102dd5 bf5389c7     ...?..S..-.?..S.
    da44:	3f10d3cd bf531849 3f11796b bf52a649     ...?I.S.ky.?I.R.
    da54:	3f121eb0 bf5233c6 3f12c39a bf51c0c2     ...?.3R....?..Q.
    da64:	3f13682a bf514d3d 3f140c5f bf50d937     *h.?=MQ._..?7.P.
    da74:	3f14b039 bf5064af 3f1553b7 bf4fefa8     9..?.dP..S.?..O.
    da84:	3f15f6d9 bf4f7a1f 3f16999f bf4f0417     ...?.zO....?..O.
    da94:	3f173c07 bf4e8d90 3f17de12 bf4e1689     .<.?..N....?..N.
    daa4:	3f187fc0 bf4d9f02 3f19210f bf4d26fd     ...?..M..!.?.&M.
    dab4:	3f19c200 bf4cae79 3f1a6293 bf4c3578     ...?y.L..b.?x5L.
    dac4:	3f1b02c6 bf4bbbf8 3f1ba299 bf4b41fa     ...?..K....?.AK.
    dad4:	3f1c420c bf4ac77f 3f1ce11f bf4a4c87     .B.?..J....?.LJ.
    dae4:	3f1d7fd1 bf49d112 3f1e1e22 bf495521     ...?..I."..?!UI.
    daf4:	3f1ebc12 bf48d8b3 3f1f599f bf485bca     ...?..H..Y.?.[H.
    db04:	3f1ff6cb bf47de65 3f209393 bf476085     ...?e.G... ?.`G.
    db14:	3f212ff9 bf46e22a 3f21cbfb bf466354     ./!?*.F...!?TcF.
    db24:	3f226799 bf45e403 3f2302d3 bf456439     .g"?..E...#?9dE.
    db34:	3f239da9 bf44e3f5 3f24381a bf446337     ..#?..D..8$?7cD.
    db44:	3f24d225 bf43e200 3f256bcb bf436051     %.$?..C..k%?Q`C.
    db54:	3f26050a bf42de29 3f269de3 bf425b89     ..&?).B...&?.[B.
    db64:	3f273656 bf41d870 3f27ce61 bf4154e1     V6'?p.A.a.'?.TA.
    db74:	3f286605 bf40d0da 3f28fd41 bf404c5c     .f(?..@.A.(?\L@.
    db84:	3f299415 bf3fc767 3f2a2a80 bf3f41fc     ..)?g.?..**?.A?.
    db94:	3f2ac082 bf3ebc1b 3f2b561b bf3e35c5     ..*?..>..V+?.5>.
    dba4:	3f2beb4a bf3daef9 3f2c800f bf3d27b8     J.+?..=...,?.'=.
    dbb4:	3f2d1469 bf3ca003 3f2da859 bf3c17d9     i.-?..<.Y.-?..<.
    dbc4:	3f2e3bde bf3b8f3b 3f2ecef7 bf3b0629     .;.?;.;....?).;.
    dbd4:	3f2f61a5 bf3a7ca4 3f2ff3e6 bf39f2ac     .a/?.|:.../?..9.
    dbe4:	3f3085bb bf396842 3f311722 bf38dd65     ..0?Bh9.".1?e.8.
    dbf4:	3f31a81d bf385216 3f3238aa bf37c655     ..1?.R8..82?U.7.
    dc04:	3f32c8c9 bf373a23 3f33587a bf36ad7f     ..2?#:7.zX3?..6.
    dc14:	3f33e7bc bf36206c 3f34768f bf3592e7     ..3?l 6..v4?..5.
    dc24:	3f3504f3 bf3504f3 3f3592e7 bf34768f     ..5?..5...5?.v4.
    dc34:	3f36206c bf33e7bc 3f36ad7f bf33587a     l 6?..3...6?zX3.
    dc44:	3f373a23 bf32c8c9 3f37c655 bf3238aa     #:7?..2.U.7?.82.
    dc54:	3f385216 bf31a81d 3f38dd65 bf311722     .R8?..1.e.8?".1.
    dc64:	3f396842 bf3085bb 3f39f2ac bf2ff3e6     Bh9?..0...9?../.
    dc74:	3f3a7ca4 bf2f61a5 3f3b0629 bf2ecef7     .|:?.a/.).;?....
    dc84:	3f3b8f3b bf2e3bde 3f3c17d9 bf2da859     ;.;?.;....<?Y.-.
    dc94:	3f3ca003 bf2d1469 3f3d27b8 bf2c800f     ..<?i.-..'=?..,.
    dca4:	3f3daef9 bf2beb4a 3f3e35c5 bf2b561b     ..=?J.+..5>?.V+.
    dcb4:	3f3ebc1b bf2ac082 3f3f41fc bf2a2a80     ..>?..*..A??.**.
    dcc4:	3f3fc767 bf299415 3f404c5c bf28fd41     g.??..).\L@?A.(.
    dcd4:	3f40d0da bf286605 3f4154e1 bf27ce61     ..@?.f(..TA?a.'.
    dce4:	3f41d870 bf273656 3f425b89 bf269de3     p.A?V6'..[B?..&.
    dcf4:	3f42de29 bf26050a 3f436051 bf256bcb     ).B?..&.Q`C?.k%.
    dd04:	3f43e200 bf24d225 3f446337 bf24381a     ..C?%.$.7cD?.8$.
    dd14:	3f44e3f5 bf239da9 3f456439 bf2302d3     ..D?..#.9dE?..#.
    dd24:	3f45e403 bf226799 3f466354 bf21cbfb     ..E?.g".TcF?..!.
    dd34:	3f46e22a bf212ff9 3f476085 bf209393     *.F?./!..`G?.. .
    dd44:	3f47de65 bf1ff6cb 3f485bca bf1f599f     e.G?.....[H?.Y..
    dd54:	3f48d8b3 bf1ebc12 3f495521 bf1e1e22     ..H?....!UI?"...
    dd64:	3f49d112 bf1d7fd1 3f4a4c87 bf1ce11f     ..I?.....LJ?....
    dd74:	3f4ac77f bf1c420c 3f4b41fa bf1ba299     ..J?.B...AK?....
    dd84:	3f4bbbf8 bf1b02c6 3f4c3578 bf1a6293     ..K?....x5L?.b..
    dd94:	3f4cae79 bf19c200 3f4d26fd bf19210f     y.L?.....&M?.!..
    dda4:	3f4d9f02 bf187fc0 3f4e1689 bf17de12     ..M?......N?....
    ddb4:	3f4e8d90 bf173c07 3f4f0417 bf16999f     ..N?.<....O?....
    ddc4:	3f4f7a1f bf15f6d9 3f4fefa8 bf1553b7     .zO?......O?.S..
    ddd4:	3f5064af bf14b039 3f50d937 bf140c5f     .dP?9...7.P?_...
    dde4:	3f514d3d bf13682a 3f51c0c2 bf12c39a     =MQ?*h....Q?....
    ddf4:	3f5233c6 bf121eb0 3f52a649 bf11796b     .3R?....I.R?ky..
    de04:	3f531849 bf10d3cd 3f5389c7 bf102dd5     I.S?......S?.-..
    de14:	3f53fac3 bf0f8784 3f546b3b bf0ee0db     ..S?....;kT?....
    de24:	3f54db31 bf0e39da 3f554aa4 bf0d9281     1.T?.9...JU?....
    de34:	3f55b993 bf0cead0 3f5627fe bf0c42c9     ..U?.....'V?.B..
    de44:	3f5695e5 bf0b9a6b 3f570348 bf0af1b7     ..V?k...H.W?....
    de54:	3f577026 bf0a48ad 3f57dc7f bf099f4e     &pW?.H....W?N...
    de64:	3f584853 bf08f59b 3f58b3a1 bf084b92     SHX?......X?.K..
    de74:	3f591e6a bf07a136 3f5988ad bf06f686     j.Y?6.....Y?....
    de84:	3f59f26a bf064b82 3f5a5ba0 bf05a02c     j.Y?.K...[Z?,...
    de94:	3f5ac450 bf04f484 3f5b2c79 bf044889     P.Z?....y,[?.H..
    dea4:	3f5b941a bf039c3d 3f5bfb34 bf02ef9f     ..[?=...4.[?....
    deb4:	3f5c61c7 bf0242b1 3f5cc7d1 bf019573     .a\?.B....\?s...
    dec4:	3f5d2d53 bf00e7e4 3f5d924d bf003a06     S-]?....M.]?.:..
    ded4:	3f5df6be beff17b2 3f5e5aa6 befdbabb     ..]?.....Z^?....
    dee4:	3f5ebe05 befc5d27 3f5f20db befafef7     ..^?']... _?....
    def4:	3f5f8327 bef9a02d 3f5fe4e9 bef840c8     '._?-....._?.@..
    df04:	3f604621 bef6e0cb 3f60a6cf bef58035     !F`?......`?5...
    df14:	3f6106f2 bef41f07 3f61668a bef2bd43     ..a?.....fa?C...
    df24:	3f61c598 bef15aea 3f62241a beeff7fb     ..a?.Z...$b?....
    df34:	3f628210 beee9479 3f62df7b beed3063     ..b?y...{.b?c0..
    df44:	3f633c5a beebcbbb 3f6398ac beea6681     Z<c?......c?.f..
    df54:	3f63f473 bee900b7 3f644fac bee79a5d     s.c?.....Od?]...
    df64:	3f64aa59 bee63375 3f650479 bee4cbfe     Y.d?u3..y.e?....
    df74:	3f655e0b bee363fa 3f65b710 bee1fb6a     .^e?.c....e?j...
    df84:	3f660f88 bee0924f 3f666771 bedf28a9     ..f?O...qgf?.(..
    df94:	3f66becc beddbe79 3f671599 bedc53c1     ..f?y.....g?.S..
    dfa4:	3f676bd8 bedae880 3f67c187 bed97cb9     .kg?......g?.|..
    dfb4:	3f6816a8 bed8106b 3f686b39 bed6a399     ..h?k...9kh?....
    dfc4:	3f68bf3c bed53641 3f6912ae bed3c867     <.h?A6....i?g...
    dfd4:	3f696591 bed25a09 3f69b7e4 bed0eb2a     .ei?.Z....i?*...
    dfe4:	3f6a09a7 becf7bca 3f6a5ad9 bece0bea     ..j?.{...Zj?....
    dff4:	3f6aab7b becc9b8b 3f6afb8c becb2aae     {.j?......j?.*..
    e004:	3f6b4b0c bec9b953 3f6b99fb bec8477c     .Kk?S.....k?|G..
    e014:	3f6be858 bec6d529 3f6c3624 bec5625c     X.k?)...$6l?\b..
    e024:	3f6c835e bec3ef15 3f6cd007 bec27b55     ^.l?......l?U{..
    e034:	3f6d1c1d bec1071e 3f6d67a1 bebf926f     ..m?.....gm?o...
    e044:	3f6db293 bebe1d4a 3f6dfcf2 bebca7af     ..m?J.....m?....
    e054:	3f6e46be bebb31a0 3f6e8ff8 beb9bb1e     .Fn?.1....n?....
    e064:	3f6ed89e beb8442a 3f6f20b0 beb6ccc3     ..n?*D... o?....
    e074:	3f6f6830 beb554ec 3f6faf1b beb3dca5     0ho?.T....o?....
    e084:	3f6ff573 beb263ef 3f703b37 beb0eacb     s.o?.c..7;p?....
    e094:	3f708066 beaf713a 3f70c502 beadf73c     f.p?:q....p?<...
    e0a4:	3f710908 beac7cd4 3f714c7a beab0201     ..q?.|..zLq?....
    e0b4:	3f718f57 bea986c4 3f71d19f bea80b1f     W.q?......q?....
    e0c4:	3f721352 bea68f12 3f725470 bea5129f     R.r?....pTr?....
    e0d4:	3f7294f8 bea395c5 3f72d4eb bea21887     ..r?......r?....
    e0e4:	3f731447 bea09ae5 3f73530e be9f1cdf     G.s?.....Ss?....
    e0f4:	3f73913f be9d9e78 3f73ced9 be9c1faf     ?.s?x.....s?....
    e104:	3f740bdd be9aa086 3f74484b be9920fe     ..t?....KHt?. ..
    e114:	3f748422 be97a117 3f74bf62 be9620d2     ".t?....b.t?. ..
    e124:	3f74fa0b be94a031 3f75341d be931f35     ..t?1....4u?5...
    e134:	3f756d97 be919ddd 3f75a67b be901c2c     .mu?....{.u?,...
    e144:	3f75dec6 be8e9a22 3f76167a be8d17c0     ..u?"...z.v?....
    e154:	3f764d97 be8b9507 3f76841b be8a11f8     .Mv?......v?....
    e164:	3f76ba07 be888e93 3f76ef5b be870ada     ..v?....[.v?....
    e174:	3f772417 be8586ce 3f77583a be840270     .$w?....:Xw?p...
    e184:	3f778bc5 be827dc0 3f77beb7 be80f8c0     ..w?.}....w?....
    e194:	3f77f110 be7ee6e1 3f7822d1 be7bdba4     ..w?..~.."x?..{.
    e1a4:	3f7853f8 be78cfcc 3f788486 be75c35a     .Sx?..x...x?Z.u.
    e1b4:	3f78b47b be72b651 3f78e3d6 be6fa8b2     {.x?Q.r...x?..o.
    e1c4:	3f791298 be6c9a7f 3f7940c0 be698bba     ..y?..l..@y?..i.
    e1d4:	3f796e4e be667c66 3f799b43 be636c83     Nny?f|f.C.y?.lc.
    e1e4:	3f79c79d be605c13 3f79f35e be5d4b1a     ..y?.\`.^.y?.K].
    e1f4:	3f7a1e84 be5a3997 3f7a4910 be57278f     ..z?.9Z..Iz?.'W.
    e204:	3f7a7302 be541501 3f7a9c59 be5101f1     .sz?..T.Y.z?..Q.
    e214:	3f7ac516 be4dee60 3f7aed37 be4ada4f     ..z?`.M.7.z?O.J.
    e224:	3f7b14be be47c5c2 3f7b3bab be44b0b9     ..{?..G..;{?..D.
    e234:	3f7b61fc be419b37 3f7b87b2 be3e853e     .a{?7.A...{?>.>.
    e244:	3f7baccd be3b6ecf 3f7bd14d be3857ec     ..{?.n;.M.{?.W8.
    e254:	3f7bf531 be354098 3f7c187a be3228d4     1.{?.@5.z.|?.(2.
    e264:	3f7c3b28 be2f10a2 3f7c5d3a be2bf804     (;|?../.:]|?..+.
    e274:	3f7c7eb0 be28defc 3f7c9f8a be25c58c     .~|?..(...|?..%.
    e284:	3f7cbfc9 be22abb6 3f7cdf6c be1f917b     ..|?..".l.|?{...
    e294:	3f7cfe73 be1c76de 3f7d1cdd be195be0     s.|?.v....}?.[..
    e2a4:	3f7d3aac be164083 3f7d57de be1324ca     .:}?.@...W}?.$..
    e2b4:	3f7d7474 be1008b7 3f7d906e be0cec4a     tt}?....n.}?J...
    e2c4:	3f7dabcc be09cf86 3f7dc68c be06b26e     ..}?......}?n...
    e2d4:	3f7de0b1 be039502 3f7dfa38 be007745     ..}?....8.}?Ew..
    e2e4:	3f7e1324 bdfab273 3f7e2b72 bdf475c0     $.~?s...r+~?.u..
    e2f4:	3f7e4323 bdee3876 3f7e5a38 bde7fa9a     #C~?v8..8Z~?....
    e304:	3f7e70b0 bde1bc2e 3f7e868b bddb7d37     .p~?......~?7}..
    e314:	3f7e9bc9 bdd53db9 3f7eb069 bdcefdb7     ..~?.=..i.~?....
    e324:	3f7ec46d bdc8bd36 3f7ed7d4 bdc27c39     m.~?6.....~?9|..
    e334:	3f7eea9d bdbc3ac3 3f7efcc9 bdb5f8da     ..~?.:....~?....
    e344:	3f7f0e58 bdafb680 3f7f1f49 bda973ba     X..?....I..?.s..
    e354:	3f7f2f9d bda3308c 3f7f3f54 bd9cecf9     ./.?.0..T?.?....
    e364:	3f7f4e6d bd96a905 3f7f5ce9 bd9064b4     mN.?.....\.?.d..
    e374:	3f7f6ac7 bd8a200a 3f7f7808 bd83db0a     .j.?. ...x.?....
    e384:	3f7f84ab bd7b2b74 3f7f90b1 bd6ea038     ...?t+{....?8.n.
    e394:	3f7f9c18 bd621468 3f7fa6e3 bd55880e     ...?h.b....?..U.
    e3a4:	3f7fb10f bd48fb2f 3f7fba9e bd3c6dd5     ...?/.H....?.m<.
    e3b4:	3f7fc38f bd2fe007 3f7fcbe2 bd2351cc     ...?../....?.Q#.
    e3c4:	3f7fd398 bd16c32c 3f7fdaaf bd0a342f     ...?,......?/4..
    e3d4:	3f7fe129 bcfb49b9 3f7fe705 bce22a7b     )..?.I.....?{*..
    e3e4:	3f7fec43 bcc90ab0 3f7ff0e3 bcafea69     C..?.......?i...
    e3f4:	3f7ff4e6 bc96c9b6 3f7ff84a bc7b514b     ...?....J..?KQ{.
    e404:	3f7ffb11 bc490e90 3f7ffd39 bc16cb59     ...?..I.9..?Y...
    e414:	3f7ffec4 bbc90f89 3f7fffb1 bb490fc7     ...?.......?..I.

0000e424 <twiddleCoef_256>:
    e424:	3f800000 00000000 3f7fec43 3cc90ab0     ...?....C..?...<
    e434:	3f7fb10f 3d48fb2f 3f7f4e6d 3d96a905     ...?/.H=mN.?...=
    e444:	3f7ec46d 3dc8bd36 3f7e1324 3dfab273     m.~?6..=$.~?s..=
    e454:	3f7d3aac 3e164083 3f7c3b28 3e2f10a2     .:}?.@.>(;|?../>
    e464:	3f7b14be 3e47c5c2 3f79c79d 3e605c13     ..{?..G>..y?.\`>
    e474:	3f7853f8 3e78cfcc 3f76ba07 3e888e93     .Sx?..x>..v?...>
    e484:	3f74fa0b 3e94a031 3f731447 3ea09ae5     ..t?1..>G.s?...>
    e494:	3f710908 3eac7cd4 3f6ed89e 3eb8442a     ..q?.|.>..n?*D.>
    e4a4:	3f6c835e 3ec3ef15 3f6a09a7 3ecf7bca     ^.l?...>..j?.{.>
    e4b4:	3f676bd8 3edae880 3f64aa59 3ee63375     .kg?...>Y.d?u3.>
    e4c4:	3f61c598 3ef15aea 3f5ebe05 3efc5d27     ..a?.Z.>..^?'].>
    e4d4:	3f5b941a 3f039c3d 3f584853 3f08f59b     ..[?=..?SHX?...?
    e4e4:	3f54db31 3f0e39da 3f514d3d 3f13682a     1.T?.9.?=MQ?*h.?
    e4f4:	3f4d9f02 3f187fc0 3f49d112 3f1d7fd1     ..M?...?..I?...?
    e504:	3f45e403 3f226799 3f41d870 3f273656     ..E?.g"?p.A?V6'?
    e514:	3f3daef9 3f2beb4a 3f396842 3f3085bb     ..=?J.+?Bh9?..0?
    e524:	3f3504f3 3f3504f3 3f3085bb 3f396842     ..5?..5?..0?Bh9?
    e534:	3f2beb4a 3f3daef9 3f273656 3f41d870     J.+?..=?V6'?p.A?
    e544:	3f226799 3f45e403 3f1d7fd1 3f49d112     .g"?..E?...?..I?
    e554:	3f187fc0 3f4d9f02 3f13682a 3f514d3d     ...?..M?*h.?=MQ?
    e564:	3f0e39da 3f54db31 3f08f59b 3f584853     .9.?1.T?...?SHX?
    e574:	3f039c3d 3f5b941a 3efc5d27 3f5ebe05     =..?..[?'].>..^?
    e584:	3ef15aea 3f61c598 3ee63375 3f64aa59     .Z.>..a?u3.>Y.d?
    e594:	3edae880 3f676bd8 3ecf7bca 3f6a09a7     ...>.kg?.{.>..j?
    e5a4:	3ec3ef15 3f6c835e 3eb8442a 3f6ed89e     ...>^.l?*D.>..n?
    e5b4:	3eac7cd4 3f710908 3ea09ae5 3f731447     .|.>..q?...>G.s?
    e5c4:	3e94a031 3f74fa0b 3e888e93 3f76ba07     1..>..t?...>..v?
    e5d4:	3e78cfcc 3f7853f8 3e605c13 3f79c79d     ..x>.Sx?.\`>..y?
    e5e4:	3e47c5c2 3f7b14be 3e2f10a2 3f7c3b28     ..G>..{?../>(;|?
    e5f4:	3e164083 3f7d3aac 3dfab273 3f7e1324     .@.>.:}?s..=$.~?
    e604:	3dc8bd36 3f7ec46d 3d96a905 3f7f4e6d     6..=m.~?...=mN.?
    e614:	3d48fb2f 3f7fb10f 3cc90ab0 3f7fec43     /.H=...?...<C..?
    e624:	00000000 3f800000 bcc90ab0 3f7fec43     .......?....C..?
    e634:	bd48fb2f 3f7fb10f bd96a905 3f7f4e6d     /.H....?....mN.?
    e644:	bdc8bd36 3f7ec46d bdfab273 3f7e1324     6...m.~?s...$.~?
    e654:	be164083 3f7d3aac be2f10a2 3f7c3b28     .@...:}?../.(;|?
    e664:	be47c5c2 3f7b14be be605c13 3f79c79d     ..G...{?.\`...y?
    e674:	be78cfcc 3f7853f8 be888e93 3f76ba07     ..x..Sx?......v?
    e684:	be94a031 3f74fa0b bea09ae5 3f731447     1.....t?....G.s?
    e694:	beac7cd4 3f710908 beb8442a 3f6ed89e     .|....q?*D....n?
    e6a4:	bec3ef15 3f6c835e becf7bca 3f6a09a7     ....^.l?.{....j?
    e6b4:	bedae880 3f676bd8 bee63375 3f64aa59     .....kg?u3..Y.d?
    e6c4:	bef15aea 3f61c598 befc5d27 3f5ebe05     .Z....a?']....^?
    e6d4:	bf039c3d 3f5b941a bf08f59b 3f584853     =.....[?....SHX?
    e6e4:	bf0e39da 3f54db31 bf13682a 3f514d3d     .9..1.T?*h..=MQ?
    e6f4:	bf187fc0 3f4d9f02 bf1d7fd1 3f49d112     ......M?......I?
    e704:	bf226799 3f45e403 bf273656 3f41d870     .g"...E?V6'.p.A?
    e714:	bf2beb4a 3f3daef9 bf3085bb 3f396842     J.+...=?..0.Bh9?
    e724:	bf3504f3 3f3504f3 bf396842 3f3085bb     ..5...5?Bh9...0?
    e734:	bf3daef9 3f2beb4a bf41d870 3f273656     ..=.J.+?p.A.V6'?
    e744:	bf45e403 3f226799 bf49d112 3f1d7fd1     ..E..g"?..I....?
    e754:	bf4d9f02 3f187fc0 bf514d3d 3f13682a     ..M....?=MQ.*h.?
    e764:	bf54db31 3f0e39da bf584853 3f08f59b     1.T..9.?SHX....?
    e774:	bf5b941a 3f039c3d bf5ebe05 3efc5d27     ..[.=..?..^.'].>
    e784:	bf61c598 3ef15aea bf64aa59 3ee63375     ..a..Z.>Y.d.u3.>
    e794:	bf676bd8 3edae880 bf6a09a7 3ecf7bca     .kg....>..j..{.>
    e7a4:	bf6c835e 3ec3ef15 bf6ed89e 3eb8442a     ^.l....>..n.*D.>
    e7b4:	bf710908 3eac7cd4 bf731447 3ea09ae5     ..q..|.>G.s....>
    e7c4:	bf74fa0b 3e94a031 bf76ba07 3e888e93     ..t.1..>..v....>
    e7d4:	bf7853f8 3e78cfcc bf79c79d 3e605c13     .Sx...x>..y..\`>
    e7e4:	bf7b14be 3e47c5c2 bf7c3b28 3e2f10a2     ..{...G>(;|.../>
    e7f4:	bf7d3aac 3e164083 bf7e1324 3dfab273     .:}..@.>$.~.s..=
    e804:	bf7ec46d 3dc8bd36 bf7f4e6d 3d96a905     m.~.6..=mN.....=
    e814:	bf7fb10f 3d48fb2f bf7fec43 3cc90ab0     ..../.H=C......<
    e824:	bf800000 00000000 bf7fec43 bcc90ab0     ........C.......
    e834:	bf7fb10f bd48fb2f bf7f4e6d bd96a905     ..../.H.mN......
    e844:	bf7ec46d bdc8bd36 bf7e1324 bdfab273     m.~.6...$.~.s...
    e854:	bf7d3aac be164083 bf7c3b28 be2f10a2     .:}..@..(;|.../.
    e864:	bf7b14be be47c5c2 bf79c79d be605c13     ..{...G...y..\`.
    e874:	bf7853f8 be78cfcc bf76ba07 be888e93     .Sx...x...v.....
    e884:	bf74fa0b be94a031 bf731447 bea09ae5     ..t.1...G.s.....
    e894:	bf710908 beac7cd4 bf6ed89e beb8442a     ..q..|....n.*D..
    e8a4:	bf6c835e bec3ef15 bf6a09a7 becf7bca     ^.l.......j..{..
    e8b4:	bf676bd8 bedae880 bf64aa59 bee63375     .kg.....Y.d.u3..
    e8c4:	bf61c598 bef15aea bf5ebe05 befc5d27     ..a..Z....^.']..
    e8d4:	bf5b941a bf039c3d bf584853 bf08f59b     ..[.=...SHX.....
    e8e4:	bf54db31 bf0e39da bf514d3d bf13682a     1.T..9..=MQ.*h..
    e8f4:	bf4d9f02 bf187fc0 bf49d112 bf1d7fd1     ..M.......I.....
    e904:	bf45e403 bf226799 bf41d870 bf273656     ..E..g".p.A.V6'.
    e914:	bf3daef9 bf2beb4a bf396842 bf3085bb     ..=.J.+.Bh9...0.
    e924:	bf3504f3 bf3504f3 bf3085bb bf396842     ..5...5...0.Bh9.
    e934:	bf2beb4a bf3daef9 bf273656 bf41d870     J.+...=.V6'.p.A.
    e944:	bf226799 bf45e403 bf1d7fd1 bf49d112     .g"...E.......I.
    e954:	bf187fc0 bf4d9f02 bf13682a bf514d3d     ......M.*h..=MQ.
    e964:	bf0e39da bf54db31 bf08f59b bf584853     .9..1.T.....SHX.
    e974:	bf039c3d bf5b941a befc5d27 bf5ebe05     =.....[.']....^.
    e984:	bef15aea bf61c598 bee63375 bf64aa59     .Z....a.u3..Y.d.
    e994:	bedae880 bf676bd8 becf7bca bf6a09a7     .....kg..{....j.
    e9a4:	bec3ef15 bf6c835e beb8442a bf6ed89e     ....^.l.*D....n.
    e9b4:	beac7cd4 bf710908 bea09ae5 bf731447     .|....q.....G.s.
    e9c4:	be94a031 bf74fa0b be888e93 bf76ba07     1.....t.......v.
    e9d4:	be78cfcc bf7853f8 be605c13 bf79c79d     ..x..Sx..\`...y.
    e9e4:	be47c5c2 bf7b14be be2f10a2 bf7c3b28     ..G...{.../.(;|.
    e9f4:	be164083 bf7d3aac bdfab273 bf7e1324     .@...:}.s...$.~.
    ea04:	bdc8bd36 bf7ec46d bd96a905 bf7f4e6d     6...m.~.....mN..
    ea14:	bd48fb2f bf7fb10f bcc90ab0 bf7fec43     /.H.........C...
    ea24:	80000000 bf800000 3cc90ab0 bf7fec43     ...........<C...
    ea34:	3d48fb2f bf7fb10f 3d96a905 bf7f4e6d     /.H=.......=mN..
    ea44:	3dc8bd36 bf7ec46d 3dfab273 bf7e1324     6..=m.~.s..=$.~.
    ea54:	3e164083 bf7d3aac 3e2f10a2 bf7c3b28     .@.>.:}.../>(;|.
    ea64:	3e47c5c2 bf7b14be 3e605c13 bf79c79d     ..G>..{..\`>..y.
    ea74:	3e78cfcc bf7853f8 3e888e93 bf76ba07     ..x>.Sx....>..v.
    ea84:	3e94a031 bf74fa0b 3ea09ae5 bf731447     1..>..t....>G.s.
    ea94:	3eac7cd4 bf710908 3eb8442a bf6ed89e     .|.>..q.*D.>..n.
    eaa4:	3ec3ef15 bf6c835e 3ecf7bca bf6a09a7     ...>^.l..{.>..j.
    eab4:	3edae880 bf676bd8 3ee63375 bf64aa59     ...>.kg.u3.>Y.d.
    eac4:	3ef15aea bf61c598 3efc5d27 bf5ebe05     .Z.>..a.'].>..^.
    ead4:	3f039c3d bf5b941a 3f08f59b bf584853     =..?..[....?SHX.
    eae4:	3f0e39da bf54db31 3f13682a bf514d3d     .9.?1.T.*h.?=MQ.
    eaf4:	3f187fc0 bf4d9f02 3f1d7fd1 bf49d112     ...?..M....?..I.
    eb04:	3f226799 bf45e403 3f273656 bf41d870     .g"?..E.V6'?p.A.
    eb14:	3f2beb4a bf3daef9 3f3085bb bf396842     J.+?..=...0?Bh9.
    eb24:	3f3504f3 bf3504f3 3f396842 bf3085bb     ..5?..5.Bh9?..0.
    eb34:	3f3daef9 bf2beb4a 3f41d870 bf273656     ..=?J.+.p.A?V6'.
    eb44:	3f45e403 bf226799 3f49d112 bf1d7fd1     ..E?.g"...I?....
    eb54:	3f4d9f02 bf187fc0 3f514d3d bf13682a     ..M?....=MQ?*h..
    eb64:	3f54db31 bf0e39da 3f584853 bf08f59b     1.T?.9..SHX?....
    eb74:	3f5b941a bf039c3d 3f5ebe05 befc5d27     ..[?=.....^?']..
    eb84:	3f61c598 bef15aea 3f64aa59 bee63375     ..a?.Z..Y.d?u3..
    eb94:	3f676bd8 bedae880 3f6a09a7 becf7bca     .kg?......j?.{..
    eba4:	3f6c835e bec3ef15 3f6ed89e beb8442a     ^.l?......n?*D..
    ebb4:	3f710908 beac7cd4 3f731447 bea09ae5     ..q?.|..G.s?....
    ebc4:	3f74fa0b be94a031 3f76ba07 be888e93     ..t?1.....v?....
    ebd4:	3f7853f8 be78cfcc 3f79c79d be605c13     .Sx?..x...y?.\`.
    ebe4:	3f7b14be be47c5c2 3f7c3b28 be2f10a2     ..{?..G.(;|?../.
    ebf4:	3f7d3aac be164083 3f7e1324 bdfab273     .:}?.@..$.~?s...
    ec04:	3f7ec46d bdc8bd36 3f7f4e6d bd96a905     m.~?6...mN.?....
    ec14:	3f7fb10f bd48fb2f 3f7fec43 bcc90ab0     ...?/.H.C..?....

0000ec24 <twiddleCoef_32>:
    ec24:	3f800000 00000000 3f7b14be 3e47c5c2     ...?......{?..G>
    ec34:	3f6c835e 3ec3ef15 3f54db31 3f0e39da     ^.l?...>1.T?.9.?
    ec44:	3f3504f3 3f3504f3 3f0e39da 3f54db31     ..5?..5?.9.?1.T?
    ec54:	3ec3ef15 3f6c835e 3e47c5c2 3f7b14be     ...>^.l?..G>..{?
    ec64:	00000000 3f800000 be47c5c2 3f7b14be     .......?..G...{?
    ec74:	bec3ef15 3f6c835e bf0e39da 3f54db31     ....^.l?.9..1.T?
    ec84:	bf3504f3 3f3504f3 bf54db31 3f0e39da     ..5...5?1.T..9.?
    ec94:	bf6c835e 3ec3ef15 bf7b14be 3e47c5c2     ^.l....>..{...G>
    eca4:	bf800000 00000000 bf7b14be be47c5c2     ..........{...G.
    ecb4:	bf6c835e bec3ef15 bf54db31 bf0e39da     ^.l.....1.T..9..
    ecc4:	bf3504f3 bf3504f3 bf0e39da bf54db31     ..5...5..9..1.T.
    ecd4:	bec3ef15 bf6c835e be47c5c2 bf7b14be     ....^.l...G...{.
    ece4:	80000000 bf800000 3e47c5c2 bf7b14be     ..........G>..{.
    ecf4:	3ec3ef15 bf6c835e 3f0e39da bf54db31     ...>^.l..9.?1.T.
    ed04:	3f3504f3 bf3504f3 3f54db31 bf0e39da     ..5?..5.1.T?.9..
    ed14:	3f6c835e bec3ef15 3f7b14be be47c5c2     ^.l?......{?..G.

0000ed24 <twiddleCoef_4096>:
    ed24:	3f800000 00000000 3f7fffec 3ac90fd4     ...?.......?...:
    ed34:	3f7fffb1 3b490fc7 3f7fff4e 3b96cbc1     ...?..I;N..?...;
    ed44:	3f7ffec4 3bc90f89 3f7ffe13 3bfb5330     ...?...;...?0S.;
    ed54:	3f7ffd39 3c16cb59 3f7ffc39 3c2fed02     9..?Y..<9..?../<
    ed64:	3f7ffb11 3c490e90 3f7ff9c1 3c623000     ...?..I<...?.0b<
    ed74:	3f7ff84a 3c7b514b 3f7ff6ac 3c8a3938     J..?KQ{<...?89.<
    ed84:	3f7ff4e6 3c96c9b6 3f7ff2f8 3ca35a1c     ...?...<...?.Z.<
    ed94:	3f7ff0e3 3cafea69 3f7feea7 3cbc7a9b     ...?i..<...?.z.<
    eda4:	3f7fec43 3cc90ab0 3f7fe9b8 3cd59aa6     C..?...<...?...<
    edb4:	3f7fe705 3ce22a7b 3f7fe42b 3ceeba2d     ...?{*.<+..?-..<
    edc4:	3f7fe129 3cfb49b9 3f7fde00 3d03ec90     )..?.I.<...?...=
    edd4:	3f7fdaaf 3d0a342f 3f7fd737 3d107bb8     ...?/4.=7..?.{.=
    ede4:	3f7fd398 3d16c32c 3f7fcfd1 3d1d0a88     ...?,..=...?...=
    edf4:	3f7fcbe2 3d2351cc 3f7fc7cc 3d2998f6     ...?.Q#=...?..)=
    ee04:	3f7fc38f 3d2fe007 3f7fbf2a 3d3626fc     ...?../=*..?.&6=
    ee14:	3f7fba9e 3d3c6dd5 3f7fb5ea 3d42b491     ...?.m<=...?..B=
    ee24:	3f7fb10f 3d48fb2f 3f7fac0d 3d4f41af     ...?/.H=...?.AO=
    ee34:	3f7fa6e3 3d55880e 3f7fa191 3d5bce4c     ...?..U=...?L.[=
    ee44:	3f7f9c18 3d621468 3f7f9678 3d685a62     ...?h.b=x..?bZh=
    ee54:	3f7f90b1 3d6ea038 3f7f8ac2 3d74e5e9     ...?8.n=...?..t=
    ee64:	3f7f84ab 3d7b2b74 3f7f7e6d 3d80b86c     ...?t+{=m~.?l..=
    ee74:	3f7f7808 3d83db0a 3f7f717b 3d86fd94     .x.?...={q.?...=
    ee84:	3f7f6ac7 3d8a200a 3f7f63ec 3d8d426a     .j.?. .=.c.?jB.=
    ee94:	3f7f5ce9 3d9064b4 3f7f55bf 3d9386e7     .\.?.d.=.U.?...=
    eea4:	3f7f4e6d 3d96a905 3f7f46f4 3d99cb0a     mN.?...=.F.?...=
    eeb4:	3f7f3f54 3d9cecf9 3f7f378d 3da00ecf     T?.?...=.7.?...=
    eec4:	3f7f2f9d 3da3308c 3f7f2787 3da65230     ./.?.0.=.'.?0R.=
    eed4:	3f7f1f49 3da973ba 3f7f16e4 3dac952b     I..?.s.=...?+..=
    eee4:	3f7f0e58 3dafb680 3f7f05a4 3db2d7bb     X..?...=...?...=
    eef4:	3f7efcc9 3db5f8da 3f7ef3c7 3db919dd     ..~?...=..~?...=
    ef04:	3f7eea9d 3dbc3ac3 3f7ee14c 3dbf5b8d     ..~?.:.=L.~?.[.=
    ef14:	3f7ed7d4 3dc27c39 3f7ece34 3dc59cc6     ..~?9|.=4.~?...=
    ef24:	3f7ec46d 3dc8bd36 3f7eba7f 3dcbdd86     m.~?6..=..~?...=
    ef34:	3f7eb069 3dcefdb7 3f7ea62d 3dd21dc8     i.~?...=-.~?...=
    ef44:	3f7e9bc9 3dd53db9 3f7e913d 3dd85d89     ..~?.=.==.~?.].=
    ef54:	3f7e868b 3ddb7d37 3f7e7bb1 3dde9cc4     ..~?7}.=.{~?...=
    ef64:	3f7e70b0 3de1bc2e 3f7e6588 3de4db76     .p~?...=.e~?v..=
    ef74:	3f7e5a38 3de7fa9a 3f7e4ec1 3deb199a     8Z~?...=.N~?...=
    ef84:	3f7e4323 3dee3876 3f7e375e 3df1572e     #C~?v8.=^7~?.W.=
    ef94:	3f7e2b72 3df475c0 3f7e1f5e 3df7942c     r+~?.u.=^.~?,..=
    efa4:	3f7e1324 3dfab273 3f7e06c2 3dfdd092     $.~?s..=..~?...=
    efb4:	3f7dfa38 3e007745 3f7ded88 3e02062e     8.}?Ew.>..}?...>
    efc4:	3f7de0b1 3e039502 3f7dd3b2 3e0523c2     ..}?...>..}?.#.>
    efd4:	3f7dc68c 3e06b26e 3f7db940 3e084105     ..}?n..>@.}?.A.>
    efe4:	3f7dabcc 3e09cf86 3f7d9e30 3e0b5df3     ..}?...>0.}?.].>
    eff4:	3f7d906e 3e0cec4a 3f7d8285 3e0e7a8b     n.}?J..>..}?.z.>
    f004:	3f7d7474 3e1008b7 3f7d663d 3e1196cc     tt}?...>=f}?...>
    f014:	3f7d57de 3e1324ca 3f7d4959 3e14b2b2     .W}?.$.>YI}?...>
    f024:	3f7d3aac 3e164083 3f7d2bd8 3e17ce3d     .:}?.@.>.+}?=..>
    f034:	3f7d1cdd 3e195be0 3f7d0dbc 3e1ae96b     ..}?.[.>..}?k..>
    f044:	3f7cfe73 3e1c76de 3f7cef03 3e1e0438     s.|?.v.>..|?8..>
    f054:	3f7cdf6c 3e1f917b 3f7ccfae 3e211ea5     l.|?{..>..|?..!>
    f064:	3f7cbfc9 3e22abb6 3f7cafbd 3e2438ad     ..|?..">..|?.8$>
    f074:	3f7c9f8a 3e25c58c 3f7c8f31 3e275251     ..|?..%>1.|?QR'>
    f084:	3f7c7eb0 3e28defc 3f7c6e08 3e2a6b8d     .~|?..(>.n|?.k*>
    f094:	3f7c5d3a 3e2bf804 3f7c4c44 3e2d8461     :]|?..+>DL|?a.->
    f0a4:	3f7c3b28 3e2f10a2 3f7c29e5 3e309cc9     (;|?../>.)|?..0>
    f0b4:	3f7c187a 3e3228d4 3f7c06e9 3e33b4c4     z.|?.(2>..|?..3>
    f0c4:	3f7bf531 3e354098 3f7be353 3e36cc50     1.{?.@5>S.{?P.6>
    f0d4:	3f7bd14d 3e3857ec 3f7bbf20 3e39e36c     M.{?.W8> .{?l.9>
    f0e4:	3f7baccd 3e3b6ecf 3f7b9a53 3e3cfa15     ..{?.n;>S.{?..<>
    f0f4:	3f7b87b2 3e3e853e 3f7b74ea 3e401049     ..{?>.>>.t{?I.@>
    f104:	3f7b61fc 3e419b37 3f7b4ee7 3e432607     .a{?7.A>.N{?.&C>
    f114:	3f7b3bab 3e44b0b9 3f7b2848 3e463b4d     .;{?..D>H({?M;F>
    f124:	3f7b14be 3e47c5c2 3f7b010e 3e495018     ..{?..G>..{?.PI>
    f134:	3f7aed37 3e4ada4f 3f7ad93a 3e4c6467     7.z?O.J>:.z?gdL>
    f144:	3f7ac516 3e4dee60 3f7ab0cb 3e4f7838     ..z?`.M>..z?8xO>
    f154:	3f7a9c59 3e5101f1 3f7a87c1 3e528b89     Y.z?..Q>..z?..R>
    f164:	3f7a7302 3e541501 3f7a5e1c 3e559e58     .sz?..T>.^z?X.U>
    f174:	3f7a4910 3e57278f 3f7a33dd 3e58b0a4     .Iz?.'W>.3z?..X>
    f184:	3f7a1e84 3e5a3997 3f7a0904 3e5bc26a     ..z?.9Z>..z?j.[>
    f194:	3f79f35e 3e5d4b1a 3f79dd91 3e5ed3a8     ^.y?.K]>..y?..^>
    f1a4:	3f79c79d 3e605c13 3f79b183 3e61e45c     ..y?.\`>..y?\.a>
    f1b4:	3f799b43 3e636c83 3f7984dc 3e64f486     C.y?.lc>..y?..d>
    f1c4:	3f796e4e 3e667c66 3f79579a 3e680422     Nny?f|f>.Wy?".h>
    f1d4:	3f7940c0 3e698bba 3f7929bf 3e6b132f     .@y?..i>.)y?/.k>
    f1e4:	3f791298 3e6c9a7f 3f78fb4a 3e6e21ab     ..y?..l>J.x?.!n>
    f1f4:	3f78e3d6 3e6fa8b2 3f78cc3b 3e712f94     ..x?..o>;.x?./q>
    f204:	3f78b47b 3e72b651 3f789c93 3e743ce8     {.x?Q.r>..x?.<t>
    f214:	3f788486 3e75c35a 3f786c52 3e7749a6     ..x?Z.u>Rlx?.Iw>
    f224:	3f7853f8 3e78cfcc 3f783b77 3e7a55cb     .Sx?..x>w;x?.Uz>
    f234:	3f7822d1 3e7bdba4 3f780a04 3e7d6156     ."x?..{>..x?Va}>
    f244:	3f77f110 3e7ee6e1 3f77d7f7 3e803622     ..w?..~>..w?"6.>
    f254:	3f77beb7 3e80f8c0 3f77a551 3e81bb4a     ..w?...>Q.w?J..>
    f264:	3f778bc5 3e827dc0 3f777213 3e834022     ..w?.}.>.rw?"@.>
    f274:	3f77583a 3e840270 3f773e3c 3e84c4aa     :Xw?p..><>w?...>
    f284:	3f772417 3e8586ce 3f7709cc 3e8648df     .$w?...>..w?.H.>
    f294:	3f76ef5b 3e870ada 3f76d4c4 3e87ccc1     [.v?...>..v?...>
    f2a4:	3f76ba07 3e888e93 3f769f24 3e895050     ..v?...>$.v?PP.>
    f2b4:	3f76841b 3e8a11f8 3f7668ec 3e8ad38a     ..v?...>.hv?...>
    f2c4:	3f764d97 3e8b9507 3f76321b 3e8c566e     .Mv?...>.2v?nV.>
    f2d4:	3f76167a 3e8d17c0 3f75fab3 3e8dd8fc     z.v?...>..u?...>
    f2e4:	3f75dec6 3e8e9a22 3f75c2b3 3e8f5b32     ..u?"..>..u?2[.>
    f2f4:	3f75a67b 3e901c2c 3f758a1c 3e90dd10     {.u?,..>..u?...>
    f304:	3f756d97 3e919ddd 3f7550ed 3e925e94     .mu?...>.Pu?.^.>
    f314:	3f75341d 3e931f35 3f751727 3e93dfbf     .4u?5..>'.u?...>
    f324:	3f74fa0b 3e94a031 3f74dcc9 3e95608d     ..t?1..>..t?.`.>
    f334:	3f74bf62 3e9620d2 3f74a1d5 3e96e100     b.t?. .>..t?...>
    f344:	3f748422 3e97a117 3f746649 3e986116     ".t?...>Ift?.a.>
    f354:	3f74484b 3e9920fe 3f742a27 3e99e0ce     KHt?. .>'*t?...>
    f364:	3f740bdd 3e9aa086 3f73ed6e 3e9b6027     ..t?...>n.s?'`.>
    f374:	3f73ced9 3e9c1faf 3f73b01f 3e9cdf20     ..s?...>..s? ..>
    f384:	3f73913f 3e9d9e78 3f737239 3e9e5db8     ?.s?x..>9rs?.].>
    f394:	3f73530e 3e9f1cdf 3f7333be 3e9fdbee     .Ss?...>.3s?...>
    f3a4:	3f731447 3ea09ae5 3f72f4ac 3ea159c2     G.s?...>..r?.Y.>
    f3b4:	3f72d4eb 3ea21887 3f72b504 3ea2d733     ..r?...>..r?3..>
    f3c4:	3f7294f8 3ea395c5 3f7274c7 3ea4543f     ..r?...>.tr??T.>
    f3d4:	3f725470 3ea5129f 3f7233f4 3ea5d0e5     pTr?...>.3r?...>
    f3e4:	3f721352 3ea68f12 3f71f28c 3ea74d25     R.r?...>..q?%M.>
    f3f4:	3f71d19f 3ea80b1f 3f71b08e 3ea8c8fe     ..q?...>..q?...>
    f404:	3f718f57 3ea986c4 3f716dfb 3eaa446f     W.q?...>.mq?oD.>
    f414:	3f714c7a 3eab0201 3f712ad4 3eabbf77     zLq?...>.*q?w..>
    f424:	3f710908 3eac7cd4 3f70e717 3ead3a15     ..q?.|.>..p?.:.>
    f434:	3f70c502 3eadf73c 3f70a2c6 3eaeb449     ..p?<..>..p?I..>
    f444:	3f708066 3eaf713a 3f705de1 3eb02e10     f.p?:q.>.]p?...>
    f454:	3f703b37 3eb0eacb 3f701867 3eb1a76b     7;p?...>g.p?k..>
    f464:	3f6ff573 3eb263ef 3f6fd25a 3eb32058     s.o?.c.>Z.o?X .>
    f474:	3f6faf1b 3eb3dca5 3f6f8bb8 3eb498d6     ..o?...>..o?...>
    f484:	3f6f6830 3eb554ec 3f6f4483 3eb610e6     0ho?.T.>.Do?...>
    f494:	3f6f20b0 3eb6ccc3 3f6efcba 3eb78884     . o?...>..n?...>
    f4a4:	3f6ed89e 3eb8442a 3f6eb45d 3eb8ffb2     ..n?*D.>].n?...>
    f4b4:	3f6e8ff8 3eb9bb1e 3f6e6b6d 3eba766e     ..n?...>mkn?nv.>
    f4c4:	3f6e46be 3ebb31a0 3f6e21eb 3ebbecb6     .Fn?.1.>.!n?...>
    f4d4:	3f6dfcf2 3ebca7af 3f6dd7d5 3ebd628b     ..m?...>..m?.b.>
    f4e4:	3f6db293 3ebe1d4a 3f6d8d2d 3ebed7eb     ..m?J..>-.m?...>
    f4f4:	3f6d67a1 3ebf926f 3f6d41f2 3ec04cd5     .gm?o..>.Am?.L.>
    f504:	3f6d1c1d 3ec1071e 3f6cf624 3ec1c148     ..m?...>$.l?H..>
    f514:	3f6cd007 3ec27b55 3f6ca9c5 3ec33544     ..l?U{.>..l?D5.>
    f524:	3f6c835e 3ec3ef15 3f6c5cd4 3ec4a8c8     ^.l?...>.\l?...>
    f534:	3f6c3624 3ec5625c 3f6c0f50 3ec61bd2     $6l?\b.>P.l?...>
    f544:	3f6be858 3ec6d529 3f6bc13b 3ec78e62     X.k?)..>;.k?b..>
    f554:	3f6b99fb 3ec8477c 3f6b7295 3ec90077     ..k?|G.>.rk?w..>
    f564:	3f6b4b0c 3ec9b953 3f6b235e 3eca7210     .Kk?S..>^#k?.r.>
    f574:	3f6afb8c 3ecb2aae 3f6ad395 3ecbe32c     ..j?.*.>..j?,..>
    f584:	3f6aab7b 3ecc9b8b 3f6a833c 3ecd53ca     {.j?...><.j?.S.>
    f594:	3f6a5ad9 3ece0bea 3f6a3252 3ecec3ea     .Zj?...>R2j?...>
    f5a4:	3f6a09a7 3ecf7bca 3f69e0d7 3ed0338a     ..j?.{.>..i?.3.>
    f5b4:	3f69b7e4 3ed0eb2a 3f698ecc 3ed1a2aa     ..i?*..>..i?...>
    f5c4:	3f696591 3ed25a09 3f693c32 3ed31148     .ei?.Z.>2<i?H..>
    f5d4:	3f6912ae 3ed3c867 3f68e907 3ed47f64     ..i?g..>..h?d..>
    f5e4:	3f68bf3c 3ed53641 3f68954c 3ed5ecfd     <.h?A6.>L.h?...>
    f5f4:	3f686b39 3ed6a399 3f684103 3ed75a13     9kh?...>.Ah?.Z.>
    f604:	3f6816a8 3ed8106b 3f67ec2a 3ed8c6a3     ..h?k..>*.g?...>
    f614:	3f67c187 3ed97cb9 3f6796c1 3eda32ad     ..g?.|.>..g?.2.>
    f624:	3f676bd8 3edae880 3f6740ca 3edb9e31     .kg?...>.@g?1..>
    f634:	3f671599 3edc53c1 3f66ea45 3edd092e     ..g?.S.>E.f?...>
    f644:	3f66becc 3eddbe79 3f669330 3ede73a2     ..f?y..>0.f?.s.>
    f654:	3f666771 3edf28a9 3f663b8e 3edfdd8d     qgf?.(.>.;f?...>
    f664:	3f660f88 3ee0924f 3f65e35e 3ee146ee     ..f?O..>^.e?.F.>
    f674:	3f65b710 3ee1fb6a 3f658aa0 3ee2afc4     ..e?j..>..e?...>
    f684:	3f655e0b 3ee363fa 3f653154 3ee4180e     .^e?.c.>T1e?...>
    f694:	3f650479 3ee4cbfe 3f64d77b 3ee57fcb     y.e?...>{.d?...>
    f6a4:	3f64aa59 3ee63375 3f647d14 3ee6e6fb     Y.d?u3.>.}d?...>
    f6b4:	3f644fac 3ee79a5d 3f642221 3ee84d9c     .Od?]..>!"d?.M.>
    f6c4:	3f63f473 3ee900b7 3f63c6a1 3ee9b3ae     s.c?...>..c?...>
    f6d4:	3f6398ac 3eea6681 3f636a95 3eeb1930     ..c?.f.>.jc?0..>
    f6e4:	3f633c5a 3eebcbbb 3f630dfc 3eec7e21     Z<c?...>..c?!~.>
    f6f4:	3f62df7b 3eed3063 3f62b0d7 3eede280     {.b?c0.>..b?...>
    f704:	3f628210 3eee9479 3f625326 3eef464c     ..b?y..>&Sb?LF.>
    f714:	3f62241a 3eeff7fb 3f61f4ea 3ef0a985     .$b?...>..a?...>
    f724:	3f61c598 3ef15aea 3f619622 3ef20c29     ..a?.Z.>".a?)..>
    f734:	3f61668a 3ef2bd43 3f6136d0 3ef36e38     .fa?C..>.6a?8n.>
    f744:	3f6106f2 3ef41f07 3f60d6f2 3ef4cfb1     ..a?...>..`?...>
    f754:	3f60a6cf 3ef58035 3f607689 3ef63093     ..`?5..>.v`?.0.>
    f764:	3f604621 3ef6e0cb 3f601596 3ef790dc     !F`?...>..`?...>
    f774:	3f5fe4e9 3ef840c8 3f5fb419 3ef8f08e     .._?.@.>.._?...>
    f784:	3f5f8327 3ef9a02d 3f5f5212 3efa4fa5     '._?-..>.R_?.O.>
    f794:	3f5f20db 3efafef7 3f5eef81 3efbae22     . _?...>..^?"..>
    f7a4:	3f5ebe05 3efc5d27 3f5e8c67 3efd0c04     ..^?'].>g.^?...>
    f7b4:	3f5e5aa6 3efdbabb 3f5e28c3 3efe694a     .Z^?...>.(^?Ji.>
    f7c4:	3f5df6be 3eff17b2 3f5dc497 3effc5f3     ..]?...>..]?...>
    f7d4:	3f5d924d 3f003a06 3f5d5fe1 3f0090ff     M.]?.:.?._]?...?
    f7e4:	3f5d2d53 3f00e7e4 3f5cfaa3 3f013eb5     S-]?...?..\?.>.?
    f7f4:	3f5cc7d1 3f019573 3f5c94dd 3f01ec1c     ..\?s..?..\?...?
    f804:	3f5c61c7 3f0242b1 3f5c2e8e 3f029932     .a\?.B.?..\?2..?
    f814:	3f5bfb34 3f02ef9f 3f5bc7b8 3f0345f8     4.[?...?..[?.E.?
    f824:	3f5b941a 3f039c3d 3f5b605a 3f03f26d     ..[?=..?Z`[?m..?
    f834:	3f5b2c79 3f044889 3f5af875 3f049e91     y,[?.H.?u.Z?...?
    f844:	3f5ac450 3f04f484 3f5a9009 3f054a62     P.Z?...?..Z?bJ.?
    f854:	3f5a5ba0 3f05a02c 3f5a2716 3f05f5e2     .[Z?,..?.'Z?...?
    f864:	3f59f26a 3f064b82 3f59bd9c 3f06a10e     j.Y?.K.?..Y?...?
    f874:	3f5988ad 3f06f686 3f59539c 3f074be8     ..Y?...?.SY?.K.?
    f884:	3f591e6a 3f07a136 3f58e917 3f07f66f     j.Y?6..?..X?o..?
    f894:	3f58b3a1 3f084b92 3f587e0b 3f08a0a1     ..X?.K.?.~X?...?
    f8a4:	3f584853 3f08f59b 3f581279 3f094a7f     SHX?...?y.X?.J.?
    f8b4:	3f57dc7f 3f099f4e 3f57a663 3f09f409     ..W?N..?c.W?...?
    f8c4:	3f577026 3f0a48ad 3f5739c7 3f0a9d3d     &pW?.H.?.9W?=..?
    f8d4:	3f570348 3f0af1b7 3f56cca7 3f0b461c     H.W?...?..V?.F.?
    f8e4:	3f5695e5 3f0b9a6b 3f565f02 3f0beea5     ..V?k..?._V?...?
    f8f4:	3f5627fe 3f0c42c9 3f55f0d9 3f0c96d7     .'V?.B.?..U?...?
    f904:	3f55b993 3f0cead0 3f55822c 3f0d3eb3     ..U?...?,.U?.>.?
    f914:	3f554aa4 3f0d9281 3f5512fb 3f0de638     .JU?...?..U?8..?
    f924:	3f54db31 3f0e39da 3f54a347 3f0e8d65     1.T?.9.?G.T?e..?
    f934:	3f546b3b 3f0ee0db 3f54330f 3f0f343b     ;kT?...?.3T?;4.?
    f944:	3f53fac3 3f0f8784 3f53c255 3f0fdab8     ..S?...?U.S?...?
    f954:	3f5389c7 3f102dd5 3f535118 3f1080dc     ..S?.-.?.QS?...?
    f964:	3f531849 3f10d3cd 3f52df59 3f1126a7     I.S?...?Y.R?.&.?
    f974:	3f52a649 3f11796b 3f526d18 3f11cc19     I.R?ky.?.mR?...?
    f984:	3f5233c6 3f121eb0 3f51fa54 3f127130     .3R?...?T.Q?0q.?
    f994:	3f51c0c2 3f12c39a 3f518710 3f1315ee     ..Q?...?..Q?...?
    f9a4:	3f514d3d 3f13682a 3f51134a 3f13ba50     =MQ?*h.?J.Q?P..?
    f9b4:	3f50d937 3f140c5f 3f509f03 3f145e58     7.P?_..?..P?X^.?
    f9c4:	3f5064af 3f14b039 3f502a3b 3f150204     .dP?9..?;*P?...?
    f9d4:	3f4fefa8 3f1553b7 3f4fb4f4 3f15a554     ..O?.S.?..O?T..?
    f9e4:	3f4f7a1f 3f15f6d9 3f4f3f2b 3f164847     .zO?...?+?O?GH.?
    f9f4:	3f4f0417 3f16999f 3f4ec8e4 3f16eadf     ..O?...?..N?...?
    fa04:	3f4e8d90 3f173c07 3f4e521c 3f178d18     ..N?.<.?.RN?...?
    fa14:	3f4e1689 3f17de12 3f4ddad5 3f182ef5     ..N?...?..M?...?
    fa24:	3f4d9f02 3f187fc0 3f4d6310 3f18d073     ..M?...?.cM?s..?
    fa34:	3f4d26fd 3f19210f 3f4ceacb 3f197194     .&M?.!.?..L?.q.?
    fa44:	3f4cae79 3f19c200 3f4c7208 3f1a1255     y.L?...?.rL?U..?
    fa54:	3f4c3578 3f1a6293 3f4bf8c7 3f1ab2b8     x5L?.b.?..K?...?
    fa64:	3f4bbbf8 3f1b02c6 3f4b7f09 3f1b52bb     ..K?...?..K?.R.?
    fa74:	3f4b41fa 3f1ba299 3f4b04cc 3f1bf25f     .AK?...?..K?_..?
    fa84:	3f4ac77f 3f1c420c 3f4a8a13 3f1c91a2     ..J?.B.?..J?...?
    fa94:	3f4a4c87 3f1ce11f 3f4a0edc 3f1d3084     .LJ?...?..J?.0.?
    faa4:	3f49d112 3f1d7fd1 3f499329 3f1dcf06     ..I?...?).I?...?
    fab4:	3f495521 3f1e1e22 3f4916fa 3f1e6d26     !UI?"..?..I?&m.?
    fac4:	3f48d8b3 3f1ebc12 3f489a4e 3f1f0ae5     ..H?...?N.H?...?
    fad4:	3f485bca 3f1f599f 3f481d27 3f1fa841     .[H?.Y.?'.H?A..?
    fae4:	3f47de65 3f1ff6cb 3f479f84 3f20453b     e.G?...?..G?;E ?
    faf4:	3f476085 3f209393 3f472167 3f20e1d2     .`G?.. ?g!G?.. ?
    fb04:	3f46e22a 3f212ff9 3f46a2ce 3f217e06     *.F?./!?..F?.~!?
    fb14:	3f466354 3f21cbfb 3f4623bb 3f2219d7     TcF?..!?.#F?.."?
    fb24:	3f45e403 3f226799 3f45a42d 3f22b543     ..E?.g"?-.E?C."?
    fb34:	3f456439 3f2302d3 3f452426 3f23504b     9dE?..#?&$E?KP#?
    fb44:	3f44e3f5 3f239da9 3f44a3a5 3f23eaee     ..D?..#?..D?..#?
    fb54:	3f446337 3f24381a 3f4422ab 3f24852c     7cD?.8$?."D?,.$?
    fb64:	3f43e200 3f24d225 3f43a138 3f251f04     ..C?%.$?8.C?..%?
    fb74:	3f436051 3f256bcb 3f431f4c 3f25b877     Q`C?.k%?L.C?w.%?
    fb84:	3f42de29 3f26050a 3f429ce8 3f265184     ).B?..&?..B?.Q&?
    fb94:	3f425b89 3f269de3 3f421a0b 3f26ea2a     .[B?..&?..B?*.&?
    fba4:	3f41d870 3f273656 3f4196b7 3f278268     p.A?V6'?..A?h.'?
    fbb4:	3f4154e1 3f27ce61 3f4112ec 3f281a40     .TA?a.'?..A?@.(?
    fbc4:	3f40d0da 3f286605 3f408ea9 3f28b1b0     ..@?.f(?..@?..(?
    fbd4:	3f404c5c 3f28fd41 3f4009f0 3f2948b8     \L@?A.(?..@?.H)?
    fbe4:	3f3fc767 3f299415 3f3f84c0 3f29df57     g.??..)?..??W.)?
    fbf4:	3f3f41fc 3f2a2a80 3f3eff1b 3f2a758e     .A??.**?..>?.u*?
    fc04:	3f3ebc1b 3f2ac082 3f3e78ff 3f2b0b5b     ..>?..*?.x>?[.+?
    fc14:	3f3e35c5 3f2b561b 3f3df26e 3f2ba0bf     .5>?.V+?n.=?..+?
    fc24:	3f3daef9 3f2beb4a 3f3d6b67 3f2c35b9     ..=?J.+?gk=?.5,?
    fc34:	3f3d27b8 3f2c800f 3f3ce3ec 3f2cca49     .'=?..,?..<?I.,?
    fc44:	3f3ca003 3f2d1469 3f3c5bfc 3f2d5e6f     ..<?i.-?.[<?o^-?
    fc54:	3f3c17d9 3f2da859 3f3bd398 3f2df229     ..<?Y.-?..;?).-?
    fc64:	3f3b8f3b 3f2e3bde 3f3b4ac1 3f2e8578     ;.;?.;.?.J;?x..?
    fc74:	3f3b0629 3f2ecef7 3f3ac175 3f2f185b     ).;?...?u.:?[./?
    fc84:	3f3a7ca4 3f2f61a5 3f3a37b7 3f2faad3     .|:?.a/?.7:?../?
    fc94:	3f39f2ac 3f2ff3e6 3f39ad85 3f303cde     ..9?../?..9?.<0?
    fca4:	3f396842 3f3085bb 3f3922e1 3f30ce7c     Bh9?..0?."9?|.0?
    fcb4:	3f38dd65 3f311722 3f3897cb 3f315fad     e.8?".1?..8?._1?
    fcc4:	3f385216 3f31a81d 3f380c43 3f31f071     .R8?..1?C.8?q.1?
    fcd4:	3f37c655 3f3238aa 3f37804a 3f3280c7     U.7?.82?J.7?..2?
    fce4:	3f373a23 3f32c8c9 3f36f3df 3f3310af     #:7?..2?..6?..3?
    fcf4:	3f36ad7f 3f33587a 3f366704 3f33a029     ..6?zX3?.g6?).3?
    fd04:	3f36206c 3f33e7bc 3f35d9b8 3f342f34     l 6?..3?..5?4/4?
    fd14:	3f3592e7 3f34768f 3f354bfb 3f34bdcf     ..5?.v4?.K5?..4?
    fd24:	3f3504f3 3f3504f3 3f34bdcf 3f354bfb     ..5?..5?..4?.K5?
    fd34:	3f34768f 3f3592e7 3f342f34 3f35d9b8     .v4?..5?4/4?..5?
    fd44:	3f33e7bc 3f36206c 3f33a029 3f366704     ..3?l 6?).3?.g6?
    fd54:	3f33587a 3f36ad7f 3f3310af 3f36f3df     zX3?..6?..3?..6?
    fd64:	3f32c8c9 3f373a23 3f3280c7 3f37804a     ..2?#:7?..2?J.7?
    fd74:	3f3238aa 3f37c655 3f31f071 3f380c43     .82?U.7?q.1?C.8?
    fd84:	3f31a81d 3f385216 3f315fad 3f3897cb     ..1?.R8?._1?..8?
    fd94:	3f311722 3f38dd65 3f30ce7c 3f3922e1     ".1?e.8?|.0?."9?
    fda4:	3f3085bb 3f396842 3f303cde 3f39ad85     ..0?Bh9?.<0?..9?
    fdb4:	3f2ff3e6 3f39f2ac 3f2faad3 3f3a37b7     ../?..9?../?.7:?
    fdc4:	3f2f61a5 3f3a7ca4 3f2f185b 3f3ac175     .a/?.|:?[./?u.:?
    fdd4:	3f2ecef7 3f3b0629 3f2e8578 3f3b4ac1     ...?).;?x..?.J;?
    fde4:	3f2e3bde 3f3b8f3b 3f2df229 3f3bd398     .;.?;.;?).-?..;?
    fdf4:	3f2da859 3f3c17d9 3f2d5e6f 3f3c5bfc     Y.-?..<?o^-?.[<?
    fe04:	3f2d1469 3f3ca003 3f2cca49 3f3ce3ec     i.-?..<?I.,?..<?
    fe14:	3f2c800f 3f3d27b8 3f2c35b9 3f3d6b67     ..,?.'=?.5,?gk=?
    fe24:	3f2beb4a 3f3daef9 3f2ba0bf 3f3df26e     J.+?..=?..+?n.=?
    fe34:	3f2b561b 3f3e35c5 3f2b0b5b 3f3e78ff     .V+?.5>?[.+?.x>?
    fe44:	3f2ac082 3f3ebc1b 3f2a758e 3f3eff1b     ..*?..>?.u*?..>?
    fe54:	3f2a2a80 3f3f41fc 3f29df57 3f3f84c0     .**?.A??W.)?..??
    fe64:	3f299415 3f3fc767 3f2948b8 3f4009f0     ..)?g.??.H)?..@?
    fe74:	3f28fd41 3f404c5c 3f28b1b0 3f408ea9     A.(?\L@?..(?..@?
    fe84:	3f286605 3f40d0da 3f281a40 3f4112ec     .f(?..@?@.(?..A?
    fe94:	3f27ce61 3f4154e1 3f278268 3f4196b7     a.'?.TA?h.'?..A?
    fea4:	3f273656 3f41d870 3f26ea2a 3f421a0b     V6'?p.A?*.&?..B?
    feb4:	3f269de3 3f425b89 3f265184 3f429ce8     ..&?.[B?.Q&?..B?
    fec4:	3f26050a 3f42de29 3f25b877 3f431f4c     ..&?).B?w.%?L.C?
    fed4:	3f256bcb 3f436051 3f251f04 3f43a138     .k%?Q`C?..%?8.C?
    fee4:	3f24d225 3f43e200 3f24852c 3f4422ab     %.$?..C?,.$?."D?
    fef4:	3f24381a 3f446337 3f23eaee 3f44a3a5     .8$?7cD?..#?..D?
    ff04:	3f239da9 3f44e3f5 3f23504b 3f452426     ..#?..D?KP#?&$E?
    ff14:	3f2302d3 3f456439 3f22b543 3f45a42d     ..#?9dE?C."?-.E?
    ff24:	3f226799 3f45e403 3f2219d7 3f4623bb     .g"?..E?.."?.#F?
    ff34:	3f21cbfb 3f466354 3f217e06 3f46a2ce     ..!?TcF?.~!?..F?
    ff44:	3f212ff9 3f46e22a 3f20e1d2 3f472167     ./!?*.F?.. ?g!G?
    ff54:	3f209393 3f476085 3f20453b 3f479f84     .. ?.`G?;E ?..G?
    ff64:	3f1ff6cb 3f47de65 3f1fa841 3f481d27     ...?e.G?A..?'.H?
    ff74:	3f1f599f 3f485bca 3f1f0ae5 3f489a4e     .Y.?.[H?...?N.H?
    ff84:	3f1ebc12 3f48d8b3 3f1e6d26 3f4916fa     ...?..H?&m.?..I?
    ff94:	3f1e1e22 3f495521 3f1dcf06 3f499329     "..?!UI?...?).I?
    ffa4:	3f1d7fd1 3f49d112 3f1d3084 3f4a0edc     ...?..I?.0.?..J?
    ffb4:	3f1ce11f 3f4a4c87 3f1c91a2 3f4a8a13     ...?.LJ?...?..J?
    ffc4:	3f1c420c 3f4ac77f 3f1bf25f 3f4b04cc     .B.?..J?_..?..K?
    ffd4:	3f1ba299 3f4b41fa 3f1b52bb 3f4b7f09     ...?.AK?.R.?..K?
    ffe4:	3f1b02c6 3f4bbbf8 3f1ab2b8 3f4bf8c7     ...?..K?...?..K?
    fff4:	3f1a6293 3f4c3578 3f1a1255 3f4c7208     .b.?x5L?U..?.rL?
   10004:	3f19c200 3f4cae79 3f197194 3f4ceacb     ...?y.L?.q.?..L?
   10014:	3f19210f 3f4d26fd 3f18d073 3f4d6310     .!.?.&M?s..?.cM?
   10024:	3f187fc0 3f4d9f02 3f182ef5 3f4ddad5     ...?..M?...?..M?
   10034:	3f17de12 3f4e1689 3f178d18 3f4e521c     ...?..N?...?.RN?
   10044:	3f173c07 3f4e8d90 3f16eadf 3f4ec8e4     .<.?..N?...?..N?
   10054:	3f16999f 3f4f0417 3f164847 3f4f3f2b     ...?..O?GH.?+?O?
   10064:	3f15f6d9 3f4f7a1f 3f15a554 3f4fb4f4     ...?.zO?T..?..O?
   10074:	3f1553b7 3f4fefa8 3f150204 3f502a3b     .S.?..O?...?;*P?
   10084:	3f14b039 3f5064af 3f145e58 3f509f03     9..?.dP?X^.?..P?
   10094:	3f140c5f 3f50d937 3f13ba50 3f51134a     _..?7.P?P..?J.Q?
   100a4:	3f13682a 3f514d3d 3f1315ee 3f518710     *h.?=MQ?...?..Q?
   100b4:	3f12c39a 3f51c0c2 3f127130 3f51fa54     ...?..Q?0q.?T.Q?
   100c4:	3f121eb0 3f5233c6 3f11cc19 3f526d18     ...?.3R?...?.mR?
   100d4:	3f11796b 3f52a649 3f1126a7 3f52df59     ky.?I.R?.&.?Y.R?
   100e4:	3f10d3cd 3f531849 3f1080dc 3f535118     ...?I.S?...?.QS?
   100f4:	3f102dd5 3f5389c7 3f0fdab8 3f53c255     .-.?..S?...?U.S?
   10104:	3f0f8784 3f53fac3 3f0f343b 3f54330f     ...?..S?;4.?.3T?
   10114:	3f0ee0db 3f546b3b 3f0e8d65 3f54a347     ...?;kT?e..?G.T?
   10124:	3f0e39da 3f54db31 3f0de638 3f5512fb     .9.?1.T?8..?..U?
   10134:	3f0d9281 3f554aa4 3f0d3eb3 3f55822c     ...?.JU?.>.?,.U?
   10144:	3f0cead0 3f55b993 3f0c96d7 3f55f0d9     ...?..U?...?..U?
   10154:	3f0c42c9 3f5627fe 3f0beea5 3f565f02     .B.?.'V?...?._V?
   10164:	3f0b9a6b 3f5695e5 3f0b461c 3f56cca7     k..?..V?.F.?..V?
   10174:	3f0af1b7 3f570348 3f0a9d3d 3f5739c7     ...?H.W?=..?.9W?
   10184:	3f0a48ad 3f577026 3f09f409 3f57a663     .H.?&pW?...?c.W?
   10194:	3f099f4e 3f57dc7f 3f094a7f 3f581279     N..?..W?.J.?y.X?
   101a4:	3f08f59b 3f584853 3f08a0a1 3f587e0b     ...?SHX?...?.~X?
   101b4:	3f084b92 3f58b3a1 3f07f66f 3f58e917     .K.?..X?o..?..X?
   101c4:	3f07a136 3f591e6a 3f074be8 3f59539c     6..?j.Y?.K.?.SY?
   101d4:	3f06f686 3f5988ad 3f06a10e 3f59bd9c     ...?..Y?...?..Y?
   101e4:	3f064b82 3f59f26a 3f05f5e2 3f5a2716     .K.?j.Y?...?.'Z?
   101f4:	3f05a02c 3f5a5ba0 3f054a62 3f5a9009     ,..?.[Z?bJ.?..Z?
   10204:	3f04f484 3f5ac450 3f049e91 3f5af875     ...?P.Z?...?u.Z?
   10214:	3f044889 3f5b2c79 3f03f26d 3f5b605a     .H.?y,[?m..?Z`[?
   10224:	3f039c3d 3f5b941a 3f0345f8 3f5bc7b8     =..?..[?.E.?..[?
   10234:	3f02ef9f 3f5bfb34 3f029932 3f5c2e8e     ...?4.[?2..?..\?
   10244:	3f0242b1 3f5c61c7 3f01ec1c 3f5c94dd     .B.?.a\?...?..\?
   10254:	3f019573 3f5cc7d1 3f013eb5 3f5cfaa3     s..?..\?.>.?..\?
   10264:	3f00e7e4 3f5d2d53 3f0090ff 3f5d5fe1     ...?S-]?...?._]?
   10274:	3f003a06 3f5d924d 3effc5f3 3f5dc497     .:.?M.]?...>..]?
   10284:	3eff17b2 3f5df6be 3efe694a 3f5e28c3     ...>..]?Ji.>.(^?
   10294:	3efdbabb 3f5e5aa6 3efd0c04 3f5e8c67     ...>.Z^?...>g.^?
   102a4:	3efc5d27 3f5ebe05 3efbae22 3f5eef81     '].>..^?"..>..^?
   102b4:	3efafef7 3f5f20db 3efa4fa5 3f5f5212     ...>. _?.O.>.R_?
   102c4:	3ef9a02d 3f5f8327 3ef8f08e 3f5fb419     -..>'._?...>.._?
   102d4:	3ef840c8 3f5fe4e9 3ef790dc 3f601596     .@.>.._?...>..`?
   102e4:	3ef6e0cb 3f604621 3ef63093 3f607689     ...>!F`?.0.>.v`?
   102f4:	3ef58035 3f60a6cf 3ef4cfb1 3f60d6f2     5..>..`?...>..`?
   10304:	3ef41f07 3f6106f2 3ef36e38 3f6136d0     ...>..a?8n.>.6a?
   10314:	3ef2bd43 3f61668a 3ef20c29 3f619622     C..>.fa?)..>".a?
   10324:	3ef15aea 3f61c598 3ef0a985 3f61f4ea     .Z.>..a?...>..a?
   10334:	3eeff7fb 3f62241a 3eef464c 3f625326     ...>.$b?LF.>&Sb?
   10344:	3eee9479 3f628210 3eede280 3f62b0d7     y..>..b?...>..b?
   10354:	3eed3063 3f62df7b 3eec7e21 3f630dfc     c0.>{.b?!~.>..c?
   10364:	3eebcbbb 3f633c5a 3eeb1930 3f636a95     ...>Z<c?0..>.jc?
   10374:	3eea6681 3f6398ac 3ee9b3ae 3f63c6a1     .f.>..c?...>..c?
   10384:	3ee900b7 3f63f473 3ee84d9c 3f642221     ...>s.c?.M.>!"d?
   10394:	3ee79a5d 3f644fac 3ee6e6fb 3f647d14     ]..>.Od?...>.}d?
   103a4:	3ee63375 3f64aa59 3ee57fcb 3f64d77b     u3.>Y.d?...>{.d?
   103b4:	3ee4cbfe 3f650479 3ee4180e 3f653154     ...>y.e?...>T1e?
   103c4:	3ee363fa 3f655e0b 3ee2afc4 3f658aa0     .c.>.^e?...>..e?
   103d4:	3ee1fb6a 3f65b710 3ee146ee 3f65e35e     j..>..e?.F.>^.e?
   103e4:	3ee0924f 3f660f88 3edfdd8d 3f663b8e     O..>..f?...>.;f?
   103f4:	3edf28a9 3f666771 3ede73a2 3f669330     .(.>qgf?.s.>0.f?
   10404:	3eddbe79 3f66becc 3edd092e 3f66ea45     y..>..f?...>E.f?
   10414:	3edc53c1 3f671599 3edb9e31 3f6740ca     .S.>..g?1..>.@g?
   10424:	3edae880 3f676bd8 3eda32ad 3f6796c1     ...>.kg?.2.>..g?
   10434:	3ed97cb9 3f67c187 3ed8c6a3 3f67ec2a     .|.>..g?...>*.g?
   10444:	3ed8106b 3f6816a8 3ed75a13 3f684103     k..>..h?.Z.>.Ah?
   10454:	3ed6a399 3f686b39 3ed5ecfd 3f68954c     ...>9kh?...>L.h?
   10464:	3ed53641 3f68bf3c 3ed47f64 3f68e907     A6.><.h?d..>..h?
   10474:	3ed3c867 3f6912ae 3ed31148 3f693c32     g..>..i?H..>2<i?
   10484:	3ed25a09 3f696591 3ed1a2aa 3f698ecc     .Z.>.ei?...>..i?
   10494:	3ed0eb2a 3f69b7e4 3ed0338a 3f69e0d7     *..>..i?.3.>..i?
   104a4:	3ecf7bca 3f6a09a7 3ecec3ea 3f6a3252     .{.>..j?...>R2j?
   104b4:	3ece0bea 3f6a5ad9 3ecd53ca 3f6a833c     ...>.Zj?.S.><.j?
   104c4:	3ecc9b8b 3f6aab7b 3ecbe32c 3f6ad395     ...>{.j?,..>..j?
   104d4:	3ecb2aae 3f6afb8c 3eca7210 3f6b235e     .*.>..j?.r.>^#k?
   104e4:	3ec9b953 3f6b4b0c 3ec90077 3f6b7295     S..>.Kk?w..>.rk?
   104f4:	3ec8477c 3f6b99fb 3ec78e62 3f6bc13b     |G.>..k?b..>;.k?
   10504:	3ec6d529 3f6be858 3ec61bd2 3f6c0f50     )..>X.k?...>P.l?
   10514:	3ec5625c 3f6c3624 3ec4a8c8 3f6c5cd4     \b.>$6l?...>.\l?
   10524:	3ec3ef15 3f6c835e 3ec33544 3f6ca9c5     ...>^.l?D5.>..l?
   10534:	3ec27b55 3f6cd007 3ec1c148 3f6cf624     U{.>..l?H..>$.l?
   10544:	3ec1071e 3f6d1c1d 3ec04cd5 3f6d41f2     ...>..m?.L.>.Am?
   10554:	3ebf926f 3f6d67a1 3ebed7eb 3f6d8d2d     o..>.gm?...>-.m?
   10564:	3ebe1d4a 3f6db293 3ebd628b 3f6dd7d5     J..>..m?.b.>..m?
   10574:	3ebca7af 3f6dfcf2 3ebbecb6 3f6e21eb     ...>..m?...>.!n?
   10584:	3ebb31a0 3f6e46be 3eba766e 3f6e6b6d     .1.>.Fn?nv.>mkn?
   10594:	3eb9bb1e 3f6e8ff8 3eb8ffb2 3f6eb45d     ...>..n?...>].n?
   105a4:	3eb8442a 3f6ed89e 3eb78884 3f6efcba     *D.>..n?...>..n?
   105b4:	3eb6ccc3 3f6f20b0 3eb610e6 3f6f4483     ...>. o?...>.Do?
   105c4:	3eb554ec 3f6f6830 3eb498d6 3f6f8bb8     .T.>0ho?...>..o?
   105d4:	3eb3dca5 3f6faf1b 3eb32058 3f6fd25a     ...>..o?X .>Z.o?
   105e4:	3eb263ef 3f6ff573 3eb1a76b 3f701867     .c.>s.o?k..>g.p?
   105f4:	3eb0eacb 3f703b37 3eb02e10 3f705de1     ...>7;p?...>.]p?
   10604:	3eaf713a 3f708066 3eaeb449 3f70a2c6     :q.>f.p?I..>..p?
   10614:	3eadf73c 3f70c502 3ead3a15 3f70e717     <..>..p?.:.>..p?
   10624:	3eac7cd4 3f710908 3eabbf77 3f712ad4     .|.>..q?w..>.*q?
   10634:	3eab0201 3f714c7a 3eaa446f 3f716dfb     ...>zLq?oD.>.mq?
   10644:	3ea986c4 3f718f57 3ea8c8fe 3f71b08e     ...>W.q?...>..q?
   10654:	3ea80b1f 3f71d19f 3ea74d25 3f71f28c     ...>..q?%M.>..q?
   10664:	3ea68f12 3f721352 3ea5d0e5 3f7233f4     ...>R.r?...>.3r?
   10674:	3ea5129f 3f725470 3ea4543f 3f7274c7     ...>pTr??T.>.tr?
   10684:	3ea395c5 3f7294f8 3ea2d733 3f72b504     ...>..r?3..>..r?
   10694:	3ea21887 3f72d4eb 3ea159c2 3f72f4ac     ...>..r?.Y.>..r?
   106a4:	3ea09ae5 3f731447 3e9fdbee 3f7333be     ...>G.s?...>.3s?
   106b4:	3e9f1cdf 3f73530e 3e9e5db8 3f737239     ...>.Ss?.].>9rs?
   106c4:	3e9d9e78 3f73913f 3e9cdf20 3f73b01f     x..>?.s? ..>..s?
   106d4:	3e9c1faf 3f73ced9 3e9b6027 3f73ed6e     ...>..s?'`.>n.s?
   106e4:	3e9aa086 3f740bdd 3e99e0ce 3f742a27     ...>..t?...>'*t?
   106f4:	3e9920fe 3f74484b 3e986116 3f746649     . .>KHt?.a.>Ift?
   10704:	3e97a117 3f748422 3e96e100 3f74a1d5     ...>".t?...>..t?
   10714:	3e9620d2 3f74bf62 3e95608d 3f74dcc9     . .>b.t?.`.>..t?
   10724:	3e94a031 3f74fa0b 3e93dfbf 3f751727     1..>..t?...>'.u?
   10734:	3e931f35 3f75341d 3e925e94 3f7550ed     5..>.4u?.^.>.Pu?
   10744:	3e919ddd 3f756d97 3e90dd10 3f758a1c     ...>.mu?...>..u?
   10754:	3e901c2c 3f75a67b 3e8f5b32 3f75c2b3     ,..>{.u?2[.>..u?
   10764:	3e8e9a22 3f75dec6 3e8dd8fc 3f75fab3     "..>..u?...>..u?
   10774:	3e8d17c0 3f76167a 3e8c566e 3f76321b     ...>z.v?nV.>.2v?
   10784:	3e8b9507 3f764d97 3e8ad38a 3f7668ec     ...>.Mv?...>.hv?
   10794:	3e8a11f8 3f76841b 3e895050 3f769f24     ...>..v?PP.>$.v?
   107a4:	3e888e93 3f76ba07 3e87ccc1 3f76d4c4     ...>..v?...>..v?
   107b4:	3e870ada 3f76ef5b 3e8648df 3f7709cc     ...>[.v?.H.>..w?
   107c4:	3e8586ce 3f772417 3e84c4aa 3f773e3c     ...>.$w?...><>w?
   107d4:	3e840270 3f77583a 3e834022 3f777213     p..>:Xw?"@.>.rw?
   107e4:	3e827dc0 3f778bc5 3e81bb4a 3f77a551     .}.>..w?J..>Q.w?
   107f4:	3e80f8c0 3f77beb7 3e803622 3f77d7f7     ...>..w?"6.>..w?
   10804:	3e7ee6e1 3f77f110 3e7d6156 3f780a04     ..~>..w?Va}>..x?
   10814:	3e7bdba4 3f7822d1 3e7a55cb 3f783b77     ..{>."x?.Uz>w;x?
   10824:	3e78cfcc 3f7853f8 3e7749a6 3f786c52     ..x>.Sx?.Iw>Rlx?
   10834:	3e75c35a 3f788486 3e743ce8 3f789c93     Z.u>..x?.<t>..x?
   10844:	3e72b651 3f78b47b 3e712f94 3f78cc3b     Q.r>{.x?./q>;.x?
   10854:	3e6fa8b2 3f78e3d6 3e6e21ab 3f78fb4a     ..o>..x?.!n>J.x?
   10864:	3e6c9a7f 3f791298 3e6b132f 3f7929bf     ..l>..y?/.k>.)y?
   10874:	3e698bba 3f7940c0 3e680422 3f79579a     ..i>.@y?".h>.Wy?
   10884:	3e667c66 3f796e4e 3e64f486 3f7984dc     f|f>Nny?..d>..y?
   10894:	3e636c83 3f799b43 3e61e45c 3f79b183     .lc>C.y?\.a>..y?
   108a4:	3e605c13 3f79c79d 3e5ed3a8 3f79dd91     .\`>..y?..^>..y?
   108b4:	3e5d4b1a 3f79f35e 3e5bc26a 3f7a0904     .K]>^.y?j.[>..z?
   108c4:	3e5a3997 3f7a1e84 3e58b0a4 3f7a33dd     .9Z>..z?..X>.3z?
   108d4:	3e57278f 3f7a4910 3e559e58 3f7a5e1c     .'W>.Iz?X.U>.^z?
   108e4:	3e541501 3f7a7302 3e528b89 3f7a87c1     ..T>.sz?..R>..z?
   108f4:	3e5101f1 3f7a9c59 3e4f7838 3f7ab0cb     ..Q>Y.z?8xO>..z?
   10904:	3e4dee60 3f7ac516 3e4c6467 3f7ad93a     `.M>..z?gdL>:.z?
   10914:	3e4ada4f 3f7aed37 3e495018 3f7b010e     O.J>7.z?.PI>..{?
   10924:	3e47c5c2 3f7b14be 3e463b4d 3f7b2848     ..G>..{?M;F>H({?
   10934:	3e44b0b9 3f7b3bab 3e432607 3f7b4ee7     ..D>.;{?.&C>.N{?
   10944:	3e419b37 3f7b61fc 3e401049 3f7b74ea     7.A>.a{?I.@>.t{?
   10954:	3e3e853e 3f7b87b2 3e3cfa15 3f7b9a53     >.>>..{?..<>S.{?
   10964:	3e3b6ecf 3f7baccd 3e39e36c 3f7bbf20     .n;>..{?l.9> .{?
   10974:	3e3857ec 3f7bd14d 3e36cc50 3f7be353     .W8>M.{?P.6>S.{?
   10984:	3e354098 3f7bf531 3e33b4c4 3f7c06e9     .@5>1.{?..3>..|?
   10994:	3e3228d4 3f7c187a 3e309cc9 3f7c29e5     .(2>z.|?..0>.)|?
   109a4:	3e2f10a2 3f7c3b28 3e2d8461 3f7c4c44     ../>(;|?a.->DL|?
   109b4:	3e2bf804 3f7c5d3a 3e2a6b8d 3f7c6e08     ..+>:]|?.k*>.n|?
   109c4:	3e28defc 3f7c7eb0 3e275251 3f7c8f31     ..(>.~|?QR'>1.|?
   109d4:	3e25c58c 3f7c9f8a 3e2438ad 3f7cafbd     ..%>..|?.8$>..|?
   109e4:	3e22abb6 3f7cbfc9 3e211ea5 3f7ccfae     ..">..|?..!>..|?
   109f4:	3e1f917b 3f7cdf6c 3e1e0438 3f7cef03     {..>l.|?8..>..|?
   10a04:	3e1c76de 3f7cfe73 3e1ae96b 3f7d0dbc     .v.>s.|?k..>..}?
   10a14:	3e195be0 3f7d1cdd 3e17ce3d 3f7d2bd8     .[.>..}?=..>.+}?
   10a24:	3e164083 3f7d3aac 3e14b2b2 3f7d4959     .@.>.:}?...>YI}?
   10a34:	3e1324ca 3f7d57de 3e1196cc 3f7d663d     .$.>.W}?...>=f}?
   10a44:	3e1008b7 3f7d7474 3e0e7a8b 3f7d8285     ...>tt}?.z.>..}?
   10a54:	3e0cec4a 3f7d906e 3e0b5df3 3f7d9e30     J..>n.}?.].>0.}?
   10a64:	3e09cf86 3f7dabcc 3e084105 3f7db940     ...>..}?.A.>@.}?
   10a74:	3e06b26e 3f7dc68c 3e0523c2 3f7dd3b2     n..>..}?.#.>..}?
   10a84:	3e039502 3f7de0b1 3e02062e 3f7ded88     ...>..}?...>..}?
   10a94:	3e007745 3f7dfa38 3dfdd092 3f7e06c2     Ew.>8.}?...=..~?
   10aa4:	3dfab273 3f7e1324 3df7942c 3f7e1f5e     s..=$.~?,..=^.~?
   10ab4:	3df475c0 3f7e2b72 3df1572e 3f7e375e     .u.=r+~?.W.=^7~?
   10ac4:	3dee3876 3f7e4323 3deb199a 3f7e4ec1     v8.=#C~?...=.N~?
   10ad4:	3de7fa9a 3f7e5a38 3de4db76 3f7e6588     ...=8Z~?v..=.e~?
   10ae4:	3de1bc2e 3f7e70b0 3dde9cc4 3f7e7bb1     ...=.p~?...=.{~?
   10af4:	3ddb7d37 3f7e868b 3dd85d89 3f7e913d     7}.=..~?.].==.~?
   10b04:	3dd53db9 3f7e9bc9 3dd21dc8 3f7ea62d     .=.=..~?...=-.~?
   10b14:	3dcefdb7 3f7eb069 3dcbdd86 3f7eba7f     ...=i.~?...=..~?
   10b24:	3dc8bd36 3f7ec46d 3dc59cc6 3f7ece34     6..=m.~?...=4.~?
   10b34:	3dc27c39 3f7ed7d4 3dbf5b8d 3f7ee14c     9|.=..~?.[.=L.~?
   10b44:	3dbc3ac3 3f7eea9d 3db919dd 3f7ef3c7     .:.=..~?...=..~?
   10b54:	3db5f8da 3f7efcc9 3db2d7bb 3f7f05a4     ...=..~?...=...?
   10b64:	3dafb680 3f7f0e58 3dac952b 3f7f16e4     ...=X..?+..=...?
   10b74:	3da973ba 3f7f1f49 3da65230 3f7f2787     .s.=I..?0R.=.'.?
   10b84:	3da3308c 3f7f2f9d 3da00ecf 3f7f378d     .0.=./.?...=.7.?
   10b94:	3d9cecf9 3f7f3f54 3d99cb0a 3f7f46f4     ...=T?.?...=.F.?
   10ba4:	3d96a905 3f7f4e6d 3d9386e7 3f7f55bf     ...=mN.?...=.U.?
   10bb4:	3d9064b4 3f7f5ce9 3d8d426a 3f7f63ec     .d.=.\.?jB.=.c.?
   10bc4:	3d8a200a 3f7f6ac7 3d86fd94 3f7f717b     . .=.j.?...={q.?
   10bd4:	3d83db0a 3f7f7808 3d80b86c 3f7f7e6d     ...=.x.?l..=m~.?
   10be4:	3d7b2b74 3f7f84ab 3d74e5e9 3f7f8ac2     t+{=...?..t=...?
   10bf4:	3d6ea038 3f7f90b1 3d685a62 3f7f9678     8.n=...?bZh=x..?
   10c04:	3d621468 3f7f9c18 3d5bce4c 3f7fa191     h.b=...?L.[=...?
   10c14:	3d55880e 3f7fa6e3 3d4f41af 3f7fac0d     ..U=...?.AO=...?
   10c24:	3d48fb2f 3f7fb10f 3d42b491 3f7fb5ea     /.H=...?..B=...?
   10c34:	3d3c6dd5 3f7fba9e 3d3626fc 3f7fbf2a     .m<=...?.&6=*..?
   10c44:	3d2fe007 3f7fc38f 3d2998f6 3f7fc7cc     ../=...?..)=...?
   10c54:	3d2351cc 3f7fcbe2 3d1d0a88 3f7fcfd1     .Q#=...?...=...?
   10c64:	3d16c32c 3f7fd398 3d107bb8 3f7fd737     ,..=...?.{.=7..?
   10c74:	3d0a342f 3f7fdaaf 3d03ec90 3f7fde00     /4.=...?...=...?
   10c84:	3cfb49b9 3f7fe129 3ceeba2d 3f7fe42b     .I.<)..?-..<+..?
   10c94:	3ce22a7b 3f7fe705 3cd59aa6 3f7fe9b8     {*.<...?...<...?
   10ca4:	3cc90ab0 3f7fec43 3cbc7a9b 3f7feea7     ...<C..?.z.<...?
   10cb4:	3cafea69 3f7ff0e3 3ca35a1c 3f7ff2f8     i..<...?.Z.<...?
   10cc4:	3c96c9b6 3f7ff4e6 3c8a3938 3f7ff6ac     ...<...?89.<...?
   10cd4:	3c7b514b 3f7ff84a 3c623000 3f7ff9c1     KQ{<J..?.0b<...?
   10ce4:	3c490e90 3f7ffb11 3c2fed02 3f7ffc39     ..I<...?../<9..?
   10cf4:	3c16cb59 3f7ffd39 3bfb5330 3f7ffe13     Y..<9..?0S.;...?
   10d04:	3bc90f89 3f7ffec4 3b96cbc1 3f7fff4e     ...;...?...;N..?
   10d14:	3b490fc7 3f7fffb1 3ac90fd4 3f7fffec     ..I;...?...:...?
   10d24:	00000000 3f800000 bac90fd4 3f7fffec     .......?.......?
   10d34:	bb490fc7 3f7fffb1 bb96cbc1 3f7fff4e     ..I....?....N..?
   10d44:	bbc90f89 3f7ffec4 bbfb5330 3f7ffe13     .......?0S.....?
   10d54:	bc16cb59 3f7ffd39 bc2fed02 3f7ffc39     Y...9..?../.9..?
   10d64:	bc490e90 3f7ffb11 bc623000 3f7ff9c1     ..I....?.0b....?
   10d74:	bc7b514b 3f7ff84a bc8a3938 3f7ff6ac     KQ{.J..?89.....?
   10d84:	bc96c9b6 3f7ff4e6 bca35a1c 3f7ff2f8     .......?.Z.....?
   10d94:	bcafea69 3f7ff0e3 bcbc7a9b 3f7feea7     i......?.z.....?
   10da4:	bcc90ab0 3f7fec43 bcd59aa6 3f7fe9b8     ....C..?.......?
   10db4:	bce22a7b 3f7fe705 bceeba2d 3f7fe42b     {*.....?-...+..?
   10dc4:	bcfb49b9 3f7fe129 bd03ec90 3f7fde00     .I..)..?.......?
   10dd4:	bd0a342f 3f7fdaaf bd107bb8 3f7fd737     /4.....?.{..7..?
   10de4:	bd16c32c 3f7fd398 bd1d0a88 3f7fcfd1     ,......?.......?
   10df4:	bd2351cc 3f7fcbe2 bd2998f6 3f7fc7cc     .Q#....?..)....?
   10e04:	bd2fe007 3f7fc38f bd3626fc 3f7fbf2a     ../....?.&6.*..?
   10e14:	bd3c6dd5 3f7fba9e bd42b491 3f7fb5ea     .m<....?..B....?
   10e24:	bd48fb2f 3f7fb10f bd4f41af 3f7fac0d     /.H....?.AO....?
   10e34:	bd55880e 3f7fa6e3 bd5bce4c 3f7fa191     ..U....?L.[....?
   10e44:	bd621468 3f7f9c18 bd685a62 3f7f9678     h.b....?bZh.x..?
   10e54:	bd6ea038 3f7f90b1 bd74e5e9 3f7f8ac2     8.n....?..t....?
   10e64:	bd7b2b74 3f7f84ab bd80b86c 3f7f7e6d     t+{....?l...m~.?
   10e74:	bd83db0a 3f7f7808 bd86fd94 3f7f717b     .....x.?....{q.?
   10e84:	bd8a200a 3f7f6ac7 bd8d426a 3f7f63ec     . ...j.?jB...c.?
   10e94:	bd9064b4 3f7f5ce9 bd9386e7 3f7f55bf     .d...\.?.....U.?
   10ea4:	bd96a905 3f7f4e6d bd99cb0a 3f7f46f4     ....mN.?.....F.?
   10eb4:	bd9cecf9 3f7f3f54 bda00ecf 3f7f378d     ....T?.?.....7.?
   10ec4:	bda3308c 3f7f2f9d bda65230 3f7f2787     .0.../.?0R...'.?
   10ed4:	bda973ba 3f7f1f49 bdac952b 3f7f16e4     .s..I..?+......?
   10ee4:	bdafb680 3f7f0e58 bdb2d7bb 3f7f05a4     ....X..?.......?
   10ef4:	bdb5f8da 3f7efcc9 bdb919dd 3f7ef3c7     ......~?......~?
   10f04:	bdbc3ac3 3f7eea9d bdbf5b8d 3f7ee14c     .:....~?.[..L.~?
   10f14:	bdc27c39 3f7ed7d4 bdc59cc6 3f7ece34     9|....~?....4.~?
   10f24:	bdc8bd36 3f7ec46d bdcbdd86 3f7eba7f     6...m.~?......~?
   10f34:	bdcefdb7 3f7eb069 bdd21dc8 3f7ea62d     ....i.~?....-.~?
   10f44:	bdd53db9 3f7e9bc9 bdd85d89 3f7e913d     .=....~?.]..=.~?
   10f54:	bddb7d37 3f7e868b bdde9cc4 3f7e7bb1     7}....~?.....{~?
   10f64:	bde1bc2e 3f7e70b0 bde4db76 3f7e6588     .....p~?v....e~?
   10f74:	bde7fa9a 3f7e5a38 bdeb199a 3f7e4ec1     ....8Z~?.....N~?
   10f84:	bdee3876 3f7e4323 bdf1572e 3f7e375e     v8..#C~?.W..^7~?
   10f94:	bdf475c0 3f7e2b72 bdf7942c 3f7e1f5e     .u..r+~?,...^.~?
   10fa4:	bdfab273 3f7e1324 bdfdd092 3f7e06c2     s...$.~?......~?
   10fb4:	be007745 3f7dfa38 be02062e 3f7ded88     Ew..8.}?......}?
   10fc4:	be039502 3f7de0b1 be0523c2 3f7dd3b2     ......}?.#....}?
   10fd4:	be06b26e 3f7dc68c be084105 3f7db940     n.....}?.A..@.}?
   10fe4:	be09cf86 3f7dabcc be0b5df3 3f7d9e30     ......}?.]..0.}?
   10ff4:	be0cec4a 3f7d906e be0e7a8b 3f7d8285     J...n.}?.z....}?
   11004:	be1008b7 3f7d7474 be1196cc 3f7d663d     ....tt}?....=f}?
   11014:	be1324ca 3f7d57de be14b2b2 3f7d4959     .$...W}?....YI}?
   11024:	be164083 3f7d3aac be17ce3d 3f7d2bd8     .@...:}?=....+}?
   11034:	be195be0 3f7d1cdd be1ae96b 3f7d0dbc     .[....}?k.....}?
   11044:	be1c76de 3f7cfe73 be1e0438 3f7cef03     .v..s.|?8.....|?
   11054:	be1f917b 3f7cdf6c be211ea5 3f7ccfae     {...l.|?..!...|?
   11064:	be22abb6 3f7cbfc9 be2438ad 3f7cafbd     .."...|?.8$...|?
   11074:	be25c58c 3f7c9f8a be275251 3f7c8f31     ..%...|?QR'.1.|?
   11084:	be28defc 3f7c7eb0 be2a6b8d 3f7c6e08     ..(..~|?.k*..n|?
   11094:	be2bf804 3f7c5d3a be2d8461 3f7c4c44     ..+.:]|?a.-.DL|?
   110a4:	be2f10a2 3f7c3b28 be309cc9 3f7c29e5     ../.(;|?..0..)|?
   110b4:	be3228d4 3f7c187a be33b4c4 3f7c06e9     .(2.z.|?..3...|?
   110c4:	be354098 3f7bf531 be36cc50 3f7be353     .@5.1.{?P.6.S.{?
   110d4:	be3857ec 3f7bd14d be39e36c 3f7bbf20     .W8.M.{?l.9. .{?
   110e4:	be3b6ecf 3f7baccd be3cfa15 3f7b9a53     .n;...{?..<.S.{?
   110f4:	be3e853e 3f7b87b2 be401049 3f7b74ea     >.>...{?I.@..t{?
   11104:	be419b37 3f7b61fc be432607 3f7b4ee7     7.A..a{?.&C..N{?
   11114:	be44b0b9 3f7b3bab be463b4d 3f7b2848     ..D..;{?M;F.H({?
   11124:	be47c5c2 3f7b14be be495018 3f7b010e     ..G...{?.PI...{?
   11134:	be4ada4f 3f7aed37 be4c6467 3f7ad93a     O.J.7.z?gdL.:.z?
   11144:	be4dee60 3f7ac516 be4f7838 3f7ab0cb     `.M...z?8xO...z?
   11154:	be5101f1 3f7a9c59 be528b89 3f7a87c1     ..Q.Y.z?..R...z?
   11164:	be541501 3f7a7302 be559e58 3f7a5e1c     ..T..sz?X.U..^z?
   11174:	be57278f 3f7a4910 be58b0a4 3f7a33dd     .'W..Iz?..X..3z?
   11184:	be5a3997 3f7a1e84 be5bc26a 3f7a0904     .9Z...z?j.[...z?
   11194:	be5d4b1a 3f79f35e be5ed3a8 3f79dd91     .K].^.y?..^...y?
   111a4:	be605c13 3f79c79d be61e45c 3f79b183     .\`...y?\.a...y?
   111b4:	be636c83 3f799b43 be64f486 3f7984dc     .lc.C.y?..d...y?
   111c4:	be667c66 3f796e4e be680422 3f79579a     f|f.Nny?".h..Wy?
   111d4:	be698bba 3f7940c0 be6b132f 3f7929bf     ..i..@y?/.k..)y?
   111e4:	be6c9a7f 3f791298 be6e21ab 3f78fb4a     ..l...y?.!n.J.x?
   111f4:	be6fa8b2 3f78e3d6 be712f94 3f78cc3b     ..o...x?./q.;.x?
   11204:	be72b651 3f78b47b be743ce8 3f789c93     Q.r.{.x?.<t...x?
   11214:	be75c35a 3f788486 be7749a6 3f786c52     Z.u...x?.Iw.Rlx?
   11224:	be78cfcc 3f7853f8 be7a55cb 3f783b77     ..x..Sx?.Uz.w;x?
   11234:	be7bdba4 3f7822d1 be7d6156 3f780a04     ..{.."x?Va}...x?
   11244:	be7ee6e1 3f77f110 be803622 3f77d7f7     ..~...w?"6....w?
   11254:	be80f8c0 3f77beb7 be81bb4a 3f77a551     ......w?J...Q.w?
   11264:	be827dc0 3f778bc5 be834022 3f777213     .}....w?"@...rw?
   11274:	be840270 3f77583a be84c4aa 3f773e3c     p...:Xw?....<>w?
   11284:	be8586ce 3f772417 be8648df 3f7709cc     .....$w?.H....w?
   11294:	be870ada 3f76ef5b be87ccc1 3f76d4c4     ....[.v?......v?
   112a4:	be888e93 3f76ba07 be895050 3f769f24     ......v?PP..$.v?
   112b4:	be8a11f8 3f76841b be8ad38a 3f7668ec     ......v?.....hv?
   112c4:	be8b9507 3f764d97 be8c566e 3f76321b     .....Mv?nV...2v?
   112d4:	be8d17c0 3f76167a be8dd8fc 3f75fab3     ....z.v?......u?
   112e4:	be8e9a22 3f75dec6 be8f5b32 3f75c2b3     ".....u?2[....u?
   112f4:	be901c2c 3f75a67b be90dd10 3f758a1c     ,...{.u?......u?
   11304:	be919ddd 3f756d97 be925e94 3f7550ed     .....mu?.^...Pu?
   11314:	be931f35 3f75341d be93dfbf 3f751727     5....4u?....'.u?
   11324:	be94a031 3f74fa0b be95608d 3f74dcc9     1.....t?.`....t?
   11334:	be9620d2 3f74bf62 be96e100 3f74a1d5     . ..b.t?......t?
   11344:	be97a117 3f748422 be986116 3f746649     ....".t?.a..Ift?
   11354:	be9920fe 3f74484b be99e0ce 3f742a27     . ..KHt?....'*t?
   11364:	be9aa086 3f740bdd be9b6027 3f73ed6e     ......t?'`..n.s?
   11374:	be9c1faf 3f73ced9 be9cdf20 3f73b01f     ......s? .....s?
   11384:	be9d9e78 3f73913f be9e5db8 3f737239     x...?.s?.]..9rs?
   11394:	be9f1cdf 3f73530e be9fdbee 3f7333be     .....Ss?.....3s?
   113a4:	bea09ae5 3f731447 bea159c2 3f72f4ac     ....G.s?.Y....r?
   113b4:	bea21887 3f72d4eb bea2d733 3f72b504     ......r?3.....r?
   113c4:	bea395c5 3f7294f8 bea4543f 3f7274c7     ......r??T...tr?
   113d4:	bea5129f 3f725470 bea5d0e5 3f7233f4     ....pTr?.....3r?
   113e4:	bea68f12 3f721352 bea74d25 3f71f28c     ....R.r?%M....q?
   113f4:	bea80b1f 3f71d19f bea8c8fe 3f71b08e     ......q?......q?
   11404:	bea986c4 3f718f57 beaa446f 3f716dfb     ....W.q?oD...mq?
   11414:	beab0201 3f714c7a beabbf77 3f712ad4     ....zLq?w....*q?
   11424:	beac7cd4 3f710908 bead3a15 3f70e717     .|....q?.:....p?
   11434:	beadf73c 3f70c502 beaeb449 3f70a2c6     <.....p?I.....p?
   11444:	beaf713a 3f708066 beb02e10 3f705de1     :q..f.p?.....]p?
   11454:	beb0eacb 3f703b37 beb1a76b 3f701867     ....7;p?k...g.p?
   11464:	beb263ef 3f6ff573 beb32058 3f6fd25a     .c..s.o?X ..Z.o?
   11474:	beb3dca5 3f6faf1b beb498d6 3f6f8bb8     ......o?......o?
   11484:	beb554ec 3f6f6830 beb610e6 3f6f4483     .T..0ho?.....Do?
   11494:	beb6ccc3 3f6f20b0 beb78884 3f6efcba     ..... o?......n?
   114a4:	beb8442a 3f6ed89e beb8ffb2 3f6eb45d     *D....n?....].n?
   114b4:	beb9bb1e 3f6e8ff8 beba766e 3f6e6b6d     ......n?nv..mkn?
   114c4:	bebb31a0 3f6e46be bebbecb6 3f6e21eb     .1...Fn?.....!n?
   114d4:	bebca7af 3f6dfcf2 bebd628b 3f6dd7d5     ......m?.b....m?
   114e4:	bebe1d4a 3f6db293 bebed7eb 3f6d8d2d     J.....m?....-.m?
   114f4:	bebf926f 3f6d67a1 bec04cd5 3f6d41f2     o....gm?.L...Am?
   11504:	bec1071e 3f6d1c1d bec1c148 3f6cf624     ......m?H...$.l?
   11514:	bec27b55 3f6cd007 bec33544 3f6ca9c5     U{....l?D5....l?
   11524:	bec3ef15 3f6c835e bec4a8c8 3f6c5cd4     ....^.l?.....\l?
   11534:	bec5625c 3f6c3624 bec61bd2 3f6c0f50     \b..$6l?....P.l?
   11544:	bec6d529 3f6be858 bec78e62 3f6bc13b     )...X.k?b...;.k?
   11554:	bec8477c 3f6b99fb bec90077 3f6b7295     |G....k?w....rk?
   11564:	bec9b953 3f6b4b0c beca7210 3f6b235e     S....Kk?.r..^#k?
   11574:	becb2aae 3f6afb8c becbe32c 3f6ad395     .*....j?,.....j?
   11584:	becc9b8b 3f6aab7b becd53ca 3f6a833c     ....{.j?.S..<.j?
   11594:	bece0bea 3f6a5ad9 becec3ea 3f6a3252     .....Zj?....R2j?
   115a4:	becf7bca 3f6a09a7 bed0338a 3f69e0d7     .{....j?.3....i?
   115b4:	bed0eb2a 3f69b7e4 bed1a2aa 3f698ecc     *.....i?......i?
   115c4:	bed25a09 3f696591 bed31148 3f693c32     .Z...ei?H...2<i?
   115d4:	bed3c867 3f6912ae bed47f64 3f68e907     g.....i?d.....h?
   115e4:	bed53641 3f68bf3c bed5ecfd 3f68954c     A6..<.h?....L.h?
   115f4:	bed6a399 3f686b39 bed75a13 3f684103     ....9kh?.Z...Ah?
   11604:	bed8106b 3f6816a8 bed8c6a3 3f67ec2a     k.....h?....*.g?
   11614:	bed97cb9 3f67c187 beda32ad 3f6796c1     .|....g?.2....g?
   11624:	bedae880 3f676bd8 bedb9e31 3f6740ca     .....kg?1....@g?
   11634:	bedc53c1 3f671599 bedd092e 3f66ea45     .S....g?....E.f?
   11644:	beddbe79 3f66becc bede73a2 3f669330     y.....f?.s..0.f?
   11654:	bedf28a9 3f666771 bedfdd8d 3f663b8e     .(..qgf?.....;f?
   11664:	bee0924f 3f660f88 bee146ee 3f65e35e     O.....f?.F..^.e?
   11674:	bee1fb6a 3f65b710 bee2afc4 3f658aa0     j.....e?......e?
   11684:	bee363fa 3f655e0b bee4180e 3f653154     .c...^e?....T1e?
   11694:	bee4cbfe 3f650479 bee57fcb 3f64d77b     ....y.e?....{.d?
   116a4:	bee63375 3f64aa59 bee6e6fb 3f647d14     u3..Y.d?.....}d?
   116b4:	bee79a5d 3f644fac bee84d9c 3f642221     ]....Od?.M..!"d?
   116c4:	bee900b7 3f63f473 bee9b3ae 3f63c6a1     ....s.c?......c?
   116d4:	beea6681 3f6398ac beeb1930 3f636a95     .f....c?0....jc?
   116e4:	beebcbbb 3f633c5a beec7e21 3f630dfc     ....Z<c?!~....c?
   116f4:	beed3063 3f62df7b beede280 3f62b0d7     c0..{.b?......b?
   11704:	beee9479 3f628210 beef464c 3f625326     y.....b?LF..&Sb?
   11714:	beeff7fb 3f62241a bef0a985 3f61f4ea     .....$b?......a?
   11724:	bef15aea 3f61c598 bef20c29 3f619622     .Z....a?)...".a?
   11734:	bef2bd43 3f61668a bef36e38 3f6136d0     C....fa?8n...6a?
   11744:	bef41f07 3f6106f2 bef4cfb1 3f60d6f2     ......a?......`?
   11754:	bef58035 3f60a6cf bef63093 3f607689     5.....`?.0...v`?
   11764:	bef6e0cb 3f604621 bef790dc 3f601596     ....!F`?......`?
   11774:	bef840c8 3f5fe4e9 bef8f08e 3f5fb419     .@...._?......_?
   11784:	bef9a02d 3f5f8327 befa4fa5 3f5f5212     -...'._?.O...R_?
   11794:	befafef7 3f5f20db befbae22 3f5eef81     ..... _?".....^?
   117a4:	befc5d27 3f5ebe05 befd0c04 3f5e8c67     ']....^?....g.^?
   117b4:	befdbabb 3f5e5aa6 befe694a 3f5e28c3     .....Z^?Ji...(^?
   117c4:	beff17b2 3f5df6be beffc5f3 3f5dc497     ......]?......]?
   117d4:	bf003a06 3f5d924d bf0090ff 3f5d5fe1     .:..M.]?....._]?
   117e4:	bf00e7e4 3f5d2d53 bf013eb5 3f5cfaa3     ....S-]?.>....\?
   117f4:	bf019573 3f5cc7d1 bf01ec1c 3f5c94dd     s.....\?......\?
   11804:	bf0242b1 3f5c61c7 bf029932 3f5c2e8e     .B...a\?2.....\?
   11814:	bf02ef9f 3f5bfb34 bf0345f8 3f5bc7b8     ....4.[?.E....[?
   11824:	bf039c3d 3f5b941a bf03f26d 3f5b605a     =.....[?m...Z`[?
   11834:	bf044889 3f5b2c79 bf049e91 3f5af875     .H..y,[?....u.Z?
   11844:	bf04f484 3f5ac450 bf054a62 3f5a9009     ....P.Z?bJ....Z?
   11854:	bf05a02c 3f5a5ba0 bf05f5e2 3f5a2716     ,....[Z?.....'Z?
   11864:	bf064b82 3f59f26a bf06a10e 3f59bd9c     .K..j.Y?......Y?
   11874:	bf06f686 3f5988ad bf074be8 3f59539c     ......Y?.K...SY?
   11884:	bf07a136 3f591e6a bf07f66f 3f58e917     6...j.Y?o.....X?
   11894:	bf084b92 3f58b3a1 bf08a0a1 3f587e0b     .K....X?.....~X?
   118a4:	bf08f59b 3f584853 bf094a7f 3f581279     ....SHX?.J..y.X?
   118b4:	bf099f4e 3f57dc7f bf09f409 3f57a663     N.....W?....c.W?
   118c4:	bf0a48ad 3f577026 bf0a9d3d 3f5739c7     .H..&pW?=....9W?
   118d4:	bf0af1b7 3f570348 bf0b461c 3f56cca7     ....H.W?.F....V?
   118e4:	bf0b9a6b 3f5695e5 bf0beea5 3f565f02     k.....V?....._V?
   118f4:	bf0c42c9 3f5627fe bf0c96d7 3f55f0d9     .B...'V?......U?
   11904:	bf0cead0 3f55b993 bf0d3eb3 3f55822c     ......U?.>..,.U?
   11914:	bf0d9281 3f554aa4 bf0de638 3f5512fb     .....JU?8.....U?
   11924:	bf0e39da 3f54db31 bf0e8d65 3f54a347     .9..1.T?e...G.T?
   11934:	bf0ee0db 3f546b3b bf0f343b 3f54330f     ....;kT?;4...3T?
   11944:	bf0f8784 3f53fac3 bf0fdab8 3f53c255     ......S?....U.S?
   11954:	bf102dd5 3f5389c7 bf1080dc 3f535118     .-....S?.....QS?
   11964:	bf10d3cd 3f531849 bf1126a7 3f52df59     ....I.S?.&..Y.R?
   11974:	bf11796b 3f52a649 bf11cc19 3f526d18     ky..I.R?.....mR?
   11984:	bf121eb0 3f5233c6 bf127130 3f51fa54     .....3R?0q..T.Q?
   11994:	bf12c39a 3f51c0c2 bf1315ee 3f518710     ......Q?......Q?
   119a4:	bf13682a 3f514d3d bf13ba50 3f51134a     *h..=MQ?P...J.Q?
   119b4:	bf140c5f 3f50d937 bf145e58 3f509f03     _...7.P?X^....P?
   119c4:	bf14b039 3f5064af bf150204 3f502a3b     9....dP?....;*P?
   119d4:	bf1553b7 3f4fefa8 bf15a554 3f4fb4f4     .S....O?T.....O?
   119e4:	bf15f6d9 3f4f7a1f bf164847 3f4f3f2b     .....zO?GH..+?O?
   119f4:	bf16999f 3f4f0417 bf16eadf 3f4ec8e4     ......O?......N?
   11a04:	bf173c07 3f4e8d90 bf178d18 3f4e521c     .<....N?.....RN?
   11a14:	bf17de12 3f4e1689 bf182ef5 3f4ddad5     ......N?......M?
   11a24:	bf187fc0 3f4d9f02 bf18d073 3f4d6310     ......M?s....cM?
   11a34:	bf19210f 3f4d26fd bf197194 3f4ceacb     .!...&M?.q....L?
   11a44:	bf19c200 3f4cae79 bf1a1255 3f4c7208     ....y.L?U....rL?
   11a54:	bf1a6293 3f4c3578 bf1ab2b8 3f4bf8c7     .b..x5L?......K?
   11a64:	bf1b02c6 3f4bbbf8 bf1b52bb 3f4b7f09     ......K?.R....K?
   11a74:	bf1ba299 3f4b41fa bf1bf25f 3f4b04cc     .....AK?_.....K?
   11a84:	bf1c420c 3f4ac77f bf1c91a2 3f4a8a13     .B....J?......J?
   11a94:	bf1ce11f 3f4a4c87 bf1d3084 3f4a0edc     .....LJ?.0....J?
   11aa4:	bf1d7fd1 3f49d112 bf1dcf06 3f499329     ......I?....).I?
   11ab4:	bf1e1e22 3f495521 bf1e6d26 3f4916fa     "...!UI?&m....I?
   11ac4:	bf1ebc12 3f48d8b3 bf1f0ae5 3f489a4e     ......H?....N.H?
   11ad4:	bf1f599f 3f485bca bf1fa841 3f481d27     .Y...[H?A...'.H?
   11ae4:	bf1ff6cb 3f47de65 bf20453b 3f479f84     ....e.G?;E ...G?
   11af4:	bf209393 3f476085 bf20e1d2 3f472167     .. ..`G?.. .g!G?
   11b04:	bf212ff9 3f46e22a bf217e06 3f46a2ce     ./!.*.F?.~!...F?
   11b14:	bf21cbfb 3f466354 bf2219d7 3f4623bb     ..!.TcF?.."..#F?
   11b24:	bf226799 3f45e403 bf22b543 3f45a42d     .g"...E?C.".-.E?
   11b34:	bf2302d3 3f456439 bf23504b 3f452426     ..#.9dE?KP#.&$E?
   11b44:	bf239da9 3f44e3f5 bf23eaee 3f44a3a5     ..#...D?..#...D?
   11b54:	bf24381a 3f446337 bf24852c 3f4422ab     .8$.7cD?,.$.."D?
   11b64:	bf24d225 3f43e200 bf251f04 3f43a138     %.$...C?..%.8.C?
   11b74:	bf256bcb 3f436051 bf25b877 3f431f4c     .k%.Q`C?w.%.L.C?
   11b84:	bf26050a 3f42de29 bf265184 3f429ce8     ..&.).B?.Q&...B?
   11b94:	bf269de3 3f425b89 bf26ea2a 3f421a0b     ..&..[B?*.&...B?
   11ba4:	bf273656 3f41d870 bf278268 3f4196b7     V6'.p.A?h.'...A?
   11bb4:	bf27ce61 3f4154e1 bf281a40 3f4112ec     a.'..TA?@.(...A?
   11bc4:	bf286605 3f40d0da bf28b1b0 3f408ea9     .f(...@?..(...@?
   11bd4:	bf28fd41 3f404c5c bf2948b8 3f4009f0     A.(.\L@?.H)...@?
   11be4:	bf299415 3f3fc767 bf29df57 3f3f84c0     ..).g.??W.)...??
   11bf4:	bf2a2a80 3f3f41fc bf2a758e 3f3eff1b     .**..A??.u*...>?
   11c04:	bf2ac082 3f3ebc1b bf2b0b5b 3f3e78ff     ..*...>?[.+..x>?
   11c14:	bf2b561b 3f3e35c5 bf2ba0bf 3f3df26e     .V+..5>?..+.n.=?
   11c24:	bf2beb4a 3f3daef9 bf2c35b9 3f3d6b67     J.+...=?.5,.gk=?
   11c34:	bf2c800f 3f3d27b8 bf2cca49 3f3ce3ec     ..,..'=?I.,...<?
   11c44:	bf2d1469 3f3ca003 bf2d5e6f 3f3c5bfc     i.-...<?o^-..[<?
   11c54:	bf2da859 3f3c17d9 bf2df229 3f3bd398     Y.-...<?).-...;?
   11c64:	bf2e3bde 3f3b8f3b bf2e8578 3f3b4ac1     .;..;.;?x....J;?
   11c74:	bf2ecef7 3f3b0629 bf2f185b 3f3ac175     ....).;?[./.u.:?
   11c84:	bf2f61a5 3f3a7ca4 bf2faad3 3f3a37b7     .a/..|:?../..7:?
   11c94:	bf2ff3e6 3f39f2ac bf303cde 3f39ad85     ../...9?.<0...9?
   11ca4:	bf3085bb 3f396842 bf30ce7c 3f3922e1     ..0.Bh9?|.0.."9?
   11cb4:	bf311722 3f38dd65 bf315fad 3f3897cb     ".1.e.8?._1...8?
   11cc4:	bf31a81d 3f385216 bf31f071 3f380c43     ..1..R8?q.1.C.8?
   11cd4:	bf3238aa 3f37c655 bf3280c7 3f37804a     .82.U.7?..2.J.7?
   11ce4:	bf32c8c9 3f373a23 bf3310af 3f36f3df     ..2.#:7?..3...6?
   11cf4:	bf33587a 3f36ad7f bf33a029 3f366704     zX3...6?).3..g6?
   11d04:	bf33e7bc 3f36206c bf342f34 3f35d9b8     ..3.l 6?4/4...5?
   11d14:	bf34768f 3f3592e7 bf34bdcf 3f354bfb     .v4...5?..4..K5?
   11d24:	bf3504f3 3f3504f3 bf354bfb 3f34bdcf     ..5...5?.K5...4?
   11d34:	bf3592e7 3f34768f bf35d9b8 3f342f34     ..5..v4?..5.4/4?
   11d44:	bf36206c 3f33e7bc bf366704 3f33a029     l 6...3?.g6.).3?
   11d54:	bf36ad7f 3f33587a bf36f3df 3f3310af     ..6.zX3?..6...3?
   11d64:	bf373a23 3f32c8c9 bf37804a 3f3280c7     #:7...2?J.7...2?
   11d74:	bf37c655 3f3238aa bf380c43 3f31f071     U.7..82?C.8.q.1?
   11d84:	bf385216 3f31a81d bf3897cb 3f315fad     .R8...1?..8.._1?
   11d94:	bf38dd65 3f311722 bf3922e1 3f30ce7c     e.8.".1?."9.|.0?
   11da4:	bf396842 3f3085bb bf39ad85 3f303cde     Bh9...0?..9..<0?
   11db4:	bf39f2ac 3f2ff3e6 bf3a37b7 3f2faad3     ..9.../?.7:.../?
   11dc4:	bf3a7ca4 3f2f61a5 bf3ac175 3f2f185b     .|:..a/?u.:.[./?
   11dd4:	bf3b0629 3f2ecef7 bf3b4ac1 3f2e8578     ).;....?.J;.x..?
   11de4:	bf3b8f3b 3f2e3bde bf3bd398 3f2df229     ;.;..;.?..;.).-?
   11df4:	bf3c17d9 3f2da859 bf3c5bfc 3f2d5e6f     ..<.Y.-?.[<.o^-?
   11e04:	bf3ca003 3f2d1469 bf3ce3ec 3f2cca49     ..<.i.-?..<.I.,?
   11e14:	bf3d27b8 3f2c800f bf3d6b67 3f2c35b9     .'=...,?gk=..5,?
   11e24:	bf3daef9 3f2beb4a bf3df26e 3f2ba0bf     ..=.J.+?n.=...+?
   11e34:	bf3e35c5 3f2b561b bf3e78ff 3f2b0b5b     .5>..V+?.x>.[.+?
   11e44:	bf3ebc1b 3f2ac082 bf3eff1b 3f2a758e     ..>...*?..>..u*?
   11e54:	bf3f41fc 3f2a2a80 bf3f84c0 3f29df57     .A?..**?..?.W.)?
   11e64:	bf3fc767 3f299415 bf4009f0 3f2948b8     g.?...)?..@..H)?
   11e74:	bf404c5c 3f28fd41 bf408ea9 3f28b1b0     \L@.A.(?..@...(?
   11e84:	bf40d0da 3f286605 bf4112ec 3f281a40     ..@..f(?..A.@.(?
   11e94:	bf4154e1 3f27ce61 bf4196b7 3f278268     .TA.a.'?..A.h.'?
   11ea4:	bf41d870 3f273656 bf421a0b 3f26ea2a     p.A.V6'?..B.*.&?
   11eb4:	bf425b89 3f269de3 bf429ce8 3f265184     .[B...&?..B..Q&?
   11ec4:	bf42de29 3f26050a bf431f4c 3f25b877     ).B...&?L.C.w.%?
   11ed4:	bf436051 3f256bcb bf43a138 3f251f04     Q`C..k%?8.C...%?
   11ee4:	bf43e200 3f24d225 bf4422ab 3f24852c     ..C.%.$?."D.,.$?
   11ef4:	bf446337 3f24381a bf44a3a5 3f23eaee     7cD..8$?..D...#?
   11f04:	bf44e3f5 3f239da9 bf452426 3f23504b     ..D...#?&$E.KP#?
   11f14:	bf456439 3f2302d3 bf45a42d 3f22b543     9dE...#?-.E.C."?
   11f24:	bf45e403 3f226799 bf4623bb 3f2219d7     ..E..g"?.#F..."?
   11f34:	bf466354 3f21cbfb bf46a2ce 3f217e06     TcF...!?..F..~!?
   11f44:	bf46e22a 3f212ff9 bf472167 3f20e1d2     *.F../!?g!G... ?
   11f54:	bf476085 3f209393 bf479f84 3f20453b     .`G... ?..G.;E ?
   11f64:	bf47de65 3f1ff6cb bf481d27 3f1fa841     e.G....?'.H.A..?
   11f74:	bf485bca 3f1f599f bf489a4e 3f1f0ae5     .[H..Y.?N.H....?
   11f84:	bf48d8b3 3f1ebc12 bf4916fa 3f1e6d26     ..H....?..I.&m.?
   11f94:	bf495521 3f1e1e22 bf499329 3f1dcf06     !UI."..?).I....?
   11fa4:	bf49d112 3f1d7fd1 bf4a0edc 3f1d3084     ..I....?..J..0.?
   11fb4:	bf4a4c87 3f1ce11f bf4a8a13 3f1c91a2     .LJ....?..J....?
   11fc4:	bf4ac77f 3f1c420c bf4b04cc 3f1bf25f     ..J..B.?..K._..?
   11fd4:	bf4b41fa 3f1ba299 bf4b7f09 3f1b52bb     .AK....?..K..R.?
   11fe4:	bf4bbbf8 3f1b02c6 bf4bf8c7 3f1ab2b8     ..K....?..K....?
   11ff4:	bf4c3578 3f1a6293 bf4c7208 3f1a1255     x5L..b.?.rL.U..?
   12004:	bf4cae79 3f19c200 bf4ceacb 3f197194     y.L....?..L..q.?
   12014:	bf4d26fd 3f19210f bf4d6310 3f18d073     .&M..!.?.cM.s..?
   12024:	bf4d9f02 3f187fc0 bf4ddad5 3f182ef5     ..M....?..M....?
   12034:	bf4e1689 3f17de12 bf4e521c 3f178d18     ..N....?.RN....?
   12044:	bf4e8d90 3f173c07 bf4ec8e4 3f16eadf     ..N..<.?..N....?
   12054:	bf4f0417 3f16999f bf4f3f2b 3f164847     ..O....?+?O.GH.?
   12064:	bf4f7a1f 3f15f6d9 bf4fb4f4 3f15a554     .zO....?..O.T..?
   12074:	bf4fefa8 3f1553b7 bf502a3b 3f150204     ..O..S.?;*P....?
   12084:	bf5064af 3f14b039 bf509f03 3f145e58     .dP.9..?..P.X^.?
   12094:	bf50d937 3f140c5f bf51134a 3f13ba50     7.P._..?J.Q.P..?
   120a4:	bf514d3d 3f13682a bf518710 3f1315ee     =MQ.*h.?..Q....?
   120b4:	bf51c0c2 3f12c39a bf51fa54 3f127130     ..Q....?T.Q.0q.?
   120c4:	bf5233c6 3f121eb0 bf526d18 3f11cc19     .3R....?.mR....?
   120d4:	bf52a649 3f11796b bf52df59 3f1126a7     I.R.ky.?Y.R..&.?
   120e4:	bf531849 3f10d3cd bf535118 3f1080dc     I.S....?.QS....?
   120f4:	bf5389c7 3f102dd5 bf53c255 3f0fdab8     ..S..-.?U.S....?
   12104:	bf53fac3 3f0f8784 bf54330f 3f0f343b     ..S....?.3T.;4.?
   12114:	bf546b3b 3f0ee0db bf54a347 3f0e8d65     ;kT....?G.T.e..?
   12124:	bf54db31 3f0e39da bf5512fb 3f0de638     1.T..9.?..U.8..?
   12134:	bf554aa4 3f0d9281 bf55822c 3f0d3eb3     .JU....?,.U..>.?
   12144:	bf55b993 3f0cead0 bf55f0d9 3f0c96d7     ..U....?..U....?
   12154:	bf5627fe 3f0c42c9 bf565f02 3f0beea5     .'V..B.?._V....?
   12164:	bf5695e5 3f0b9a6b bf56cca7 3f0b461c     ..V.k..?..V..F.?
   12174:	bf570348 3f0af1b7 bf5739c7 3f0a9d3d     H.W....?.9W.=..?
   12184:	bf577026 3f0a48ad bf57a663 3f09f409     &pW..H.?c.W....?
   12194:	bf57dc7f 3f099f4e bf581279 3f094a7f     ..W.N..?y.X..J.?
   121a4:	bf584853 3f08f59b bf587e0b 3f08a0a1     SHX....?.~X....?
   121b4:	bf58b3a1 3f084b92 bf58e917 3f07f66f     ..X..K.?..X.o..?
   121c4:	bf591e6a 3f07a136 bf59539c 3f074be8     j.Y.6..?.SY..K.?
   121d4:	bf5988ad 3f06f686 bf59bd9c 3f06a10e     ..Y....?..Y....?
   121e4:	bf59f26a 3f064b82 bf5a2716 3f05f5e2     j.Y..K.?.'Z....?
   121f4:	bf5a5ba0 3f05a02c bf5a9009 3f054a62     .[Z.,..?..Z.bJ.?
   12204:	bf5ac450 3f04f484 bf5af875 3f049e91     P.Z....?u.Z....?
   12214:	bf5b2c79 3f044889 bf5b605a 3f03f26d     y,[..H.?Z`[.m..?
   12224:	bf5b941a 3f039c3d bf5bc7b8 3f0345f8     ..[.=..?..[..E.?
   12234:	bf5bfb34 3f02ef9f bf5c2e8e 3f029932     4.[....?..\.2..?
   12244:	bf5c61c7 3f0242b1 bf5c94dd 3f01ec1c     .a\..B.?..\....?
   12254:	bf5cc7d1 3f019573 bf5cfaa3 3f013eb5     ..\.s..?..\..>.?
   12264:	bf5d2d53 3f00e7e4 bf5d5fe1 3f0090ff     S-]....?._]....?
   12274:	bf5d924d 3f003a06 bf5dc497 3effc5f3     M.]..:.?..]....>
   12284:	bf5df6be 3eff17b2 bf5e28c3 3efe694a     ..]....>.(^.Ji.>
   12294:	bf5e5aa6 3efdbabb bf5e8c67 3efd0c04     .Z^....>g.^....>
   122a4:	bf5ebe05 3efc5d27 bf5eef81 3efbae22     ..^.'].>..^."..>
   122b4:	bf5f20db 3efafef7 bf5f5212 3efa4fa5     . _....>.R_..O.>
   122c4:	bf5f8327 3ef9a02d bf5fb419 3ef8f08e     '._.-..>.._....>
   122d4:	bf5fe4e9 3ef840c8 bf601596 3ef790dc     .._..@.>..`....>
   122e4:	bf604621 3ef6e0cb bf607689 3ef63093     !F`....>.v`..0.>
   122f4:	bf60a6cf 3ef58035 bf60d6f2 3ef4cfb1     ..`.5..>..`....>
   12304:	bf6106f2 3ef41f07 bf6136d0 3ef36e38     ..a....>.6a.8n.>
   12314:	bf61668a 3ef2bd43 bf619622 3ef20c29     .fa.C..>".a.)..>
   12324:	bf61c598 3ef15aea bf61f4ea 3ef0a985     ..a..Z.>..a....>
   12334:	bf62241a 3eeff7fb bf625326 3eef464c     .$b....>&Sb.LF.>
   12344:	bf628210 3eee9479 bf62b0d7 3eede280     ..b.y..>..b....>
   12354:	bf62df7b 3eed3063 bf630dfc 3eec7e21     {.b.c0.>..c.!~.>
   12364:	bf633c5a 3eebcbbb bf636a95 3eeb1930     Z<c....>.jc.0..>
   12374:	bf6398ac 3eea6681 bf63c6a1 3ee9b3ae     ..c..f.>..c....>
   12384:	bf63f473 3ee900b7 bf642221 3ee84d9c     s.c....>!"d..M.>
   12394:	bf644fac 3ee79a5d bf647d14 3ee6e6fb     .Od.]..>.}d....>
   123a4:	bf64aa59 3ee63375 bf64d77b 3ee57fcb     Y.d.u3.>{.d....>
   123b4:	bf650479 3ee4cbfe bf653154 3ee4180e     y.e....>T1e....>
   123c4:	bf655e0b 3ee363fa bf658aa0 3ee2afc4     .^e..c.>..e....>
   123d4:	bf65b710 3ee1fb6a bf65e35e 3ee146ee     ..e.j..>^.e..F.>
   123e4:	bf660f88 3ee0924f bf663b8e 3edfdd8d     ..f.O..>.;f....>
   123f4:	bf666771 3edf28a9 bf669330 3ede73a2     qgf..(.>0.f..s.>
   12404:	bf66becc 3eddbe79 bf66ea45 3edd092e     ..f.y..>E.f....>
   12414:	bf671599 3edc53c1 bf6740ca 3edb9e31     ..g..S.>.@g.1..>
   12424:	bf676bd8 3edae880 bf6796c1 3eda32ad     .kg....>..g..2.>
   12434:	bf67c187 3ed97cb9 bf67ec2a 3ed8c6a3     ..g..|.>*.g....>
   12444:	bf6816a8 3ed8106b bf684103 3ed75a13     ..h.k..>.Ah..Z.>
   12454:	bf686b39 3ed6a399 bf68954c 3ed5ecfd     9kh....>L.h....>
   12464:	bf68bf3c 3ed53641 bf68e907 3ed47f64     <.h.A6.>..h.d..>
   12474:	bf6912ae 3ed3c867 bf693c32 3ed31148     ..i.g..>2<i.H..>
   12484:	bf696591 3ed25a09 bf698ecc 3ed1a2aa     .ei..Z.>..i....>
   12494:	bf69b7e4 3ed0eb2a bf69e0d7 3ed0338a     ..i.*..>..i..3.>
   124a4:	bf6a09a7 3ecf7bca bf6a3252 3ecec3ea     ..j..{.>R2j....>
   124b4:	bf6a5ad9 3ece0bea bf6a833c 3ecd53ca     .Zj....><.j..S.>
   124c4:	bf6aab7b 3ecc9b8b bf6ad395 3ecbe32c     {.j....>..j.,..>
   124d4:	bf6afb8c 3ecb2aae bf6b235e 3eca7210     ..j..*.>^#k..r.>
   124e4:	bf6b4b0c 3ec9b953 bf6b7295 3ec90077     .Kk.S..>.rk.w..>
   124f4:	bf6b99fb 3ec8477c bf6bc13b 3ec78e62     ..k.|G.>;.k.b..>
   12504:	bf6be858 3ec6d529 bf6c0f50 3ec61bd2     X.k.)..>P.l....>
   12514:	bf6c3624 3ec5625c bf6c5cd4 3ec4a8c8     $6l.\b.>.\l....>
   12524:	bf6c835e 3ec3ef15 bf6ca9c5 3ec33544     ^.l....>..l.D5.>
   12534:	bf6cd007 3ec27b55 bf6cf624 3ec1c148     ..l.U{.>$.l.H..>
   12544:	bf6d1c1d 3ec1071e bf6d41f2 3ec04cd5     ..m....>.Am..L.>
   12554:	bf6d67a1 3ebf926f bf6d8d2d 3ebed7eb     .gm.o..>-.m....>
   12564:	bf6db293 3ebe1d4a bf6dd7d5 3ebd628b     ..m.J..>..m..b.>
   12574:	bf6dfcf2 3ebca7af bf6e21eb 3ebbecb6     ..m....>.!n....>
   12584:	bf6e46be 3ebb31a0 bf6e6b6d 3eba766e     .Fn..1.>mkn.nv.>
   12594:	bf6e8ff8 3eb9bb1e bf6eb45d 3eb8ffb2     ..n....>].n....>
   125a4:	bf6ed89e 3eb8442a bf6efcba 3eb78884     ..n.*D.>..n....>
   125b4:	bf6f20b0 3eb6ccc3 bf6f4483 3eb610e6     . o....>.Do....>
   125c4:	bf6f6830 3eb554ec bf6f8bb8 3eb498d6     0ho..T.>..o....>
   125d4:	bf6faf1b 3eb3dca5 bf6fd25a 3eb32058     ..o....>Z.o.X .>
   125e4:	bf6ff573 3eb263ef bf701867 3eb1a76b     s.o..c.>g.p.k..>
   125f4:	bf703b37 3eb0eacb bf705de1 3eb02e10     7;p....>.]p....>
   12604:	bf708066 3eaf713a bf70a2c6 3eaeb449     f.p.:q.>..p.I..>
   12614:	bf70c502 3eadf73c bf70e717 3ead3a15     ..p.<..>..p..:.>
   12624:	bf710908 3eac7cd4 bf712ad4 3eabbf77     ..q..|.>.*q.w..>
   12634:	bf714c7a 3eab0201 bf716dfb 3eaa446f     zLq....>.mq.oD.>
   12644:	bf718f57 3ea986c4 bf71b08e 3ea8c8fe     W.q....>..q....>
   12654:	bf71d19f 3ea80b1f bf71f28c 3ea74d25     ..q....>..q.%M.>
   12664:	bf721352 3ea68f12 bf7233f4 3ea5d0e5     R.r....>.3r....>
   12674:	bf725470 3ea5129f bf7274c7 3ea4543f     pTr....>.tr.?T.>
   12684:	bf7294f8 3ea395c5 bf72b504 3ea2d733     ..r....>..r.3..>
   12694:	bf72d4eb 3ea21887 bf72f4ac 3ea159c2     ..r....>..r..Y.>
   126a4:	bf731447 3ea09ae5 bf7333be 3e9fdbee     G.s....>.3s....>
   126b4:	bf73530e 3e9f1cdf bf737239 3e9e5db8     .Ss....>9rs..].>
   126c4:	bf73913f 3e9d9e78 bf73b01f 3e9cdf20     ?.s.x..>..s. ..>
   126d4:	bf73ced9 3e9c1faf bf73ed6e 3e9b6027     ..s....>n.s.'`.>
   126e4:	bf740bdd 3e9aa086 bf742a27 3e99e0ce     ..t....>'*t....>
   126f4:	bf74484b 3e9920fe bf746649 3e986116     KHt.. .>Ift..a.>
   12704:	bf748422 3e97a117 bf74a1d5 3e96e100     ".t....>..t....>
   12714:	bf74bf62 3e9620d2 bf74dcc9 3e95608d     b.t.. .>..t..`.>
   12724:	bf74fa0b 3e94a031 bf751727 3e93dfbf     ..t.1..>'.u....>
   12734:	bf75341d 3e931f35 bf7550ed 3e925e94     .4u.5..>.Pu..^.>
   12744:	bf756d97 3e919ddd bf758a1c 3e90dd10     .mu....>..u....>
   12754:	bf75a67b 3e901c2c bf75c2b3 3e8f5b32     {.u.,..>..u.2[.>
   12764:	bf75dec6 3e8e9a22 bf75fab3 3e8dd8fc     ..u."..>..u....>
   12774:	bf76167a 3e8d17c0 bf76321b 3e8c566e     z.v....>.2v.nV.>
   12784:	bf764d97 3e8b9507 bf7668ec 3e8ad38a     .Mv....>.hv....>
   12794:	bf76841b 3e8a11f8 bf769f24 3e895050     ..v....>$.v.PP.>
   127a4:	bf76ba07 3e888e93 bf76d4c4 3e87ccc1     ..v....>..v....>
   127b4:	bf76ef5b 3e870ada bf7709cc 3e8648df     [.v....>..w..H.>
   127c4:	bf772417 3e8586ce bf773e3c 3e84c4aa     .$w....><>w....>
   127d4:	bf77583a 3e840270 bf777213 3e834022     :Xw.p..>.rw."@.>
   127e4:	bf778bc5 3e827dc0 bf77a551 3e81bb4a     ..w..}.>Q.w.J..>
   127f4:	bf77beb7 3e80f8c0 bf77d7f7 3e803622     ..w....>..w."6.>
   12804:	bf77f110 3e7ee6e1 bf780a04 3e7d6156     ..w...~>..x.Va}>
   12814:	bf7822d1 3e7bdba4 bf783b77 3e7a55cb     ."x...{>w;x..Uz>
   12824:	bf7853f8 3e78cfcc bf786c52 3e7749a6     .Sx...x>Rlx..Iw>
   12834:	bf788486 3e75c35a bf789c93 3e743ce8     ..x.Z.u>..x..<t>
   12844:	bf78b47b 3e72b651 bf78cc3b 3e712f94     {.x.Q.r>;.x../q>
   12854:	bf78e3d6 3e6fa8b2 bf78fb4a 3e6e21ab     ..x...o>J.x..!n>
   12864:	bf791298 3e6c9a7f bf7929bf 3e6b132f     ..y...l>.)y./.k>
   12874:	bf7940c0 3e698bba bf79579a 3e680422     .@y...i>.Wy.".h>
   12884:	bf796e4e 3e667c66 bf7984dc 3e64f486     Nny.f|f>..y...d>
   12894:	bf799b43 3e636c83 bf79b183 3e61e45c     C.y..lc>..y.\.a>
   128a4:	bf79c79d 3e605c13 bf79dd91 3e5ed3a8     ..y..\`>..y...^>
   128b4:	bf79f35e 3e5d4b1a bf7a0904 3e5bc26a     ^.y..K]>..z.j.[>
   128c4:	bf7a1e84 3e5a3997 bf7a33dd 3e58b0a4     ..z..9Z>.3z...X>
   128d4:	bf7a4910 3e57278f bf7a5e1c 3e559e58     .Iz..'W>.^z.X.U>
   128e4:	bf7a7302 3e541501 bf7a87c1 3e528b89     .sz...T>..z...R>
   128f4:	bf7a9c59 3e5101f1 bf7ab0cb 3e4f7838     Y.z...Q>..z.8xO>
   12904:	bf7ac516 3e4dee60 bf7ad93a 3e4c6467     ..z.`.M>:.z.gdL>
   12914:	bf7aed37 3e4ada4f bf7b010e 3e495018     7.z.O.J>..{..PI>
   12924:	bf7b14be 3e47c5c2 bf7b2848 3e463b4d     ..{...G>H({.M;F>
   12934:	bf7b3bab 3e44b0b9 bf7b4ee7 3e432607     .;{...D>.N{..&C>
   12944:	bf7b61fc 3e419b37 bf7b74ea 3e401049     .a{.7.A>.t{.I.@>
   12954:	bf7b87b2 3e3e853e bf7b9a53 3e3cfa15     ..{.>.>>S.{...<>
   12964:	bf7baccd 3e3b6ecf bf7bbf20 3e39e36c     ..{..n;> .{.l.9>
   12974:	bf7bd14d 3e3857ec bf7be353 3e36cc50     M.{..W8>S.{.P.6>
   12984:	bf7bf531 3e354098 bf7c06e9 3e33b4c4     1.{..@5>..|...3>
   12994:	bf7c187a 3e3228d4 bf7c29e5 3e309cc9     z.|..(2>.)|...0>
   129a4:	bf7c3b28 3e2f10a2 bf7c4c44 3e2d8461     (;|.../>DL|.a.->
   129b4:	bf7c5d3a 3e2bf804 bf7c6e08 3e2a6b8d     :]|...+>.n|..k*>
   129c4:	bf7c7eb0 3e28defc bf7c8f31 3e275251     .~|...(>1.|.QR'>
   129d4:	bf7c9f8a 3e25c58c bf7cafbd 3e2438ad     ..|...%>..|..8$>
   129e4:	bf7cbfc9 3e22abb6 bf7ccfae 3e211ea5     ..|...">..|...!>
   129f4:	bf7cdf6c 3e1f917b bf7cef03 3e1e0438     l.|.{..>..|.8..>
   12a04:	bf7cfe73 3e1c76de bf7d0dbc 3e1ae96b     s.|..v.>..}.k..>
   12a14:	bf7d1cdd 3e195be0 bf7d2bd8 3e17ce3d     ..}..[.>.+}.=..>
   12a24:	bf7d3aac 3e164083 bf7d4959 3e14b2b2     .:}..@.>YI}....>
   12a34:	bf7d57de 3e1324ca bf7d663d 3e1196cc     .W}..$.>=f}....>
   12a44:	bf7d7474 3e1008b7 bf7d8285 3e0e7a8b     tt}....>..}..z.>
   12a54:	bf7d906e 3e0cec4a bf7d9e30 3e0b5df3     n.}.J..>0.}..].>
   12a64:	bf7dabcc 3e09cf86 bf7db940 3e084105     ..}....>@.}..A.>
   12a74:	bf7dc68c 3e06b26e bf7dd3b2 3e0523c2     ..}.n..>..}..#.>
   12a84:	bf7de0b1 3e039502 bf7ded88 3e02062e     ..}....>..}....>
   12a94:	bf7dfa38 3e007745 bf7e06c2 3dfdd092     8.}.Ew.>..~....=
   12aa4:	bf7e1324 3dfab273 bf7e1f5e 3df7942c     $.~.s..=^.~.,..=
   12ab4:	bf7e2b72 3df475c0 bf7e375e 3df1572e     r+~..u.=^7~..W.=
   12ac4:	bf7e4323 3dee3876 bf7e4ec1 3deb199a     #C~.v8.=.N~....=
   12ad4:	bf7e5a38 3de7fa9a bf7e6588 3de4db76     8Z~....=.e~.v..=
   12ae4:	bf7e70b0 3de1bc2e bf7e7bb1 3dde9cc4     .p~....=.{~....=
   12af4:	bf7e868b 3ddb7d37 bf7e913d 3dd85d89     ..~.7}.==.~..].=
   12b04:	bf7e9bc9 3dd53db9 bf7ea62d 3dd21dc8     ..~..=.=-.~....=
   12b14:	bf7eb069 3dcefdb7 bf7eba7f 3dcbdd86     i.~....=..~....=
   12b24:	bf7ec46d 3dc8bd36 bf7ece34 3dc59cc6     m.~.6..=4.~....=
   12b34:	bf7ed7d4 3dc27c39 bf7ee14c 3dbf5b8d     ..~.9|.=L.~..[.=
   12b44:	bf7eea9d 3dbc3ac3 bf7ef3c7 3db919dd     ..~..:.=..~....=
   12b54:	bf7efcc9 3db5f8da bf7f05a4 3db2d7bb     ..~....=.......=
   12b64:	bf7f0e58 3dafb680 bf7f16e4 3dac952b     X......=....+..=
   12b74:	bf7f1f49 3da973ba bf7f2787 3da65230     I....s.=.'..0R.=
   12b84:	bf7f2f9d 3da3308c bf7f378d 3da00ecf     ./...0.=.7.....=
   12b94:	bf7f3f54 3d9cecf9 bf7f46f4 3d99cb0a     T?.....=.F.....=
   12ba4:	bf7f4e6d 3d96a905 bf7f55bf 3d9386e7     mN.....=.U.....=
   12bb4:	bf7f5ce9 3d9064b4 bf7f63ec 3d8d426a     .\...d.=.c..jB.=
   12bc4:	bf7f6ac7 3d8a200a bf7f717b 3d86fd94     .j... .={q.....=
   12bd4:	bf7f7808 3d83db0a bf7f7e6d 3d80b86c     .x.....=m~..l..=
   12be4:	bf7f84ab 3d7b2b74 bf7f8ac2 3d74e5e9     ....t+{=......t=
   12bf4:	bf7f90b1 3d6ea038 bf7f9678 3d685a62     ....8.n=x...bZh=
   12c04:	bf7f9c18 3d621468 bf7fa191 3d5bce4c     ....h.b=....L.[=
   12c14:	bf7fa6e3 3d55880e bf7fac0d 3d4f41af     ......U=.....AO=
   12c24:	bf7fb10f 3d48fb2f bf7fb5ea 3d42b491     ..../.H=......B=
   12c34:	bf7fba9e 3d3c6dd5 bf7fbf2a 3d3626fc     .....m<=*....&6=
   12c44:	bf7fc38f 3d2fe007 bf7fc7cc 3d2998f6     ....../=......)=
   12c54:	bf7fcbe2 3d2351cc bf7fcfd1 3d1d0a88     .....Q#=.......=
   12c64:	bf7fd398 3d16c32c bf7fd737 3d107bb8     ....,..=7....{.=
   12c74:	bf7fdaaf 3d0a342f bf7fde00 3d03ec90     ..../4.=.......=
   12c84:	bf7fe129 3cfb49b9 bf7fe42b 3ceeba2d     )....I.<+...-..<
   12c94:	bf7fe705 3ce22a7b bf7fe9b8 3cd59aa6     ....{*.<.......<
   12ca4:	bf7fec43 3cc90ab0 bf7feea7 3cbc7a9b     C......<.....z.<
   12cb4:	bf7ff0e3 3cafea69 bf7ff2f8 3ca35a1c     ....i..<.....Z.<
   12cc4:	bf7ff4e6 3c96c9b6 bf7ff6ac 3c8a3938     .......<....89.<
   12cd4:	bf7ff84a 3c7b514b bf7ff9c1 3c623000     J...KQ{<.....0b<
   12ce4:	bf7ffb11 3c490e90 bf7ffc39 3c2fed02     ......I<9...../<
   12cf4:	bf7ffd39 3c16cb59 bf7ffe13 3bfb5330     9...Y..<....0S.;
   12d04:	bf7ffec4 3bc90f89 bf7fff4e 3b96cbc1     .......;N......;
   12d14:	bf7fffb1 3b490fc7 bf7fffec 3ac90fd4     ......I;.......:
   12d24:	bf800000 00000000 bf7fffec bac90fd4     ................
   12d34:	bf7fffb1 bb490fc7 bf7fff4e bb96cbc1     ......I.N.......
   12d44:	bf7ffec4 bbc90f89 bf7ffe13 bbfb5330     ............0S..
   12d54:	bf7ffd39 bc16cb59 bf7ffc39 bc2fed02     9...Y...9...../.
   12d64:	bf7ffb11 bc490e90 bf7ff9c1 bc623000     ......I......0b.
   12d74:	bf7ff84a bc7b514b bf7ff6ac bc8a3938     J...KQ{.....89..
   12d84:	bf7ff4e6 bc96c9b6 bf7ff2f8 bca35a1c     .............Z..
   12d94:	bf7ff0e3 bcafea69 bf7feea7 bcbc7a9b     ....i........z..
   12da4:	bf7fec43 bcc90ab0 bf7fe9b8 bcd59aa6     C...............
   12db4:	bf7fe705 bce22a7b bf7fe42b bceeba2d     ....{*..+...-...
   12dc4:	bf7fe129 bcfb49b9 bf7fde00 bd03ec90     )....I..........
   12dd4:	bf7fdaaf bd0a342f bf7fd737 bd107bb8     ..../4..7....{..
   12de4:	bf7fd398 bd16c32c bf7fcfd1 bd1d0a88     ....,...........
   12df4:	bf7fcbe2 bd2351cc bf7fc7cc bd2998f6     .....Q#.......).
   12e04:	bf7fc38f bd2fe007 bf7fbf2a bd3626fc     ....../.*....&6.
   12e14:	bf7fba9e bd3c6dd5 bf7fb5ea bd42b491     .....m<.......B.
   12e24:	bf7fb10f bd48fb2f bf7fac0d bd4f41af     ..../.H......AO.
   12e34:	bf7fa6e3 bd55880e bf7fa191 bd5bce4c     ......U.....L.[.
   12e44:	bf7f9c18 bd621468 bf7f9678 bd685a62     ....h.b.x...bZh.
   12e54:	bf7f90b1 bd6ea038 bf7f8ac2 bd74e5e9     ....8.n.......t.
   12e64:	bf7f84ab bd7b2b74 bf7f7e6d bd80b86c     ....t+{.m~..l...
   12e74:	bf7f7808 bd83db0a bf7f717b bd86fd94     .x......{q......
   12e84:	bf7f6ac7 bd8a200a bf7f63ec bd8d426a     .j... ...c..jB..
   12e94:	bf7f5ce9 bd9064b4 bf7f55bf bd9386e7     .\...d...U......
   12ea4:	bf7f4e6d bd96a905 bf7f46f4 bd99cb0a     mN.......F......
   12eb4:	bf7f3f54 bd9cecf9 bf7f378d bda00ecf     T?.......7......
   12ec4:	bf7f2f9d bda3308c bf7f2787 bda65230     ./...0...'..0R..
   12ed4:	bf7f1f49 bda973ba bf7f16e4 bdac952b     I....s......+...
   12ee4:	bf7f0e58 bdafb680 bf7f05a4 bdb2d7bb     X...............
   12ef4:	bf7efcc9 bdb5f8da bf7ef3c7 bdb919dd     ..~.......~.....
   12f04:	bf7eea9d bdbc3ac3 bf7ee14c bdbf5b8d     ..~..:..L.~..[..
   12f14:	bf7ed7d4 bdc27c39 bf7ece34 bdc59cc6     ..~.9|..4.~.....
   12f24:	bf7ec46d bdc8bd36 bf7eba7f bdcbdd86     m.~.6.....~.....
   12f34:	bf7eb069 bdcefdb7 bf7ea62d bdd21dc8     i.~.....-.~.....
   12f44:	bf7e9bc9 bdd53db9 bf7e913d bdd85d89     ..~..=..=.~..]..
   12f54:	bf7e868b bddb7d37 bf7e7bb1 bdde9cc4     ..~.7}...{~.....
   12f64:	bf7e70b0 bde1bc2e bf7e6588 bde4db76     .p~......e~.v...
   12f74:	bf7e5a38 bde7fa9a bf7e4ec1 bdeb199a     8Z~......N~.....
   12f84:	bf7e4323 bdee3876 bf7e375e bdf1572e     #C~.v8..^7~..W..
   12f94:	bf7e2b72 bdf475c0 bf7e1f5e bdf7942c     r+~..u..^.~.,...
   12fa4:	bf7e1324 bdfab273 bf7e06c2 bdfdd092     $.~.s.....~.....
   12fb4:	bf7dfa38 be007745 bf7ded88 be02062e     8.}.Ew....}.....
   12fc4:	bf7de0b1 be039502 bf7dd3b2 be0523c2     ..}.......}..#..
   12fd4:	bf7dc68c be06b26e bf7db940 be084105     ..}.n...@.}..A..
   12fe4:	bf7dabcc be09cf86 bf7d9e30 be0b5df3     ..}.....0.}..]..
   12ff4:	bf7d906e be0cec4a bf7d8285 be0e7a8b     n.}.J.....}..z..
   13004:	bf7d7474 be1008b7 bf7d663d be1196cc     tt}.....=f}.....
   13014:	bf7d57de be1324ca bf7d4959 be14b2b2     .W}..$..YI}.....
   13024:	bf7d3aac be164083 bf7d2bd8 be17ce3d     .:}..@...+}.=...
   13034:	bf7d1cdd be195be0 bf7d0dbc be1ae96b     ..}..[....}.k...
   13044:	bf7cfe73 be1c76de bf7cef03 be1e0438     s.|..v....|.8...
   13054:	bf7cdf6c be1f917b bf7ccfae be211ea5     l.|.{.....|...!.
   13064:	bf7cbfc9 be22abb6 bf7cafbd be2438ad     ..|..."...|..8$.
   13074:	bf7c9f8a be25c58c bf7c8f31 be275251     ..|...%.1.|.QR'.
   13084:	bf7c7eb0 be28defc bf7c6e08 be2a6b8d     .~|...(..n|..k*.
   13094:	bf7c5d3a be2bf804 bf7c4c44 be2d8461     :]|...+.DL|.a.-.
   130a4:	bf7c3b28 be2f10a2 bf7c29e5 be309cc9     (;|.../..)|...0.
   130b4:	bf7c187a be3228d4 bf7c06e9 be33b4c4     z.|..(2...|...3.
   130c4:	bf7bf531 be354098 bf7be353 be36cc50     1.{..@5.S.{.P.6.
   130d4:	bf7bd14d be3857ec bf7bbf20 be39e36c     M.{..W8. .{.l.9.
   130e4:	bf7baccd be3b6ecf bf7b9a53 be3cfa15     ..{..n;.S.{...<.
   130f4:	bf7b87b2 be3e853e bf7b74ea be401049     ..{.>.>..t{.I.@.
   13104:	bf7b61fc be419b37 bf7b4ee7 be432607     .a{.7.A..N{..&C.
   13114:	bf7b3bab be44b0b9 bf7b2848 be463b4d     .;{...D.H({.M;F.
   13124:	bf7b14be be47c5c2 bf7b010e be495018     ..{...G...{..PI.
   13134:	bf7aed37 be4ada4f bf7ad93a be4c6467     7.z.O.J.:.z.gdL.
   13144:	bf7ac516 be4dee60 bf7ab0cb be4f7838     ..z.`.M...z.8xO.
   13154:	bf7a9c59 be5101f1 bf7a87c1 be528b89     Y.z...Q...z...R.
   13164:	bf7a7302 be541501 bf7a5e1c be559e58     .sz...T..^z.X.U.
   13174:	bf7a4910 be57278f bf7a33dd be58b0a4     .Iz..'W..3z...X.
   13184:	bf7a1e84 be5a3997 bf7a0904 be5bc26a     ..z..9Z...z.j.[.
   13194:	bf79f35e be5d4b1a bf79dd91 be5ed3a8     ^.y..K]...y...^.
   131a4:	bf79c79d be605c13 bf79b183 be61e45c     ..y..\`...y.\.a.
   131b4:	bf799b43 be636c83 bf7984dc be64f486     C.y..lc...y...d.
   131c4:	bf796e4e be667c66 bf79579a be680422     Nny.f|f..Wy.".h.
   131d4:	bf7940c0 be698bba bf7929bf be6b132f     .@y...i..)y./.k.
   131e4:	bf791298 be6c9a7f bf78fb4a be6e21ab     ..y...l.J.x..!n.
   131f4:	bf78e3d6 be6fa8b2 bf78cc3b be712f94     ..x...o.;.x../q.
   13204:	bf78b47b be72b651 bf789c93 be743ce8     {.x.Q.r...x..<t.
   13214:	bf788486 be75c35a bf786c52 be7749a6     ..x.Z.u.Rlx..Iw.
   13224:	bf7853f8 be78cfcc bf783b77 be7a55cb     .Sx...x.w;x..Uz.
   13234:	bf7822d1 be7bdba4 bf780a04 be7d6156     ."x...{...x.Va}.
   13244:	bf77f110 be7ee6e1 bf77d7f7 be803622     ..w...~...w."6..
   13254:	bf77beb7 be80f8c0 bf77a551 be81bb4a     ..w.....Q.w.J...
   13264:	bf778bc5 be827dc0 bf777213 be834022     ..w..}...rw."@..
   13274:	bf77583a be840270 bf773e3c be84c4aa     :Xw.p...<>w.....
   13284:	bf772417 be8586ce bf7709cc be8648df     .$w.......w..H..
   13294:	bf76ef5b be870ada bf76d4c4 be87ccc1     [.v.......v.....
   132a4:	bf76ba07 be888e93 bf769f24 be895050     ..v.....$.v.PP..
   132b4:	bf76841b be8a11f8 bf7668ec be8ad38a     ..v......hv.....
   132c4:	bf764d97 be8b9507 bf76321b be8c566e     .Mv......2v.nV..
   132d4:	bf76167a be8d17c0 bf75fab3 be8dd8fc     z.v.......u.....
   132e4:	bf75dec6 be8e9a22 bf75c2b3 be8f5b32     ..u.".....u.2[..
   132f4:	bf75a67b be901c2c bf758a1c be90dd10     {.u.,.....u.....
   13304:	bf756d97 be919ddd bf7550ed be925e94     .mu......Pu..^..
   13314:	bf75341d be931f35 bf751727 be93dfbf     .4u.5...'.u.....
   13324:	bf74fa0b be94a031 bf74dcc9 be95608d     ..t.1.....t..`..
   13334:	bf74bf62 be9620d2 bf74a1d5 be96e100     b.t.. ....t.....
   13344:	bf748422 be97a117 bf746649 be986116     ".t.....Ift..a..
   13354:	bf74484b be9920fe bf742a27 be99e0ce     KHt.. ..'*t.....
   13364:	bf740bdd be9aa086 bf73ed6e be9b6027     ..t.....n.s.'`..
   13374:	bf73ced9 be9c1faf bf73b01f be9cdf20     ..s.......s. ...
   13384:	bf73913f be9d9e78 bf737239 be9e5db8     ?.s.x...9rs..]..
   13394:	bf73530e be9f1cdf bf7333be be9fdbee     .Ss......3s.....
   133a4:	bf731447 bea09ae5 bf72f4ac bea159c2     G.s.......r..Y..
   133b4:	bf72d4eb bea21887 bf72b504 bea2d733     ..r.......r.3...
   133c4:	bf7294f8 bea395c5 bf7274c7 bea4543f     ..r......tr.?T..
   133d4:	bf725470 bea5129f bf7233f4 bea5d0e5     pTr......3r.....
   133e4:	bf721352 bea68f12 bf71f28c bea74d25     R.r.......q.%M..
   133f4:	bf71d19f bea80b1f bf71b08e bea8c8fe     ..q.......q.....
   13404:	bf718f57 bea986c4 bf716dfb beaa446f     W.q......mq.oD..
   13414:	bf714c7a beab0201 bf712ad4 beabbf77     zLq......*q.w...
   13424:	bf710908 beac7cd4 bf70e717 bead3a15     ..q..|....p..:..
   13434:	bf70c502 beadf73c bf70a2c6 beaeb449     ..p.<.....p.I...
   13444:	bf708066 beaf713a bf705de1 beb02e10     f.p.:q...]p.....
   13454:	bf703b37 beb0eacb bf701867 beb1a76b     7;p.....g.p.k...
   13464:	bf6ff573 beb263ef bf6fd25a beb32058     s.o..c..Z.o.X ..
   13474:	bf6faf1b beb3dca5 bf6f8bb8 beb498d6     ..o.......o.....
   13484:	bf6f6830 beb554ec bf6f4483 beb610e6     0ho..T...Do.....
   13494:	bf6f20b0 beb6ccc3 bf6efcba beb78884     . o.......n.....
   134a4:	bf6ed89e beb8442a bf6eb45d beb8ffb2     ..n.*D..].n.....
   134b4:	bf6e8ff8 beb9bb1e bf6e6b6d beba766e     ..n.....mkn.nv..
   134c4:	bf6e46be bebb31a0 bf6e21eb bebbecb6     .Fn..1...!n.....
   134d4:	bf6dfcf2 bebca7af bf6dd7d5 bebd628b     ..m.......m..b..
   134e4:	bf6db293 bebe1d4a bf6d8d2d bebed7eb     ..m.J...-.m.....
   134f4:	bf6d67a1 bebf926f bf6d41f2 bec04cd5     .gm.o....Am..L..
   13504:	bf6d1c1d bec1071e bf6cf624 bec1c148     ..m.....$.l.H...
   13514:	bf6cd007 bec27b55 bf6ca9c5 bec33544     ..l.U{....l.D5..
   13524:	bf6c835e bec3ef15 bf6c5cd4 bec4a8c8     ^.l......\l.....
   13534:	bf6c3624 bec5625c bf6c0f50 bec61bd2     $6l.\b..P.l.....
   13544:	bf6be858 bec6d529 bf6bc13b bec78e62     X.k.)...;.k.b...
   13554:	bf6b99fb bec8477c bf6b7295 bec90077     ..k.|G...rk.w...
   13564:	bf6b4b0c bec9b953 bf6b235e beca7210     .Kk.S...^#k..r..
   13574:	bf6afb8c becb2aae bf6ad395 becbe32c     ..j..*....j.,...
   13584:	bf6aab7b becc9b8b bf6a833c becd53ca     {.j.....<.j..S..
   13594:	bf6a5ad9 bece0bea bf6a3252 becec3ea     .Zj.....R2j.....
   135a4:	bf6a09a7 becf7bca bf69e0d7 bed0338a     ..j..{....i..3..
   135b4:	bf69b7e4 bed0eb2a bf698ecc bed1a2aa     ..i.*.....i.....
   135c4:	bf696591 bed25a09 bf693c32 bed31148     .ei..Z..2<i.H...
   135d4:	bf6912ae bed3c867 bf68e907 bed47f64     ..i.g.....h.d...
   135e4:	bf68bf3c bed53641 bf68954c bed5ecfd     <.h.A6..L.h.....
   135f4:	bf686b39 bed6a399 bf684103 bed75a13     9kh......Ah..Z..
   13604:	bf6816a8 bed8106b bf67ec2a bed8c6a3     ..h.k...*.g.....
   13614:	bf67c187 bed97cb9 bf6796c1 beda32ad     ..g..|....g..2..
   13624:	bf676bd8 bedae880 bf6740ca bedb9e31     .kg......@g.1...
   13634:	bf671599 bedc53c1 bf66ea45 bedd092e     ..g..S..E.f.....
   13644:	bf66becc beddbe79 bf669330 bede73a2     ..f.y...0.f..s..
   13654:	bf666771 bedf28a9 bf663b8e bedfdd8d     qgf..(...;f.....
   13664:	bf660f88 bee0924f bf65e35e bee146ee     ..f.O...^.e..F..
   13674:	bf65b710 bee1fb6a bf658aa0 bee2afc4     ..e.j.....e.....
   13684:	bf655e0b bee363fa bf653154 bee4180e     .^e..c..T1e.....
   13694:	bf650479 bee4cbfe bf64d77b bee57fcb     y.e.....{.d.....
   136a4:	bf64aa59 bee63375 bf647d14 bee6e6fb     Y.d.u3...}d.....
   136b4:	bf644fac bee79a5d bf642221 bee84d9c     .Od.]...!"d..M..
   136c4:	bf63f473 bee900b7 bf63c6a1 bee9b3ae     s.c.......c.....
   136d4:	bf6398ac beea6681 bf636a95 beeb1930     ..c..f...jc.0...
   136e4:	bf633c5a beebcbbb bf630dfc beec7e21     Z<c.......c.!~..
   136f4:	bf62df7b beed3063 bf62b0d7 beede280     {.b.c0....b.....
   13704:	bf628210 beee9479 bf625326 beef464c     ..b.y...&Sb.LF..
   13714:	bf62241a beeff7fb bf61f4ea bef0a985     .$b.......a.....
   13724:	bf61c598 bef15aea bf619622 bef20c29     ..a..Z..".a.)...
   13734:	bf61668a bef2bd43 bf6136d0 bef36e38     .fa.C....6a.8n..
   13744:	bf6106f2 bef41f07 bf60d6f2 bef4cfb1     ..a.......`.....
   13754:	bf60a6cf bef58035 bf607689 bef63093     ..`.5....v`..0..
   13764:	bf604621 bef6e0cb bf601596 bef790dc     !F`.......`.....
   13774:	bf5fe4e9 bef840c8 bf5fb419 bef8f08e     .._..@...._.....
   13784:	bf5f8327 bef9a02d bf5f5212 befa4fa5     '._.-....R_..O..
   13794:	bf5f20db befafef7 bf5eef81 befbae22     . _.......^."...
   137a4:	bf5ebe05 befc5d27 bf5e8c67 befd0c04     ..^.']..g.^.....
   137b4:	bf5e5aa6 befdbabb bf5e28c3 befe694a     .Z^......(^.Ji..
   137c4:	bf5df6be beff17b2 bf5dc497 beffc5f3     ..].......].....
   137d4:	bf5d924d bf003a06 bf5d5fe1 bf0090ff     M.]..:..._].....
   137e4:	bf5d2d53 bf00e7e4 bf5cfaa3 bf013eb5     S-].......\..>..
   137f4:	bf5cc7d1 bf019573 bf5c94dd bf01ec1c     ..\.s.....\.....
   13804:	bf5c61c7 bf0242b1 bf5c2e8e bf029932     .a\..B....\.2...
   13814:	bf5bfb34 bf02ef9f bf5bc7b8 bf0345f8     4.[.......[..E..
   13824:	bf5b941a bf039c3d bf5b605a bf03f26d     ..[.=...Z`[.m...
   13834:	bf5b2c79 bf044889 bf5af875 bf049e91     y,[..H..u.Z.....
   13844:	bf5ac450 bf04f484 bf5a9009 bf054a62     P.Z.......Z.bJ..
   13854:	bf5a5ba0 bf05a02c bf5a2716 bf05f5e2     .[Z.,....'Z.....
   13864:	bf59f26a bf064b82 bf59bd9c bf06a10e     j.Y..K....Y.....
   13874:	bf5988ad bf06f686 bf59539c bf074be8     ..Y......SY..K..
   13884:	bf591e6a bf07a136 bf58e917 bf07f66f     j.Y.6.....X.o...
   13894:	bf58b3a1 bf084b92 bf587e0b bf08a0a1     ..X..K...~X.....
   138a4:	bf584853 bf08f59b bf581279 bf094a7f     SHX.....y.X..J..
   138b4:	bf57dc7f bf099f4e bf57a663 bf09f409     ..W.N...c.W.....
   138c4:	bf577026 bf0a48ad bf5739c7 bf0a9d3d     &pW..H...9W.=...
   138d4:	bf570348 bf0af1b7 bf56cca7 bf0b461c     H.W.......V..F..
   138e4:	bf5695e5 bf0b9a6b bf565f02 bf0beea5     ..V.k...._V.....
   138f4:	bf5627fe bf0c42c9 bf55f0d9 bf0c96d7     .'V..B....U.....
   13904:	bf55b993 bf0cead0 bf55822c bf0d3eb3     ..U.....,.U..>..
   13914:	bf554aa4 bf0d9281 bf5512fb bf0de638     .JU.......U.8...
   13924:	bf54db31 bf0e39da bf54a347 bf0e8d65     1.T..9..G.T.e...
   13934:	bf546b3b bf0ee0db bf54330f bf0f343b     ;kT......3T.;4..
   13944:	bf53fac3 bf0f8784 bf53c255 bf0fdab8     ..S.....U.S.....
   13954:	bf5389c7 bf102dd5 bf535118 bf1080dc     ..S..-...QS.....
   13964:	bf531849 bf10d3cd bf52df59 bf1126a7     I.S.....Y.R..&..
   13974:	bf52a649 bf11796b bf526d18 bf11cc19     I.R.ky...mR.....
   13984:	bf5233c6 bf121eb0 bf51fa54 bf127130     .3R.....T.Q.0q..
   13994:	bf51c0c2 bf12c39a bf518710 bf1315ee     ..Q.......Q.....
   139a4:	bf514d3d bf13682a bf51134a bf13ba50     =MQ.*h..J.Q.P...
   139b4:	bf50d937 bf140c5f bf509f03 bf145e58     7.P._.....P.X^..
   139c4:	bf5064af bf14b039 bf502a3b bf150204     .dP.9...;*P.....
   139d4:	bf4fefa8 bf1553b7 bf4fb4f4 bf15a554     ..O..S....O.T...
   139e4:	bf4f7a1f bf15f6d9 bf4f3f2b bf164847     .zO.....+?O.GH..
   139f4:	bf4f0417 bf16999f bf4ec8e4 bf16eadf     ..O.......N.....
   13a04:	bf4e8d90 bf173c07 bf4e521c bf178d18     ..N..<...RN.....
   13a14:	bf4e1689 bf17de12 bf4ddad5 bf182ef5     ..N.......M.....
   13a24:	bf4d9f02 bf187fc0 bf4d6310 bf18d073     ..M......cM.s...
   13a34:	bf4d26fd bf19210f bf4ceacb bf197194     .&M..!....L..q..
   13a44:	bf4cae79 bf19c200 bf4c7208 bf1a1255     y.L......rL.U...
   13a54:	bf4c3578 bf1a6293 bf4bf8c7 bf1ab2b8     x5L..b....K.....
   13a64:	bf4bbbf8 bf1b02c6 bf4b7f09 bf1b52bb     ..K.......K..R..
   13a74:	bf4b41fa bf1ba299 bf4b04cc bf1bf25f     .AK.......K._...
   13a84:	bf4ac77f bf1c420c bf4a8a13 bf1c91a2     ..J..B....J.....
   13a94:	bf4a4c87 bf1ce11f bf4a0edc bf1d3084     .LJ.......J..0..
   13aa4:	bf49d112 bf1d7fd1 bf499329 bf1dcf06     ..I.....).I.....
   13ab4:	bf495521 bf1e1e22 bf4916fa bf1e6d26     !UI.".....I.&m..
   13ac4:	bf48d8b3 bf1ebc12 bf489a4e bf1f0ae5     ..H.....N.H.....
   13ad4:	bf485bca bf1f599f bf481d27 bf1fa841     .[H..Y..'.H.A...
   13ae4:	bf47de65 bf1ff6cb bf479f84 bf20453b     e.G.......G.;E .
   13af4:	bf476085 bf209393 bf472167 bf20e1d2     .`G... .g!G... .
   13b04:	bf46e22a bf212ff9 bf46a2ce bf217e06     *.F../!...F..~!.
   13b14:	bf466354 bf21cbfb bf4623bb bf2219d7     TcF...!..#F...".
   13b24:	bf45e403 bf226799 bf45a42d bf22b543     ..E..g".-.E.C.".
   13b34:	bf456439 bf2302d3 bf452426 bf23504b     9dE...#.&$E.KP#.
   13b44:	bf44e3f5 bf239da9 bf44a3a5 bf23eaee     ..D...#...D...#.
   13b54:	bf446337 bf24381a bf4422ab bf24852c     7cD..8$.."D.,.$.
   13b64:	bf43e200 bf24d225 bf43a138 bf251f04     ..C.%.$.8.C...%.
   13b74:	bf436051 bf256bcb bf431f4c bf25b877     Q`C..k%.L.C.w.%.
   13b84:	bf42de29 bf26050a bf429ce8 bf265184     ).B...&...B..Q&.
   13b94:	bf425b89 bf269de3 bf421a0b bf26ea2a     .[B...&...B.*.&.
   13ba4:	bf41d870 bf273656 bf4196b7 bf278268     p.A.V6'...A.h.'.
   13bb4:	bf4154e1 bf27ce61 bf4112ec bf281a40     .TA.a.'...A.@.(.
   13bc4:	bf40d0da bf286605 bf408ea9 bf28b1b0     ..@..f(...@...(.
   13bd4:	bf404c5c bf28fd41 bf4009f0 bf2948b8     \L@.A.(...@..H).
   13be4:	bf3fc767 bf299415 bf3f84c0 bf29df57     g.?...)...?.W.).
   13bf4:	bf3f41fc bf2a2a80 bf3eff1b bf2a758e     .A?..**...>..u*.
   13c04:	bf3ebc1b bf2ac082 bf3e78ff bf2b0b5b     ..>...*..x>.[.+.
   13c14:	bf3e35c5 bf2b561b bf3df26e bf2ba0bf     .5>..V+.n.=...+.
   13c24:	bf3daef9 bf2beb4a bf3d6b67 bf2c35b9     ..=.J.+.gk=..5,.
   13c34:	bf3d27b8 bf2c800f bf3ce3ec bf2cca49     .'=...,...<.I.,.
   13c44:	bf3ca003 bf2d1469 bf3c5bfc bf2d5e6f     ..<.i.-..[<.o^-.
   13c54:	bf3c17d9 bf2da859 bf3bd398 bf2df229     ..<.Y.-...;.).-.
   13c64:	bf3b8f3b bf2e3bde bf3b4ac1 bf2e8578     ;.;..;...J;.x...
   13c74:	bf3b0629 bf2ecef7 bf3ac175 bf2f185b     ).;.....u.:.[./.
   13c84:	bf3a7ca4 bf2f61a5 bf3a37b7 bf2faad3     .|:..a/..7:.../.
   13c94:	bf39f2ac bf2ff3e6 bf39ad85 bf303cde     ..9.../...9..<0.
   13ca4:	bf396842 bf3085bb bf3922e1 bf30ce7c     Bh9...0.."9.|.0.
   13cb4:	bf38dd65 bf311722 bf3897cb bf315fad     e.8.".1...8.._1.
   13cc4:	bf385216 bf31a81d bf380c43 bf31f071     .R8...1.C.8.q.1.
   13cd4:	bf37c655 bf3238aa bf37804a bf3280c7     U.7..82.J.7...2.
   13ce4:	bf373a23 bf32c8c9 bf36f3df bf3310af     #:7...2...6...3.
   13cf4:	bf36ad7f bf33587a bf366704 bf33a029     ..6.zX3..g6.).3.
   13d04:	bf36206c bf33e7bc bf35d9b8 bf342f34     l 6...3...5.4/4.
   13d14:	bf3592e7 bf34768f bf354bfb bf34bdcf     ..5..v4..K5...4.
   13d24:	bf3504f3 bf3504f3 bf34bdcf bf354bfb     ..5...5...4..K5.
   13d34:	bf34768f bf3592e7 bf342f34 bf35d9b8     .v4...5.4/4...5.
   13d44:	bf33e7bc bf36206c bf33a029 bf366704     ..3.l 6.).3..g6.
   13d54:	bf33587a bf36ad7f bf3310af bf36f3df     zX3...6...3...6.
   13d64:	bf32c8c9 bf373a23 bf3280c7 bf37804a     ..2.#:7...2.J.7.
   13d74:	bf3238aa bf37c655 bf31f071 bf380c43     .82.U.7.q.1.C.8.
   13d84:	bf31a81d bf385216 bf315fad bf3897cb     ..1..R8.._1...8.
   13d94:	bf311722 bf38dd65 bf30ce7c bf3922e1     ".1.e.8.|.0.."9.
   13da4:	bf3085bb bf396842 bf303cde bf39ad85     ..0.Bh9..<0...9.
   13db4:	bf2ff3e6 bf39f2ac bf2faad3 bf3a37b7     ../...9.../..7:.
   13dc4:	bf2f61a5 bf3a7ca4 bf2f185b bf3ac175     .a/..|:.[./.u.:.
   13dd4:	bf2ecef7 bf3b0629 bf2e8578 bf3b4ac1     ....).;.x....J;.
   13de4:	bf2e3bde bf3b8f3b bf2df229 bf3bd398     .;..;.;.).-...;.
   13df4:	bf2da859 bf3c17d9 bf2d5e6f bf3c5bfc     Y.-...<.o^-..[<.
   13e04:	bf2d1469 bf3ca003 bf2cca49 bf3ce3ec     i.-...<.I.,...<.
   13e14:	bf2c800f bf3d27b8 bf2c35b9 bf3d6b67     ..,..'=..5,.gk=.
   13e24:	bf2beb4a bf3daef9 bf2ba0bf bf3df26e     J.+...=...+.n.=.
   13e34:	bf2b561b bf3e35c5 bf2b0b5b bf3e78ff     .V+..5>.[.+..x>.
   13e44:	bf2ac082 bf3ebc1b bf2a758e bf3eff1b     ..*...>..u*...>.
   13e54:	bf2a2a80 bf3f41fc bf29df57 bf3f84c0     .**..A?.W.)...?.
   13e64:	bf299415 bf3fc767 bf2948b8 bf4009f0     ..).g.?..H)...@.
   13e74:	bf28fd41 bf404c5c bf28b1b0 bf408ea9     A.(.\L@...(...@.
   13e84:	bf286605 bf40d0da bf281a40 bf4112ec     .f(...@.@.(...A.
   13e94:	bf27ce61 bf4154e1 bf278268 bf4196b7     a.'..TA.h.'...A.
   13ea4:	bf273656 bf41d870 bf26ea2a bf421a0b     V6'.p.A.*.&...B.
   13eb4:	bf269de3 bf425b89 bf265184 bf429ce8     ..&..[B..Q&...B.
   13ec4:	bf26050a bf42de29 bf25b877 bf431f4c     ..&.).B.w.%.L.C.
   13ed4:	bf256bcb bf436051 bf251f04 bf43a138     .k%.Q`C...%.8.C.
   13ee4:	bf24d225 bf43e200 bf24852c bf4422ab     %.$...C.,.$.."D.
   13ef4:	bf24381a bf446337 bf23eaee bf44a3a5     .8$.7cD...#...D.
   13f04:	bf239da9 bf44e3f5 bf23504b bf452426     ..#...D.KP#.&$E.
   13f14:	bf2302d3 bf456439 bf22b543 bf45a42d     ..#.9dE.C.".-.E.
   13f24:	bf226799 bf45e403 bf2219d7 bf4623bb     .g"...E..."..#F.
   13f34:	bf21cbfb bf466354 bf217e06 bf46a2ce     ..!.TcF..~!...F.
   13f44:	bf212ff9 bf46e22a bf20e1d2 bf472167     ./!.*.F... .g!G.
   13f54:	bf209393 bf476085 bf20453b bf479f84     .. ..`G.;E ...G.
   13f64:	bf1ff6cb bf47de65 bf1fa841 bf481d27     ....e.G.A...'.H.
   13f74:	bf1f599f bf485bca bf1f0ae5 bf489a4e     .Y...[H.....N.H.
   13f84:	bf1ebc12 bf48d8b3 bf1e6d26 bf4916fa     ......H.&m....I.
   13f94:	bf1e1e22 bf495521 bf1dcf06 bf499329     "...!UI.....).I.
   13fa4:	bf1d7fd1 bf49d112 bf1d3084 bf4a0edc     ......I..0....J.
   13fb4:	bf1ce11f bf4a4c87 bf1c91a2 bf4a8a13     .....LJ.......J.
   13fc4:	bf1c420c bf4ac77f bf1bf25f bf4b04cc     .B....J._.....K.
   13fd4:	bf1ba299 bf4b41fa bf1b52bb bf4b7f09     .....AK..R....K.
   13fe4:	bf1b02c6 bf4bbbf8 bf1ab2b8 bf4bf8c7     ......K.......K.
   13ff4:	bf1a6293 bf4c3578 bf1a1255 bf4c7208     .b..x5L.U....rL.
   14004:	bf19c200 bf4cae79 bf197194 bf4ceacb     ....y.L..q....L.
   14014:	bf19210f bf4d26fd bf18d073 bf4d6310     .!...&M.s....cM.
   14024:	bf187fc0 bf4d9f02 bf182ef5 bf4ddad5     ......M.......M.
   14034:	bf17de12 bf4e1689 bf178d18 bf4e521c     ......N......RN.
   14044:	bf173c07 bf4e8d90 bf16eadf bf4ec8e4     .<....N.......N.
   14054:	bf16999f bf4f0417 bf164847 bf4f3f2b     ......O.GH..+?O.
   14064:	bf15f6d9 bf4f7a1f bf15a554 bf4fb4f4     .....zO.T.....O.
   14074:	bf1553b7 bf4fefa8 bf150204 bf502a3b     .S....O.....;*P.
   14084:	bf14b039 bf5064af bf145e58 bf509f03     9....dP.X^....P.
   14094:	bf140c5f bf50d937 bf13ba50 bf51134a     _...7.P.P...J.Q.
   140a4:	bf13682a bf514d3d bf1315ee bf518710     *h..=MQ.......Q.
   140b4:	bf12c39a bf51c0c2 bf127130 bf51fa54     ......Q.0q..T.Q.
   140c4:	bf121eb0 bf5233c6 bf11cc19 bf526d18     .....3R......mR.
   140d4:	bf11796b bf52a649 bf1126a7 bf52df59     ky..I.R..&..Y.R.
   140e4:	bf10d3cd bf531849 bf1080dc bf535118     ....I.S......QS.
   140f4:	bf102dd5 bf5389c7 bf0fdab8 bf53c255     .-....S.....U.S.
   14104:	bf0f8784 bf53fac3 bf0f343b bf54330f     ......S.;4...3T.
   14114:	bf0ee0db bf546b3b bf0e8d65 bf54a347     ....;kT.e...G.T.
   14124:	bf0e39da bf54db31 bf0de638 bf5512fb     .9..1.T.8.....U.
   14134:	bf0d9281 bf554aa4 bf0d3eb3 bf55822c     .....JU..>..,.U.
   14144:	bf0cead0 bf55b993 bf0c96d7 bf55f0d9     ......U.......U.
   14154:	bf0c42c9 bf5627fe bf0beea5 bf565f02     .B...'V......_V.
   14164:	bf0b9a6b bf5695e5 bf0b461c bf56cca7     k.....V..F....V.
   14174:	bf0af1b7 bf570348 bf0a9d3d bf5739c7     ....H.W.=....9W.
   14184:	bf0a48ad bf577026 bf09f409 bf57a663     .H..&pW.....c.W.
   14194:	bf099f4e bf57dc7f bf094a7f bf581279     N.....W..J..y.X.
   141a4:	bf08f59b bf584853 bf08a0a1 bf587e0b     ....SHX......~X.
   141b4:	bf084b92 bf58b3a1 bf07f66f bf58e917     .K....X.o.....X.
   141c4:	bf07a136 bf591e6a bf074be8 bf59539c     6...j.Y..K...SY.
   141d4:	bf06f686 bf5988ad bf06a10e bf59bd9c     ......Y.......Y.
   141e4:	bf064b82 bf59f26a bf05f5e2 bf5a2716     .K..j.Y......'Z.
   141f4:	bf05a02c bf5a5ba0 bf054a62 bf5a9009     ,....[Z.bJ....Z.
   14204:	bf04f484 bf5ac450 bf049e91 bf5af875     ....P.Z.....u.Z.
   14214:	bf044889 bf5b2c79 bf03f26d bf5b605a     .H..y,[.m...Z`[.
   14224:	bf039c3d bf5b941a bf0345f8 bf5bc7b8     =.....[..E....[.
   14234:	bf02ef9f bf5bfb34 bf029932 bf5c2e8e     ....4.[.2.....\.
   14244:	bf0242b1 bf5c61c7 bf01ec1c bf5c94dd     .B...a\.......\.
   14254:	bf019573 bf5cc7d1 bf013eb5 bf5cfaa3     s.....\..>....\.
   14264:	bf00e7e4 bf5d2d53 bf0090ff bf5d5fe1     ....S-]......_].
   14274:	bf003a06 bf5d924d beffc5f3 bf5dc497     .:..M.].......].
   14284:	beff17b2 bf5df6be befe694a bf5e28c3     ......].Ji...(^.
   14294:	befdbabb bf5e5aa6 befd0c04 bf5e8c67     .....Z^.....g.^.
   142a4:	befc5d27 bf5ebe05 befbae22 bf5eef81     ']....^.".....^.
   142b4:	befafef7 bf5f20db befa4fa5 bf5f5212     ..... _..O...R_.
   142c4:	bef9a02d bf5f8327 bef8f08e bf5fb419     -...'._......._.
   142d4:	bef840c8 bf5fe4e9 bef790dc bf601596     .@...._.......`.
   142e4:	bef6e0cb bf604621 bef63093 bf607689     ....!F`..0...v`.
   142f4:	bef58035 bf60a6cf bef4cfb1 bf60d6f2     5.....`.......`.
   14304:	bef41f07 bf6106f2 bef36e38 bf6136d0     ......a.8n...6a.
   14314:	bef2bd43 bf61668a bef20c29 bf619622     C....fa.)...".a.
   14324:	bef15aea bf61c598 bef0a985 bf61f4ea     .Z....a.......a.
   14334:	beeff7fb bf62241a beef464c bf625326     .....$b.LF..&Sb.
   14344:	beee9479 bf628210 beede280 bf62b0d7     y.....b.......b.
   14354:	beed3063 bf62df7b beec7e21 bf630dfc     c0..{.b.!~....c.
   14364:	beebcbbb bf633c5a beeb1930 bf636a95     ....Z<c.0....jc.
   14374:	beea6681 bf6398ac bee9b3ae bf63c6a1     .f....c.......c.
   14384:	bee900b7 bf63f473 bee84d9c bf642221     ....s.c..M..!"d.
   14394:	bee79a5d bf644fac bee6e6fb bf647d14     ]....Od......}d.
   143a4:	bee63375 bf64aa59 bee57fcb bf64d77b     u3..Y.d.....{.d.
   143b4:	bee4cbfe bf650479 bee4180e bf653154     ....y.e.....T1e.
   143c4:	bee363fa bf655e0b bee2afc4 bf658aa0     .c...^e.......e.
   143d4:	bee1fb6a bf65b710 bee146ee bf65e35e     j.....e..F..^.e.
   143e4:	bee0924f bf660f88 bedfdd8d bf663b8e     O.....f......;f.
   143f4:	bedf28a9 bf666771 bede73a2 bf669330     .(..qgf..s..0.f.
   14404:	beddbe79 bf66becc bedd092e bf66ea45     y.....f.....E.f.
   14414:	bedc53c1 bf671599 bedb9e31 bf6740ca     .S....g.1....@g.
   14424:	bedae880 bf676bd8 beda32ad bf6796c1     .....kg..2....g.
   14434:	bed97cb9 bf67c187 bed8c6a3 bf67ec2a     .|....g.....*.g.
   14444:	bed8106b bf6816a8 bed75a13 bf684103     k.....h..Z...Ah.
   14454:	bed6a399 bf686b39 bed5ecfd bf68954c     ....9kh.....L.h.
   14464:	bed53641 bf68bf3c bed47f64 bf68e907     A6..<.h.d.....h.
   14474:	bed3c867 bf6912ae bed31148 bf693c32     g.....i.H...2<i.
   14484:	bed25a09 bf696591 bed1a2aa bf698ecc     .Z...ei.......i.
   14494:	bed0eb2a bf69b7e4 bed0338a bf69e0d7     *.....i..3....i.
   144a4:	becf7bca bf6a09a7 becec3ea bf6a3252     .{....j.....R2j.
   144b4:	bece0bea bf6a5ad9 becd53ca bf6a833c     .....Zj..S..<.j.
   144c4:	becc9b8b bf6aab7b becbe32c bf6ad395     ....{.j.,.....j.
   144d4:	becb2aae bf6afb8c beca7210 bf6b235e     .*....j..r..^#k.
   144e4:	bec9b953 bf6b4b0c bec90077 bf6b7295     S....Kk.w....rk.
   144f4:	bec8477c bf6b99fb bec78e62 bf6bc13b     |G....k.b...;.k.
   14504:	bec6d529 bf6be858 bec61bd2 bf6c0f50     )...X.k.....P.l.
   14514:	bec5625c bf6c3624 bec4a8c8 bf6c5cd4     \b..$6l......\l.
   14524:	bec3ef15 bf6c835e bec33544 bf6ca9c5     ....^.l.D5....l.
   14534:	bec27b55 bf6cd007 bec1c148 bf6cf624     U{....l.H...$.l.
   14544:	bec1071e bf6d1c1d bec04cd5 bf6d41f2     ......m..L...Am.
   14554:	bebf926f bf6d67a1 bebed7eb bf6d8d2d     o....gm.....-.m.
   14564:	bebe1d4a bf6db293 bebd628b bf6dd7d5     J.....m..b....m.
   14574:	bebca7af bf6dfcf2 bebbecb6 bf6e21eb     ......m......!n.
   14584:	bebb31a0 bf6e46be beba766e bf6e6b6d     .1...Fn.nv..mkn.
   14594:	beb9bb1e bf6e8ff8 beb8ffb2 bf6eb45d     ......n.....].n.
   145a4:	beb8442a bf6ed89e beb78884 bf6efcba     *D....n.......n.
   145b4:	beb6ccc3 bf6f20b0 beb610e6 bf6f4483     ..... o......Do.
   145c4:	beb554ec bf6f6830 beb498d6 bf6f8bb8     .T..0ho.......o.
   145d4:	beb3dca5 bf6faf1b beb32058 bf6fd25a     ......o.X ..Z.o.
   145e4:	beb263ef bf6ff573 beb1a76b bf701867     .c..s.o.k...g.p.
   145f4:	beb0eacb bf703b37 beb02e10 bf705de1     ....7;p......]p.
   14604:	beaf713a bf708066 beaeb449 bf70a2c6     :q..f.p.I.....p.
   14614:	beadf73c bf70c502 bead3a15 bf70e717     <.....p..:....p.
   14624:	beac7cd4 bf710908 beabbf77 bf712ad4     .|....q.w....*q.
   14634:	beab0201 bf714c7a beaa446f bf716dfb     ....zLq.oD...mq.
   14644:	bea986c4 bf718f57 bea8c8fe bf71b08e     ....W.q.......q.
   14654:	bea80b1f bf71d19f bea74d25 bf71f28c     ......q.%M....q.
   14664:	bea68f12 bf721352 bea5d0e5 bf7233f4     ....R.r......3r.
   14674:	bea5129f bf725470 bea4543f bf7274c7     ....pTr.?T...tr.
   14684:	bea395c5 bf7294f8 bea2d733 bf72b504     ......r.3.....r.
   14694:	bea21887 bf72d4eb bea159c2 bf72f4ac     ......r..Y....r.
   146a4:	bea09ae5 bf731447 be9fdbee bf7333be     ....G.s......3s.
   146b4:	be9f1cdf bf73530e be9e5db8 bf737239     .....Ss..]..9rs.
   146c4:	be9d9e78 bf73913f be9cdf20 bf73b01f     x...?.s. .....s.
   146d4:	be9c1faf bf73ced9 be9b6027 bf73ed6e     ......s.'`..n.s.
   146e4:	be9aa086 bf740bdd be99e0ce bf742a27     ......t.....'*t.
   146f4:	be9920fe bf74484b be986116 bf746649     . ..KHt..a..Ift.
   14704:	be97a117 bf748422 be96e100 bf74a1d5     ....".t.......t.
   14714:	be9620d2 bf74bf62 be95608d bf74dcc9     . ..b.t..`....t.
   14724:	be94a031 bf74fa0b be93dfbf bf751727     1.....t.....'.u.
   14734:	be931f35 bf75341d be925e94 bf7550ed     5....4u..^...Pu.
   14744:	be919ddd bf756d97 be90dd10 bf758a1c     .....mu.......u.
   14754:	be901c2c bf75a67b be8f5b32 bf75c2b3     ,...{.u.2[....u.
   14764:	be8e9a22 bf75dec6 be8dd8fc bf75fab3     ".....u.......u.
   14774:	be8d17c0 bf76167a be8c566e bf76321b     ....z.v.nV...2v.
   14784:	be8b9507 bf764d97 be8ad38a bf7668ec     .....Mv......hv.
   14794:	be8a11f8 bf76841b be895050 bf769f24     ......v.PP..$.v.
   147a4:	be888e93 bf76ba07 be87ccc1 bf76d4c4     ......v.......v.
   147b4:	be870ada bf76ef5b be8648df bf7709cc     ....[.v..H....w.
   147c4:	be8586ce bf772417 be84c4aa bf773e3c     .....$w.....<>w.
   147d4:	be840270 bf77583a be834022 bf777213     p...:Xw."@...rw.
   147e4:	be827dc0 bf778bc5 be81bb4a bf77a551     .}....w.J...Q.w.
   147f4:	be80f8c0 bf77beb7 be803622 bf77d7f7     ......w."6....w.
   14804:	be7ee6e1 bf77f110 be7d6156 bf780a04     ..~...w.Va}...x.
   14814:	be7bdba4 bf7822d1 be7a55cb bf783b77     ..{.."x..Uz.w;x.
   14824:	be78cfcc bf7853f8 be7749a6 bf786c52     ..x..Sx..Iw.Rlx.
   14834:	be75c35a bf788486 be743ce8 bf789c93     Z.u...x..<t...x.
   14844:	be72b651 bf78b47b be712f94 bf78cc3b     Q.r.{.x../q.;.x.
   14854:	be6fa8b2 bf78e3d6 be6e21ab bf78fb4a     ..o...x..!n.J.x.
   14864:	be6c9a7f bf791298 be6b132f bf7929bf     ..l...y./.k..)y.
   14874:	be698bba bf7940c0 be680422 bf79579a     ..i..@y.".h..Wy.
   14884:	be667c66 bf796e4e be64f486 bf7984dc     f|f.Nny...d...y.
   14894:	be636c83 bf799b43 be61e45c bf79b183     .lc.C.y.\.a...y.
   148a4:	be605c13 bf79c79d be5ed3a8 bf79dd91     .\`...y...^...y.
   148b4:	be5d4b1a bf79f35e be5bc26a bf7a0904     .K].^.y.j.[...z.
   148c4:	be5a3997 bf7a1e84 be58b0a4 bf7a33dd     .9Z...z...X..3z.
   148d4:	be57278f bf7a4910 be559e58 bf7a5e1c     .'W..Iz.X.U..^z.
   148e4:	be541501 bf7a7302 be528b89 bf7a87c1     ..T..sz...R...z.
   148f4:	be5101f1 bf7a9c59 be4f7838 bf7ab0cb     ..Q.Y.z.8xO...z.
   14904:	be4dee60 bf7ac516 be4c6467 bf7ad93a     `.M...z.gdL.:.z.
   14914:	be4ada4f bf7aed37 be495018 bf7b010e     O.J.7.z..PI...{.
   14924:	be47c5c2 bf7b14be be463b4d bf7b2848     ..G...{.M;F.H({.
   14934:	be44b0b9 bf7b3bab be432607 bf7b4ee7     ..D..;{..&C..N{.
   14944:	be419b37 bf7b61fc be401049 bf7b74ea     7.A..a{.I.@..t{.
   14954:	be3e853e bf7b87b2 be3cfa15 bf7b9a53     >.>...{...<.S.{.
   14964:	be3b6ecf bf7baccd be39e36c bf7bbf20     .n;...{.l.9. .{.
   14974:	be3857ec bf7bd14d be36cc50 bf7be353     .W8.M.{.P.6.S.{.
   14984:	be354098 bf7bf531 be33b4c4 bf7c06e9     .@5.1.{...3...|.
   14994:	be3228d4 bf7c187a be309cc9 bf7c29e5     .(2.z.|...0..)|.
   149a4:	be2f10a2 bf7c3b28 be2d8461 bf7c4c44     ../.(;|.a.-.DL|.
   149b4:	be2bf804 bf7c5d3a be2a6b8d bf7c6e08     ..+.:]|..k*..n|.
   149c4:	be28defc bf7c7eb0 be275251 bf7c8f31     ..(..~|.QR'.1.|.
   149d4:	be25c58c bf7c9f8a be2438ad bf7cafbd     ..%...|..8$...|.
   149e4:	be22abb6 bf7cbfc9 be211ea5 bf7ccfae     .."...|...!...|.
   149f4:	be1f917b bf7cdf6c be1e0438 bf7cef03     {...l.|.8.....|.
   14a04:	be1c76de bf7cfe73 be1ae96b bf7d0dbc     .v..s.|.k.....}.
   14a14:	be195be0 bf7d1cdd be17ce3d bf7d2bd8     .[....}.=....+}.
   14a24:	be164083 bf7d3aac be14b2b2 bf7d4959     .@...:}.....YI}.
   14a34:	be1324ca bf7d57de be1196cc bf7d663d     .$...W}.....=f}.
   14a44:	be1008b7 bf7d7474 be0e7a8b bf7d8285     ....tt}..z....}.
   14a54:	be0cec4a bf7d906e be0b5df3 bf7d9e30     J...n.}..]..0.}.
   14a64:	be09cf86 bf7dabcc be084105 bf7db940     ......}..A..@.}.
   14a74:	be06b26e bf7dc68c be0523c2 bf7dd3b2     n.....}..#....}.
   14a84:	be039502 bf7de0b1 be02062e bf7ded88     ......}.......}.
   14a94:	be007745 bf7dfa38 bdfdd092 bf7e06c2     Ew..8.}.......~.
   14aa4:	bdfab273 bf7e1324 bdf7942c bf7e1f5e     s...$.~.,...^.~.
   14ab4:	bdf475c0 bf7e2b72 bdf1572e bf7e375e     .u..r+~..W..^7~.
   14ac4:	bdee3876 bf7e4323 bdeb199a bf7e4ec1     v8..#C~......N~.
   14ad4:	bde7fa9a bf7e5a38 bde4db76 bf7e6588     ....8Z~.v....e~.
   14ae4:	bde1bc2e bf7e70b0 bdde9cc4 bf7e7bb1     .....p~......{~.
   14af4:	bddb7d37 bf7e868b bdd85d89 bf7e913d     7}....~..]..=.~.
   14b04:	bdd53db9 bf7e9bc9 bdd21dc8 bf7ea62d     .=....~.....-.~.
   14b14:	bdcefdb7 bf7eb069 bdcbdd86 bf7eba7f     ....i.~.......~.
   14b24:	bdc8bd36 bf7ec46d bdc59cc6 bf7ece34     6...m.~.....4.~.
   14b34:	bdc27c39 bf7ed7d4 bdbf5b8d bf7ee14c     9|....~..[..L.~.
   14b44:	bdbc3ac3 bf7eea9d bdb919dd bf7ef3c7     .:....~.......~.
   14b54:	bdb5f8da bf7efcc9 bdb2d7bb bf7f05a4     ......~.........
   14b64:	bdafb680 bf7f0e58 bdac952b bf7f16e4     ....X...+.......
   14b74:	bda973ba bf7f1f49 bda65230 bf7f2787     .s..I...0R...'..
   14b84:	bda3308c bf7f2f9d bda00ecf bf7f378d     .0.../.......7..
   14b94:	bd9cecf9 bf7f3f54 bd99cb0a bf7f46f4     ....T?.......F..
   14ba4:	bd96a905 bf7f4e6d bd9386e7 bf7f55bf     ....mN.......U..
   14bb4:	bd9064b4 bf7f5ce9 bd8d426a bf7f63ec     .d...\..jB...c..
   14bc4:	bd8a200a bf7f6ac7 bd86fd94 bf7f717b     . ...j......{q..
   14bd4:	bd83db0a bf7f7808 bd80b86c bf7f7e6d     .....x..l...m~..
   14be4:	bd7b2b74 bf7f84ab bd74e5e9 bf7f8ac2     t+{.......t.....
   14bf4:	bd6ea038 bf7f90b1 bd685a62 bf7f9678     8.n.....bZh.x...
   14c04:	bd621468 bf7f9c18 bd5bce4c bf7fa191     h.b.....L.[.....
   14c14:	bd55880e bf7fa6e3 bd4f41af bf7fac0d     ..U......AO.....
   14c24:	bd48fb2f bf7fb10f bd42b491 bf7fb5ea     /.H.......B.....
   14c34:	bd3c6dd5 bf7fba9e bd3626fc bf7fbf2a     .m<......&6.*...
   14c44:	bd2fe007 bf7fc38f bd2998f6 bf7fc7cc     ../.......).....
   14c54:	bd2351cc bf7fcbe2 bd1d0a88 bf7fcfd1     .Q#.............
   14c64:	bd16c32c bf7fd398 bd107bb8 bf7fd737     ,........{..7...
   14c74:	bd0a342f bf7fdaaf bd03ec90 bf7fde00     /4..............
   14c84:	bcfb49b9 bf7fe129 bceeba2d bf7fe42b     .I..)...-...+...
   14c94:	bce22a7b bf7fe705 bcd59aa6 bf7fe9b8     {*..............
   14ca4:	bcc90ab0 bf7fec43 bcbc7a9b bf7feea7     ....C....z......
   14cb4:	bcafea69 bf7ff0e3 bca35a1c bf7ff2f8     i........Z......
   14cc4:	bc96c9b6 bf7ff4e6 bc8a3938 bf7ff6ac     ........89......
   14cd4:	bc7b514b bf7ff84a bc623000 bf7ff9c1     KQ{.J....0b.....
   14ce4:	bc490e90 bf7ffb11 bc2fed02 bf7ffc39     ..I......./.9...
   14cf4:	bc16cb59 bf7ffd39 bbfb5330 bf7ffe13     Y...9...0S......
   14d04:	bbc90f89 bf7ffec4 bb96cbc1 bf7fff4e     ............N...
   14d14:	bb490fc7 bf7fffb1 bac90fd4 bf7fffec     ..I.............
   14d24:	80000000 bf800000 3ac90fd4 bf7fffec     ...........:....
   14d34:	3b490fc7 bf7fffb1 3b96cbc1 bf7fff4e     ..I;.......;N...
   14d44:	3bc90f89 bf7ffec4 3bfb5330 bf7ffe13     ...;....0S.;....
   14d54:	3c16cb59 bf7ffd39 3c2fed02 bf7ffc39     Y..<9...../<9...
   14d64:	3c490e90 bf7ffb11 3c623000 bf7ff9c1     ..I<.....0b<....
   14d74:	3c7b514b bf7ff84a 3c8a3938 bf7ff6ac     KQ{<J...89.<....
   14d84:	3c96c9b6 bf7ff4e6 3ca35a1c bf7ff2f8     ...<.....Z.<....
   14d94:	3cafea69 bf7ff0e3 3cbc7a9b bf7feea7     i..<.....z.<....
   14da4:	3cc90ab0 bf7fec43 3cd59aa6 bf7fe9b8     ...<C......<....
   14db4:	3ce22a7b bf7fe705 3ceeba2d bf7fe42b     {*.<....-..<+...
   14dc4:	3cfb49b9 bf7fe129 3d03ec90 bf7fde00     .I.<)......=....
   14dd4:	3d0a342f bf7fdaaf 3d107bb8 bf7fd737     /4.=.....{.=7...
   14de4:	3d16c32c bf7fd398 3d1d0a88 bf7fcfd1     ,..=.......=....
   14df4:	3d2351cc bf7fcbe2 3d2998f6 bf7fc7cc     .Q#=......)=....
   14e04:	3d2fe007 bf7fc38f 3d3626fc bf7fbf2a     ../=.....&6=*...
   14e14:	3d3c6dd5 bf7fba9e 3d42b491 bf7fb5ea     .m<=......B=....
   14e24:	3d48fb2f bf7fb10f 3d4f41af bf7fac0d     /.H=.....AO=....
   14e34:	3d55880e bf7fa6e3 3d5bce4c bf7fa191     ..U=....L.[=....
   14e44:	3d621468 bf7f9c18 3d685a62 bf7f9678     h.b=....bZh=x...
   14e54:	3d6ea038 bf7f90b1 3d74e5e9 bf7f8ac2     8.n=......t=....
   14e64:	3d7b2b74 bf7f84ab 3d80b86c bf7f7e6d     t+{=....l..=m~..
   14e74:	3d83db0a bf7f7808 3d86fd94 bf7f717b     ...=.x.....={q..
   14e84:	3d8a200a bf7f6ac7 3d8d426a bf7f63ec     . .=.j..jB.=.c..
   14e94:	3d9064b4 bf7f5ce9 3d9386e7 bf7f55bf     .d.=.\.....=.U..
   14ea4:	3d96a905 bf7f4e6d 3d99cb0a bf7f46f4     ...=mN.....=.F..
   14eb4:	3d9cecf9 bf7f3f54 3da00ecf bf7f378d     ...=T?.....=.7..
   14ec4:	3da3308c bf7f2f9d 3da65230 bf7f2787     .0.=./..0R.=.'..
   14ed4:	3da973ba bf7f1f49 3dac952b bf7f16e4     .s.=I...+..=....
   14ee4:	3dafb680 bf7f0e58 3db2d7bb bf7f05a4     ...=X......=....
   14ef4:	3db5f8da bf7efcc9 3db919dd bf7ef3c7     ...=..~....=..~.
   14f04:	3dbc3ac3 bf7eea9d 3dbf5b8d bf7ee14c     .:.=..~..[.=L.~.
   14f14:	3dc27c39 bf7ed7d4 3dc59cc6 bf7ece34     9|.=..~....=4.~.
   14f24:	3dc8bd36 bf7ec46d 3dcbdd86 bf7eba7f     6..=m.~....=..~.
   14f34:	3dcefdb7 bf7eb069 3dd21dc8 bf7ea62d     ...=i.~....=-.~.
   14f44:	3dd53db9 bf7e9bc9 3dd85d89 bf7e913d     .=.=..~..].==.~.
   14f54:	3ddb7d37 bf7e868b 3dde9cc4 bf7e7bb1     7}.=..~....=.{~.
   14f64:	3de1bc2e bf7e70b0 3de4db76 bf7e6588     ...=.p~.v..=.e~.
   14f74:	3de7fa9a bf7e5a38 3deb199a bf7e4ec1     ...=8Z~....=.N~.
   14f84:	3dee3876 bf7e4323 3df1572e bf7e375e     v8.=#C~..W.=^7~.
   14f94:	3df475c0 bf7e2b72 3df7942c bf7e1f5e     .u.=r+~.,..=^.~.
   14fa4:	3dfab273 bf7e1324 3dfdd092 bf7e06c2     s..=$.~....=..~.
   14fb4:	3e007745 bf7dfa38 3e02062e bf7ded88     Ew.>8.}....>..}.
   14fc4:	3e039502 bf7de0b1 3e0523c2 bf7dd3b2     ...>..}..#.>..}.
   14fd4:	3e06b26e bf7dc68c 3e084105 bf7db940     n..>..}..A.>@.}.
   14fe4:	3e09cf86 bf7dabcc 3e0b5df3 bf7d9e30     ...>..}..].>0.}.
   14ff4:	3e0cec4a bf7d906e 3e0e7a8b bf7d8285     J..>n.}..z.>..}.
   15004:	3e1008b7 bf7d7474 3e1196cc bf7d663d     ...>tt}....>=f}.
   15014:	3e1324ca bf7d57de 3e14b2b2 bf7d4959     .$.>.W}....>YI}.
   15024:	3e164083 bf7d3aac 3e17ce3d bf7d2bd8     .@.>.:}.=..>.+}.
   15034:	3e195be0 bf7d1cdd 3e1ae96b bf7d0dbc     .[.>..}.k..>..}.
   15044:	3e1c76de bf7cfe73 3e1e0438 bf7cef03     .v.>s.|.8..>..|.
   15054:	3e1f917b bf7cdf6c 3e211ea5 bf7ccfae     {..>l.|...!>..|.
   15064:	3e22abb6 bf7cbfc9 3e2438ad bf7cafbd     ..">..|..8$>..|.
   15074:	3e25c58c bf7c9f8a 3e275251 bf7c8f31     ..%>..|.QR'>1.|.
   15084:	3e28defc bf7c7eb0 3e2a6b8d bf7c6e08     ..(>.~|..k*>.n|.
   15094:	3e2bf804 bf7c5d3a 3e2d8461 bf7c4c44     ..+>:]|.a.->DL|.
   150a4:	3e2f10a2 bf7c3b28 3e309cc9 bf7c29e5     ../>(;|...0>.)|.
   150b4:	3e3228d4 bf7c187a 3e33b4c4 bf7c06e9     .(2>z.|...3>..|.
   150c4:	3e354098 bf7bf531 3e36cc50 bf7be353     .@5>1.{.P.6>S.{.
   150d4:	3e3857ec bf7bd14d 3e39e36c bf7bbf20     .W8>M.{.l.9> .{.
   150e4:	3e3b6ecf bf7baccd 3e3cfa15 bf7b9a53     .n;>..{...<>S.{.
   150f4:	3e3e853e bf7b87b2 3e401049 bf7b74ea     >.>>..{.I.@>.t{.
   15104:	3e419b37 bf7b61fc 3e432607 bf7b4ee7     7.A>.a{..&C>.N{.
   15114:	3e44b0b9 bf7b3bab 3e463b4d bf7b2848     ..D>.;{.M;F>H({.
   15124:	3e47c5c2 bf7b14be 3e495018 bf7b010e     ..G>..{..PI>..{.
   15134:	3e4ada4f bf7aed37 3e4c6467 bf7ad93a     O.J>7.z.gdL>:.z.
   15144:	3e4dee60 bf7ac516 3e4f7838 bf7ab0cb     `.M>..z.8xO>..z.
   15154:	3e5101f1 bf7a9c59 3e528b89 bf7a87c1     ..Q>Y.z...R>..z.
   15164:	3e541501 bf7a7302 3e559e58 bf7a5e1c     ..T>.sz.X.U>.^z.
   15174:	3e57278f bf7a4910 3e58b0a4 bf7a33dd     .'W>.Iz...X>.3z.
   15184:	3e5a3997 bf7a1e84 3e5bc26a bf7a0904     .9Z>..z.j.[>..z.
   15194:	3e5d4b1a bf79f35e 3e5ed3a8 bf79dd91     .K]>^.y...^>..y.
   151a4:	3e605c13 bf79c79d 3e61e45c bf79b183     .\`>..y.\.a>..y.
   151b4:	3e636c83 bf799b43 3e64f486 bf7984dc     .lc>C.y...d>..y.
   151c4:	3e667c66 bf796e4e 3e680422 bf79579a     f|f>Nny.".h>.Wy.
   151d4:	3e698bba bf7940c0 3e6b132f bf7929bf     ..i>.@y./.k>.)y.
   151e4:	3e6c9a7f bf791298 3e6e21ab bf78fb4a     ..l>..y..!n>J.x.
   151f4:	3e6fa8b2 bf78e3d6 3e712f94 bf78cc3b     ..o>..x../q>;.x.
   15204:	3e72b651 bf78b47b 3e743ce8 bf789c93     Q.r>{.x..<t>..x.
   15214:	3e75c35a bf788486 3e7749a6 bf786c52     Z.u>..x..Iw>Rlx.
   15224:	3e78cfcc bf7853f8 3e7a55cb bf783b77     ..x>.Sx..Uz>w;x.
   15234:	3e7bdba4 bf7822d1 3e7d6156 bf780a04     ..{>."x.Va}>..x.
   15244:	3e7ee6e1 bf77f110 3e803622 bf77d7f7     ..~>..w."6.>..w.
   15254:	3e80f8c0 bf77beb7 3e81bb4a bf77a551     ...>..w.J..>Q.w.
   15264:	3e827dc0 bf778bc5 3e834022 bf777213     .}.>..w."@.>.rw.
   15274:	3e840270 bf77583a 3e84c4aa bf773e3c     p..>:Xw....><>w.
   15284:	3e8586ce bf772417 3e8648df bf7709cc     ...>.$w..H.>..w.
   15294:	3e870ada bf76ef5b 3e87ccc1 bf76d4c4     ...>[.v....>..v.
   152a4:	3e888e93 bf76ba07 3e895050 bf769f24     ...>..v.PP.>$.v.
   152b4:	3e8a11f8 bf76841b 3e8ad38a bf7668ec     ...>..v....>.hv.
   152c4:	3e8b9507 bf764d97 3e8c566e bf76321b     ...>.Mv.nV.>.2v.
   152d4:	3e8d17c0 bf76167a 3e8dd8fc bf75fab3     ...>z.v....>..u.
   152e4:	3e8e9a22 bf75dec6 3e8f5b32 bf75c2b3     "..>..u.2[.>..u.
   152f4:	3e901c2c bf75a67b 3e90dd10 bf758a1c     ,..>{.u....>..u.
   15304:	3e919ddd bf756d97 3e925e94 bf7550ed     ...>.mu..^.>.Pu.
   15314:	3e931f35 bf75341d 3e93dfbf bf751727     5..>.4u....>'.u.
   15324:	3e94a031 bf74fa0b 3e95608d bf74dcc9     1..>..t..`.>..t.
   15334:	3e9620d2 bf74bf62 3e96e100 bf74a1d5     . .>b.t....>..t.
   15344:	3e97a117 bf748422 3e986116 bf746649     ...>".t..a.>Ift.
   15354:	3e9920fe bf74484b 3e99e0ce bf742a27     . .>KHt....>'*t.
   15364:	3e9aa086 bf740bdd 3e9b6027 bf73ed6e     ...>..t.'`.>n.s.
   15374:	3e9c1faf bf73ced9 3e9cdf20 bf73b01f     ...>..s. ..>..s.
   15384:	3e9d9e78 bf73913f 3e9e5db8 bf737239     x..>?.s..].>9rs.
   15394:	3e9f1cdf bf73530e 3e9fdbee bf7333be     ...>.Ss....>.3s.
   153a4:	3ea09ae5 bf731447 3ea159c2 bf72f4ac     ...>G.s..Y.>..r.
   153b4:	3ea21887 bf72d4eb 3ea2d733 bf72b504     ...>..r.3..>..r.
   153c4:	3ea395c5 bf7294f8 3ea4543f bf7274c7     ...>..r.?T.>.tr.
   153d4:	3ea5129f bf725470 3ea5d0e5 bf7233f4     ...>pTr....>.3r.
   153e4:	3ea68f12 bf721352 3ea74d25 bf71f28c     ...>R.r.%M.>..q.
   153f4:	3ea80b1f bf71d19f 3ea8c8fe bf71b08e     ...>..q....>..q.
   15404:	3ea986c4 bf718f57 3eaa446f bf716dfb     ...>W.q.oD.>.mq.
   15414:	3eab0201 bf714c7a 3eabbf77 bf712ad4     ...>zLq.w..>.*q.
   15424:	3eac7cd4 bf710908 3ead3a15 bf70e717     .|.>..q..:.>..p.
   15434:	3eadf73c bf70c502 3eaeb449 bf70a2c6     <..>..p.I..>..p.
   15444:	3eaf713a bf708066 3eb02e10 bf705de1     :q.>f.p....>.]p.
   15454:	3eb0eacb bf703b37 3eb1a76b bf701867     ...>7;p.k..>g.p.
   15464:	3eb263ef bf6ff573 3eb32058 bf6fd25a     .c.>s.o.X .>Z.o.
   15474:	3eb3dca5 bf6faf1b 3eb498d6 bf6f8bb8     ...>..o....>..o.
   15484:	3eb554ec bf6f6830 3eb610e6 bf6f4483     .T.>0ho....>.Do.
   15494:	3eb6ccc3 bf6f20b0 3eb78884 bf6efcba     ...>. o....>..n.
   154a4:	3eb8442a bf6ed89e 3eb8ffb2 bf6eb45d     *D.>..n....>].n.
   154b4:	3eb9bb1e bf6e8ff8 3eba766e bf6e6b6d     ...>..n.nv.>mkn.
   154c4:	3ebb31a0 bf6e46be 3ebbecb6 bf6e21eb     .1.>.Fn....>.!n.
   154d4:	3ebca7af bf6dfcf2 3ebd628b bf6dd7d5     ...>..m..b.>..m.
   154e4:	3ebe1d4a bf6db293 3ebed7eb bf6d8d2d     J..>..m....>-.m.
   154f4:	3ebf926f bf6d67a1 3ec04cd5 bf6d41f2     o..>.gm..L.>.Am.
   15504:	3ec1071e bf6d1c1d 3ec1c148 bf6cf624     ...>..m.H..>$.l.
   15514:	3ec27b55 bf6cd007 3ec33544 bf6ca9c5     U{.>..l.D5.>..l.
   15524:	3ec3ef15 bf6c835e 3ec4a8c8 bf6c5cd4     ...>^.l....>.\l.
   15534:	3ec5625c bf6c3624 3ec61bd2 bf6c0f50     \b.>$6l....>P.l.
   15544:	3ec6d529 bf6be858 3ec78e62 bf6bc13b     )..>X.k.b..>;.k.
   15554:	3ec8477c bf6b99fb 3ec90077 bf6b7295     |G.>..k.w..>.rk.
   15564:	3ec9b953 bf6b4b0c 3eca7210 bf6b235e     S..>.Kk..r.>^#k.
   15574:	3ecb2aae bf6afb8c 3ecbe32c bf6ad395     .*.>..j.,..>..j.
   15584:	3ecc9b8b bf6aab7b 3ecd53ca bf6a833c     ...>{.j..S.><.j.
   15594:	3ece0bea bf6a5ad9 3ecec3ea bf6a3252     ...>.Zj....>R2j.
   155a4:	3ecf7bca bf6a09a7 3ed0338a bf69e0d7     .{.>..j..3.>..i.
   155b4:	3ed0eb2a bf69b7e4 3ed1a2aa bf698ecc     *..>..i....>..i.
   155c4:	3ed25a09 bf696591 3ed31148 bf693c32     .Z.>.ei.H..>2<i.
   155d4:	3ed3c867 bf6912ae 3ed47f64 bf68e907     g..>..i.d..>..h.
   155e4:	3ed53641 bf68bf3c 3ed5ecfd bf68954c     A6.><.h....>L.h.
   155f4:	3ed6a399 bf686b39 3ed75a13 bf684103     ...>9kh..Z.>.Ah.
   15604:	3ed8106b bf6816a8 3ed8c6a3 bf67ec2a     k..>..h....>*.g.
   15614:	3ed97cb9 bf67c187 3eda32ad bf6796c1     .|.>..g..2.>..g.
   15624:	3edae880 bf676bd8 3edb9e31 bf6740ca     ...>.kg.1..>.@g.
   15634:	3edc53c1 bf671599 3edd092e bf66ea45     .S.>..g....>E.f.
   15644:	3eddbe79 bf66becc 3ede73a2 bf669330     y..>..f..s.>0.f.
   15654:	3edf28a9 bf666771 3edfdd8d bf663b8e     .(.>qgf....>.;f.
   15664:	3ee0924f bf660f88 3ee146ee bf65e35e     O..>..f..F.>^.e.
   15674:	3ee1fb6a bf65b710 3ee2afc4 bf658aa0     j..>..e....>..e.
   15684:	3ee363fa bf655e0b 3ee4180e bf653154     .c.>.^e....>T1e.
   15694:	3ee4cbfe bf650479 3ee57fcb bf64d77b     ...>y.e....>{.d.
   156a4:	3ee63375 bf64aa59 3ee6e6fb bf647d14     u3.>Y.d....>.}d.
   156b4:	3ee79a5d bf644fac 3ee84d9c bf642221     ]..>.Od..M.>!"d.
   156c4:	3ee900b7 bf63f473 3ee9b3ae bf63c6a1     ...>s.c....>..c.
   156d4:	3eea6681 bf6398ac 3eeb1930 bf636a95     .f.>..c.0..>.jc.
   156e4:	3eebcbbb bf633c5a 3eec7e21 bf630dfc     ...>Z<c.!~.>..c.
   156f4:	3eed3063 bf62df7b 3eede280 bf62b0d7     c0.>{.b....>..b.
   15704:	3eee9479 bf628210 3eef464c bf625326     y..>..b.LF.>&Sb.
   15714:	3eeff7fb bf62241a 3ef0a985 bf61f4ea     ...>.$b....>..a.
   15724:	3ef15aea bf61c598 3ef20c29 bf619622     .Z.>..a.)..>".a.
   15734:	3ef2bd43 bf61668a 3ef36e38 bf6136d0     C..>.fa.8n.>.6a.
   15744:	3ef41f07 bf6106f2 3ef4cfb1 bf60d6f2     ...>..a....>..`.
   15754:	3ef58035 bf60a6cf 3ef63093 bf607689     5..>..`..0.>.v`.
   15764:	3ef6e0cb bf604621 3ef790dc bf601596     ...>!F`....>..`.
   15774:	3ef840c8 bf5fe4e9 3ef8f08e bf5fb419     .@.>.._....>.._.
   15784:	3ef9a02d bf5f8327 3efa4fa5 bf5f5212     -..>'._..O.>.R_.
   15794:	3efafef7 bf5f20db 3efbae22 bf5eef81     ...>. _."..>..^.
   157a4:	3efc5d27 bf5ebe05 3efd0c04 bf5e8c67     '].>..^....>g.^.
   157b4:	3efdbabb bf5e5aa6 3efe694a bf5e28c3     ...>.Z^.Ji.>.(^.
   157c4:	3eff17b2 bf5df6be 3effc5f3 bf5dc497     ...>..]....>..].
   157d4:	3f003a06 bf5d924d 3f0090ff bf5d5fe1     .:.?M.]....?._].
   157e4:	3f00e7e4 bf5d2d53 3f013eb5 bf5cfaa3     ...?S-]..>.?..\.
   157f4:	3f019573 bf5cc7d1 3f01ec1c bf5c94dd     s..?..\....?..\.
   15804:	3f0242b1 bf5c61c7 3f029932 bf5c2e8e     .B.?.a\.2..?..\.
   15814:	3f02ef9f bf5bfb34 3f0345f8 bf5bc7b8     ...?4.[..E.?..[.
   15824:	3f039c3d bf5b941a 3f03f26d bf5b605a     =..?..[.m..?Z`[.
   15834:	3f044889 bf5b2c79 3f049e91 bf5af875     .H.?y,[....?u.Z.
   15844:	3f04f484 bf5ac450 3f054a62 bf5a9009     ...?P.Z.bJ.?..Z.
   15854:	3f05a02c bf5a5ba0 3f05f5e2 bf5a2716     ,..?.[Z....?.'Z.
   15864:	3f064b82 bf59f26a 3f06a10e bf59bd9c     .K.?j.Y....?..Y.
   15874:	3f06f686 bf5988ad 3f074be8 bf59539c     ...?..Y..K.?.SY.
   15884:	3f07a136 bf591e6a 3f07f66f bf58e917     6..?j.Y.o..?..X.
   15894:	3f084b92 bf58b3a1 3f08a0a1 bf587e0b     .K.?..X....?.~X.
   158a4:	3f08f59b bf584853 3f094a7f bf581279     ...?SHX..J.?y.X.
   158b4:	3f099f4e bf57dc7f 3f09f409 bf57a663     N..?..W....?c.W.
   158c4:	3f0a48ad bf577026 3f0a9d3d bf5739c7     .H.?&pW.=..?.9W.
   158d4:	3f0af1b7 bf570348 3f0b461c bf56cca7     ...?H.W..F.?..V.
   158e4:	3f0b9a6b bf5695e5 3f0beea5 bf565f02     k..?..V....?._V.
   158f4:	3f0c42c9 bf5627fe 3f0c96d7 bf55f0d9     .B.?.'V....?..U.
   15904:	3f0cead0 bf55b993 3f0d3eb3 bf55822c     ...?..U..>.?,.U.
   15914:	3f0d9281 bf554aa4 3f0de638 bf5512fb     ...?.JU.8..?..U.
   15924:	3f0e39da bf54db31 3f0e8d65 bf54a347     .9.?1.T.e..?G.T.
   15934:	3f0ee0db bf546b3b 3f0f343b bf54330f     ...?;kT.;4.?.3T.
   15944:	3f0f8784 bf53fac3 3f0fdab8 bf53c255     ...?..S....?U.S.
   15954:	3f102dd5 bf5389c7 3f1080dc bf535118     .-.?..S....?.QS.
   15964:	3f10d3cd bf531849 3f1126a7 bf52df59     ...?I.S..&.?Y.R.
   15974:	3f11796b bf52a649 3f11cc19 bf526d18     ky.?I.R....?.mR.
   15984:	3f121eb0 bf5233c6 3f127130 bf51fa54     ...?.3R.0q.?T.Q.
   15994:	3f12c39a bf51c0c2 3f1315ee bf518710     ...?..Q....?..Q.
   159a4:	3f13682a bf514d3d 3f13ba50 bf51134a     *h.?=MQ.P..?J.Q.
   159b4:	3f140c5f bf50d937 3f145e58 bf509f03     _..?7.P.X^.?..P.
   159c4:	3f14b039 bf5064af 3f150204 bf502a3b     9..?.dP....?;*P.
   159d4:	3f1553b7 bf4fefa8 3f15a554 bf4fb4f4     .S.?..O.T..?..O.
   159e4:	3f15f6d9 bf4f7a1f 3f164847 bf4f3f2b     ...?.zO.GH.?+?O.
   159f4:	3f16999f bf4f0417 3f16eadf bf4ec8e4     ...?..O....?..N.
   15a04:	3f173c07 bf4e8d90 3f178d18 bf4e521c     .<.?..N....?.RN.
   15a14:	3f17de12 bf4e1689 3f182ef5 bf4ddad5     ...?..N....?..M.
   15a24:	3f187fc0 bf4d9f02 3f18d073 bf4d6310     ...?..M.s..?.cM.
   15a34:	3f19210f bf4d26fd 3f197194 bf4ceacb     .!.?.&M..q.?..L.
   15a44:	3f19c200 bf4cae79 3f1a1255 bf4c7208     ...?y.L.U..?.rL.
   15a54:	3f1a6293 bf4c3578 3f1ab2b8 bf4bf8c7     .b.?x5L....?..K.
   15a64:	3f1b02c6 bf4bbbf8 3f1b52bb bf4b7f09     ...?..K..R.?..K.
   15a74:	3f1ba299 bf4b41fa 3f1bf25f bf4b04cc     ...?.AK._..?..K.
   15a84:	3f1c420c bf4ac77f 3f1c91a2 bf4a8a13     .B.?..J....?..J.
   15a94:	3f1ce11f bf4a4c87 3f1d3084 bf4a0edc     ...?.LJ..0.?..J.
   15aa4:	3f1d7fd1 bf49d112 3f1dcf06 bf499329     ...?..I....?).I.
   15ab4:	3f1e1e22 bf495521 3f1e6d26 bf4916fa     "..?!UI.&m.?..I.
   15ac4:	3f1ebc12 bf48d8b3 3f1f0ae5 bf489a4e     ...?..H....?N.H.
   15ad4:	3f1f599f bf485bca 3f1fa841 bf481d27     .Y.?.[H.A..?'.H.
   15ae4:	3f1ff6cb bf47de65 3f20453b bf479f84     ...?e.G.;E ?..G.
   15af4:	3f209393 bf476085 3f20e1d2 bf472167     .. ?.`G... ?g!G.
   15b04:	3f212ff9 bf46e22a 3f217e06 bf46a2ce     ./!?*.F..~!?..F.
   15b14:	3f21cbfb bf466354 3f2219d7 bf4623bb     ..!?TcF..."?.#F.
   15b24:	3f226799 bf45e403 3f22b543 bf45a42d     .g"?..E.C."?-.E.
   15b34:	3f2302d3 bf456439 3f23504b bf452426     ..#?9dE.KP#?&$E.
   15b44:	3f239da9 bf44e3f5 3f23eaee bf44a3a5     ..#?..D...#?..D.
   15b54:	3f24381a bf446337 3f24852c bf4422ab     .8$?7cD.,.$?."D.
   15b64:	3f24d225 bf43e200 3f251f04 bf43a138     %.$?..C...%?8.C.
   15b74:	3f256bcb bf436051 3f25b877 bf431f4c     .k%?Q`C.w.%?L.C.
   15b84:	3f26050a bf42de29 3f265184 bf429ce8     ..&?).B..Q&?..B.
   15b94:	3f269de3 bf425b89 3f26ea2a bf421a0b     ..&?.[B.*.&?..B.
   15ba4:	3f273656 bf41d870 3f278268 bf4196b7     V6'?p.A.h.'?..A.
   15bb4:	3f27ce61 bf4154e1 3f281a40 bf4112ec     a.'?.TA.@.(?..A.
   15bc4:	3f286605 bf40d0da 3f28b1b0 bf408ea9     .f(?..@...(?..@.
   15bd4:	3f28fd41 bf404c5c 3f2948b8 bf4009f0     A.(?\L@..H)?..@.
   15be4:	3f299415 bf3fc767 3f29df57 bf3f84c0     ..)?g.?.W.)?..?.
   15bf4:	3f2a2a80 bf3f41fc 3f2a758e bf3eff1b     .**?.A?..u*?..>.
   15c04:	3f2ac082 bf3ebc1b 3f2b0b5b bf3e78ff     ..*?..>.[.+?.x>.
   15c14:	3f2b561b bf3e35c5 3f2ba0bf bf3df26e     .V+?.5>...+?n.=.
   15c24:	3f2beb4a bf3daef9 3f2c35b9 bf3d6b67     J.+?..=..5,?gk=.
   15c34:	3f2c800f bf3d27b8 3f2cca49 bf3ce3ec     ..,?.'=.I.,?..<.
   15c44:	3f2d1469 bf3ca003 3f2d5e6f bf3c5bfc     i.-?..<.o^-?.[<.
   15c54:	3f2da859 bf3c17d9 3f2df229 bf3bd398     Y.-?..<.).-?..;.
   15c64:	3f2e3bde bf3b8f3b 3f2e8578 bf3b4ac1     .;.?;.;.x..?.J;.
   15c74:	3f2ecef7 bf3b0629 3f2f185b bf3ac175     ...?).;.[./?u.:.
   15c84:	3f2f61a5 bf3a7ca4 3f2faad3 bf3a37b7     .a/?.|:.../?.7:.
   15c94:	3f2ff3e6 bf39f2ac 3f303cde bf39ad85     ../?..9..<0?..9.
   15ca4:	3f3085bb bf396842 3f30ce7c bf3922e1     ..0?Bh9.|.0?."9.
   15cb4:	3f311722 bf38dd65 3f315fad bf3897cb     ".1?e.8.._1?..8.
   15cc4:	3f31a81d bf385216 3f31f071 bf380c43     ..1?.R8.q.1?C.8.
   15cd4:	3f3238aa bf37c655 3f3280c7 bf37804a     .82?U.7...2?J.7.
   15ce4:	3f32c8c9 bf373a23 3f3310af bf36f3df     ..2?#:7...3?..6.
   15cf4:	3f33587a bf36ad7f 3f33a029 bf366704     zX3?..6.).3?.g6.
   15d04:	3f33e7bc bf36206c 3f342f34 bf35d9b8     ..3?l 6.4/4?..5.
   15d14:	3f34768f bf3592e7 3f34bdcf bf354bfb     .v4?..5...4?.K5.
   15d24:	3f3504f3 bf3504f3 3f354bfb bf34bdcf     ..5?..5..K5?..4.
   15d34:	3f3592e7 bf34768f 3f35d9b8 bf342f34     ..5?.v4...5?4/4.
   15d44:	3f36206c bf33e7bc 3f366704 bf33a029     l 6?..3..g6?).3.
   15d54:	3f36ad7f bf33587a 3f36f3df bf3310af     ..6?zX3...6?..3.
   15d64:	3f373a23 bf32c8c9 3f37804a bf3280c7     #:7?..2.J.7?..2.
   15d74:	3f37c655 bf3238aa 3f380c43 bf31f071     U.7?.82.C.8?q.1.
   15d84:	3f385216 bf31a81d 3f3897cb bf315fad     .R8?..1...8?._1.
   15d94:	3f38dd65 bf311722 3f3922e1 bf30ce7c     e.8?".1.."9?|.0.
   15da4:	3f396842 bf3085bb 3f39ad85 bf303cde     Bh9?..0...9?.<0.
   15db4:	3f39f2ac bf2ff3e6 3f3a37b7 bf2faad3     ..9?../..7:?../.
   15dc4:	3f3a7ca4 bf2f61a5 3f3ac175 bf2f185b     .|:?.a/.u.:?[./.
   15dd4:	3f3b0629 bf2ecef7 3f3b4ac1 bf2e8578     ).;?.....J;?x...
   15de4:	3f3b8f3b bf2e3bde 3f3bd398 bf2df229     ;.;?.;....;?).-.
   15df4:	3f3c17d9 bf2da859 3f3c5bfc bf2d5e6f     ..<?Y.-..[<?o^-.
   15e04:	3f3ca003 bf2d1469 3f3ce3ec bf2cca49     ..<?i.-...<?I.,.
   15e14:	3f3d27b8 bf2c800f 3f3d6b67 bf2c35b9     .'=?..,.gk=?.5,.
   15e24:	3f3daef9 bf2beb4a 3f3df26e bf2ba0bf     ..=?J.+.n.=?..+.
   15e34:	3f3e35c5 bf2b561b 3f3e78ff bf2b0b5b     .5>?.V+..x>?[.+.
   15e44:	3f3ebc1b bf2ac082 3f3eff1b bf2a758e     ..>?..*...>?.u*.
   15e54:	3f3f41fc bf2a2a80 3f3f84c0 bf29df57     .A??.**...??W.).
   15e64:	3f3fc767 bf299415 3f4009f0 bf2948b8     g.??..)...@?.H).
   15e74:	3f404c5c bf28fd41 3f408ea9 bf28b1b0     \L@?A.(...@?..(.
   15e84:	3f40d0da bf286605 3f4112ec bf281a40     ..@?.f(...A?@.(.
   15e94:	3f4154e1 bf27ce61 3f4196b7 bf278268     .TA?a.'...A?h.'.
   15ea4:	3f41d870 bf273656 3f421a0b bf26ea2a     p.A?V6'...B?*.&.
   15eb4:	3f425b89 bf269de3 3f429ce8 bf265184     .[B?..&...B?.Q&.
   15ec4:	3f42de29 bf26050a 3f431f4c bf25b877     ).B?..&.L.C?w.%.
   15ed4:	3f436051 bf256bcb 3f43a138 bf251f04     Q`C?.k%.8.C?..%.
   15ee4:	3f43e200 bf24d225 3f4422ab bf24852c     ..C?%.$.."D?,.$.
   15ef4:	3f446337 bf24381a 3f44a3a5 bf23eaee     7cD?.8$...D?..#.
   15f04:	3f44e3f5 bf239da9 3f452426 bf23504b     ..D?..#.&$E?KP#.
   15f14:	3f456439 bf2302d3 3f45a42d bf22b543     9dE?..#.-.E?C.".
   15f24:	3f45e403 bf226799 3f4623bb bf2219d7     ..E?.g"..#F?..".
   15f34:	3f466354 bf21cbfb 3f46a2ce bf217e06     TcF?..!...F?.~!.
   15f44:	3f46e22a bf212ff9 3f472167 bf20e1d2     *.F?./!.g!G?.. .
   15f54:	3f476085 bf209393 3f479f84 bf20453b     .`G?.. ...G?;E .
   15f64:	3f47de65 bf1ff6cb 3f481d27 bf1fa841     e.G?....'.H?A...
   15f74:	3f485bca bf1f599f 3f489a4e bf1f0ae5     .[H?.Y..N.H?....
   15f84:	3f48d8b3 bf1ebc12 3f4916fa bf1e6d26     ..H?......I?&m..
   15f94:	3f495521 bf1e1e22 3f499329 bf1dcf06     !UI?"...).I?....
   15fa4:	3f49d112 bf1d7fd1 3f4a0edc bf1d3084     ..I?......J?.0..
   15fb4:	3f4a4c87 bf1ce11f 3f4a8a13 bf1c91a2     .LJ?......J?....
   15fc4:	3f4ac77f bf1c420c 3f4b04cc bf1bf25f     ..J?.B....K?_...
   15fd4:	3f4b41fa bf1ba299 3f4b7f09 bf1b52bb     .AK?......K?.R..
   15fe4:	3f4bbbf8 bf1b02c6 3f4bf8c7 bf1ab2b8     ..K?......K?....
   15ff4:	3f4c3578 bf1a6293 3f4c7208 bf1a1255     x5L?.b...rL?U...
   16004:	3f4cae79 bf19c200 3f4ceacb bf197194     y.L?......L?.q..
   16014:	3f4d26fd bf19210f 3f4d6310 bf18d073     .&M?.!...cM?s...
   16024:	3f4d9f02 bf187fc0 3f4ddad5 bf182ef5     ..M?......M?....
   16034:	3f4e1689 bf17de12 3f4e521c bf178d18     ..N?.....RN?....
   16044:	3f4e8d90 bf173c07 3f4ec8e4 bf16eadf     ..N?.<....N?....
   16054:	3f4f0417 bf16999f 3f4f3f2b bf164847     ..O?....+?O?GH..
   16064:	3f4f7a1f bf15f6d9 3f4fb4f4 bf15a554     .zO?......O?T...
   16074:	3f4fefa8 bf1553b7 3f502a3b bf150204     ..O?.S..;*P?....
   16084:	3f5064af bf14b039 3f509f03 bf145e58     .dP?9.....P?X^..
   16094:	3f50d937 bf140c5f 3f51134a bf13ba50     7.P?_...J.Q?P...
   160a4:	3f514d3d bf13682a 3f518710 bf1315ee     =MQ?*h....Q?....
   160b4:	3f51c0c2 bf12c39a 3f51fa54 bf127130     ..Q?....T.Q?0q..
   160c4:	3f5233c6 bf121eb0 3f526d18 bf11cc19     .3R?.....mR?....
   160d4:	3f52a649 bf11796b 3f52df59 bf1126a7     I.R?ky..Y.R?.&..
   160e4:	3f531849 bf10d3cd 3f535118 bf1080dc     I.S?.....QS?....
   160f4:	3f5389c7 bf102dd5 3f53c255 bf0fdab8     ..S?.-..U.S?....
   16104:	3f53fac3 bf0f8784 3f54330f bf0f343b     ..S?.....3T?;4..
   16114:	3f546b3b bf0ee0db 3f54a347 bf0e8d65     ;kT?....G.T?e...
   16124:	3f54db31 bf0e39da 3f5512fb bf0de638     1.T?.9....U?8...
   16134:	3f554aa4 bf0d9281 3f55822c bf0d3eb3     .JU?....,.U?.>..
   16144:	3f55b993 bf0cead0 3f55f0d9 bf0c96d7     ..U?......U?....
   16154:	3f5627fe bf0c42c9 3f565f02 bf0beea5     .'V?.B..._V?....
   16164:	3f5695e5 bf0b9a6b 3f56cca7 bf0b461c     ..V?k.....V?.F..
   16174:	3f570348 bf0af1b7 3f5739c7 bf0a9d3d     H.W?.....9W?=...
   16184:	3f577026 bf0a48ad 3f57a663 bf09f409     &pW?.H..c.W?....
   16194:	3f57dc7f bf099f4e 3f581279 bf094a7f     ..W?N...y.X?.J..
   161a4:	3f584853 bf08f59b 3f587e0b bf08a0a1     SHX?.....~X?....
   161b4:	3f58b3a1 bf084b92 3f58e917 bf07f66f     ..X?.K....X?o...
   161c4:	3f591e6a bf07a136 3f59539c bf074be8     j.Y?6....SY?.K..
   161d4:	3f5988ad bf06f686 3f59bd9c bf06a10e     ..Y?......Y?....
   161e4:	3f59f26a bf064b82 3f5a2716 bf05f5e2     j.Y?.K...'Z?....
   161f4:	3f5a5ba0 bf05a02c 3f5a9009 bf054a62     .[Z?,.....Z?bJ..
   16204:	3f5ac450 bf04f484 3f5af875 bf049e91     P.Z?....u.Z?....
   16214:	3f5b2c79 bf044889 3f5b605a bf03f26d     y,[?.H..Z`[?m...
   16224:	3f5b941a bf039c3d 3f5bc7b8 bf0345f8     ..[?=.....[?.E..
   16234:	3f5bfb34 bf02ef9f 3f5c2e8e bf029932     4.[?......\?2...
   16244:	3f5c61c7 bf0242b1 3f5c94dd bf01ec1c     .a\?.B....\?....
   16254:	3f5cc7d1 bf019573 3f5cfaa3 bf013eb5     ..\?s.....\?.>..
   16264:	3f5d2d53 bf00e7e4 3f5d5fe1 bf0090ff     S-]?....._]?....
   16274:	3f5d924d bf003a06 3f5dc497 beffc5f3     M.]?.:....]?....
   16284:	3f5df6be beff17b2 3f5e28c3 befe694a     ..]?.....(^?Ji..
   16294:	3f5e5aa6 befdbabb 3f5e8c67 befd0c04     .Z^?....g.^?....
   162a4:	3f5ebe05 befc5d27 3f5eef81 befbae22     ..^?']....^?"...
   162b4:	3f5f20db befafef7 3f5f5212 befa4fa5     . _?.....R_?.O..
   162c4:	3f5f8327 bef9a02d 3f5fb419 bef8f08e     '._?-....._?....
   162d4:	3f5fe4e9 bef840c8 3f601596 bef790dc     .._?.@....`?....
   162e4:	3f604621 bef6e0cb 3f607689 bef63093     !F`?.....v`?.0..
   162f4:	3f60a6cf bef58035 3f60d6f2 bef4cfb1     ..`?5.....`?....
   16304:	3f6106f2 bef41f07 3f6136d0 bef36e38     ..a?.....6a?8n..
   16314:	3f61668a bef2bd43 3f619622 bef20c29     .fa?C...".a?)...
   16324:	3f61c598 bef15aea 3f61f4ea bef0a985     ..a?.Z....a?....
   16334:	3f62241a beeff7fb 3f625326 beef464c     .$b?....&Sb?LF..
   16344:	3f628210 beee9479 3f62b0d7 beede280     ..b?y.....b?....
   16354:	3f62df7b beed3063 3f630dfc beec7e21     {.b?c0....c?!~..
   16364:	3f633c5a beebcbbb 3f636a95 beeb1930     Z<c?.....jc?0...
   16374:	3f6398ac beea6681 3f63c6a1 bee9b3ae     ..c?.f....c?....
   16384:	3f63f473 bee900b7 3f642221 bee84d9c     s.c?....!"d?.M..
   16394:	3f644fac bee79a5d 3f647d14 bee6e6fb     .Od?]....}d?....
   163a4:	3f64aa59 bee63375 3f64d77b bee57fcb     Y.d?u3..{.d?....
   163b4:	3f650479 bee4cbfe 3f653154 bee4180e     y.e?....T1e?....
   163c4:	3f655e0b bee363fa 3f658aa0 bee2afc4     .^e?.c....e?....
   163d4:	3f65b710 bee1fb6a 3f65e35e bee146ee     ..e?j...^.e?.F..
   163e4:	3f660f88 bee0924f 3f663b8e bedfdd8d     ..f?O....;f?....
   163f4:	3f666771 bedf28a9 3f669330 bede73a2     qgf?.(..0.f?.s..
   16404:	3f66becc beddbe79 3f66ea45 bedd092e     ..f?y...E.f?....
   16414:	3f671599 bedc53c1 3f6740ca bedb9e31     ..g?.S...@g?1...
   16424:	3f676bd8 bedae880 3f6796c1 beda32ad     .kg?......g?.2..
   16434:	3f67c187 bed97cb9 3f67ec2a bed8c6a3     ..g?.|..*.g?....
   16444:	3f6816a8 bed8106b 3f684103 bed75a13     ..h?k....Ah?.Z..
   16454:	3f686b39 bed6a399 3f68954c bed5ecfd     9kh?....L.h?....
   16464:	3f68bf3c bed53641 3f68e907 bed47f64     <.h?A6....h?d...
   16474:	3f6912ae bed3c867 3f693c32 bed31148     ..i?g...2<i?H...
   16484:	3f696591 bed25a09 3f698ecc bed1a2aa     .ei?.Z....i?....
   16494:	3f69b7e4 bed0eb2a 3f69e0d7 bed0338a     ..i?*.....i?.3..
   164a4:	3f6a09a7 becf7bca 3f6a3252 becec3ea     ..j?.{..R2j?....
   164b4:	3f6a5ad9 bece0bea 3f6a833c becd53ca     .Zj?....<.j?.S..
   164c4:	3f6aab7b becc9b8b 3f6ad395 becbe32c     {.j?......j?,...
   164d4:	3f6afb8c becb2aae 3f6b235e beca7210     ..j?.*..^#k?.r..
   164e4:	3f6b4b0c bec9b953 3f6b7295 bec90077     .Kk?S....rk?w...
   164f4:	3f6b99fb bec8477c 3f6bc13b bec78e62     ..k?|G..;.k?b...
   16504:	3f6be858 bec6d529 3f6c0f50 bec61bd2     X.k?)...P.l?....
   16514:	3f6c3624 bec5625c 3f6c5cd4 bec4a8c8     $6l?\b...\l?....
   16524:	3f6c835e bec3ef15 3f6ca9c5 bec33544     ^.l?......l?D5..
   16534:	3f6cd007 bec27b55 3f6cf624 bec1c148     ..l?U{..$.l?H...
   16544:	3f6d1c1d bec1071e 3f6d41f2 bec04cd5     ..m?.....Am?.L..
   16554:	3f6d67a1 bebf926f 3f6d8d2d bebed7eb     .gm?o...-.m?....
   16564:	3f6db293 bebe1d4a 3f6dd7d5 bebd628b     ..m?J.....m?.b..
   16574:	3f6dfcf2 bebca7af 3f6e21eb bebbecb6     ..m?.....!n?....
   16584:	3f6e46be bebb31a0 3f6e6b6d beba766e     .Fn?.1..mkn?nv..
   16594:	3f6e8ff8 beb9bb1e 3f6eb45d beb8ffb2     ..n?....].n?....
   165a4:	3f6ed89e beb8442a 3f6efcba beb78884     ..n?*D....n?....
   165b4:	3f6f20b0 beb6ccc3 3f6f4483 beb610e6     . o?.....Do?....
   165c4:	3f6f6830 beb554ec 3f6f8bb8 beb498d6     0ho?.T....o?....
   165d4:	3f6faf1b beb3dca5 3f6fd25a beb32058     ..o?....Z.o?X ..
   165e4:	3f6ff573 beb263ef 3f701867 beb1a76b     s.o?.c..g.p?k...
   165f4:	3f703b37 beb0eacb 3f705de1 beb02e10     7;p?.....]p?....
   16604:	3f708066 beaf713a 3f70a2c6 beaeb449     f.p?:q....p?I...
   16614:	3f70c502 beadf73c 3f70e717 bead3a15     ..p?<.....p?.:..
   16624:	3f710908 beac7cd4 3f712ad4 beabbf77     ..q?.|...*q?w...
   16634:	3f714c7a beab0201 3f716dfb beaa446f     zLq?.....mq?oD..
   16644:	3f718f57 bea986c4 3f71b08e bea8c8fe     W.q?......q?....
   16654:	3f71d19f bea80b1f 3f71f28c bea74d25     ..q?......q?%M..
   16664:	3f721352 bea68f12 3f7233f4 bea5d0e5     R.r?.....3r?....
   16674:	3f725470 bea5129f 3f7274c7 bea4543f     pTr?.....tr??T..
   16684:	3f7294f8 bea395c5 3f72b504 bea2d733     ..r?......r?3...
   16694:	3f72d4eb bea21887 3f72f4ac bea159c2     ..r?......r?.Y..
   166a4:	3f731447 bea09ae5 3f7333be be9fdbee     G.s?.....3s?....
   166b4:	3f73530e be9f1cdf 3f737239 be9e5db8     .Ss?....9rs?.]..
   166c4:	3f73913f be9d9e78 3f73b01f be9cdf20     ?.s?x.....s? ...
   166d4:	3f73ced9 be9c1faf 3f73ed6e be9b6027     ..s?....n.s?'`..
   166e4:	3f740bdd be9aa086 3f742a27 be99e0ce     ..t?....'*t?....
   166f4:	3f74484b be9920fe 3f746649 be986116     KHt?. ..Ift?.a..
   16704:	3f748422 be97a117 3f74a1d5 be96e100     ".t?......t?....
   16714:	3f74bf62 be9620d2 3f74dcc9 be95608d     b.t?. ....t?.`..
   16724:	3f74fa0b be94a031 3f751727 be93dfbf     ..t?1...'.u?....
   16734:	3f75341d be931f35 3f7550ed be925e94     .4u?5....Pu?.^..
   16744:	3f756d97 be919ddd 3f758a1c be90dd10     .mu?......u?....
   16754:	3f75a67b be901c2c 3f75c2b3 be8f5b32     {.u?,.....u?2[..
   16764:	3f75dec6 be8e9a22 3f75fab3 be8dd8fc     ..u?".....u?....
   16774:	3f76167a be8d17c0 3f76321b be8c566e     z.v?.....2v?nV..
   16784:	3f764d97 be8b9507 3f7668ec be8ad38a     .Mv?.....hv?....
   16794:	3f76841b be8a11f8 3f769f24 be895050     ..v?....$.v?PP..
   167a4:	3f76ba07 be888e93 3f76d4c4 be87ccc1     ..v?......v?....
   167b4:	3f76ef5b be870ada 3f7709cc be8648df     [.v?......w?.H..
   167c4:	3f772417 be8586ce 3f773e3c be84c4aa     .$w?....<>w?....
   167d4:	3f77583a be840270 3f777213 be834022     :Xw?p....rw?"@..
   167e4:	3f778bc5 be827dc0 3f77a551 be81bb4a     ..w?.}..Q.w?J...
   167f4:	3f77beb7 be80f8c0 3f77d7f7 be803622     ..w?......w?"6..
   16804:	3f77f110 be7ee6e1 3f780a04 be7d6156     ..w?..~...x?Va}.
   16814:	3f7822d1 be7bdba4 3f783b77 be7a55cb     ."x?..{.w;x?.Uz.
   16824:	3f7853f8 be78cfcc 3f786c52 be7749a6     .Sx?..x.Rlx?.Iw.
   16834:	3f788486 be75c35a 3f789c93 be743ce8     ..x?Z.u...x?.<t.
   16844:	3f78b47b be72b651 3f78cc3b be712f94     {.x?Q.r.;.x?./q.
   16854:	3f78e3d6 be6fa8b2 3f78fb4a be6e21ab     ..x?..o.J.x?.!n.
   16864:	3f791298 be6c9a7f 3f7929bf be6b132f     ..y?..l..)y?/.k.
   16874:	3f7940c0 be698bba 3f79579a be680422     .@y?..i..Wy?".h.
   16884:	3f796e4e be667c66 3f7984dc be64f486     Nny?f|f...y?..d.
   16894:	3f799b43 be636c83 3f79b183 be61e45c     C.y?.lc...y?\.a.
   168a4:	3f79c79d be605c13 3f79dd91 be5ed3a8     ..y?.\`...y?..^.
   168b4:	3f79f35e be5d4b1a 3f7a0904 be5bc26a     ^.y?.K]...z?j.[.
   168c4:	3f7a1e84 be5a3997 3f7a33dd be58b0a4     ..z?.9Z..3z?..X.
   168d4:	3f7a4910 be57278f 3f7a5e1c be559e58     .Iz?.'W..^z?X.U.
   168e4:	3f7a7302 be541501 3f7a87c1 be528b89     .sz?..T...z?..R.
   168f4:	3f7a9c59 be5101f1 3f7ab0cb be4f7838     Y.z?..Q...z?8xO.
   16904:	3f7ac516 be4dee60 3f7ad93a be4c6467     ..z?`.M.:.z?gdL.
   16914:	3f7aed37 be4ada4f 3f7b010e be495018     7.z?O.J...{?.PI.
   16924:	3f7b14be be47c5c2 3f7b2848 be463b4d     ..{?..G.H({?M;F.
   16934:	3f7b3bab be44b0b9 3f7b4ee7 be432607     .;{?..D..N{?.&C.
   16944:	3f7b61fc be419b37 3f7b74ea be401049     .a{?7.A..t{?I.@.
   16954:	3f7b87b2 be3e853e 3f7b9a53 be3cfa15     ..{?>.>.S.{?..<.
   16964:	3f7baccd be3b6ecf 3f7bbf20 be39e36c     ..{?.n;. .{?l.9.
   16974:	3f7bd14d be3857ec 3f7be353 be36cc50     M.{?.W8.S.{?P.6.
   16984:	3f7bf531 be354098 3f7c06e9 be33b4c4     1.{?.@5...|?..3.
   16994:	3f7c187a be3228d4 3f7c29e5 be309cc9     z.|?.(2..)|?..0.
   169a4:	3f7c3b28 be2f10a2 3f7c4c44 be2d8461     (;|?../.DL|?a.-.
   169b4:	3f7c5d3a be2bf804 3f7c6e08 be2a6b8d     :]|?..+..n|?.k*.
   169c4:	3f7c7eb0 be28defc 3f7c8f31 be275251     .~|?..(.1.|?QR'.
   169d4:	3f7c9f8a be25c58c 3f7cafbd be2438ad     ..|?..%...|?.8$.
   169e4:	3f7cbfc9 be22abb6 3f7ccfae be211ea5     ..|?.."...|?..!.
   169f4:	3f7cdf6c be1f917b 3f7cef03 be1e0438     l.|?{.....|?8...
   16a04:	3f7cfe73 be1c76de 3f7d0dbc be1ae96b     s.|?.v....}?k...
   16a14:	3f7d1cdd be195be0 3f7d2bd8 be17ce3d     ..}?.[...+}?=...
   16a24:	3f7d3aac be164083 3f7d4959 be14b2b2     .:}?.@..YI}?....
   16a34:	3f7d57de be1324ca 3f7d663d be1196cc     .W}?.$..=f}?....
   16a44:	3f7d7474 be1008b7 3f7d8285 be0e7a8b     tt}?......}?.z..
   16a54:	3f7d906e be0cec4a 3f7d9e30 be0b5df3     n.}?J...0.}?.]..
   16a64:	3f7dabcc be09cf86 3f7db940 be084105     ..}?....@.}?.A..
   16a74:	3f7dc68c be06b26e 3f7dd3b2 be0523c2     ..}?n.....}?.#..
   16a84:	3f7de0b1 be039502 3f7ded88 be02062e     ..}?......}?....
   16a94:	3f7dfa38 be007745 3f7e06c2 bdfdd092     8.}?Ew....~?....
   16aa4:	3f7e1324 bdfab273 3f7e1f5e bdf7942c     $.~?s...^.~?,...
   16ab4:	3f7e2b72 bdf475c0 3f7e375e bdf1572e     r+~?.u..^7~?.W..
   16ac4:	3f7e4323 bdee3876 3f7e4ec1 bdeb199a     #C~?v8...N~?....
   16ad4:	3f7e5a38 bde7fa9a 3f7e6588 bde4db76     8Z~?.....e~?v...
   16ae4:	3f7e70b0 bde1bc2e 3f7e7bb1 bdde9cc4     .p~?.....{~?....
   16af4:	3f7e868b bddb7d37 3f7e913d bdd85d89     ..~?7}..=.~?.]..
   16b04:	3f7e9bc9 bdd53db9 3f7ea62d bdd21dc8     ..~?.=..-.~?....
   16b14:	3f7eb069 bdcefdb7 3f7eba7f bdcbdd86     i.~?......~?....
   16b24:	3f7ec46d bdc8bd36 3f7ece34 bdc59cc6     m.~?6...4.~?....
   16b34:	3f7ed7d4 bdc27c39 3f7ee14c bdbf5b8d     ..~?9|..L.~?.[..
   16b44:	3f7eea9d bdbc3ac3 3f7ef3c7 bdb919dd     ..~?.:....~?....
   16b54:	3f7efcc9 bdb5f8da 3f7f05a4 bdb2d7bb     ..~?.......?....
   16b64:	3f7f0e58 bdafb680 3f7f16e4 bdac952b     X..?.......?+...
   16b74:	3f7f1f49 bda973ba 3f7f2787 bda65230     I..?.s...'.?0R..
   16b84:	3f7f2f9d bda3308c 3f7f378d bda00ecf     ./.?.0...7.?....
   16b94:	3f7f3f54 bd9cecf9 3f7f46f4 bd99cb0a     T?.?.....F.?....
   16ba4:	3f7f4e6d bd96a905 3f7f55bf bd9386e7     mN.?.....U.?....
   16bb4:	3f7f5ce9 bd9064b4 3f7f63ec bd8d426a     .\.?.d...c.?jB..
   16bc4:	3f7f6ac7 bd8a200a 3f7f717b bd86fd94     .j.?. ..{q.?....
   16bd4:	3f7f7808 bd83db0a 3f7f7e6d bd80b86c     .x.?....m~.?l...
   16be4:	3f7f84ab bd7b2b74 3f7f8ac2 bd74e5e9     ...?t+{....?..t.
   16bf4:	3f7f90b1 bd6ea038 3f7f9678 bd685a62     ...?8.n.x..?bZh.
   16c04:	3f7f9c18 bd621468 3f7fa191 bd5bce4c     ...?h.b....?L.[.
   16c14:	3f7fa6e3 bd55880e 3f7fac0d bd4f41af     ...?..U....?.AO.
   16c24:	3f7fb10f bd48fb2f 3f7fb5ea bd42b491     ...?/.H....?..B.
   16c34:	3f7fba9e bd3c6dd5 3f7fbf2a bd3626fc     ...?.m<.*..?.&6.
   16c44:	3f7fc38f bd2fe007 3f7fc7cc bd2998f6     ...?../....?..).
   16c54:	3f7fcbe2 bd2351cc 3f7fcfd1 bd1d0a88     ...?.Q#....?....
   16c64:	3f7fd398 bd16c32c 3f7fd737 bd107bb8     ...?,...7..?.{..
   16c74:	3f7fdaaf bd0a342f 3f7fde00 bd03ec90     ...?/4.....?....
   16c84:	3f7fe129 bcfb49b9 3f7fe42b bceeba2d     )..?.I..+..?-...
   16c94:	3f7fe705 bce22a7b 3f7fe9b8 bcd59aa6     ...?{*.....?....
   16ca4:	3f7fec43 bcc90ab0 3f7feea7 bcbc7a9b     C..?.......?.z..
   16cb4:	3f7ff0e3 bcafea69 3f7ff2f8 bca35a1c     ...?i......?.Z..
   16cc4:	3f7ff4e6 bc96c9b6 3f7ff6ac bc8a3938     ...?.......?89..
   16cd4:	3f7ff84a bc7b514b 3f7ff9c1 bc623000     J..?KQ{....?.0b.
   16ce4:	3f7ffb11 bc490e90 3f7ffc39 bc2fed02     ...?..I.9..?../.
   16cf4:	3f7ffd39 bc16cb59 3f7ffe13 bbfb5330     9..?Y......?0S..
   16d04:	3f7ffec4 bbc90f89 3f7fff4e bb96cbc1     ...?....N..?....
   16d14:	3f7fffb1 bb490fc7 3f7fffec bac90fd4     ...?..I....?....

00016d24 <twiddleCoef_512>:
   16d24:	3f800000 00000000 3f7ffb11 3c490e90     ...?.......?..I<
   16d34:	3f7fec43 3cc90ab0 3f7fd398 3d16c32c     C..?...<...?,..=
   16d44:	3f7fb10f 3d48fb2f 3f7f84ab 3d7b2b74     ...?/.H=...?t+{=
   16d54:	3f7f4e6d 3d96a905 3f7f0e58 3dafb680     mN.?...=X..?...=
   16d64:	3f7ec46d 3dc8bd36 3f7e70b0 3de1bc2e     m.~?6..=.p~?...=
   16d74:	3f7e1324 3dfab273 3f7dabcc 3e09cf86     $.~?s..=..}?...>
   16d84:	3f7d3aac 3e164083 3f7cbfc9 3e22abb6     .:}?.@.>..|?..">
   16d94:	3f7c3b28 3e2f10a2 3f7baccd 3e3b6ecf     (;|?../>..{?.n;>
   16da4:	3f7b14be 3e47c5c2 3f7a7302 3e541501     ..{?..G>.sz?..T>
   16db4:	3f79c79d 3e605c13 3f791298 3e6c9a7f     ..y?.\`>..y?..l>
   16dc4:	3f7853f8 3e78cfcc 3f778bc5 3e827dc0     .Sx?..x>..w?.}.>
   16dd4:	3f76ba07 3e888e93 3f75dec6 3e8e9a22     ..v?...>..u?"..>
   16de4:	3f74fa0b 3e94a031 3f740bdd 3e9aa086     ..t?1..>..t?...>
   16df4:	3f731447 3ea09ae5 3f721352 3ea68f12     G.s?...>R.r?...>
   16e04:	3f710908 3eac7cd4 3f6ff573 3eb263ef     ..q?.|.>s.o?.c.>
   16e14:	3f6ed89e 3eb8442a 3f6db293 3ebe1d4a     ..n?*D.>..m?J..>
   16e24:	3f6c835e 3ec3ef15 3f6b4b0c 3ec9b953     ^.l?...>.Kk?S..>
   16e34:	3f6a09a7 3ecf7bca 3f68bf3c 3ed53641     ..j?.{.><.h?A6.>
   16e44:	3f676bd8 3edae880 3f660f88 3ee0924f     .kg?...>..f?O..>
   16e54:	3f64aa59 3ee63375 3f633c5a 3eebcbbb     Y.d?u3.>Z<c?...>
   16e64:	3f61c598 3ef15aea 3f604621 3ef6e0cb     ..a?.Z.>!F`?...>
   16e74:	3f5ebe05 3efc5d27 3f5d2d53 3f00e7e4     ..^?'].>S-]?...?
   16e84:	3f5b941a 3f039c3d 3f59f26a 3f064b82     ..[?=..?j.Y?.K.?
   16e94:	3f584853 3f08f59b 3f5695e5 3f0b9a6b     SHX?...?..V?k..?
   16ea4:	3f54db31 3f0e39da 3f531849 3f10d3cd     1.T?.9.?I.S?...?
   16eb4:	3f514d3d 3f13682a 3f4f7a1f 3f15f6d9     =MQ?*h.?.zO?...?
   16ec4:	3f4d9f02 3f187fc0 3f4bbbf8 3f1b02c6     ..M?...?..K?...?
   16ed4:	3f49d112 3f1d7fd1 3f47de65 3f1ff6cb     ..I?...?e.G?...?
   16ee4:	3f45e403 3f226799 3f43e200 3f24d225     ..E?.g"?..C?%.$?
   16ef4:	3f41d870 3f273656 3f3fc767 3f299415     p.A?V6'?g.??..)?
   16f04:	3f3daef9 3f2beb4a 3f3b8f3b 3f2e3bde     ..=?J.+?;.;?.;.?
   16f14:	3f396842 3f3085bb 3f373a23 3f32c8c9     Bh9?..0?#:7?..2?
   16f24:	3f3504f3 3f3504f3 3f32c8c9 3f373a23     ..5?..5?..2?#:7?
   16f34:	3f3085bb 3f396842 3f2e3bde 3f3b8f3b     ..0?Bh9?.;.?;.;?
   16f44:	3f2beb4a 3f3daef9 3f299415 3f3fc767     J.+?..=?..)?g.??
   16f54:	3f273656 3f41d870 3f24d225 3f43e200     V6'?p.A?%.$?..C?
   16f64:	3f226799 3f45e403 3f1ff6cb 3f47de65     .g"?..E?...?e.G?
   16f74:	3f1d7fd1 3f49d112 3f1b02c6 3f4bbbf8     ...?..I?...?..K?
   16f84:	3f187fc0 3f4d9f02 3f15f6d9 3f4f7a1f     ...?..M?...?.zO?
   16f94:	3f13682a 3f514d3d 3f10d3cd 3f531849     *h.?=MQ?...?I.S?
   16fa4:	3f0e39da 3f54db31 3f0b9a6b 3f5695e5     .9.?1.T?k..?..V?
   16fb4:	3f08f59b 3f584853 3f064b82 3f59f26a     ...?SHX?.K.?j.Y?
   16fc4:	3f039c3d 3f5b941a 3f00e7e4 3f5d2d53     =..?..[?...?S-]?
   16fd4:	3efc5d27 3f5ebe05 3ef6e0cb 3f604621     '].>..^?...>!F`?
   16fe4:	3ef15aea 3f61c598 3eebcbbb 3f633c5a     .Z.>..a?...>Z<c?
   16ff4:	3ee63375 3f64aa59 3ee0924f 3f660f88     u3.>Y.d?O..>..f?
   17004:	3edae880 3f676bd8 3ed53641 3f68bf3c     ...>.kg?A6.><.h?
   17014:	3ecf7bca 3f6a09a7 3ec9b953 3f6b4b0c     .{.>..j?S..>.Kk?
   17024:	3ec3ef15 3f6c835e 3ebe1d4a 3f6db293     ...>^.l?J..>..m?
   17034:	3eb8442a 3f6ed89e 3eb263ef 3f6ff573     *D.>..n?.c.>s.o?
   17044:	3eac7cd4 3f710908 3ea68f12 3f721352     .|.>..q?...>R.r?
   17054:	3ea09ae5 3f731447 3e9aa086 3f740bdd     ...>G.s?...>..t?
   17064:	3e94a031 3f74fa0b 3e8e9a22 3f75dec6     1..>..t?"..>..u?
   17074:	3e888e93 3f76ba07 3e827dc0 3f778bc5     ...>..v?.}.>..w?
   17084:	3e78cfcc 3f7853f8 3e6c9a7f 3f791298     ..x>.Sx?..l>..y?
   17094:	3e605c13 3f79c79d 3e541501 3f7a7302     .\`>..y?..T>.sz?
   170a4:	3e47c5c2 3f7b14be 3e3b6ecf 3f7baccd     ..G>..{?.n;>..{?
   170b4:	3e2f10a2 3f7c3b28 3e22abb6 3f7cbfc9     ../>(;|?..">..|?
   170c4:	3e164083 3f7d3aac 3e09cf86 3f7dabcc     .@.>.:}?...>..}?
   170d4:	3dfab273 3f7e1324 3de1bc2e 3f7e70b0     s..=$.~?...=.p~?
   170e4:	3dc8bd36 3f7ec46d 3dafb680 3f7f0e58     6..=m.~?...=X..?
   170f4:	3d96a905 3f7f4e6d 3d7b2b74 3f7f84ab     ...=mN.?t+{=...?
   17104:	3d48fb2f 3f7fb10f 3d16c32c 3f7fd398     /.H=...?,..=...?
   17114:	3cc90ab0 3f7fec43 3c490e90 3f7ffb11     ...<C..?..I<...?
   17124:	00000000 3f800000 bc490e90 3f7ffb11     .......?..I....?
   17134:	bcc90ab0 3f7fec43 bd16c32c 3f7fd398     ....C..?,......?
   17144:	bd48fb2f 3f7fb10f bd7b2b74 3f7f84ab     /.H....?t+{....?
   17154:	bd96a905 3f7f4e6d bdafb680 3f7f0e58     ....mN.?....X..?
   17164:	bdc8bd36 3f7ec46d bde1bc2e 3f7e70b0     6...m.~?.....p~?
   17174:	bdfab273 3f7e1324 be09cf86 3f7dabcc     s...$.~?......}?
   17184:	be164083 3f7d3aac be22abb6 3f7cbfc9     .@...:}?.."...|?
   17194:	be2f10a2 3f7c3b28 be3b6ecf 3f7baccd     ../.(;|?.n;...{?
   171a4:	be47c5c2 3f7b14be be541501 3f7a7302     ..G...{?..T..sz?
   171b4:	be605c13 3f79c79d be6c9a7f 3f791298     .\`...y?..l...y?
   171c4:	be78cfcc 3f7853f8 be827dc0 3f778bc5     ..x..Sx?.}....w?
   171d4:	be888e93 3f76ba07 be8e9a22 3f75dec6     ......v?".....u?
   171e4:	be94a031 3f74fa0b be9aa086 3f740bdd     1.....t?......t?
   171f4:	bea09ae5 3f731447 bea68f12 3f721352     ....G.s?....R.r?
   17204:	beac7cd4 3f710908 beb263ef 3f6ff573     .|....q?.c..s.o?
   17214:	beb8442a 3f6ed89e bebe1d4a 3f6db293     *D....n?J.....m?
   17224:	bec3ef15 3f6c835e bec9b953 3f6b4b0c     ....^.l?S....Kk?
   17234:	becf7bca 3f6a09a7 bed53641 3f68bf3c     .{....j?A6..<.h?
   17244:	bedae880 3f676bd8 bee0924f 3f660f88     .....kg?O.....f?
   17254:	bee63375 3f64aa59 beebcbbb 3f633c5a     u3..Y.d?....Z<c?
   17264:	bef15aea 3f61c598 bef6e0cb 3f604621     .Z....a?....!F`?
   17274:	befc5d27 3f5ebe05 bf00e7e4 3f5d2d53     ']....^?....S-]?
   17284:	bf039c3d 3f5b941a bf064b82 3f59f26a     =.....[?.K..j.Y?
   17294:	bf08f59b 3f584853 bf0b9a6b 3f5695e5     ....SHX?k.....V?
   172a4:	bf0e39da 3f54db31 bf10d3cd 3f531849     .9..1.T?....I.S?
   172b4:	bf13682a 3f514d3d bf15f6d9 3f4f7a1f     *h..=MQ?.....zO?
   172c4:	bf187fc0 3f4d9f02 bf1b02c6 3f4bbbf8     ......M?......K?
   172d4:	bf1d7fd1 3f49d112 bf1ff6cb 3f47de65     ......I?....e.G?
   172e4:	bf226799 3f45e403 bf24d225 3f43e200     .g"...E?%.$...C?
   172f4:	bf273656 3f41d870 bf299415 3f3fc767     V6'.p.A?..).g.??
   17304:	bf2beb4a 3f3daef9 bf2e3bde 3f3b8f3b     J.+...=?.;..;.;?
   17314:	bf3085bb 3f396842 bf32c8c9 3f373a23     ..0.Bh9?..2.#:7?
   17324:	bf3504f3 3f3504f3 bf373a23 3f32c8c9     ..5...5?#:7...2?
   17334:	bf396842 3f3085bb bf3b8f3b 3f2e3bde     Bh9...0?;.;..;.?
   17344:	bf3daef9 3f2beb4a bf3fc767 3f299415     ..=.J.+?g.?...)?
   17354:	bf41d870 3f273656 bf43e200 3f24d225     p.A.V6'?..C.%.$?
   17364:	bf45e403 3f226799 bf47de65 3f1ff6cb     ..E..g"?e.G....?
   17374:	bf49d112 3f1d7fd1 bf4bbbf8 3f1b02c6     ..I....?..K....?
   17384:	bf4d9f02 3f187fc0 bf4f7a1f 3f15f6d9     ..M....?.zO....?
   17394:	bf514d3d 3f13682a bf531849 3f10d3cd     =MQ.*h.?I.S....?
   173a4:	bf54db31 3f0e39da bf5695e5 3f0b9a6b     1.T..9.?..V.k..?
   173b4:	bf584853 3f08f59b bf59f26a 3f064b82     SHX....?j.Y..K.?
   173c4:	bf5b941a 3f039c3d bf5d2d53 3f00e7e4     ..[.=..?S-]....?
   173d4:	bf5ebe05 3efc5d27 bf604621 3ef6e0cb     ..^.'].>!F`....>
   173e4:	bf61c598 3ef15aea bf633c5a 3eebcbbb     ..a..Z.>Z<c....>
   173f4:	bf64aa59 3ee63375 bf660f88 3ee0924f     Y.d.u3.>..f.O..>
   17404:	bf676bd8 3edae880 bf68bf3c 3ed53641     .kg....><.h.A6.>
   17414:	bf6a09a7 3ecf7bca bf6b4b0c 3ec9b953     ..j..{.>.Kk.S..>
   17424:	bf6c835e 3ec3ef15 bf6db293 3ebe1d4a     ^.l....>..m.J..>
   17434:	bf6ed89e 3eb8442a bf6ff573 3eb263ef     ..n.*D.>s.o..c.>
   17444:	bf710908 3eac7cd4 bf721352 3ea68f12     ..q..|.>R.r....>
   17454:	bf731447 3ea09ae5 bf740bdd 3e9aa086     G.s....>..t....>
   17464:	bf74fa0b 3e94a031 bf75dec6 3e8e9a22     ..t.1..>..u."..>
   17474:	bf76ba07 3e888e93 bf778bc5 3e827dc0     ..v....>..w..}.>
   17484:	bf7853f8 3e78cfcc bf791298 3e6c9a7f     .Sx...x>..y...l>
   17494:	bf79c79d 3e605c13 bf7a7302 3e541501     ..y..\`>.sz...T>
   174a4:	bf7b14be 3e47c5c2 bf7baccd 3e3b6ecf     ..{...G>..{..n;>
   174b4:	bf7c3b28 3e2f10a2 bf7cbfc9 3e22abb6     (;|.../>..|...">
   174c4:	bf7d3aac 3e164083 bf7dabcc 3e09cf86     .:}..@.>..}....>
   174d4:	bf7e1324 3dfab273 bf7e70b0 3de1bc2e     $.~.s..=.p~....=
   174e4:	bf7ec46d 3dc8bd36 bf7f0e58 3dafb680     m.~.6..=X......=
   174f4:	bf7f4e6d 3d96a905 bf7f84ab 3d7b2b74     mN.....=....t+{=
   17504:	bf7fb10f 3d48fb2f bf7fd398 3d16c32c     ..../.H=....,..=
   17514:	bf7fec43 3cc90ab0 bf7ffb11 3c490e90     C......<......I<
   17524:	bf800000 00000000 bf7ffb11 bc490e90     ..............I.
   17534:	bf7fec43 bcc90ab0 bf7fd398 bd16c32c     C...........,...
   17544:	bf7fb10f bd48fb2f bf7f84ab bd7b2b74     ..../.H.....t+{.
   17554:	bf7f4e6d bd96a905 bf7f0e58 bdafb680     mN......X.......
   17564:	bf7ec46d bdc8bd36 bf7e70b0 bde1bc2e     m.~.6....p~.....
   17574:	bf7e1324 bdfab273 bf7dabcc be09cf86     $.~.s.....}.....
   17584:	bf7d3aac be164083 bf7cbfc9 be22abb6     .:}..@....|...".
   17594:	bf7c3b28 be2f10a2 bf7baccd be3b6ecf     (;|.../...{..n;.
   175a4:	bf7b14be be47c5c2 bf7a7302 be541501     ..{...G..sz...T.
   175b4:	bf79c79d be605c13 bf791298 be6c9a7f     ..y..\`...y...l.
   175c4:	bf7853f8 be78cfcc bf778bc5 be827dc0     .Sx...x...w..}..
   175d4:	bf76ba07 be888e93 bf75dec6 be8e9a22     ..v.......u."...
   175e4:	bf74fa0b be94a031 bf740bdd be9aa086     ..t.1.....t.....
   175f4:	bf731447 bea09ae5 bf721352 bea68f12     G.s.....R.r.....
   17604:	bf710908 beac7cd4 bf6ff573 beb263ef     ..q..|..s.o..c..
   17614:	bf6ed89e beb8442a bf6db293 bebe1d4a     ..n.*D....m.J...
   17624:	bf6c835e bec3ef15 bf6b4b0c bec9b953     ^.l......Kk.S...
   17634:	bf6a09a7 becf7bca bf68bf3c bed53641     ..j..{..<.h.A6..
   17644:	bf676bd8 bedae880 bf660f88 bee0924f     .kg.......f.O...
   17654:	bf64aa59 bee63375 bf633c5a beebcbbb     Y.d.u3..Z<c.....
   17664:	bf61c598 bef15aea bf604621 bef6e0cb     ..a..Z..!F`.....
   17674:	bf5ebe05 befc5d27 bf5d2d53 bf00e7e4     ..^.']..S-].....
   17684:	bf5b941a bf039c3d bf59f26a bf064b82     ..[.=...j.Y..K..
   17694:	bf584853 bf08f59b bf5695e5 bf0b9a6b     SHX.......V.k...
   176a4:	bf54db31 bf0e39da bf531849 bf10d3cd     1.T..9..I.S.....
   176b4:	bf514d3d bf13682a bf4f7a1f bf15f6d9     =MQ.*h...zO.....
   176c4:	bf4d9f02 bf187fc0 bf4bbbf8 bf1b02c6     ..M.......K.....
   176d4:	bf49d112 bf1d7fd1 bf47de65 bf1ff6cb     ..I.....e.G.....
   176e4:	bf45e403 bf226799 bf43e200 bf24d225     ..E..g"...C.%.$.
   176f4:	bf41d870 bf273656 bf3fc767 bf299415     p.A.V6'.g.?...).
   17704:	bf3daef9 bf2beb4a bf3b8f3b bf2e3bde     ..=.J.+.;.;..;..
   17714:	bf396842 bf3085bb bf373a23 bf32c8c9     Bh9...0.#:7...2.
   17724:	bf3504f3 bf3504f3 bf32c8c9 bf373a23     ..5...5...2.#:7.
   17734:	bf3085bb bf396842 bf2e3bde bf3b8f3b     ..0.Bh9..;..;.;.
   17744:	bf2beb4a bf3daef9 bf299415 bf3fc767     J.+...=...).g.?.
   17754:	bf273656 bf41d870 bf24d225 bf43e200     V6'.p.A.%.$...C.
   17764:	bf226799 bf45e403 bf1ff6cb bf47de65     .g"...E.....e.G.
   17774:	bf1d7fd1 bf49d112 bf1b02c6 bf4bbbf8     ......I.......K.
   17784:	bf187fc0 bf4d9f02 bf15f6d9 bf4f7a1f     ......M......zO.
   17794:	bf13682a bf514d3d bf10d3cd bf531849     *h..=MQ.....I.S.
   177a4:	bf0e39da bf54db31 bf0b9a6b bf5695e5     .9..1.T.k.....V.
   177b4:	bf08f59b bf584853 bf064b82 bf59f26a     ....SHX..K..j.Y.
   177c4:	bf039c3d bf5b941a bf00e7e4 bf5d2d53     =.....[.....S-].
   177d4:	befc5d27 bf5ebe05 bef6e0cb bf604621     ']....^.....!F`.
   177e4:	bef15aea bf61c598 beebcbbb bf633c5a     .Z....a.....Z<c.
   177f4:	bee63375 bf64aa59 bee0924f bf660f88     u3..Y.d.O.....f.
   17804:	bedae880 bf676bd8 bed53641 bf68bf3c     .....kg.A6..<.h.
   17814:	becf7bca bf6a09a7 bec9b953 bf6b4b0c     .{....j.S....Kk.
   17824:	bec3ef15 bf6c835e bebe1d4a bf6db293     ....^.l.J.....m.
   17834:	beb8442a bf6ed89e beb263ef bf6ff573     *D....n..c..s.o.
   17844:	beac7cd4 bf710908 bea68f12 bf721352     .|....q.....R.r.
   17854:	bea09ae5 bf731447 be9aa086 bf740bdd     ....G.s.......t.
   17864:	be94a031 bf74fa0b be8e9a22 bf75dec6     1.....t.".....u.
   17874:	be888e93 bf76ba07 be827dc0 bf778bc5     ......v..}....w.
   17884:	be78cfcc bf7853f8 be6c9a7f bf791298     ..x..Sx...l...y.
   17894:	be605c13 bf79c79d be541501 bf7a7302     .\`...y...T..sz.
   178a4:	be47c5c2 bf7b14be be3b6ecf bf7baccd     ..G...{..n;...{.
   178b4:	be2f10a2 bf7c3b28 be22abb6 bf7cbfc9     ../.(;|..."...|.
   178c4:	be164083 bf7d3aac be09cf86 bf7dabcc     .@...:}.......}.
   178d4:	bdfab273 bf7e1324 bde1bc2e bf7e70b0     s...$.~......p~.
   178e4:	bdc8bd36 bf7ec46d bdafb680 bf7f0e58     6...m.~.....X...
   178f4:	bd96a905 bf7f4e6d bd7b2b74 bf7f84ab     ....mN..t+{.....
   17904:	bd48fb2f bf7fb10f bd16c32c bf7fd398     /.H.....,.......
   17914:	bcc90ab0 bf7fec43 bc490e90 bf7ffb11     ....C.....I.....
   17924:	80000000 bf800000 3c490e90 bf7ffb11     ..........I<....
   17934:	3cc90ab0 bf7fec43 3d16c32c bf7fd398     ...<C...,..=....
   17944:	3d48fb2f bf7fb10f 3d7b2b74 bf7f84ab     /.H=....t+{=....
   17954:	3d96a905 bf7f4e6d 3dafb680 bf7f0e58     ...=mN.....=X...
   17964:	3dc8bd36 bf7ec46d 3de1bc2e bf7e70b0     6..=m.~....=.p~.
   17974:	3dfab273 bf7e1324 3e09cf86 bf7dabcc     s..=$.~....>..}.
   17984:	3e164083 bf7d3aac 3e22abb6 bf7cbfc9     .@.>.:}...">..|.
   17994:	3e2f10a2 bf7c3b28 3e3b6ecf bf7baccd     ../>(;|..n;>..{.
   179a4:	3e47c5c2 bf7b14be 3e541501 bf7a7302     ..G>..{...T>.sz.
   179b4:	3e605c13 bf79c79d 3e6c9a7f bf791298     .\`>..y...l>..y.
   179c4:	3e78cfcc bf7853f8 3e827dc0 bf778bc5     ..x>.Sx..}.>..w.
   179d4:	3e888e93 bf76ba07 3e8e9a22 bf75dec6     ...>..v."..>..u.
   179e4:	3e94a031 bf74fa0b 3e9aa086 bf740bdd     1..>..t....>..t.
   179f4:	3ea09ae5 bf731447 3ea68f12 bf721352     ...>G.s....>R.r.
   17a04:	3eac7cd4 bf710908 3eb263ef bf6ff573     .|.>..q..c.>s.o.
   17a14:	3eb8442a bf6ed89e 3ebe1d4a bf6db293     *D.>..n.J..>..m.
   17a24:	3ec3ef15 bf6c835e 3ec9b953 bf6b4b0c     ...>^.l.S..>.Kk.
   17a34:	3ecf7bca bf6a09a7 3ed53641 bf68bf3c     .{.>..j.A6.><.h.
   17a44:	3edae880 bf676bd8 3ee0924f bf660f88     ...>.kg.O..>..f.
   17a54:	3ee63375 bf64aa59 3eebcbbb bf633c5a     u3.>Y.d....>Z<c.
   17a64:	3ef15aea bf61c598 3ef6e0cb bf604621     .Z.>..a....>!F`.
   17a74:	3efc5d27 bf5ebe05 3f00e7e4 bf5d2d53     '].>..^....?S-].
   17a84:	3f039c3d bf5b941a 3f064b82 bf59f26a     =..?..[..K.?j.Y.
   17a94:	3f08f59b bf584853 3f0b9a6b bf5695e5     ...?SHX.k..?..V.
   17aa4:	3f0e39da bf54db31 3f10d3cd bf531849     .9.?1.T....?I.S.
   17ab4:	3f13682a bf514d3d 3f15f6d9 bf4f7a1f     *h.?=MQ....?.zO.
   17ac4:	3f187fc0 bf4d9f02 3f1b02c6 bf4bbbf8     ...?..M....?..K.
   17ad4:	3f1d7fd1 bf49d112 3f1ff6cb bf47de65     ...?..I....?e.G.
   17ae4:	3f226799 bf45e403 3f24d225 bf43e200     .g"?..E.%.$?..C.
   17af4:	3f273656 bf41d870 3f299415 bf3fc767     V6'?p.A...)?g.?.
   17b04:	3f2beb4a bf3daef9 3f2e3bde bf3b8f3b     J.+?..=..;.?;.;.
   17b14:	3f3085bb bf396842 3f32c8c9 bf373a23     ..0?Bh9...2?#:7.
   17b24:	3f3504f3 bf3504f3 3f373a23 bf32c8c9     ..5?..5.#:7?..2.
   17b34:	3f396842 bf3085bb 3f3b8f3b bf2e3bde     Bh9?..0.;.;?.;..
   17b44:	3f3daef9 bf2beb4a 3f3fc767 bf299415     ..=?J.+.g.??..).
   17b54:	3f41d870 bf273656 3f43e200 bf24d225     p.A?V6'...C?%.$.
   17b64:	3f45e403 bf226799 3f47de65 bf1ff6cb     ..E?.g".e.G?....
   17b74:	3f49d112 bf1d7fd1 3f4bbbf8 bf1b02c6     ..I?......K?....
   17b84:	3f4d9f02 bf187fc0 3f4f7a1f bf15f6d9     ..M?.....zO?....
   17b94:	3f514d3d bf13682a 3f531849 bf10d3cd     =MQ?*h..I.S?....
   17ba4:	3f54db31 bf0e39da 3f5695e5 bf0b9a6b     1.T?.9....V?k...
   17bb4:	3f584853 bf08f59b 3f59f26a bf064b82     SHX?....j.Y?.K..
   17bc4:	3f5b941a bf039c3d 3f5d2d53 bf00e7e4     ..[?=...S-]?....
   17bd4:	3f5ebe05 befc5d27 3f604621 bef6e0cb     ..^?']..!F`?....
   17be4:	3f61c598 bef15aea 3f633c5a beebcbbb     ..a?.Z..Z<c?....
   17bf4:	3f64aa59 bee63375 3f660f88 bee0924f     Y.d?u3....f?O...
   17c04:	3f676bd8 bedae880 3f68bf3c bed53641     .kg?....<.h?A6..
   17c14:	3f6a09a7 becf7bca 3f6b4b0c bec9b953     ..j?.{...Kk?S...
   17c24:	3f6c835e bec3ef15 3f6db293 bebe1d4a     ^.l?......m?J...
   17c34:	3f6ed89e beb8442a 3f6ff573 beb263ef     ..n?*D..s.o?.c..
   17c44:	3f710908 beac7cd4 3f721352 bea68f12     ..q?.|..R.r?....
   17c54:	3f731447 bea09ae5 3f740bdd be9aa086     G.s?......t?....
   17c64:	3f74fa0b be94a031 3f75dec6 be8e9a22     ..t?1.....u?"...
   17c74:	3f76ba07 be888e93 3f778bc5 be827dc0     ..v?......w?.}..
   17c84:	3f7853f8 be78cfcc 3f791298 be6c9a7f     .Sx?..x...y?..l.
   17c94:	3f79c79d be605c13 3f7a7302 be541501     ..y?.\`..sz?..T.
   17ca4:	3f7b14be be47c5c2 3f7baccd be3b6ecf     ..{?..G...{?.n;.
   17cb4:	3f7c3b28 be2f10a2 3f7cbfc9 be22abb6     (;|?../...|?..".
   17cc4:	3f7d3aac be164083 3f7dabcc be09cf86     .:}?.@....}?....
   17cd4:	3f7e1324 bdfab273 3f7e70b0 bde1bc2e     $.~?s....p~?....
   17ce4:	3f7ec46d bdc8bd36 3f7f0e58 bdafb680     m.~?6...X..?....
   17cf4:	3f7f4e6d bd96a905 3f7f84ab bd7b2b74     mN.?.......?t+{.
   17d04:	3f7fb10f bd48fb2f 3f7fd398 bd16c32c     ...?/.H....?,...
   17d14:	3f7fec43 bcc90ab0 3f7ffb11 bc490e90     C..?.......?..I.

00017d24 <twiddleCoef_64>:
   17d24:	3f800000 00000000 3f7ec46d 3dc8bd36     ...?....m.~?6..=
   17d34:	3f7b14be 3e47c5c2 3f74fa0b 3e94a031     ..{?..G>..t?1..>
   17d44:	3f6c835e 3ec3ef15 3f61c598 3ef15aea     ^.l?...>..a?.Z.>
   17d54:	3f54db31 3f0e39da 3f45e403 3f226799     1.T?.9.?..E?.g"?
   17d64:	3f3504f3 3f3504f3 3f226799 3f45e403     ..5?..5?.g"?..E?
   17d74:	3f0e39da 3f54db31 3ef15aea 3f61c598     .9.?1.T?.Z.>..a?
   17d84:	3ec3ef15 3f6c835e 3e94a031 3f74fa0b     ...>^.l?1..>..t?
   17d94:	3e47c5c2 3f7b14be 3dc8bd36 3f7ec46d     ..G>..{?6..=m.~?
   17da4:	00000000 3f800000 bdc8bd36 3f7ec46d     .......?6...m.~?
   17db4:	be47c5c2 3f7b14be be94a031 3f74fa0b     ..G...{?1.....t?
   17dc4:	bec3ef15 3f6c835e bef15aea 3f61c598     ....^.l?.Z....a?
   17dd4:	bf0e39da 3f54db31 bf226799 3f45e403     .9..1.T?.g"...E?
   17de4:	bf3504f3 3f3504f3 bf45e403 3f226799     ..5...5?..E..g"?
   17df4:	bf54db31 3f0e39da bf61c598 3ef15aea     1.T..9.?..a..Z.>
   17e04:	bf6c835e 3ec3ef15 bf74fa0b 3e94a031     ^.l....>..t.1..>
   17e14:	bf7b14be 3e47c5c2 bf7ec46d 3dc8bd36     ..{...G>m.~.6..=
   17e24:	bf800000 00000000 bf7ec46d bdc8bd36     ........m.~.6...
   17e34:	bf7b14be be47c5c2 bf74fa0b be94a031     ..{...G...t.1...
   17e44:	bf6c835e bec3ef15 bf61c598 bef15aea     ^.l.......a..Z..
   17e54:	bf54db31 bf0e39da bf45e403 bf226799     1.T..9....E..g".
   17e64:	bf3504f3 bf3504f3 bf226799 bf45e403     ..5...5..g"...E.
   17e74:	bf0e39da bf54db31 bef15aea bf61c598     .9..1.T..Z....a.
   17e84:	bec3ef15 bf6c835e be94a031 bf74fa0b     ....^.l.1.....t.
   17e94:	be47c5c2 bf7b14be bdc8bd36 bf7ec46d     ..G...{.6...m.~.
   17ea4:	80000000 bf800000 3dc8bd36 bf7ec46d     ........6..=m.~.
   17eb4:	3e47c5c2 bf7b14be 3e94a031 bf74fa0b     ..G>..{.1..>..t.
   17ec4:	3ec3ef15 bf6c835e 3ef15aea bf61c598     ...>^.l..Z.>..a.
   17ed4:	3f0e39da bf54db31 3f226799 bf45e403     .9.?1.T..g"?..E.
   17ee4:	3f3504f3 bf3504f3 3f45e403 bf226799     ..5?..5...E?.g".
   17ef4:	3f54db31 bf0e39da 3f61c598 bef15aea     1.T?.9....a?.Z..
   17f04:	3f6c835e bec3ef15 3f74fa0b be94a031     ^.l?......t?1...
   17f14:	3f7b14be be47c5c2 3f7ec46d bdc8bd36     ..{?..G.m.~?6...

00017f24 <twiddleCoef_rfft_1024>:
   17f24:	00000000 3f800000 3bc90f89 3f7ffec4     .......?...;...?
   17f34:	3c490e90 3f7ffb11 3c96c9b6 3f7ff4e6     ..I<...?...<...?
   17f44:	3cc90ab0 3f7fec43 3cfb49b9 3f7fe129     ...<C..?.I.<)..?
   17f54:	3d16c32c 3f7fd398 3d2fe007 3f7fc38f     ,..=...?../=...?
   17f64:	3d48fb2f 3f7fb10f 3d621468 3f7f9c18     /.H=...?h.b=...?
   17f74:	3d7b2b74 3f7f84ab 3d8a200a 3f7f6ac7     t+{=...?. .=.j.?
   17f84:	3d96a905 3f7f4e6d 3da3308c 3f7f2f9d     ...=mN.?.0.=./.?
   17f94:	3dafb680 3f7f0e58 3dbc3ac3 3f7eea9d     ...=X..?.:.=..~?
   17fa4:	3dc8bd36 3f7ec46d 3dd53db9 3f7e9bc9     6..=m.~?.=.=..~?
   17fb4:	3de1bc2e 3f7e70b0 3dee3876 3f7e4323     ...=.p~?v8.=#C~?
   17fc4:	3dfab273 3f7e1324 3e039502 3f7de0b1     s..=$.~?...>..}?
   17fd4:	3e09cf86 3f7dabcc 3e1008b7 3f7d7474     ...>..}?...>tt}?
   17fe4:	3e164083 3f7d3aac 3e1c76de 3f7cfe73     .@.>.:}?.v.>s.|?
   17ff4:	3e22abb6 3f7cbfc9 3e28defc 3f7c7eb0     ..">..|?..(>.~|?
   18004:	3e2f10a2 3f7c3b28 3e354098 3f7bf531     ../>(;|?.@5>1.{?
   18014:	3e3b6ecf 3f7baccd 3e419b37 3f7b61fc     .n;>..{?7.A>.a{?
   18024:	3e47c5c2 3f7b14be 3e4dee60 3f7ac516     ..G>..{?`.M>..z?
   18034:	3e541501 3f7a7302 3e5a3997 3f7a1e84     ..T>.sz?.9Z>..z?
   18044:	3e605c13 3f79c79d 3e667c66 3f796e4e     .\`>..y?f|f>Nny?
   18054:	3e6c9a7f 3f791298 3e72b651 3f78b47b     ..l>..y?Q.r>{.x?
   18064:	3e78cfcc 3f7853f8 3e7ee6e1 3f77f110     ..x>.Sx?..~>..w?
   18074:	3e827dc0 3f778bc5 3e8586ce 3f772417     .}.>..w?...>.$w?
   18084:	3e888e93 3f76ba07 3e8b9507 3f764d97     ...>..v?...>.Mv?
   18094:	3e8e9a22 3f75dec6 3e919ddd 3f756d97     "..>..u?...>.mu?
   180a4:	3e94a031 3f74fa0b 3e97a117 3f748422     1..>..t?...>".t?
   180b4:	3e9aa086 3f740bdd 3e9d9e78 3f73913f     ...>..t?x..>?.s?
   180c4:	3ea09ae5 3f731447 3ea395c5 3f7294f8     ...>G.s?...>..r?
   180d4:	3ea68f12 3f721352 3ea986c4 3f718f57     ...>R.r?...>W.q?
   180e4:	3eac7cd4 3f710908 3eaf713a 3f708066     .|.>..q?:q.>f.p?
   180f4:	3eb263ef 3f6ff573 3eb554ec 3f6f6830     .c.>s.o?.T.>0ho?
   18104:	3eb8442a 3f6ed89e 3ebb31a0 3f6e46be     *D.>..n?.1.>.Fn?
   18114:	3ebe1d4a 3f6db293 3ec1071e 3f6d1c1d     J..>..m?...>..m?
   18124:	3ec3ef15 3f6c835e 3ec6d529 3f6be858     ...>^.l?)..>X.k?
   18134:	3ec9b953 3f6b4b0c 3ecc9b8b 3f6aab7b     S..>.Kk?...>{.j?
   18144:	3ecf7bca 3f6a09a7 3ed25a09 3f696591     .{.>..j?.Z.>.ei?
   18154:	3ed53641 3f68bf3c 3ed8106b 3f6816a8     A6.><.h?k..>..h?
   18164:	3edae880 3f676bd8 3eddbe79 3f66becc     ...>.kg?y..>..f?
   18174:	3ee0924f 3f660f88 3ee363fa 3f655e0b     O..>..f?.c.>.^e?
   18184:	3ee63375 3f64aa59 3ee900b7 3f63f473     u3.>Y.d?...>s.c?
   18194:	3eebcbbb 3f633c5a 3eee9479 3f628210     ...>Z<c?y..>..b?
   181a4:	3ef15aea 3f61c598 3ef41f07 3f6106f2     .Z.>..a?...>..a?
   181b4:	3ef6e0cb 3f604621 3ef9a02d 3f5f8327     ...>!F`?-..>'._?
   181c4:	3efc5d27 3f5ebe05 3eff17b2 3f5df6be     '].>..^?...>..]?
   181d4:	3f00e7e4 3f5d2d53 3f0242b1 3f5c61c7     ...?S-]?.B.?.a\?
   181e4:	3f039c3d 3f5b941a 3f04f484 3f5ac450     =..?..[?...?P.Z?
   181f4:	3f064b82 3f59f26a 3f07a136 3f591e6a     .K.?j.Y?6..?j.Y?
   18204:	3f08f59b 3f584853 3f0a48ad 3f577026     ...?SHX?.H.?&pW?
   18214:	3f0b9a6b 3f5695e5 3f0cead0 3f55b993     k..?..V?...?..U?
   18224:	3f0e39da 3f54db31 3f0f8784 3f53fac3     .9.?1.T?...?..S?
   18234:	3f10d3cd 3f531849 3f121eb0 3f5233c6     ...?I.S?...?.3R?
   18244:	3f13682a 3f514d3d 3f14b039 3f5064af     *h.?=MQ?9..?.dP?
   18254:	3f15f6d9 3f4f7a1f 3f173c07 3f4e8d90     ...?.zO?.<.?..N?
   18264:	3f187fc0 3f4d9f02 3f19c200 3f4cae79     ...?..M?...?y.L?
   18274:	3f1b02c6 3f4bbbf8 3f1c420c 3f4ac77f     ...?..K?.B.?..J?
   18284:	3f1d7fd1 3f49d112 3f1ebc12 3f48d8b3     ...?..I?...?..H?
   18294:	3f1ff6cb 3f47de65 3f212ff9 3f46e22a     ...?e.G?./!?*.F?
   182a4:	3f226799 3f45e403 3f239da9 3f44e3f5     .g"?..E?..#?..D?
   182b4:	3f24d225 3f43e200 3f26050a 3f42de29     %.$?..C?..&?).B?
   182c4:	3f273656 3f41d870 3f286605 3f40d0da     V6'?p.A?.f(?..@?
   182d4:	3f299415 3f3fc767 3f2ac082 3f3ebc1b     ..)?g.??..*?..>?
   182e4:	3f2beb4a 3f3daef9 3f2d1469 3f3ca003     J.+?..=?i.-?..<?
   182f4:	3f2e3bde 3f3b8f3b 3f2f61a5 3f3a7ca4     .;.?;.;?.a/?.|:?
   18304:	3f3085bb 3f396842 3f31a81d 3f385216     ..0?Bh9?..1?.R8?
   18314:	3f32c8c9 3f373a23 3f33e7bc 3f36206c     ..2?#:7?..3?l 6?
   18324:	3f3504f3 3f3504f3 3f36206c 3f33e7bc     ..5?..5?l 6?..3?
   18334:	3f373a23 3f32c8c9 3f385216 3f31a81d     #:7?..2?.R8?..1?
   18344:	3f396842 3f3085bb 3f3a7ca4 3f2f61a5     Bh9?..0?.|:?.a/?
   18354:	3f3b8f3b 3f2e3bde 3f3ca003 3f2d1469     ;.;?.;.?..<?i.-?
   18364:	3f3daef9 3f2beb4a 3f3ebc1b 3f2ac082     ..=?J.+?..>?..*?
   18374:	3f3fc767 3f299415 3f40d0da 3f286605     g.??..)?..@?.f(?
   18384:	3f41d870 3f273656 3f42de29 3f26050a     p.A?V6'?).B?..&?
   18394:	3f43e200 3f24d225 3f44e3f5 3f239da9     ..C?%.$?..D?..#?
   183a4:	3f45e403 3f226799 3f46e22a 3f212ff9     ..E?.g"?*.F?./!?
   183b4:	3f47de65 3f1ff6cb 3f48d8b3 3f1ebc12     e.G?...?..H?...?
   183c4:	3f49d112 3f1d7fd1 3f4ac77f 3f1c420c     ..I?...?..J?.B.?
   183d4:	3f4bbbf8 3f1b02c6 3f4cae79 3f19c200     ..K?...?y.L?...?
   183e4:	3f4d9f02 3f187fc0 3f4e8d90 3f173c07     ..M?...?..N?.<.?
   183f4:	3f4f7a1f 3f15f6d9 3f5064af 3f14b039     .zO?...?.dP?9..?
   18404:	3f514d3d 3f13682a 3f5233c6 3f121eb0     =MQ?*h.?.3R?...?
   18414:	3f531849 3f10d3cd 3f53fac3 3f0f8784     I.S?...?..S?...?
   18424:	3f54db31 3f0e39da 3f55b993 3f0cead0     1.T?.9.?..U?...?
   18434:	3f5695e5 3f0b9a6b 3f577026 3f0a48ad     ..V?k..?&pW?.H.?
   18444:	3f584853 3f08f59b 3f591e6a 3f07a136     SHX?...?j.Y?6..?
   18454:	3f59f26a 3f064b82 3f5ac450 3f04f484     j.Y?.K.?P.Z?...?
   18464:	3f5b941a 3f039c3d 3f5c61c7 3f0242b1     ..[?=..?.a\?.B.?
   18474:	3f5d2d53 3f00e7e4 3f5df6be 3eff17b2     S-]?...?..]?...>
   18484:	3f5ebe05 3efc5d27 3f5f8327 3ef9a02d     ..^?'].>'._?-..>
   18494:	3f604621 3ef6e0cb 3f6106f2 3ef41f07     !F`?...>..a?...>
   184a4:	3f61c598 3ef15aea 3f628210 3eee9479     ..a?.Z.>..b?y..>
   184b4:	3f633c5a 3eebcbbb 3f63f473 3ee900b7     Z<c?...>s.c?...>
   184c4:	3f64aa59 3ee63375 3f655e0b 3ee363fa     Y.d?u3.>.^e?.c.>
   184d4:	3f660f88 3ee0924f 3f66becc 3eddbe79     ..f?O..>..f?y..>
   184e4:	3f676bd8 3edae880 3f6816a8 3ed8106b     .kg?...>..h?k..>
   184f4:	3f68bf3c 3ed53641 3f696591 3ed25a09     <.h?A6.>.ei?.Z.>
   18504:	3f6a09a7 3ecf7bca 3f6aab7b 3ecc9b8b     ..j?.{.>{.j?...>
   18514:	3f6b4b0c 3ec9b953 3f6be858 3ec6d529     .Kk?S..>X.k?)..>
   18524:	3f6c835e 3ec3ef15 3f6d1c1d 3ec1071e     ^.l?...>..m?...>
   18534:	3f6db293 3ebe1d4a 3f6e46be 3ebb31a0     ..m?J..>.Fn?.1.>
   18544:	3f6ed89e 3eb8442a 3f6f6830 3eb554ec     ..n?*D.>0ho?.T.>
   18554:	3f6ff573 3eb263ef 3f708066 3eaf713a     s.o?.c.>f.p?:q.>
   18564:	3f710908 3eac7cd4 3f718f57 3ea986c4     ..q?.|.>W.q?...>
   18574:	3f721352 3ea68f12 3f7294f8 3ea395c5     R.r?...>..r?...>
   18584:	3f731447 3ea09ae5 3f73913f 3e9d9e78     G.s?...>?.s?x..>
   18594:	3f740bdd 3e9aa086 3f748422 3e97a117     ..t?...>".t?...>
   185a4:	3f74fa0b 3e94a031 3f756d97 3e919ddd     ..t?1..>.mu?...>
   185b4:	3f75dec6 3e8e9a22 3f764d97 3e8b9507     ..u?"..>.Mv?...>
   185c4:	3f76ba07 3e888e93 3f772417 3e8586ce     ..v?...>.$w?...>
   185d4:	3f778bc5 3e827dc0 3f77f110 3e7ee6e1     ..w?.}.>..w?..~>
   185e4:	3f7853f8 3e78cfcc 3f78b47b 3e72b651     .Sx?..x>{.x?Q.r>
   185f4:	3f791298 3e6c9a7f 3f796e4e 3e667c66     ..y?..l>Nny?f|f>
   18604:	3f79c79d 3e605c13 3f7a1e84 3e5a3997     ..y?.\`>..z?.9Z>
   18614:	3f7a7302 3e541501 3f7ac516 3e4dee60     .sz?..T>..z?`.M>
   18624:	3f7b14be 3e47c5c2 3f7b61fc 3e419b37     ..{?..G>.a{?7.A>
   18634:	3f7baccd 3e3b6ecf 3f7bf531 3e354098     ..{?.n;>1.{?.@5>
   18644:	3f7c3b28 3e2f10a2 3f7c7eb0 3e28defc     (;|?../>.~|?..(>
   18654:	3f7cbfc9 3e22abb6 3f7cfe73 3e1c76de     ..|?..">s.|?.v.>
   18664:	3f7d3aac 3e164083 3f7d7474 3e1008b7     .:}?.@.>tt}?...>
   18674:	3f7dabcc 3e09cf86 3f7de0b1 3e039502     ..}?...>..}?...>
   18684:	3f7e1324 3dfab273 3f7e4323 3dee3876     $.~?s..=#C~?v8.=
   18694:	3f7e70b0 3de1bc2e 3f7e9bc9 3dd53db9     .p~?...=..~?.=.=
   186a4:	3f7ec46d 3dc8bd36 3f7eea9d 3dbc3ac3     m.~?6..=..~?.:.=
   186b4:	3f7f0e58 3dafb680 3f7f2f9d 3da3308c     X..?...=./.?.0.=
   186c4:	3f7f4e6d 3d96a905 3f7f6ac7 3d8a200a     mN.?...=.j.?. .=
   186d4:	3f7f84ab 3d7b2b74 3f7f9c18 3d621468     ...?t+{=...?h.b=
   186e4:	3f7fb10f 3d48fb2f 3f7fc38f 3d2fe007     ...?/.H=...?../=
   186f4:	3f7fd398 3d16c32c 3f7fe129 3cfb49b9     ...?,..=)..?.I.<
   18704:	3f7fec43 3cc90ab0 3f7ff4e6 3c96c9b6     C..?...<...?...<
   18714:	3f7ffb11 3c490e90 3f7ffec4 3bc90f89     ...?..I<...?...;
   18724:	3f800000 00000000 3f7ffec4 bbc90f89     ...?.......?....
   18734:	3f7ffb11 bc490e90 3f7ff4e6 bc96c9b6     ...?..I....?....
   18744:	3f7fec43 bcc90ab0 3f7fe129 bcfb49b9     C..?....)..?.I..
   18754:	3f7fd398 bd16c32c 3f7fc38f bd2fe007     ...?,......?../.
   18764:	3f7fb10f bd48fb2f 3f7f9c18 bd621468     ...?/.H....?h.b.
   18774:	3f7f84ab bd7b2b74 3f7f6ac7 bd8a200a     ...?t+{..j.?. ..
   18784:	3f7f4e6d bd96a905 3f7f2f9d bda3308c     mN.?...../.?.0..
   18794:	3f7f0e58 bdafb680 3f7eea9d bdbc3ac3     X..?......~?.:..
   187a4:	3f7ec46d bdc8bd36 3f7e9bc9 bdd53db9     m.~?6.....~?.=..
   187b4:	3f7e70b0 bde1bc2e 3f7e4323 bdee3876     .p~?....#C~?v8..
   187c4:	3f7e1324 bdfab273 3f7de0b1 be039502     $.~?s.....}?....
   187d4:	3f7dabcc be09cf86 3f7d7474 be1008b7     ..}?....tt}?....
   187e4:	3f7d3aac be164083 3f7cfe73 be1c76de     .:}?.@..s.|?.v..
   187f4:	3f7cbfc9 be22abb6 3f7c7eb0 be28defc     ..|?.."..~|?..(.
   18804:	3f7c3b28 be2f10a2 3f7bf531 be354098     (;|?../.1.{?.@5.
   18814:	3f7baccd be3b6ecf 3f7b61fc be419b37     ..{?.n;..a{?7.A.
   18824:	3f7b14be be47c5c2 3f7ac516 be4dee60     ..{?..G...z?`.M.
   18834:	3f7a7302 be541501 3f7a1e84 be5a3997     .sz?..T...z?.9Z.
   18844:	3f79c79d be605c13 3f796e4e be667c66     ..y?.\`.Nny?f|f.
   18854:	3f791298 be6c9a7f 3f78b47b be72b651     ..y?..l.{.x?Q.r.
   18864:	3f7853f8 be78cfcc 3f77f110 be7ee6e1     .Sx?..x...w?..~.
   18874:	3f778bc5 be827dc0 3f772417 be8586ce     ..w?.}...$w?....
   18884:	3f76ba07 be888e93 3f764d97 be8b9507     ..v?.....Mv?....
   18894:	3f75dec6 be8e9a22 3f756d97 be919ddd     ..u?"....mu?....
   188a4:	3f74fa0b be94a031 3f748422 be97a117     ..t?1...".t?....
   188b4:	3f740bdd be9aa086 3f73913f be9d9e78     ..t?....?.s?x...
   188c4:	3f731447 bea09ae5 3f7294f8 bea395c5     G.s?......r?....
   188d4:	3f721352 bea68f12 3f718f57 bea986c4     R.r?....W.q?....
   188e4:	3f710908 beac7cd4 3f708066 beaf713a     ..q?.|..f.p?:q..
   188f4:	3f6ff573 beb263ef 3f6f6830 beb554ec     s.o?.c..0ho?.T..
   18904:	3f6ed89e beb8442a 3f6e46be bebb31a0     ..n?*D...Fn?.1..
   18914:	3f6db293 bebe1d4a 3f6d1c1d bec1071e     ..m?J.....m?....
   18924:	3f6c835e bec3ef15 3f6be858 bec6d529     ^.l?....X.k?)...
   18934:	3f6b4b0c bec9b953 3f6aab7b becc9b8b     .Kk?S...{.j?....
   18944:	3f6a09a7 becf7bca 3f696591 bed25a09     ..j?.{...ei?.Z..
   18954:	3f68bf3c bed53641 3f6816a8 bed8106b     <.h?A6....h?k...
   18964:	3f676bd8 bedae880 3f66becc beddbe79     .kg?......f?y...
   18974:	3f660f88 bee0924f 3f655e0b bee363fa     ..f?O....^e?.c..
   18984:	3f64aa59 bee63375 3f63f473 bee900b7     Y.d?u3..s.c?....
   18994:	3f633c5a beebcbbb 3f628210 beee9479     Z<c?......b?y...
   189a4:	3f61c598 bef15aea 3f6106f2 bef41f07     ..a?.Z....a?....
   189b4:	3f604621 bef6e0cb 3f5f8327 bef9a02d     !F`?....'._?-...
   189c4:	3f5ebe05 befc5d27 3f5df6be beff17b2     ..^?']....]?....
   189d4:	3f5d2d53 bf00e7e4 3f5c61c7 bf0242b1     S-]?.....a\?.B..
   189e4:	3f5b941a bf039c3d 3f5ac450 bf04f484     ..[?=...P.Z?....
   189f4:	3f59f26a bf064b82 3f591e6a bf07a136     j.Y?.K..j.Y?6...
   18a04:	3f584853 bf08f59b 3f577026 bf0a48ad     SHX?....&pW?.H..
   18a14:	3f5695e5 bf0b9a6b 3f55b993 bf0cead0     ..V?k.....U?....
   18a24:	3f54db31 bf0e39da 3f53fac3 bf0f8784     1.T?.9....S?....
   18a34:	3f531849 bf10d3cd 3f5233c6 bf121eb0     I.S?.....3R?....
   18a44:	3f514d3d bf13682a 3f5064af bf14b039     =MQ?*h...dP?9...
   18a54:	3f4f7a1f bf15f6d9 3f4e8d90 bf173c07     .zO?......N?.<..
   18a64:	3f4d9f02 bf187fc0 3f4cae79 bf19c200     ..M?....y.L?....
   18a74:	3f4bbbf8 bf1b02c6 3f4ac77f bf1c420c     ..K?......J?.B..
   18a84:	3f49d112 bf1d7fd1 3f48d8b3 bf1ebc12     ..I?......H?....
   18a94:	3f47de65 bf1ff6cb 3f46e22a bf212ff9     e.G?....*.F?./!.
   18aa4:	3f45e403 bf226799 3f44e3f5 bf239da9     ..E?.g"...D?..#.
   18ab4:	3f43e200 bf24d225 3f42de29 bf26050a     ..C?%.$.).B?..&.
   18ac4:	3f41d870 bf273656 3f40d0da bf286605     p.A?V6'...@?.f(.
   18ad4:	3f3fc767 bf299415 3f3ebc1b bf2ac082     g.??..)...>?..*.
   18ae4:	3f3daef9 bf2beb4a 3f3ca003 bf2d1469     ..=?J.+...<?i.-.
   18af4:	3f3b8f3b bf2e3bde 3f3a7ca4 bf2f61a5     ;.;?.;...|:?.a/.
   18b04:	3f396842 bf3085bb 3f385216 bf31a81d     Bh9?..0..R8?..1.
   18b14:	3f373a23 bf32c8c9 3f36206c bf33e7bc     #:7?..2.l 6?..3.
   18b24:	3f3504f3 bf3504f3 3f33e7bc bf36206c     ..5?..5...3?l 6.
   18b34:	3f32c8c9 bf373a23 3f31a81d bf385216     ..2?#:7...1?.R8.
   18b44:	3f3085bb bf396842 3f2f61a5 bf3a7ca4     ..0?Bh9..a/?.|:.
   18b54:	3f2e3bde bf3b8f3b 3f2d1469 bf3ca003     .;.?;.;.i.-?..<.
   18b64:	3f2beb4a bf3daef9 3f2ac082 bf3ebc1b     J.+?..=...*?..>.
   18b74:	3f299415 bf3fc767 3f286605 bf40d0da     ..)?g.?..f(?..@.
   18b84:	3f273656 bf41d870 3f26050a bf42de29     V6'?p.A...&?).B.
   18b94:	3f24d225 bf43e200 3f239da9 bf44e3f5     %.$?..C...#?..D.
   18ba4:	3f226799 bf45e403 3f212ff9 bf46e22a     .g"?..E../!?*.F.
   18bb4:	3f1ff6cb bf47de65 3f1ebc12 bf48d8b3     ...?e.G....?..H.
   18bc4:	3f1d7fd1 bf49d112 3f1c420c bf4ac77f     ...?..I..B.?..J.
   18bd4:	3f1b02c6 bf4bbbf8 3f19c200 bf4cae79     ...?..K....?y.L.
   18be4:	3f187fc0 bf4d9f02 3f173c07 bf4e8d90     ...?..M..<.?..N.
   18bf4:	3f15f6d9 bf4f7a1f 3f14b039 bf5064af     ...?.zO.9..?.dP.
   18c04:	3f13682a bf514d3d 3f121eb0 bf5233c6     *h.?=MQ....?.3R.
   18c14:	3f10d3cd bf531849 3f0f8784 bf53fac3     ...?I.S....?..S.
   18c24:	3f0e39da bf54db31 3f0cead0 bf55b993     .9.?1.T....?..U.
   18c34:	3f0b9a6b bf5695e5 3f0a48ad bf577026     k..?..V..H.?&pW.
   18c44:	3f08f59b bf584853 3f07a136 bf591e6a     ...?SHX.6..?j.Y.
   18c54:	3f064b82 bf59f26a 3f04f484 bf5ac450     .K.?j.Y....?P.Z.
   18c64:	3f039c3d bf5b941a 3f0242b1 bf5c61c7     =..?..[..B.?.a\.
   18c74:	3f00e7e4 bf5d2d53 3eff17b2 bf5df6be     ...?S-]....>..].
   18c84:	3efc5d27 bf5ebe05 3ef9a02d bf5f8327     '].>..^.-..>'._.
   18c94:	3ef6e0cb bf604621 3ef41f07 bf6106f2     ...>!F`....>..a.
   18ca4:	3ef15aea bf61c598 3eee9479 bf628210     .Z.>..a.y..>..b.
   18cb4:	3eebcbbb bf633c5a 3ee900b7 bf63f473     ...>Z<c....>s.c.
   18cc4:	3ee63375 bf64aa59 3ee363fa bf655e0b     u3.>Y.d..c.>.^e.
   18cd4:	3ee0924f bf660f88 3eddbe79 bf66becc     O..>..f.y..>..f.
   18ce4:	3edae880 bf676bd8 3ed8106b bf6816a8     ...>.kg.k..>..h.
   18cf4:	3ed53641 bf68bf3c 3ed25a09 bf696591     A6.><.h..Z.>.ei.
   18d04:	3ecf7bca bf6a09a7 3ecc9b8b bf6aab7b     .{.>..j....>{.j.
   18d14:	3ec9b953 bf6b4b0c 3ec6d529 bf6be858     S..>.Kk.)..>X.k.
   18d24:	3ec3ef15 bf6c835e 3ec1071e bf6d1c1d     ...>^.l....>..m.
   18d34:	3ebe1d4a bf6db293 3ebb31a0 bf6e46be     J..>..m..1.>.Fn.
   18d44:	3eb8442a bf6ed89e 3eb554ec bf6f6830     *D.>..n..T.>0ho.
   18d54:	3eb263ef bf6ff573 3eaf713a bf708066     .c.>s.o.:q.>f.p.
   18d64:	3eac7cd4 bf710908 3ea986c4 bf718f57     .|.>..q....>W.q.
   18d74:	3ea68f12 bf721352 3ea395c5 bf7294f8     ...>R.r....>..r.
   18d84:	3ea09ae5 bf731447 3e9d9e78 bf73913f     ...>G.s.x..>?.s.
   18d94:	3e9aa086 bf740bdd 3e97a117 bf748422     ...>..t....>".t.
   18da4:	3e94a031 bf74fa0b 3e919ddd bf756d97     1..>..t....>.mu.
   18db4:	3e8e9a22 bf75dec6 3e8b9507 bf764d97     "..>..u....>.Mv.
   18dc4:	3e888e93 bf76ba07 3e8586ce bf772417     ...>..v....>.$w.
   18dd4:	3e827dc0 bf778bc5 3e7ee6e1 bf77f110     .}.>..w...~>..w.
   18de4:	3e78cfcc bf7853f8 3e72b651 bf78b47b     ..x>.Sx.Q.r>{.x.
   18df4:	3e6c9a7f bf791298 3e667c66 bf796e4e     ..l>..y.f|f>Nny.
   18e04:	3e605c13 bf79c79d 3e5a3997 bf7a1e84     .\`>..y..9Z>..z.
   18e14:	3e541501 bf7a7302 3e4dee60 bf7ac516     ..T>.sz.`.M>..z.
   18e24:	3e47c5c2 bf7b14be 3e419b37 bf7b61fc     ..G>..{.7.A>.a{.
   18e34:	3e3b6ecf bf7baccd 3e354098 bf7bf531     .n;>..{..@5>1.{.
   18e44:	3e2f10a2 bf7c3b28 3e28defc bf7c7eb0     ../>(;|...(>.~|.
   18e54:	3e22abb6 bf7cbfc9 3e1c76de bf7cfe73     ..">..|..v.>s.|.
   18e64:	3e164083 bf7d3aac 3e1008b7 bf7d7474     .@.>.:}....>tt}.
   18e74:	3e09cf86 bf7dabcc 3e039502 bf7de0b1     ...>..}....>..}.
   18e84:	3dfab273 bf7e1324 3dee3876 bf7e4323     s..=$.~.v8.=#C~.
   18e94:	3de1bc2e bf7e70b0 3dd53db9 bf7e9bc9     ...=.p~..=.=..~.
   18ea4:	3dc8bd36 bf7ec46d 3dbc3ac3 bf7eea9d     6..=m.~..:.=..~.
   18eb4:	3dafb680 bf7f0e58 3da3308c bf7f2f9d     ...=X....0.=./..
   18ec4:	3d96a905 bf7f4e6d 3d8a200a bf7f6ac7     ...=mN... .=.j..
   18ed4:	3d7b2b74 bf7f84ab 3d621468 bf7f9c18     t+{=....h.b=....
   18ee4:	3d48fb2f bf7fb10f 3d2fe007 bf7fc38f     /.H=....../=....
   18ef4:	3d16c32c bf7fd398 3cfb49b9 bf7fe129     ,..=.....I.<)...
   18f04:	3cc90ab0 bf7fec43 3c96c9b6 bf7ff4e6     ...<C......<....
   18f14:	3c490e90 bf7ffb11 3bc90f89 bf7ffec4     ..I<.......;....

00018f24 <twiddleCoef_rfft_128>:
   18f24:	00000000 3f800000 3d48fb2f 3f7fb10f     .......?/.H=...?
   18f34:	3dc8bd36 3f7ec46d 3e164083 3f7d3aac     6..=m.~?.@.>.:}?
   18f44:	3e47c5c2 3f7b14be 3e78cfcc 3f7853f8     ..G>..{?..x>.Sx?
   18f54:	3e94a031 3f74fa0b 3eac7cd4 3f710908     1..>..t?.|.>..q?
   18f64:	3ec3ef15 3f6c835e 3edae880 3f676bd8     ...>^.l?...>.kg?
   18f74:	3ef15aea 3f61c598 3f039c3d 3f5b941a     .Z.>..a?=..?..[?
   18f84:	3f0e39da 3f54db31 3f187fc0 3f4d9f02     .9.?1.T?...?..M?
   18f94:	3f226799 3f45e403 3f2beb4a 3f3daef9     .g"?..E?J.+?..=?
   18fa4:	3f3504f3 3f3504f3 3f3daef9 3f2beb4a     ..5?..5?..=?J.+?
   18fb4:	3f45e403 3f226799 3f4d9f02 3f187fc0     ..E?.g"?..M?...?
   18fc4:	3f54db31 3f0e39da 3f5b941a 3f039c3d     1.T?.9.?..[?=..?
   18fd4:	3f61c598 3ef15aea 3f676bd8 3edae880     ..a?.Z.>.kg?...>
   18fe4:	3f6c835e 3ec3ef15 3f710908 3eac7cd4     ^.l?...>..q?.|.>
   18ff4:	3f74fa0b 3e94a031 3f7853f8 3e78cfcc     ..t?1..>.Sx?..x>
   19004:	3f7b14be 3e47c5c2 3f7d3aac 3e164083     ..{?..G>.:}?.@.>
   19014:	3f7ec46d 3dc8bd36 3f7fb10f 3d48fb2f     m.~?6..=...?/.H=
   19024:	3f800000 00000000 3f7fb10f bd48fb2f     ...?.......?/.H.
   19034:	3f7ec46d bdc8bd36 3f7d3aac be164083     m.~?6....:}?.@..
   19044:	3f7b14be be47c5c2 3f7853f8 be78cfcc     ..{?..G..Sx?..x.
   19054:	3f74fa0b be94a031 3f710908 beac7cd4     ..t?1.....q?.|..
   19064:	3f6c835e bec3ef15 3f676bd8 bedae880     ^.l?.....kg?....
   19074:	3f61c598 bef15aea 3f5b941a bf039c3d     ..a?.Z....[?=...
   19084:	3f54db31 bf0e39da 3f4d9f02 bf187fc0     1.T?.9....M?....
   19094:	3f45e403 bf226799 3f3daef9 bf2beb4a     ..E?.g"...=?J.+.
   190a4:	3f3504f3 bf3504f3 3f2beb4a bf3daef9     ..5?..5.J.+?..=.
   190b4:	3f226799 bf45e403 3f187fc0 bf4d9f02     .g"?..E....?..M.
   190c4:	3f0e39da bf54db31 3f039c3d bf5b941a     .9.?1.T.=..?..[.
   190d4:	3ef15aea bf61c598 3edae880 bf676bd8     .Z.>..a....>.kg.
   190e4:	3ec3ef15 bf6c835e 3eac7cd4 bf710908     ...>^.l..|.>..q.
   190f4:	3e94a031 bf74fa0b 3e78cfcc bf7853f8     1..>..t...x>.Sx.
   19104:	3e47c5c2 bf7b14be 3e164083 bf7d3aac     ..G>..{..@.>.:}.
   19114:	3dc8bd36 bf7ec46d 3d48fb2f bf7fb10f     6..=m.~./.H=....

00019124 <twiddleCoef_rfft_2048>:
   19124:	00000000 3f800000 3b490fc7 3f7fffb1     .......?..I;...?
   19134:	3bc90f89 3f7ffec4 3c16cb59 3f7ffd39     ...;...?Y..<9..?
   19144:	3c490e90 3f7ffb11 3c7b514b 3f7ff84a     ..I<...?KQ{<J..?
   19154:	3c96c9b6 3f7ff4e6 3cafea69 3f7ff0e3     ...<...?i..<...?
   19164:	3cc90ab0 3f7fec43 3ce22a7b 3f7fe705     ...<C..?{*.<...?
   19174:	3cfb49b9 3f7fe129 3d0a342f 3f7fdaaf     .I.<)..?/4.=...?
   19184:	3d16c32c 3f7fd398 3d2351cc 3f7fcbe2     ,..=...?.Q#=...?
   19194:	3d2fe007 3f7fc38f 3d3c6dd5 3f7fba9e     ../=...?.m<=...?
   191a4:	3d48fb2f 3f7fb10f 3d55880e 3f7fa6e3     /.H=...?..U=...?
   191b4:	3d621468 3f7f9c18 3d6ea038 3f7f90b1     h.b=...?8.n=...?
   191c4:	3d7b2b74 3f7f84ab 3d83db0a 3f7f7808     t+{=...?...=.x.?
   191d4:	3d8a200a 3f7f6ac7 3d9064b4 3f7f5ce9     . .=.j.?.d.=.\.?
   191e4:	3d96a905 3f7f4e6d 3d9cecf9 3f7f3f54     ...=mN.?...=T?.?
   191f4:	3da3308c 3f7f2f9d 3da973ba 3f7f1f49     .0.=./.?.s.=I..?
   19204:	3dafb680 3f7f0e58 3db5f8da 3f7efcc9     ...=X..?...=..~?
   19214:	3dbc3ac3 3f7eea9d 3dc27c39 3f7ed7d4     .:.=..~?9|.=..~?
   19224:	3dc8bd36 3f7ec46d 3dcefdb7 3f7eb069     6..=m.~?...=i.~?
   19234:	3dd53db9 3f7e9bc9 3ddb7d37 3f7e868b     .=.=..~?7}.=..~?
   19244:	3de1bc2e 3f7e70b0 3de7fa9a 3f7e5a38     ...=.p~?...=8Z~?
   19254:	3dee3876 3f7e4323 3df475c0 3f7e2b72     v8.=#C~?.u.=r+~?
   19264:	3dfab273 3f7e1324 3e007745 3f7dfa38     s..=$.~?Ew.>8.}?
   19274:	3e039502 3f7de0b1 3e06b26e 3f7dc68c     ...>..}?n..>..}?
   19284:	3e09cf86 3f7dabcc 3e0cec4a 3f7d906e     ...>..}?J..>n.}?
   19294:	3e1008b7 3f7d7474 3e1324ca 3f7d57de     ...>tt}?.$.>.W}?
   192a4:	3e164083 3f7d3aac 3e195be0 3f7d1cdd     .@.>.:}?.[.>..}?
   192b4:	3e1c76de 3f7cfe73 3e1f917b 3f7cdf6c     .v.>s.|?{..>l.|?
   192c4:	3e22abb6 3f7cbfc9 3e25c58c 3f7c9f8a     ..">..|?..%>..|?
   192d4:	3e28defc 3f7c7eb0 3e2bf804 3f7c5d3a     ..(>.~|?..+>:]|?
   192e4:	3e2f10a2 3f7c3b28 3e3228d4 3f7c187a     ../>(;|?.(2>z.|?
   192f4:	3e354098 3f7bf531 3e3857ec 3f7bd14d     .@5>1.{?.W8>M.{?
   19304:	3e3b6ecf 3f7baccd 3e3e853e 3f7b87b2     .n;>..{?>.>>..{?
   19314:	3e419b37 3f7b61fc 3e44b0b9 3f7b3bab     7.A>.a{?..D>.;{?
   19324:	3e47c5c2 3f7b14be 3e4ada4f 3f7aed37     ..G>..{?O.J>7.z?
   19334:	3e4dee60 3f7ac516 3e5101f1 3f7a9c59     `.M>..z?..Q>Y.z?
   19344:	3e541501 3f7a7302 3e57278f 3f7a4910     ..T>.sz?.'W>.Iz?
   19354:	3e5a3997 3f7a1e84 3e5d4b1a 3f79f35e     .9Z>..z?.K]>^.y?
   19364:	3e605c13 3f79c79d 3e636c83 3f799b43     .\`>..y?.lc>C.y?
   19374:	3e667c66 3f796e4e 3e698bba 3f7940c0     f|f>Nny?..i>.@y?
   19384:	3e6c9a7f 3f791298 3e6fa8b2 3f78e3d6     ..l>..y?..o>..x?
   19394:	3e72b651 3f78b47b 3e75c35a 3f788486     Q.r>{.x?Z.u>..x?
   193a4:	3e78cfcc 3f7853f8 3e7bdba4 3f7822d1     ..x>.Sx?..{>."x?
   193b4:	3e7ee6e1 3f77f110 3e80f8c0 3f77beb7     ..~>..w?...>..w?
   193c4:	3e827dc0 3f778bc5 3e840270 3f77583a     .}.>..w?p..>:Xw?
   193d4:	3e8586ce 3f772417 3e870ada 3f76ef5b     ...>.$w?...>[.v?
   193e4:	3e888e93 3f76ba07 3e8a11f8 3f76841b     ...>..v?...>..v?
   193f4:	3e8b9507 3f764d97 3e8d17c0 3f76167a     ...>.Mv?...>z.v?
   19404:	3e8e9a22 3f75dec6 3e901c2c 3f75a67b     "..>..u?,..>{.u?
   19414:	3e919ddd 3f756d97 3e931f35 3f75341d     ...>.mu?5..>.4u?
   19424:	3e94a031 3f74fa0b 3e9620d2 3f74bf62     1..>..t?. .>b.t?
   19434:	3e97a117 3f748422 3e9920fe 3f74484b     ...>".t?. .>KHt?
   19444:	3e9aa086 3f740bdd 3e9c1faf 3f73ced9     ...>..t?...>..s?
   19454:	3e9d9e78 3f73913f 3e9f1cdf 3f73530e     x..>?.s?...>.Ss?
   19464:	3ea09ae5 3f731447 3ea21887 3f72d4eb     ...>G.s?...>..r?
   19474:	3ea395c5 3f7294f8 3ea5129f 3f725470     ...>..r?...>pTr?
   19484:	3ea68f12 3f721352 3ea80b1f 3f71d19f     ...>R.r?...>..q?
   19494:	3ea986c4 3f718f57 3eab0201 3f714c7a     ...>W.q?...>zLq?
   194a4:	3eac7cd4 3f710908 3eadf73c 3f70c502     .|.>..q?<..>..p?
   194b4:	3eaf713a 3f708066 3eb0eacb 3f703b37     :q.>f.p?...>7;p?
   194c4:	3eb263ef 3f6ff573 3eb3dca5 3f6faf1b     .c.>s.o?...>..o?
   194d4:	3eb554ec 3f6f6830 3eb6ccc3 3f6f20b0     .T.>0ho?...>. o?
   194e4:	3eb8442a 3f6ed89e 3eb9bb1e 3f6e8ff8     *D.>..n?...>..n?
   194f4:	3ebb31a0 3f6e46be 3ebca7af 3f6dfcf2     .1.>.Fn?...>..m?
   19504:	3ebe1d4a 3f6db293 3ebf926f 3f6d67a1     J..>..m?o..>.gm?
   19514:	3ec1071e 3f6d1c1d 3ec27b55 3f6cd007     ...>..m?U{.>..l?
   19524:	3ec3ef15 3f6c835e 3ec5625c 3f6c3624     ...>^.l?\b.>$6l?
   19534:	3ec6d529 3f6be858 3ec8477c 3f6b99fb     )..>X.k?|G.>..k?
   19544:	3ec9b953 3f6b4b0c 3ecb2aae 3f6afb8c     S..>.Kk?.*.>..j?
   19554:	3ecc9b8b 3f6aab7b 3ece0bea 3f6a5ad9     ...>{.j?...>.Zj?
   19564:	3ecf7bca 3f6a09a7 3ed0eb2a 3f69b7e4     .{.>..j?*..>..i?
   19574:	3ed25a09 3f696591 3ed3c867 3f6912ae     .Z.>.ei?g..>..i?
   19584:	3ed53641 3f68bf3c 3ed6a399 3f686b39     A6.><.h?...>9kh?
   19594:	3ed8106b 3f6816a8 3ed97cb9 3f67c187     k..>..h?.|.>..g?
   195a4:	3edae880 3f676bd8 3edc53c1 3f671599     ...>.kg?.S.>..g?
   195b4:	3eddbe79 3f66becc 3edf28a9 3f666771     y..>..f?.(.>qgf?
   195c4:	3ee0924f 3f660f88 3ee1fb6a 3f65b710     O..>..f?j..>..e?
   195d4:	3ee363fa 3f655e0b 3ee4cbfe 3f650479     .c.>.^e?...>y.e?
   195e4:	3ee63375 3f64aa59 3ee79a5d 3f644fac     u3.>Y.d?]..>.Od?
   195f4:	3ee900b7 3f63f473 3eea6681 3f6398ac     ...>s.c?.f.>..c?
   19604:	3eebcbbb 3f633c5a 3eed3063 3f62df7b     ...>Z<c?c0.>{.b?
   19614:	3eee9479 3f628210 3eeff7fb 3f62241a     y..>..b?...>.$b?
   19624:	3ef15aea 3f61c598 3ef2bd43 3f61668a     .Z.>..a?C..>.fa?
   19634:	3ef41f07 3f6106f2 3ef58035 3f60a6cf     ...>..a?5..>..`?
   19644:	3ef6e0cb 3f604621 3ef840c8 3f5fe4e9     ...>!F`?.@.>.._?
   19654:	3ef9a02d 3f5f8327 3efafef7 3f5f20db     -..>'._?...>. _?
   19664:	3efc5d27 3f5ebe05 3efdbabb 3f5e5aa6     '].>..^?...>.Z^?
   19674:	3eff17b2 3f5df6be 3f003a06 3f5d924d     ...>..]?.:.?M.]?
   19684:	3f00e7e4 3f5d2d53 3f019573 3f5cc7d1     ...?S-]?s..?..\?
   19694:	3f0242b1 3f5c61c7 3f02ef9f 3f5bfb34     .B.?.a\?...?4.[?
   196a4:	3f039c3d 3f5b941a 3f044889 3f5b2c79     =..?..[?.H.?y,[?
   196b4:	3f04f484 3f5ac450 3f05a02c 3f5a5ba0     ...?P.Z?,..?.[Z?
   196c4:	3f064b82 3f59f26a 3f06f686 3f5988ad     .K.?j.Y?...?..Y?
   196d4:	3f07a136 3f591e6a 3f084b92 3f58b3a1     6..?j.Y?.K.?..X?
   196e4:	3f08f59b 3f584853 3f099f4e 3f57dc7f     ...?SHX?N..?..W?
   196f4:	3f0a48ad 3f577026 3f0af1b7 3f570348     .H.?&pW?...?H.W?
   19704:	3f0b9a6b 3f5695e5 3f0c42c9 3f5627fe     k..?..V?.B.?.'V?
   19714:	3f0cead0 3f55b993 3f0d9281 3f554aa4     ...?..U?...?.JU?
   19724:	3f0e39da 3f54db31 3f0ee0db 3f546b3b     .9.?1.T?...?;kT?
   19734:	3f0f8784 3f53fac3 3f102dd5 3f5389c7     ...?..S?.-.?..S?
   19744:	3f10d3cd 3f531849 3f11796b 3f52a649     ...?I.S?ky.?I.R?
   19754:	3f121eb0 3f5233c6 3f12c39a 3f51c0c2     ...?.3R?...?..Q?
   19764:	3f13682a 3f514d3d 3f140c5f 3f50d937     *h.?=MQ?_..?7.P?
   19774:	3f14b039 3f5064af 3f1553b7 3f4fefa8     9..?.dP?.S.?..O?
   19784:	3f15f6d9 3f4f7a1f 3f16999f 3f4f0417     ...?.zO?...?..O?
   19794:	3f173c07 3f4e8d90 3f17de12 3f4e1689     .<.?..N?...?..N?
   197a4:	3f187fc0 3f4d9f02 3f19210f 3f4d26fd     ...?..M?.!.?.&M?
   197b4:	3f19c200 3f4cae79 3f1a6293 3f4c3578     ...?y.L?.b.?x5L?
   197c4:	3f1b02c6 3f4bbbf8 3f1ba299 3f4b41fa     ...?..K?...?.AK?
   197d4:	3f1c420c 3f4ac77f 3f1ce11f 3f4a4c87     .B.?..J?...?.LJ?
   197e4:	3f1d7fd1 3f49d112 3f1e1e22 3f495521     ...?..I?"..?!UI?
   197f4:	3f1ebc12 3f48d8b3 3f1f599f 3f485bca     ...?..H?.Y.?.[H?
   19804:	3f1ff6cb 3f47de65 3f209393 3f476085     ...?e.G?.. ?.`G?
   19814:	3f212ff9 3f46e22a 3f21cbfb 3f466354     ./!?*.F?..!?TcF?
   19824:	3f226799 3f45e403 3f2302d3 3f456439     .g"?..E?..#?9dE?
   19834:	3f239da9 3f44e3f5 3f24381a 3f446337     ..#?..D?.8$?7cD?
   19844:	3f24d225 3f43e200 3f256bcb 3f436051     %.$?..C?.k%?Q`C?
   19854:	3f26050a 3f42de29 3f269de3 3f425b89     ..&?).B?..&?.[B?
   19864:	3f273656 3f41d870 3f27ce61 3f4154e1     V6'?p.A?a.'?.TA?
   19874:	3f286605 3f40d0da 3f28fd41 3f404c5c     .f(?..@?A.(?\L@?
   19884:	3f299415 3f3fc767 3f2a2a80 3f3f41fc     ..)?g.??.**?.A??
   19894:	3f2ac082 3f3ebc1b 3f2b561b 3f3e35c5     ..*?..>?.V+?.5>?
   198a4:	3f2beb4a 3f3daef9 3f2c800f 3f3d27b8     J.+?..=?..,?.'=?
   198b4:	3f2d1469 3f3ca003 3f2da859 3f3c17d9     i.-?..<?Y.-?..<?
   198c4:	3f2e3bde 3f3b8f3b 3f2ecef7 3f3b0629     .;.?;.;?...?).;?
   198d4:	3f2f61a5 3f3a7ca4 3f2ff3e6 3f39f2ac     .a/?.|:?../?..9?
   198e4:	3f3085bb 3f396842 3f311722 3f38dd65     ..0?Bh9?".1?e.8?
   198f4:	3f31a81d 3f385216 3f3238aa 3f37c655     ..1?.R8?.82?U.7?
   19904:	3f32c8c9 3f373a23 3f33587a 3f36ad7f     ..2?#:7?zX3?..6?
   19914:	3f33e7bc 3f36206c 3f34768f 3f3592e7     ..3?l 6?.v4?..5?
   19924:	3f3504f3 3f3504f3 3f3592e7 3f34768f     ..5?..5?..5?.v4?
   19934:	3f36206c 3f33e7bc 3f36ad7f 3f33587a     l 6?..3?..6?zX3?
   19944:	3f373a23 3f32c8c9 3f37c655 3f3238aa     #:7?..2?U.7?.82?
   19954:	3f385216 3f31a81d 3f38dd65 3f311722     .R8?..1?e.8?".1?
   19964:	3f396842 3f3085bb 3f39f2ac 3f2ff3e6     Bh9?..0?..9?../?
   19974:	3f3a7ca4 3f2f61a5 3f3b0629 3f2ecef7     .|:?.a/?).;?...?
   19984:	3f3b8f3b 3f2e3bde 3f3c17d9 3f2da859     ;.;?.;.?..<?Y.-?
   19994:	3f3ca003 3f2d1469 3f3d27b8 3f2c800f     ..<?i.-?.'=?..,?
   199a4:	3f3daef9 3f2beb4a 3f3e35c5 3f2b561b     ..=?J.+?.5>?.V+?
   199b4:	3f3ebc1b 3f2ac082 3f3f41fc 3f2a2a80     ..>?..*?.A??.**?
   199c4:	3f3fc767 3f299415 3f404c5c 3f28fd41     g.??..)?\L@?A.(?
   199d4:	3f40d0da 3f286605 3f4154e1 3f27ce61     ..@?.f(?.TA?a.'?
   199e4:	3f41d870 3f273656 3f425b89 3f269de3     p.A?V6'?.[B?..&?
   199f4:	3f42de29 3f26050a 3f436051 3f256bcb     ).B?..&?Q`C?.k%?
   19a04:	3f43e200 3f24d225 3f446337 3f24381a     ..C?%.$?7cD?.8$?
   19a14:	3f44e3f5 3f239da9 3f456439 3f2302d3     ..D?..#?9dE?..#?
   19a24:	3f45e403 3f226799 3f466354 3f21cbfb     ..E?.g"?TcF?..!?
   19a34:	3f46e22a 3f212ff9 3f476085 3f209393     *.F?./!?.`G?.. ?
   19a44:	3f47de65 3f1ff6cb 3f485bca 3f1f599f     e.G?...?.[H?.Y.?
   19a54:	3f48d8b3 3f1ebc12 3f495521 3f1e1e22     ..H?...?!UI?"..?
   19a64:	3f49d112 3f1d7fd1 3f4a4c87 3f1ce11f     ..I?...?.LJ?...?
   19a74:	3f4ac77f 3f1c420c 3f4b41fa 3f1ba299     ..J?.B.?.AK?...?
   19a84:	3f4bbbf8 3f1b02c6 3f4c3578 3f1a6293     ..K?...?x5L?.b.?
   19a94:	3f4cae79 3f19c200 3f4d26fd 3f19210f     y.L?...?.&M?.!.?
   19aa4:	3f4d9f02 3f187fc0 3f4e1689 3f17de12     ..M?...?..N?...?
   19ab4:	3f4e8d90 3f173c07 3f4f0417 3f16999f     ..N?.<.?..O?...?
   19ac4:	3f4f7a1f 3f15f6d9 3f4fefa8 3f1553b7     .zO?...?..O?.S.?
   19ad4:	3f5064af 3f14b039 3f50d937 3f140c5f     .dP?9..?7.P?_..?
   19ae4:	3f514d3d 3f13682a 3f51c0c2 3f12c39a     =MQ?*h.?..Q?...?
   19af4:	3f5233c6 3f121eb0 3f52a649 3f11796b     .3R?...?I.R?ky.?
   19b04:	3f531849 3f10d3cd 3f5389c7 3f102dd5     I.S?...?..S?.-.?
   19b14:	3f53fac3 3f0f8784 3f546b3b 3f0ee0db     ..S?...?;kT?...?
   19b24:	3f54db31 3f0e39da 3f554aa4 3f0d9281     1.T?.9.?.JU?...?
   19b34:	3f55b993 3f0cead0 3f5627fe 3f0c42c9     ..U?...?.'V?.B.?
   19b44:	3f5695e5 3f0b9a6b 3f570348 3f0af1b7     ..V?k..?H.W?...?
   19b54:	3f577026 3f0a48ad 3f57dc7f 3f099f4e     &pW?.H.?..W?N..?
   19b64:	3f584853 3f08f59b 3f58b3a1 3f084b92     SHX?...?..X?.K.?
   19b74:	3f591e6a 3f07a136 3f5988ad 3f06f686     j.Y?6..?..Y?...?
   19b84:	3f59f26a 3f064b82 3f5a5ba0 3f05a02c     j.Y?.K.?.[Z?,..?
   19b94:	3f5ac450 3f04f484 3f5b2c79 3f044889     P.Z?...?y,[?.H.?
   19ba4:	3f5b941a 3f039c3d 3f5bfb34 3f02ef9f     ..[?=..?4.[?...?
   19bb4:	3f5c61c7 3f0242b1 3f5cc7d1 3f019573     .a\?.B.?..\?s..?
   19bc4:	3f5d2d53 3f00e7e4 3f5d924d 3f003a06     S-]?...?M.]?.:.?
   19bd4:	3f5df6be 3eff17b2 3f5e5aa6 3efdbabb     ..]?...>.Z^?...>
   19be4:	3f5ebe05 3efc5d27 3f5f20db 3efafef7     ..^?'].>. _?...>
   19bf4:	3f5f8327 3ef9a02d 3f5fe4e9 3ef840c8     '._?-..>.._?.@.>
   19c04:	3f604621 3ef6e0cb 3f60a6cf 3ef58035     !F`?...>..`?5..>
   19c14:	3f6106f2 3ef41f07 3f61668a 3ef2bd43     ..a?...>.fa?C..>
   19c24:	3f61c598 3ef15aea 3f62241a 3eeff7fb     ..a?.Z.>.$b?...>
   19c34:	3f628210 3eee9479 3f62df7b 3eed3063     ..b?y..>{.b?c0.>
   19c44:	3f633c5a 3eebcbbb 3f6398ac 3eea6681     Z<c?...>..c?.f.>
   19c54:	3f63f473 3ee900b7 3f644fac 3ee79a5d     s.c?...>.Od?]..>
   19c64:	3f64aa59 3ee63375 3f650479 3ee4cbfe     Y.d?u3.>y.e?...>
   19c74:	3f655e0b 3ee363fa 3f65b710 3ee1fb6a     .^e?.c.>..e?j..>
   19c84:	3f660f88 3ee0924f 3f666771 3edf28a9     ..f?O..>qgf?.(.>
   19c94:	3f66becc 3eddbe79 3f671599 3edc53c1     ..f?y..>..g?.S.>
   19ca4:	3f676bd8 3edae880 3f67c187 3ed97cb9     .kg?...>..g?.|.>
   19cb4:	3f6816a8 3ed8106b 3f686b39 3ed6a399     ..h?k..>9kh?...>
   19cc4:	3f68bf3c 3ed53641 3f6912ae 3ed3c867     <.h?A6.>..i?g..>
   19cd4:	3f696591 3ed25a09 3f69b7e4 3ed0eb2a     .ei?.Z.>..i?*..>
   19ce4:	3f6a09a7 3ecf7bca 3f6a5ad9 3ece0bea     ..j?.{.>.Zj?...>
   19cf4:	3f6aab7b 3ecc9b8b 3f6afb8c 3ecb2aae     {.j?...>..j?.*.>
   19d04:	3f6b4b0c 3ec9b953 3f6b99fb 3ec8477c     .Kk?S..>..k?|G.>
   19d14:	3f6be858 3ec6d529 3f6c3624 3ec5625c     X.k?)..>$6l?\b.>
   19d24:	3f6c835e 3ec3ef15 3f6cd007 3ec27b55     ^.l?...>..l?U{.>
   19d34:	3f6d1c1d 3ec1071e 3f6d67a1 3ebf926f     ..m?...>.gm?o..>
   19d44:	3f6db293 3ebe1d4a 3f6dfcf2 3ebca7af     ..m?J..>..m?...>
   19d54:	3f6e46be 3ebb31a0 3f6e8ff8 3eb9bb1e     .Fn?.1.>..n?...>
   19d64:	3f6ed89e 3eb8442a 3f6f20b0 3eb6ccc3     ..n?*D.>. o?...>
   19d74:	3f6f6830 3eb554ec 3f6faf1b 3eb3dca5     0ho?.T.>..o?...>
   19d84:	3f6ff573 3eb263ef 3f703b37 3eb0eacb     s.o?.c.>7;p?...>
   19d94:	3f708066 3eaf713a 3f70c502 3eadf73c     f.p?:q.>..p?<..>
   19da4:	3f710908 3eac7cd4 3f714c7a 3eab0201     ..q?.|.>zLq?...>
   19db4:	3f718f57 3ea986c4 3f71d19f 3ea80b1f     W.q?...>..q?...>
   19dc4:	3f721352 3ea68f12 3f725470 3ea5129f     R.r?...>pTr?...>
   19dd4:	3f7294f8 3ea395c5 3f72d4eb 3ea21887     ..r?...>..r?...>
   19de4:	3f731447 3ea09ae5 3f73530e 3e9f1cdf     G.s?...>.Ss?...>
   19df4:	3f73913f 3e9d9e78 3f73ced9 3e9c1faf     ?.s?x..>..s?...>
   19e04:	3f740bdd 3e9aa086 3f74484b 3e9920fe     ..t?...>KHt?. .>
   19e14:	3f748422 3e97a117 3f74bf62 3e9620d2     ".t?...>b.t?. .>
   19e24:	3f74fa0b 3e94a031 3f75341d 3e931f35     ..t?1..>.4u?5..>
   19e34:	3f756d97 3e919ddd 3f75a67b 3e901c2c     .mu?...>{.u?,..>
   19e44:	3f75dec6 3e8e9a22 3f76167a 3e8d17c0     ..u?"..>z.v?...>
   19e54:	3f764d97 3e8b9507 3f76841b 3e8a11f8     .Mv?...>..v?...>
   19e64:	3f76ba07 3e888e93 3f76ef5b 3e870ada     ..v?...>[.v?...>
   19e74:	3f772417 3e8586ce 3f77583a 3e840270     .$w?...>:Xw?p..>
   19e84:	3f778bc5 3e827dc0 3f77beb7 3e80f8c0     ..w?.}.>..w?...>
   19e94:	3f77f110 3e7ee6e1 3f7822d1 3e7bdba4     ..w?..~>."x?..{>
   19ea4:	3f7853f8 3e78cfcc 3f788486 3e75c35a     .Sx?..x>..x?Z.u>
   19eb4:	3f78b47b 3e72b651 3f78e3d6 3e6fa8b2     {.x?Q.r>..x?..o>
   19ec4:	3f791298 3e6c9a7f 3f7940c0 3e698bba     ..y?..l>.@y?..i>
   19ed4:	3f796e4e 3e667c66 3f799b43 3e636c83     Nny?f|f>C.y?.lc>
   19ee4:	3f79c79d 3e605c13 3f79f35e 3e5d4b1a     ..y?.\`>^.y?.K]>
   19ef4:	3f7a1e84 3e5a3997 3f7a4910 3e57278f     ..z?.9Z>.Iz?.'W>
   19f04:	3f7a7302 3e541501 3f7a9c59 3e5101f1     .sz?..T>Y.z?..Q>
   19f14:	3f7ac516 3e4dee60 3f7aed37 3e4ada4f     ..z?`.M>7.z?O.J>
   19f24:	3f7b14be 3e47c5c2 3f7b3bab 3e44b0b9     ..{?..G>.;{?..D>
   19f34:	3f7b61fc 3e419b37 3f7b87b2 3e3e853e     .a{?7.A>..{?>.>>
   19f44:	3f7baccd 3e3b6ecf 3f7bd14d 3e3857ec     ..{?.n;>M.{?.W8>
   19f54:	3f7bf531 3e354098 3f7c187a 3e3228d4     1.{?.@5>z.|?.(2>
   19f64:	3f7c3b28 3e2f10a2 3f7c5d3a 3e2bf804     (;|?../>:]|?..+>
   19f74:	3f7c7eb0 3e28defc 3f7c9f8a 3e25c58c     .~|?..(>..|?..%>
   19f84:	3f7cbfc9 3e22abb6 3f7cdf6c 3e1f917b     ..|?..">l.|?{..>
   19f94:	3f7cfe73 3e1c76de 3f7d1cdd 3e195be0     s.|?.v.>..}?.[.>
   19fa4:	3f7d3aac 3e164083 3f7d57de 3e1324ca     .:}?.@.>.W}?.$.>
   19fb4:	3f7d7474 3e1008b7 3f7d906e 3e0cec4a     tt}?...>n.}?J..>
   19fc4:	3f7dabcc 3e09cf86 3f7dc68c 3e06b26e     ..}?...>..}?n..>
   19fd4:	3f7de0b1 3e039502 3f7dfa38 3e007745     ..}?...>8.}?Ew.>
   19fe4:	3f7e1324 3dfab273 3f7e2b72 3df475c0     $.~?s..=r+~?.u.=
   19ff4:	3f7e4323 3dee3876 3f7e5a38 3de7fa9a     #C~?v8.=8Z~?...=
   1a004:	3f7e70b0 3de1bc2e 3f7e868b 3ddb7d37     .p~?...=..~?7}.=
   1a014:	3f7e9bc9 3dd53db9 3f7eb069 3dcefdb7     ..~?.=.=i.~?...=
   1a024:	3f7ec46d 3dc8bd36 3f7ed7d4 3dc27c39     m.~?6..=..~?9|.=
   1a034:	3f7eea9d 3dbc3ac3 3f7efcc9 3db5f8da     ..~?.:.=..~?...=
   1a044:	3f7f0e58 3dafb680 3f7f1f49 3da973ba     X..?...=I..?.s.=
   1a054:	3f7f2f9d 3da3308c 3f7f3f54 3d9cecf9     ./.?.0.=T?.?...=
   1a064:	3f7f4e6d 3d96a905 3f7f5ce9 3d9064b4     mN.?...=.\.?.d.=
   1a074:	3f7f6ac7 3d8a200a 3f7f7808 3d83db0a     .j.?. .=.x.?...=
   1a084:	3f7f84ab 3d7b2b74 3f7f90b1 3d6ea038     ...?t+{=...?8.n=
   1a094:	3f7f9c18 3d621468 3f7fa6e3 3d55880e     ...?h.b=...?..U=
   1a0a4:	3f7fb10f 3d48fb2f 3f7fba9e 3d3c6dd5     ...?/.H=...?.m<=
   1a0b4:	3f7fc38f 3d2fe007 3f7fcbe2 3d2351cc     ...?../=...?.Q#=
   1a0c4:	3f7fd398 3d16c32c 3f7fdaaf 3d0a342f     ...?,..=...?/4.=
   1a0d4:	3f7fe129 3cfb49b9 3f7fe705 3ce22a7b     )..?.I.<...?{*.<
   1a0e4:	3f7fec43 3cc90ab0 3f7ff0e3 3cafea69     C..?...<...?i..<
   1a0f4:	3f7ff4e6 3c96c9b6 3f7ff84a 3c7b514b     ...?...<J..?KQ{<
   1a104:	3f7ffb11 3c490e90 3f7ffd39 3c16cb59     ...?..I<9..?Y..<
   1a114:	3f7ffec4 3bc90f89 3f7fffb1 3b490fc7     ...?...;...?..I;
   1a124:	3f800000 00000000 3f7fffb1 bb490fc7     ...?.......?..I.
   1a134:	3f7ffec4 bbc90f89 3f7ffd39 bc16cb59     ...?....9..?Y...
   1a144:	3f7ffb11 bc490e90 3f7ff84a bc7b514b     ...?..I.J..?KQ{.
   1a154:	3f7ff4e6 bc96c9b6 3f7ff0e3 bcafea69     ...?.......?i...
   1a164:	3f7fec43 bcc90ab0 3f7fe705 bce22a7b     C..?.......?{*..
   1a174:	3f7fe129 bcfb49b9 3f7fdaaf bd0a342f     )..?.I.....?/4..
   1a184:	3f7fd398 bd16c32c 3f7fcbe2 bd2351cc     ...?,......?.Q#.
   1a194:	3f7fc38f bd2fe007 3f7fba9e bd3c6dd5     ...?../....?.m<.
   1a1a4:	3f7fb10f bd48fb2f 3f7fa6e3 bd55880e     ...?/.H....?..U.
   1a1b4:	3f7f9c18 bd621468 3f7f90b1 bd6ea038     ...?h.b....?8.n.
   1a1c4:	3f7f84ab bd7b2b74 3f7f7808 bd83db0a     ...?t+{..x.?....
   1a1d4:	3f7f6ac7 bd8a200a 3f7f5ce9 bd9064b4     .j.?. ...\.?.d..
   1a1e4:	3f7f4e6d bd96a905 3f7f3f54 bd9cecf9     mN.?....T?.?....
   1a1f4:	3f7f2f9d bda3308c 3f7f1f49 bda973ba     ./.?.0..I..?.s..
   1a204:	3f7f0e58 bdafb680 3f7efcc9 bdb5f8da     X..?......~?....
   1a214:	3f7eea9d bdbc3ac3 3f7ed7d4 bdc27c39     ..~?.:....~?9|..
   1a224:	3f7ec46d bdc8bd36 3f7eb069 bdcefdb7     m.~?6...i.~?....
   1a234:	3f7e9bc9 bdd53db9 3f7e868b bddb7d37     ..~?.=....~?7}..
   1a244:	3f7e70b0 bde1bc2e 3f7e5a38 bde7fa9a     .p~?....8Z~?....
   1a254:	3f7e4323 bdee3876 3f7e2b72 bdf475c0     #C~?v8..r+~?.u..
   1a264:	3f7e1324 bdfab273 3f7dfa38 be007745     $.~?s...8.}?Ew..
   1a274:	3f7de0b1 be039502 3f7dc68c be06b26e     ..}?......}?n...
   1a284:	3f7dabcc be09cf86 3f7d906e be0cec4a     ..}?....n.}?J...
   1a294:	3f7d7474 be1008b7 3f7d57de be1324ca     tt}?.....W}?.$..
   1a2a4:	3f7d3aac be164083 3f7d1cdd be195be0     .:}?.@....}?.[..
   1a2b4:	3f7cfe73 be1c76de 3f7cdf6c be1f917b     s.|?.v..l.|?{...
   1a2c4:	3f7cbfc9 be22abb6 3f7c9f8a be25c58c     ..|?.."...|?..%.
   1a2d4:	3f7c7eb0 be28defc 3f7c5d3a be2bf804     .~|?..(.:]|?..+.
   1a2e4:	3f7c3b28 be2f10a2 3f7c187a be3228d4     (;|?../.z.|?.(2.
   1a2f4:	3f7bf531 be354098 3f7bd14d be3857ec     1.{?.@5.M.{?.W8.
   1a304:	3f7baccd be3b6ecf 3f7b87b2 be3e853e     ..{?.n;...{?>.>.
   1a314:	3f7b61fc be419b37 3f7b3bab be44b0b9     .a{?7.A..;{?..D.
   1a324:	3f7b14be be47c5c2 3f7aed37 be4ada4f     ..{?..G.7.z?O.J.
   1a334:	3f7ac516 be4dee60 3f7a9c59 be5101f1     ..z?`.M.Y.z?..Q.
   1a344:	3f7a7302 be541501 3f7a4910 be57278f     .sz?..T..Iz?.'W.
   1a354:	3f7a1e84 be5a3997 3f79f35e be5d4b1a     ..z?.9Z.^.y?.K].
   1a364:	3f79c79d be605c13 3f799b43 be636c83     ..y?.\`.C.y?.lc.
   1a374:	3f796e4e be667c66 3f7940c0 be698bba     Nny?f|f..@y?..i.
   1a384:	3f791298 be6c9a7f 3f78e3d6 be6fa8b2     ..y?..l...x?..o.
   1a394:	3f78b47b be72b651 3f788486 be75c35a     {.x?Q.r...x?Z.u.
   1a3a4:	3f7853f8 be78cfcc 3f7822d1 be7bdba4     .Sx?..x.."x?..{.
   1a3b4:	3f77f110 be7ee6e1 3f77beb7 be80f8c0     ..w?..~...w?....
   1a3c4:	3f778bc5 be827dc0 3f77583a be840270     ..w?.}..:Xw?p...
   1a3d4:	3f772417 be8586ce 3f76ef5b be870ada     .$w?....[.v?....
   1a3e4:	3f76ba07 be888e93 3f76841b be8a11f8     ..v?......v?....
   1a3f4:	3f764d97 be8b9507 3f76167a be8d17c0     .Mv?....z.v?....
   1a404:	3f75dec6 be8e9a22 3f75a67b be901c2c     ..u?"...{.u?,...
   1a414:	3f756d97 be919ddd 3f75341d be931f35     .mu?.....4u?5...
   1a424:	3f74fa0b be94a031 3f74bf62 be9620d2     ..t?1...b.t?. ..
   1a434:	3f748422 be97a117 3f74484b be9920fe     ".t?....KHt?. ..
   1a444:	3f740bdd be9aa086 3f73ced9 be9c1faf     ..t?......s?....
   1a454:	3f73913f be9d9e78 3f73530e be9f1cdf     ?.s?x....Ss?....
   1a464:	3f731447 bea09ae5 3f72d4eb bea21887     G.s?......r?....
   1a474:	3f7294f8 bea395c5 3f725470 bea5129f     ..r?....pTr?....
   1a484:	3f721352 bea68f12 3f71d19f bea80b1f     R.r?......q?....
   1a494:	3f718f57 bea986c4 3f714c7a beab0201     W.q?....zLq?....
   1a4a4:	3f710908 beac7cd4 3f70c502 beadf73c     ..q?.|....p?<...
   1a4b4:	3f708066 beaf713a 3f703b37 beb0eacb     f.p?:q..7;p?....
   1a4c4:	3f6ff573 beb263ef 3f6faf1b beb3dca5     s.o?.c....o?....
   1a4d4:	3f6f6830 beb554ec 3f6f20b0 beb6ccc3     0ho?.T... o?....
   1a4e4:	3f6ed89e beb8442a 3f6e8ff8 beb9bb1e     ..n?*D....n?....
   1a4f4:	3f6e46be bebb31a0 3f6dfcf2 bebca7af     .Fn?.1....m?....
   1a504:	3f6db293 bebe1d4a 3f6d67a1 bebf926f     ..m?J....gm?o...
   1a514:	3f6d1c1d bec1071e 3f6cd007 bec27b55     ..m?......l?U{..
   1a524:	3f6c835e bec3ef15 3f6c3624 bec5625c     ^.l?....$6l?\b..
   1a534:	3f6be858 bec6d529 3f6b99fb bec8477c     X.k?).....k?|G..
   1a544:	3f6b4b0c bec9b953 3f6afb8c becb2aae     .Kk?S.....j?.*..
   1a554:	3f6aab7b becc9b8b 3f6a5ad9 bece0bea     {.j?.....Zj?....
   1a564:	3f6a09a7 becf7bca 3f69b7e4 bed0eb2a     ..j?.{....i?*...
   1a574:	3f696591 bed25a09 3f6912ae bed3c867     .ei?.Z....i?g...
   1a584:	3f68bf3c bed53641 3f686b39 bed6a399     <.h?A6..9kh?....
   1a594:	3f6816a8 bed8106b 3f67c187 bed97cb9     ..h?k.....g?.|..
   1a5a4:	3f676bd8 bedae880 3f671599 bedc53c1     .kg?......g?.S..
   1a5b4:	3f66becc beddbe79 3f666771 bedf28a9     ..f?y...qgf?.(..
   1a5c4:	3f660f88 bee0924f 3f65b710 bee1fb6a     ..f?O.....e?j...
   1a5d4:	3f655e0b bee363fa 3f650479 bee4cbfe     .^e?.c..y.e?....
   1a5e4:	3f64aa59 bee63375 3f644fac bee79a5d     Y.d?u3...Od?]...
   1a5f4:	3f63f473 bee900b7 3f6398ac beea6681     s.c?......c?.f..
   1a604:	3f633c5a beebcbbb 3f62df7b beed3063     Z<c?....{.b?c0..
   1a614:	3f628210 beee9479 3f62241a beeff7fb     ..b?y....$b?....
   1a624:	3f61c598 bef15aea 3f61668a bef2bd43     ..a?.Z...fa?C...
   1a634:	3f6106f2 bef41f07 3f60a6cf bef58035     ..a?......`?5...
   1a644:	3f604621 bef6e0cb 3f5fe4e9 bef840c8     !F`?......_?.@..
   1a654:	3f5f8327 bef9a02d 3f5f20db befafef7     '._?-.... _?....
   1a664:	3f5ebe05 befc5d27 3f5e5aa6 befdbabb     ..^?']...Z^?....
   1a674:	3f5df6be beff17b2 3f5d924d bf003a06     ..]?....M.]?.:..
   1a684:	3f5d2d53 bf00e7e4 3f5cc7d1 bf019573     S-]?......\?s...
   1a694:	3f5c61c7 bf0242b1 3f5bfb34 bf02ef9f     .a\?.B..4.[?....
   1a6a4:	3f5b941a bf039c3d 3f5b2c79 bf044889     ..[?=...y,[?.H..
   1a6b4:	3f5ac450 bf04f484 3f5a5ba0 bf05a02c     P.Z?.....[Z?,...
   1a6c4:	3f59f26a bf064b82 3f5988ad bf06f686     j.Y?.K....Y?....
   1a6d4:	3f591e6a bf07a136 3f58b3a1 bf084b92     j.Y?6.....X?.K..
   1a6e4:	3f584853 bf08f59b 3f57dc7f bf099f4e     SHX?......W?N...
   1a6f4:	3f577026 bf0a48ad 3f570348 bf0af1b7     &pW?.H..H.W?....
   1a704:	3f5695e5 bf0b9a6b 3f5627fe bf0c42c9     ..V?k....'V?.B..
   1a714:	3f55b993 bf0cead0 3f554aa4 bf0d9281     ..U?.....JU?....
   1a724:	3f54db31 bf0e39da 3f546b3b bf0ee0db     1.T?.9..;kT?....
   1a734:	3f53fac3 bf0f8784 3f5389c7 bf102dd5     ..S?......S?.-..
   1a744:	3f531849 bf10d3cd 3f52a649 bf11796b     I.S?....I.R?ky..
   1a754:	3f5233c6 bf121eb0 3f51c0c2 bf12c39a     .3R?......Q?....
   1a764:	3f514d3d bf13682a 3f50d937 bf140c5f     =MQ?*h..7.P?_...
   1a774:	3f5064af bf14b039 3f4fefa8 bf1553b7     .dP?9.....O?.S..
   1a784:	3f4f7a1f bf15f6d9 3f4f0417 bf16999f     .zO?......O?....
   1a794:	3f4e8d90 bf173c07 3f4e1689 bf17de12     ..N?.<....N?....
   1a7a4:	3f4d9f02 bf187fc0 3f4d26fd bf19210f     ..M?.....&M?.!..
   1a7b4:	3f4cae79 bf19c200 3f4c3578 bf1a6293     y.L?....x5L?.b..
   1a7c4:	3f4bbbf8 bf1b02c6 3f4b41fa bf1ba299     ..K?.....AK?....
   1a7d4:	3f4ac77f bf1c420c 3f4a4c87 bf1ce11f     ..J?.B...LJ?....
   1a7e4:	3f49d112 bf1d7fd1 3f495521 bf1e1e22     ..I?....!UI?"...
   1a7f4:	3f48d8b3 bf1ebc12 3f485bca bf1f599f     ..H?.....[H?.Y..
   1a804:	3f47de65 bf1ff6cb 3f476085 bf209393     e.G?.....`G?.. .
   1a814:	3f46e22a bf212ff9 3f466354 bf21cbfb     *.F?./!.TcF?..!.
   1a824:	3f45e403 bf226799 3f456439 bf2302d3     ..E?.g".9dE?..#.
   1a834:	3f44e3f5 bf239da9 3f446337 bf24381a     ..D?..#.7cD?.8$.
   1a844:	3f43e200 bf24d225 3f436051 bf256bcb     ..C?%.$.Q`C?.k%.
   1a854:	3f42de29 bf26050a 3f425b89 bf269de3     ).B?..&..[B?..&.
   1a864:	3f41d870 bf273656 3f4154e1 bf27ce61     p.A?V6'..TA?a.'.
   1a874:	3f40d0da bf286605 3f404c5c bf28fd41     ..@?.f(.\L@?A.(.
   1a884:	3f3fc767 bf299415 3f3f41fc bf2a2a80     g.??..)..A??.**.
   1a894:	3f3ebc1b bf2ac082 3f3e35c5 bf2b561b     ..>?..*..5>?.V+.
   1a8a4:	3f3daef9 bf2beb4a 3f3d27b8 bf2c800f     ..=?J.+..'=?..,.
   1a8b4:	3f3ca003 bf2d1469 3f3c17d9 bf2da859     ..<?i.-...<?Y.-.
   1a8c4:	3f3b8f3b bf2e3bde 3f3b0629 bf2ecef7     ;.;?.;..).;?....
   1a8d4:	3f3a7ca4 bf2f61a5 3f39f2ac bf2ff3e6     .|:?.a/...9?../.
   1a8e4:	3f396842 bf3085bb 3f38dd65 bf311722     Bh9?..0.e.8?".1.
   1a8f4:	3f385216 bf31a81d 3f37c655 bf3238aa     .R8?..1.U.7?.82.
   1a904:	3f373a23 bf32c8c9 3f36ad7f bf33587a     #:7?..2...6?zX3.
   1a914:	3f36206c bf33e7bc 3f3592e7 bf34768f     l 6?..3...5?.v4.
   1a924:	3f3504f3 bf3504f3 3f34768f bf3592e7     ..5?..5..v4?..5.
   1a934:	3f33e7bc bf36206c 3f33587a bf36ad7f     ..3?l 6.zX3?..6.
   1a944:	3f32c8c9 bf373a23 3f3238aa bf37c655     ..2?#:7..82?U.7.
   1a954:	3f31a81d bf385216 3f311722 bf38dd65     ..1?.R8.".1?e.8.
   1a964:	3f3085bb bf396842 3f2ff3e6 bf39f2ac     ..0?Bh9.../?..9.
   1a974:	3f2f61a5 bf3a7ca4 3f2ecef7 bf3b0629     .a/?.|:....?).;.
   1a984:	3f2e3bde bf3b8f3b 3f2da859 bf3c17d9     .;.?;.;.Y.-?..<.
   1a994:	3f2d1469 bf3ca003 3f2c800f bf3d27b8     i.-?..<...,?.'=.
   1a9a4:	3f2beb4a bf3daef9 3f2b561b bf3e35c5     J.+?..=..V+?.5>.
   1a9b4:	3f2ac082 bf3ebc1b 3f2a2a80 bf3f41fc     ..*?..>..**?.A?.
   1a9c4:	3f299415 bf3fc767 3f28fd41 bf404c5c     ..)?g.?.A.(?\L@.
   1a9d4:	3f286605 bf40d0da 3f27ce61 bf4154e1     .f(?..@.a.'?.TA.
   1a9e4:	3f273656 bf41d870 3f269de3 bf425b89     V6'?p.A...&?.[B.
   1a9f4:	3f26050a bf42de29 3f256bcb bf436051     ..&?).B..k%?Q`C.
   1aa04:	3f24d225 bf43e200 3f24381a bf446337     %.$?..C..8$?7cD.
   1aa14:	3f239da9 bf44e3f5 3f2302d3 bf456439     ..#?..D...#?9dE.
   1aa24:	3f226799 bf45e403 3f21cbfb bf466354     .g"?..E...!?TcF.
   1aa34:	3f212ff9 bf46e22a 3f209393 bf476085     ./!?*.F... ?.`G.
   1aa44:	3f1ff6cb bf47de65 3f1f599f bf485bca     ...?e.G..Y.?.[H.
   1aa54:	3f1ebc12 bf48d8b3 3f1e1e22 bf495521     ...?..H."..?!UI.
   1aa64:	3f1d7fd1 bf49d112 3f1ce11f bf4a4c87     ...?..I....?.LJ.
   1aa74:	3f1c420c bf4ac77f 3f1ba299 bf4b41fa     .B.?..J....?.AK.
   1aa84:	3f1b02c6 bf4bbbf8 3f1a6293 bf4c3578     ...?..K..b.?x5L.
   1aa94:	3f19c200 bf4cae79 3f19210f bf4d26fd     ...?y.L..!.?.&M.
   1aaa4:	3f187fc0 bf4d9f02 3f17de12 bf4e1689     ...?..M....?..N.
   1aab4:	3f173c07 bf4e8d90 3f16999f bf4f0417     .<.?..N....?..O.
   1aac4:	3f15f6d9 bf4f7a1f 3f1553b7 bf4fefa8     ...?.zO..S.?..O.
   1aad4:	3f14b039 bf5064af 3f140c5f bf50d937     9..?.dP._..?7.P.
   1aae4:	3f13682a bf514d3d 3f12c39a bf51c0c2     *h.?=MQ....?..Q.
   1aaf4:	3f121eb0 bf5233c6 3f11796b bf52a649     ...?.3R.ky.?I.R.
   1ab04:	3f10d3cd bf531849 3f102dd5 bf5389c7     ...?I.S..-.?..S.
   1ab14:	3f0f8784 bf53fac3 3f0ee0db bf546b3b     ...?..S....?;kT.
   1ab24:	3f0e39da bf54db31 3f0d9281 bf554aa4     .9.?1.T....?.JU.
   1ab34:	3f0cead0 bf55b993 3f0c42c9 bf5627fe     ...?..U..B.?.'V.
   1ab44:	3f0b9a6b bf5695e5 3f0af1b7 bf570348     k..?..V....?H.W.
   1ab54:	3f0a48ad bf577026 3f099f4e bf57dc7f     .H.?&pW.N..?..W.
   1ab64:	3f08f59b bf584853 3f084b92 bf58b3a1     ...?SHX..K.?..X.
   1ab74:	3f07a136 bf591e6a 3f06f686 bf5988ad     6..?j.Y....?..Y.
   1ab84:	3f064b82 bf59f26a 3f05a02c bf5a5ba0     .K.?j.Y.,..?.[Z.
   1ab94:	3f04f484 bf5ac450 3f044889 bf5b2c79     ...?P.Z..H.?y,[.
   1aba4:	3f039c3d bf5b941a 3f02ef9f bf5bfb34     =..?..[....?4.[.
   1abb4:	3f0242b1 bf5c61c7 3f019573 bf5cc7d1     .B.?.a\.s..?..\.
   1abc4:	3f00e7e4 bf5d2d53 3f003a06 bf5d924d     ...?S-]..:.?M.].
   1abd4:	3eff17b2 bf5df6be 3efdbabb bf5e5aa6     ...>..]....>.Z^.
   1abe4:	3efc5d27 bf5ebe05 3efafef7 bf5f20db     '].>..^....>. _.
   1abf4:	3ef9a02d bf5f8327 3ef840c8 bf5fe4e9     -..>'._..@.>.._.
   1ac04:	3ef6e0cb bf604621 3ef58035 bf60a6cf     ...>!F`.5..>..`.
   1ac14:	3ef41f07 bf6106f2 3ef2bd43 bf61668a     ...>..a.C..>.fa.
   1ac24:	3ef15aea bf61c598 3eeff7fb bf62241a     .Z.>..a....>.$b.
   1ac34:	3eee9479 bf628210 3eed3063 bf62df7b     y..>..b.c0.>{.b.
   1ac44:	3eebcbbb bf633c5a 3eea6681 bf6398ac     ...>Z<c..f.>..c.
   1ac54:	3ee900b7 bf63f473 3ee79a5d bf644fac     ...>s.c.]..>.Od.
   1ac64:	3ee63375 bf64aa59 3ee4cbfe bf650479     u3.>Y.d....>y.e.
   1ac74:	3ee363fa bf655e0b 3ee1fb6a bf65b710     .c.>.^e.j..>..e.
   1ac84:	3ee0924f bf660f88 3edf28a9 bf666771     O..>..f..(.>qgf.
   1ac94:	3eddbe79 bf66becc 3edc53c1 bf671599     y..>..f..S.>..g.
   1aca4:	3edae880 bf676bd8 3ed97cb9 bf67c187     ...>.kg..|.>..g.
   1acb4:	3ed8106b bf6816a8 3ed6a399 bf686b39     k..>..h....>9kh.
   1acc4:	3ed53641 bf68bf3c 3ed3c867 bf6912ae     A6.><.h.g..>..i.
   1acd4:	3ed25a09 bf696591 3ed0eb2a bf69b7e4     .Z.>.ei.*..>..i.
   1ace4:	3ecf7bca bf6a09a7 3ece0bea bf6a5ad9     .{.>..j....>.Zj.
   1acf4:	3ecc9b8b bf6aab7b 3ecb2aae bf6afb8c     ...>{.j..*.>..j.
   1ad04:	3ec9b953 bf6b4b0c 3ec8477c bf6b99fb     S..>.Kk.|G.>..k.
   1ad14:	3ec6d529 bf6be858 3ec5625c bf6c3624     )..>X.k.\b.>$6l.
   1ad24:	3ec3ef15 bf6c835e 3ec27b55 bf6cd007     ...>^.l.U{.>..l.
   1ad34:	3ec1071e bf6d1c1d 3ebf926f bf6d67a1     ...>..m.o..>.gm.
   1ad44:	3ebe1d4a bf6db293 3ebca7af bf6dfcf2     J..>..m....>..m.
   1ad54:	3ebb31a0 bf6e46be 3eb9bb1e bf6e8ff8     .1.>.Fn....>..n.
   1ad64:	3eb8442a bf6ed89e 3eb6ccc3 bf6f20b0     *D.>..n....>. o.
   1ad74:	3eb554ec bf6f6830 3eb3dca5 bf6faf1b     .T.>0ho....>..o.
   1ad84:	3eb263ef bf6ff573 3eb0eacb bf703b37     .c.>s.o....>7;p.
   1ad94:	3eaf713a bf708066 3eadf73c bf70c502     :q.>f.p.<..>..p.
   1ada4:	3eac7cd4 bf710908 3eab0201 bf714c7a     .|.>..q....>zLq.
   1adb4:	3ea986c4 bf718f57 3ea80b1f bf71d19f     ...>W.q....>..q.
   1adc4:	3ea68f12 bf721352 3ea5129f bf725470     ...>R.r....>pTr.
   1add4:	3ea395c5 bf7294f8 3ea21887 bf72d4eb     ...>..r....>..r.
   1ade4:	3ea09ae5 bf731447 3e9f1cdf bf73530e     ...>G.s....>.Ss.
   1adf4:	3e9d9e78 bf73913f 3e9c1faf bf73ced9     x..>?.s....>..s.
   1ae04:	3e9aa086 bf740bdd 3e9920fe bf74484b     ...>..t.. .>KHt.
   1ae14:	3e97a117 bf748422 3e9620d2 bf74bf62     ...>".t.. .>b.t.
   1ae24:	3e94a031 bf74fa0b 3e931f35 bf75341d     1..>..t.5..>.4u.
   1ae34:	3e919ddd bf756d97 3e901c2c bf75a67b     ...>.mu.,..>{.u.
   1ae44:	3e8e9a22 bf75dec6 3e8d17c0 bf76167a     "..>..u....>z.v.
   1ae54:	3e8b9507 bf764d97 3e8a11f8 bf76841b     ...>.Mv....>..v.
   1ae64:	3e888e93 bf76ba07 3e870ada bf76ef5b     ...>..v....>[.v.
   1ae74:	3e8586ce bf772417 3e840270 bf77583a     ...>.$w.p..>:Xw.
   1ae84:	3e827dc0 bf778bc5 3e80f8c0 bf77beb7     .}.>..w....>..w.
   1ae94:	3e7ee6e1 bf77f110 3e7bdba4 bf7822d1     ..~>..w...{>."x.
   1aea4:	3e78cfcc bf7853f8 3e75c35a bf788486     ..x>.Sx.Z.u>..x.
   1aeb4:	3e72b651 bf78b47b 3e6fa8b2 bf78e3d6     Q.r>{.x...o>..x.
   1aec4:	3e6c9a7f bf791298 3e698bba bf7940c0     ..l>..y...i>.@y.
   1aed4:	3e667c66 bf796e4e 3e636c83 bf799b43     f|f>Nny..lc>C.y.
   1aee4:	3e605c13 bf79c79d 3e5d4b1a bf79f35e     .\`>..y..K]>^.y.
   1aef4:	3e5a3997 bf7a1e84 3e57278f bf7a4910     .9Z>..z..'W>.Iz.
   1af04:	3e541501 bf7a7302 3e5101f1 bf7a9c59     ..T>.sz...Q>Y.z.
   1af14:	3e4dee60 bf7ac516 3e4ada4f bf7aed37     `.M>..z.O.J>7.z.
   1af24:	3e47c5c2 bf7b14be 3e44b0b9 bf7b3bab     ..G>..{...D>.;{.
   1af34:	3e419b37 bf7b61fc 3e3e853e bf7b87b2     7.A>.a{.>.>>..{.
   1af44:	3e3b6ecf bf7baccd 3e3857ec bf7bd14d     .n;>..{..W8>M.{.
   1af54:	3e354098 bf7bf531 3e3228d4 bf7c187a     .@5>1.{..(2>z.|.
   1af64:	3e2f10a2 bf7c3b28 3e2bf804 bf7c5d3a     ../>(;|...+>:]|.
   1af74:	3e28defc bf7c7eb0 3e25c58c bf7c9f8a     ..(>.~|...%>..|.
   1af84:	3e22abb6 bf7cbfc9 3e1f917b bf7cdf6c     ..">..|.{..>l.|.
   1af94:	3e1c76de bf7cfe73 3e195be0 bf7d1cdd     .v.>s.|..[.>..}.
   1afa4:	3e164083 bf7d3aac 3e1324ca bf7d57de     .@.>.:}..$.>.W}.
   1afb4:	3e1008b7 bf7d7474 3e0cec4a bf7d906e     ...>tt}.J..>n.}.
   1afc4:	3e09cf86 bf7dabcc 3e06b26e bf7dc68c     ...>..}.n..>..}.
   1afd4:	3e039502 bf7de0b1 3e007745 bf7dfa38     ...>..}.Ew.>8.}.
   1afe4:	3dfab273 bf7e1324 3df475c0 bf7e2b72     s..=$.~..u.=r+~.
   1aff4:	3dee3876 bf7e4323 3de7fa9a bf7e5a38     v8.=#C~....=8Z~.
   1b004:	3de1bc2e bf7e70b0 3ddb7d37 bf7e868b     ...=.p~.7}.=..~.
   1b014:	3dd53db9 bf7e9bc9 3dcefdb7 bf7eb069     .=.=..~....=i.~.
   1b024:	3dc8bd36 bf7ec46d 3dc27c39 bf7ed7d4     6..=m.~.9|.=..~.
   1b034:	3dbc3ac3 bf7eea9d 3db5f8da bf7efcc9     .:.=..~....=..~.
   1b044:	3dafb680 bf7f0e58 3da973ba bf7f1f49     ...=X....s.=I...
   1b054:	3da3308c bf7f2f9d 3d9cecf9 bf7f3f54     .0.=./.....=T?..
   1b064:	3d96a905 bf7f4e6d 3d9064b4 bf7f5ce9     ...=mN...d.=.\..
   1b074:	3d8a200a bf7f6ac7 3d83db0a bf7f7808     . .=.j.....=.x..
   1b084:	3d7b2b74 bf7f84ab 3d6ea038 bf7f90b1     t+{=....8.n=....
   1b094:	3d621468 bf7f9c18 3d55880e bf7fa6e3     h.b=......U=....
   1b0a4:	3d48fb2f bf7fb10f 3d3c6dd5 bf7fba9e     /.H=.....m<=....
   1b0b4:	3d2fe007 bf7fc38f 3d2351cc bf7fcbe2     ../=.....Q#=....
   1b0c4:	3d16c32c bf7fd398 3d0a342f bf7fdaaf     ,..=..../4.=....
   1b0d4:	3cfb49b9 bf7fe129 3ce22a7b bf7fe705     .I.<)...{*.<....
   1b0e4:	3cc90ab0 bf7fec43 3cafea69 bf7ff0e3     ...<C...i..<....
   1b0f4:	3c96c9b6 bf7ff4e6 3c7b514b bf7ff84a     ...<....KQ{<J...
   1b104:	3c490e90 bf7ffb11 3c16cb59 bf7ffd39     ..I<....Y..<9...
   1b114:	3bc90f89 bf7ffec4 3b490fc7 bf7fffb1     ...;......I;....

0001b124 <twiddleCoef_rfft_256>:
   1b124:	00000000 3f800000 3cc90ab0 3f7fec43     .......?...<C..?
   1b134:	3d48fb2f 3f7fb10f 3d96a905 3f7f4e6d     /.H=...?...=mN.?
   1b144:	3dc8bd36 3f7ec46d 3dfab273 3f7e1324     6..=m.~?s..=$.~?
   1b154:	3e164083 3f7d3aac 3e2f10a2 3f7c3b28     .@.>.:}?../>(;|?
   1b164:	3e47c5c2 3f7b14be 3e605c13 3f79c79d     ..G>..{?.\`>..y?
   1b174:	3e78cfcc 3f7853f8 3e888e93 3f76ba07     ..x>.Sx?...>..v?
   1b184:	3e94a031 3f74fa0b 3ea09ae5 3f731447     1..>..t?...>G.s?
   1b194:	3eac7cd4 3f710908 3eb8442a 3f6ed89e     .|.>..q?*D.>..n?
   1b1a4:	3ec3ef15 3f6c835e 3ecf7bca 3f6a09a7     ...>^.l?.{.>..j?
   1b1b4:	3edae880 3f676bd8 3ee63375 3f64aa59     ...>.kg?u3.>Y.d?
   1b1c4:	3ef15aea 3f61c598 3efc5d27 3f5ebe05     .Z.>..a?'].>..^?
   1b1d4:	3f039c3d 3f5b941a 3f08f59b 3f584853     =..?..[?...?SHX?
   1b1e4:	3f0e39da 3f54db31 3f13682a 3f514d3d     .9.?1.T?*h.?=MQ?
   1b1f4:	3f187fc0 3f4d9f02 3f1d7fd1 3f49d112     ...?..M?...?..I?
   1b204:	3f226799 3f45e403 3f273656 3f41d870     .g"?..E?V6'?p.A?
   1b214:	3f2beb4a 3f3daef9 3f3085bb 3f396842     J.+?..=?..0?Bh9?
   1b224:	3f3504f3 3f3504f3 3f396842 3f3085bb     ..5?..5?Bh9?..0?
   1b234:	3f3daef9 3f2beb4a 3f41d870 3f273656     ..=?J.+?p.A?V6'?
   1b244:	3f45e403 3f226799 3f49d112 3f1d7fd1     ..E?.g"?..I?...?
   1b254:	3f4d9f02 3f187fc0 3f514d3d 3f13682a     ..M?...?=MQ?*h.?
   1b264:	3f54db31 3f0e39da 3f584853 3f08f59b     1.T?.9.?SHX?...?
   1b274:	3f5b941a 3f039c3d 3f5ebe05 3efc5d27     ..[?=..?..^?'].>
   1b284:	3f61c598 3ef15aea 3f64aa59 3ee63375     ..a?.Z.>Y.d?u3.>
   1b294:	3f676bd8 3edae880 3f6a09a7 3ecf7bca     .kg?...>..j?.{.>
   1b2a4:	3f6c835e 3ec3ef15 3f6ed89e 3eb8442a     ^.l?...>..n?*D.>
   1b2b4:	3f710908 3eac7cd4 3f731447 3ea09ae5     ..q?.|.>G.s?...>
   1b2c4:	3f74fa0b 3e94a031 3f76ba07 3e888e93     ..t?1..>..v?...>
   1b2d4:	3f7853f8 3e78cfcc 3f79c79d 3e605c13     .Sx?..x>..y?.\`>
   1b2e4:	3f7b14be 3e47c5c2 3f7c3b28 3e2f10a2     ..{?..G>(;|?../>
   1b2f4:	3f7d3aac 3e164083 3f7e1324 3dfab273     .:}?.@.>$.~?s..=
   1b304:	3f7ec46d 3dc8bd36 3f7f4e6d 3d96a905     m.~?6..=mN.?...=
   1b314:	3f7fb10f 3d48fb2f 3f7fec43 3cc90ab0     ...?/.H=C..?...<
   1b324:	3f800000 00000000 3f7fec43 bcc90ab0     ...?....C..?....
   1b334:	3f7fb10f bd48fb2f 3f7f4e6d bd96a905     ...?/.H.mN.?....
   1b344:	3f7ec46d bdc8bd36 3f7e1324 bdfab273     m.~?6...$.~?s...
   1b354:	3f7d3aac be164083 3f7c3b28 be2f10a2     .:}?.@..(;|?../.
   1b364:	3f7b14be be47c5c2 3f79c79d be605c13     ..{?..G...y?.\`.
   1b374:	3f7853f8 be78cfcc 3f76ba07 be888e93     .Sx?..x...v?....
   1b384:	3f74fa0b be94a031 3f731447 bea09ae5     ..t?1...G.s?....
   1b394:	3f710908 beac7cd4 3f6ed89e beb8442a     ..q?.|....n?*D..
   1b3a4:	3f6c835e bec3ef15 3f6a09a7 becf7bca     ^.l?......j?.{..
   1b3b4:	3f676bd8 bedae880 3f64aa59 bee63375     .kg?....Y.d?u3..
   1b3c4:	3f61c598 bef15aea 3f5ebe05 befc5d27     ..a?.Z....^?']..
   1b3d4:	3f5b941a bf039c3d 3f584853 bf08f59b     ..[?=...SHX?....
   1b3e4:	3f54db31 bf0e39da 3f514d3d bf13682a     1.T?.9..=MQ?*h..
   1b3f4:	3f4d9f02 bf187fc0 3f49d112 bf1d7fd1     ..M?......I?....
   1b404:	3f45e403 bf226799 3f41d870 bf273656     ..E?.g".p.A?V6'.
   1b414:	3f3daef9 bf2beb4a 3f396842 bf3085bb     ..=?J.+.Bh9?..0.
   1b424:	3f3504f3 bf3504f3 3f3085bb bf396842     ..5?..5...0?Bh9.
   1b434:	3f2beb4a bf3daef9 3f273656 bf41d870     J.+?..=.V6'?p.A.
   1b444:	3f226799 bf45e403 3f1d7fd1 bf49d112     .g"?..E....?..I.
   1b454:	3f187fc0 bf4d9f02 3f13682a bf514d3d     ...?..M.*h.?=MQ.
   1b464:	3f0e39da bf54db31 3f08f59b bf584853     .9.?1.T....?SHX.
   1b474:	3f039c3d bf5b941a 3efc5d27 bf5ebe05     =..?..[.'].>..^.
   1b484:	3ef15aea bf61c598 3ee63375 bf64aa59     .Z.>..a.u3.>Y.d.
   1b494:	3edae880 bf676bd8 3ecf7bca bf6a09a7     ...>.kg..{.>..j.
   1b4a4:	3ec3ef15 bf6c835e 3eb8442a bf6ed89e     ...>^.l.*D.>..n.
   1b4b4:	3eac7cd4 bf710908 3ea09ae5 bf731447     .|.>..q....>G.s.
   1b4c4:	3e94a031 bf74fa0b 3e888e93 bf76ba07     1..>..t....>..v.
   1b4d4:	3e78cfcc bf7853f8 3e605c13 bf79c79d     ..x>.Sx..\`>..y.
   1b4e4:	3e47c5c2 bf7b14be 3e2f10a2 bf7c3b28     ..G>..{.../>(;|.
   1b4f4:	3e164083 bf7d3aac 3dfab273 bf7e1324     .@.>.:}.s..=$.~.
   1b504:	3dc8bd36 bf7ec46d 3d96a905 bf7f4e6d     6..=m.~....=mN..
   1b514:	3d48fb2f bf7fb10f 3cc90ab0 bf7fec43     /.H=.......<C...

0001b524 <twiddleCoef_rfft_32>:
   1b524:	00000000 3f800000 3e47c5c2 3f7b14be     .......?..G>..{?
   1b534:	3ec3ef15 3f6c835e 3f0e39da 3f54db31     ...>^.l?.9.?1.T?
   1b544:	3f3504f3 3f3504f3 3f54db31 3f0e39da     ..5?..5?1.T?.9.?
   1b554:	3f6c835e 3ec3ef15 3f7b14be 3e47c5c2     ^.l?...>..{?..G>
   1b564:	3f800000 00000000 3f7b14be be47c5c2     ...?......{?..G.
   1b574:	3f6c835e bec3ef15 3f54db31 bf0e39da     ^.l?....1.T?.9..
   1b584:	3f3504f3 bf3504f3 3f0e39da bf54db31     ..5?..5..9.?1.T.
   1b594:	3ec3ef15 bf6c835e 3e47c5c2 bf7b14be     ...>^.l...G>..{.

0001b5a4 <twiddleCoef_rfft_4096>:
   1b5a4:	00000000 3f800000 3ac90fd4 3f7fffec     .......?...:...?
   1b5b4:	3b490fc7 3f7fffb1 3b96cbc1 3f7fff4e     ..I;...?...;N..?
   1b5c4:	3bc90f89 3f7ffec4 3bfb5330 3f7ffe13     ...;...?0S.;...?
   1b5d4:	3c16cb59 3f7ffd39 3c2fed02 3f7ffc39     Y..<9..?../<9..?
   1b5e4:	3c490e90 3f7ffb11 3c623000 3f7ff9c1     ..I<...?.0b<...?
   1b5f4:	3c7b514b 3f7ff84a 3c8a3938 3f7ff6ac     KQ{<J..?89.<...?
   1b604:	3c96c9b6 3f7ff4e6 3ca35a1c 3f7ff2f8     ...<...?.Z.<...?
   1b614:	3cafea69 3f7ff0e3 3cbc7a9b 3f7feea7     i..<...?.z.<...?
   1b624:	3cc90ab0 3f7fec43 3cd59aa6 3f7fe9b8     ...<C..?...<...?
   1b634:	3ce22a7b 3f7fe705 3ceeba2d 3f7fe42b     {*.<...?-..<+..?
   1b644:	3cfb49b9 3f7fe129 3d03ec90 3f7fde00     .I.<)..?...=...?
   1b654:	3d0a342f 3f7fdaaf 3d107bb8 3f7fd737     /4.=...?.{.=7..?
   1b664:	3d16c32c 3f7fd398 3d1d0a88 3f7fcfd1     ,..=...?...=...?
   1b674:	3d2351cc 3f7fcbe2 3d2998f6 3f7fc7cc     .Q#=...?..)=...?
   1b684:	3d2fe007 3f7fc38f 3d3626fc 3f7fbf2a     ../=...?.&6=*..?
   1b694:	3d3c6dd5 3f7fba9e 3d42b491 3f7fb5ea     .m<=...?..B=...?
   1b6a4:	3d48fb2f 3f7fb10f 3d4f41af 3f7fac0d     /.H=...?.AO=...?
   1b6b4:	3d55880e 3f7fa6e3 3d5bce4c 3f7fa191     ..U=...?L.[=...?
   1b6c4:	3d621468 3f7f9c18 3d685a62 3f7f9678     h.b=...?bZh=x..?
   1b6d4:	3d6ea038 3f7f90b1 3d74e5e9 3f7f8ac2     8.n=...?..t=...?
   1b6e4:	3d7b2b74 3f7f84ab 3d80b86c 3f7f7e6d     t+{=...?l..=m~.?
   1b6f4:	3d83db0a 3f7f7808 3d86fd94 3f7f717b     ...=.x.?...={q.?
   1b704:	3d8a200a 3f7f6ac7 3d8d426a 3f7f63ec     . .=.j.?jB.=.c.?
   1b714:	3d9064b4 3f7f5ce9 3d9386e7 3f7f55bf     .d.=.\.?...=.U.?
   1b724:	3d96a905 3f7f4e6d 3d99cb0a 3f7f46f4     ...=mN.?...=.F.?
   1b734:	3d9cecf9 3f7f3f54 3da00ecf 3f7f378d     ...=T?.?...=.7.?
   1b744:	3da3308c 3f7f2f9d 3da65230 3f7f2787     .0.=./.?0R.=.'.?
   1b754:	3da973ba 3f7f1f49 3dac952b 3f7f16e4     .s.=I..?+..=...?
   1b764:	3dafb680 3f7f0e58 3db2d7bb 3f7f05a4     ...=X..?...=...?
   1b774:	3db5f8da 3f7efcc9 3db919dd 3f7ef3c7     ...=..~?...=..~?
   1b784:	3dbc3ac3 3f7eea9d 3dbf5b8d 3f7ee14c     .:.=..~?.[.=L.~?
   1b794:	3dc27c39 3f7ed7d4 3dc59cc6 3f7ece34     9|.=..~?...=4.~?
   1b7a4:	3dc8bd36 3f7ec46d 3dcbdd86 3f7eba7f     6..=m.~?...=..~?
   1b7b4:	3dcefdb7 3f7eb069 3dd21dc8 3f7ea62d     ...=i.~?...=-.~?
   1b7c4:	3dd53db9 3f7e9bc9 3dd85d89 3f7e913d     .=.=..~?.].==.~?
   1b7d4:	3ddb7d37 3f7e868b 3dde9cc4 3f7e7bb1     7}.=..~?...=.{~?
   1b7e4:	3de1bc2e 3f7e70b0 3de4db76 3f7e6588     ...=.p~?v..=.e~?
   1b7f4:	3de7fa9a 3f7e5a38 3deb199a 3f7e4ec1     ...=8Z~?...=.N~?
   1b804:	3dee3876 3f7e4323 3df1572e 3f7e375e     v8.=#C~?.W.=^7~?
   1b814:	3df475c0 3f7e2b72 3df7942c 3f7e1f5e     .u.=r+~?,..=^.~?
   1b824:	3dfab273 3f7e1324 3dfdd092 3f7e06c2     s..=$.~?...=..~?
   1b834:	3e007745 3f7dfa38 3e02062e 3f7ded88     Ew.>8.}?...>..}?
   1b844:	3e039502 3f7de0b1 3e0523c2 3f7dd3b2     ...>..}?.#.>..}?
   1b854:	3e06b26e 3f7dc68c 3e084105 3f7db940     n..>..}?.A.>@.}?
   1b864:	3e09cf86 3f7dabcc 3e0b5df3 3f7d9e30     ...>..}?.].>0.}?
   1b874:	3e0cec4a 3f7d906e 3e0e7a8b 3f7d8285     J..>n.}?.z.>..}?
   1b884:	3e1008b7 3f7d7474 3e1196cc 3f7d663d     ...>tt}?...>=f}?
   1b894:	3e1324ca 3f7d57de 3e14b2b2 3f7d4959     .$.>.W}?...>YI}?
   1b8a4:	3e164083 3f7d3aac 3e17ce3d 3f7d2bd8     .@.>.:}?=..>.+}?
   1b8b4:	3e195be0 3f7d1cdd 3e1ae96b 3f7d0dbc     .[.>..}?k..>..}?
   1b8c4:	3e1c76de 3f7cfe73 3e1e0438 3f7cef03     .v.>s.|?8..>..|?
   1b8d4:	3e1f917b 3f7cdf6c 3e211ea5 3f7ccfae     {..>l.|?..!>..|?
   1b8e4:	3e22abb6 3f7cbfc9 3e2438ad 3f7cafbd     ..">..|?.8$>..|?
   1b8f4:	3e25c58c 3f7c9f8a 3e275251 3f7c8f31     ..%>..|?QR'>1.|?
   1b904:	3e28defc 3f7c7eb0 3e2a6b8d 3f7c6e08     ..(>.~|?.k*>.n|?
   1b914:	3e2bf804 3f7c5d3a 3e2d8461 3f7c4c44     ..+>:]|?a.->DL|?
   1b924:	3e2f10a2 3f7c3b28 3e309cc9 3f7c29e5     ../>(;|?..0>.)|?
   1b934:	3e3228d4 3f7c187a 3e33b4c4 3f7c06e9     .(2>z.|?..3>..|?
   1b944:	3e354098 3f7bf531 3e36cc50 3f7be353     .@5>1.{?P.6>S.{?
   1b954:	3e3857ec 3f7bd14d 3e39e36c 3f7bbf20     .W8>M.{?l.9> .{?
   1b964:	3e3b6ecf 3f7baccd 3e3cfa15 3f7b9a53     .n;>..{?..<>S.{?
   1b974:	3e3e853e 3f7b87b2 3e401049 3f7b74ea     >.>>..{?I.@>.t{?
   1b984:	3e419b37 3f7b61fc 3e432607 3f7b4ee7     7.A>.a{?.&C>.N{?
   1b994:	3e44b0b9 3f7b3bab 3e463b4d 3f7b2848     ..D>.;{?M;F>H({?
   1b9a4:	3e47c5c2 3f7b14be 3e495018 3f7b010e     ..G>..{?.PI>..{?
   1b9b4:	3e4ada4f 3f7aed37 3e4c6467 3f7ad93a     O.J>7.z?gdL>:.z?
   1b9c4:	3e4dee60 3f7ac516 3e4f7838 3f7ab0cb     `.M>..z?8xO>..z?
   1b9d4:	3e5101f1 3f7a9c59 3e528b89 3f7a87c1     ..Q>Y.z?..R>..z?
   1b9e4:	3e541501 3f7a7302 3e559e58 3f7a5e1c     ..T>.sz?X.U>.^z?
   1b9f4:	3e57278f 3f7a4910 3e58b0a4 3f7a33dd     .'W>.Iz?..X>.3z?
   1ba04:	3e5a3997 3f7a1e84 3e5bc26a 3f7a0904     .9Z>..z?j.[>..z?
   1ba14:	3e5d4b1a 3f79f35e 3e5ed3a8 3f79dd91     .K]>^.y?..^>..y?
   1ba24:	3e605c13 3f79c79d 3e61e45c 3f79b183     .\`>..y?\.a>..y?
   1ba34:	3e636c83 3f799b43 3e64f486 3f7984dc     .lc>C.y?..d>..y?
   1ba44:	3e667c66 3f796e4e 3e680422 3f79579a     f|f>Nny?".h>.Wy?
   1ba54:	3e698bba 3f7940c0 3e6b132f 3f7929bf     ..i>.@y?/.k>.)y?
   1ba64:	3e6c9a7f 3f791298 3e6e21ab 3f78fb4a     ..l>..y?.!n>J.x?
   1ba74:	3e6fa8b2 3f78e3d6 3e712f94 3f78cc3b     ..o>..x?./q>;.x?
   1ba84:	3e72b651 3f78b47b 3e743ce8 3f789c93     Q.r>{.x?.<t>..x?
   1ba94:	3e75c35a 3f788486 3e7749a6 3f786c52     Z.u>..x?.Iw>Rlx?
   1baa4:	3e78cfcc 3f7853f8 3e7a55cb 3f783b77     ..x>.Sx?.Uz>w;x?
   1bab4:	3e7bdba4 3f7822d1 3e7d6156 3f780a04     ..{>."x?Va}>..x?
   1bac4:	3e7ee6e1 3f77f110 3e803622 3f77d7f7     ..~>..w?"6.>..w?
   1bad4:	3e80f8c0 3f77beb7 3e81bb4a 3f77a551     ...>..w?J..>Q.w?
   1bae4:	3e827dc0 3f778bc5 3e834022 3f777213     .}.>..w?"@.>.rw?
   1baf4:	3e840270 3f77583a 3e84c4aa 3f773e3c     p..>:Xw?...><>w?
   1bb04:	3e8586ce 3f772417 3e8648df 3f7709cc     ...>.$w?.H.>..w?
   1bb14:	3e870ada 3f76ef5b 3e87ccc1 3f76d4c4     ...>[.v?...>..v?
   1bb24:	3e888e93 3f76ba07 3e895050 3f769f24     ...>..v?PP.>$.v?
   1bb34:	3e8a11f8 3f76841b 3e8ad38a 3f7668ec     ...>..v?...>.hv?
   1bb44:	3e8b9507 3f764d97 3e8c566e 3f76321b     ...>.Mv?nV.>.2v?
   1bb54:	3e8d17c0 3f76167a 3e8dd8fc 3f75fab3     ...>z.v?...>..u?
   1bb64:	3e8e9a22 3f75dec6 3e8f5b32 3f75c2b3     "..>..u?2[.>..u?
   1bb74:	3e901c2c 3f75a67b 3e90dd10 3f758a1c     ,..>{.u?...>..u?
   1bb84:	3e919ddd 3f756d97 3e925e94 3f7550ed     ...>.mu?.^.>.Pu?
   1bb94:	3e931f35 3f75341d 3e93dfbf 3f751727     5..>.4u?...>'.u?
   1bba4:	3e94a031 3f74fa0b 3e95608d 3f74dcc9     1..>..t?.`.>..t?
   1bbb4:	3e9620d2 3f74bf62 3e96e100 3f74a1d5     . .>b.t?...>..t?
   1bbc4:	3e97a117 3f748422 3e986116 3f746649     ...>".t?.a.>Ift?
   1bbd4:	3e9920fe 3f74484b 3e99e0ce 3f742a27     . .>KHt?...>'*t?
   1bbe4:	3e9aa086 3f740bdd 3e9b6027 3f73ed6e     ...>..t?'`.>n.s?
   1bbf4:	3e9c1faf 3f73ced9 3e9cdf20 3f73b01f     ...>..s? ..>..s?
   1bc04:	3e9d9e78 3f73913f 3e9e5db8 3f737239     x..>?.s?.].>9rs?
   1bc14:	3e9f1cdf 3f73530e 3e9fdbee 3f7333be     ...>.Ss?...>.3s?
   1bc24:	3ea09ae5 3f731447 3ea159c2 3f72f4ac     ...>G.s?.Y.>..r?
   1bc34:	3ea21887 3f72d4eb 3ea2d733 3f72b504     ...>..r?3..>..r?
   1bc44:	3ea395c5 3f7294f8 3ea4543f 3f7274c7     ...>..r??T.>.tr?
   1bc54:	3ea5129f 3f725470 3ea5d0e5 3f7233f4     ...>pTr?...>.3r?
   1bc64:	3ea68f12 3f721352 3ea74d25 3f71f28c     ...>R.r?%M.>..q?
   1bc74:	3ea80b1f 3f71d19f 3ea8c8fe 3f71b08e     ...>..q?...>..q?
   1bc84:	3ea986c4 3f718f57 3eaa446f 3f716dfb     ...>W.q?oD.>.mq?
   1bc94:	3eab0201 3f714c7a 3eabbf77 3f712ad4     ...>zLq?w..>.*q?
   1bca4:	3eac7cd4 3f710908 3ead3a15 3f70e717     .|.>..q?.:.>..p?
   1bcb4:	3eadf73c 3f70c502 3eaeb449 3f70a2c6     <..>..p?I..>..p?
   1bcc4:	3eaf713a 3f708066 3eb02e10 3f705de1     :q.>f.p?...>.]p?
   1bcd4:	3eb0eacb 3f703b37 3eb1a76b 3f701867     ...>7;p?k..>g.p?
   1bce4:	3eb263ef 3f6ff573 3eb32058 3f6fd25a     .c.>s.o?X .>Z.o?
   1bcf4:	3eb3dca5 3f6faf1b 3eb498d6 3f6f8bb8     ...>..o?...>..o?
   1bd04:	3eb554ec 3f6f6830 3eb610e6 3f6f4483     .T.>0ho?...>.Do?
   1bd14:	3eb6ccc3 3f6f20b0 3eb78884 3f6efcba     ...>. o?...>..n?
   1bd24:	3eb8442a 3f6ed89e 3eb8ffb2 3f6eb45d     *D.>..n?...>].n?
   1bd34:	3eb9bb1e 3f6e8ff8 3eba766e 3f6e6b6d     ...>..n?nv.>mkn?
   1bd44:	3ebb31a0 3f6e46be 3ebbecb6 3f6e21eb     .1.>.Fn?...>.!n?
   1bd54:	3ebca7af 3f6dfcf2 3ebd628b 3f6dd7d5     ...>..m?.b.>..m?
   1bd64:	3ebe1d4a 3f6db293 3ebed7eb 3f6d8d2d     J..>..m?...>-.m?
   1bd74:	3ebf926f 3f6d67a1 3ec04cd5 3f6d41f2     o..>.gm?.L.>.Am?
   1bd84:	3ec1071e 3f6d1c1d 3ec1c148 3f6cf624     ...>..m?H..>$.l?
   1bd94:	3ec27b55 3f6cd007 3ec33544 3f6ca9c5     U{.>..l?D5.>..l?
   1bda4:	3ec3ef15 3f6c835e 3ec4a8c8 3f6c5cd4     ...>^.l?...>.\l?
   1bdb4:	3ec5625c 3f6c3624 3ec61bd2 3f6c0f50     \b.>$6l?...>P.l?
   1bdc4:	3ec6d529 3f6be858 3ec78e62 3f6bc13b     )..>X.k?b..>;.k?
   1bdd4:	3ec8477c 3f6b99fb 3ec90077 3f6b7295     |G.>..k?w..>.rk?
   1bde4:	3ec9b953 3f6b4b0c 3eca7210 3f6b235e     S..>.Kk?.r.>^#k?
   1bdf4:	3ecb2aae 3f6afb8c 3ecbe32c 3f6ad395     .*.>..j?,..>..j?
   1be04:	3ecc9b8b 3f6aab7b 3ecd53ca 3f6a833c     ...>{.j?.S.><.j?
   1be14:	3ece0bea 3f6a5ad9 3ecec3ea 3f6a3252     ...>.Zj?...>R2j?
   1be24:	3ecf7bca 3f6a09a7 3ed0338a 3f69e0d7     .{.>..j?.3.>..i?
   1be34:	3ed0eb2a 3f69b7e4 3ed1a2aa 3f698ecc     *..>..i?...>..i?
   1be44:	3ed25a09 3f696591 3ed31148 3f693c32     .Z.>.ei?H..>2<i?
   1be54:	3ed3c867 3f6912ae 3ed47f64 3f68e907     g..>..i?d..>..h?
   1be64:	3ed53641 3f68bf3c 3ed5ecfd 3f68954c     A6.><.h?...>L.h?
   1be74:	3ed6a399 3f686b39 3ed75a13 3f684103     ...>9kh?.Z.>.Ah?
   1be84:	3ed8106b 3f6816a8 3ed8c6a3 3f67ec2a     k..>..h?...>*.g?
   1be94:	3ed97cb9 3f67c187 3eda32ad 3f6796c1     .|.>..g?.2.>..g?
   1bea4:	3edae880 3f676bd8 3edb9e31 3f6740ca     ...>.kg?1..>.@g?
   1beb4:	3edc53c1 3f671599 3edd092e 3f66ea45     .S.>..g?...>E.f?
   1bec4:	3eddbe79 3f66becc 3ede73a2 3f669330     y..>..f?.s.>0.f?
   1bed4:	3edf28a9 3f666771 3edfdd8d 3f663b8e     .(.>qgf?...>.;f?
   1bee4:	3ee0924f 3f660f88 3ee146ee 3f65e35e     O..>..f?.F.>^.e?
   1bef4:	3ee1fb6a 3f65b710 3ee2afc4 3f658aa0     j..>..e?...>..e?
   1bf04:	3ee363fa 3f655e0b 3ee4180e 3f653154     .c.>.^e?...>T1e?
   1bf14:	3ee4cbfe 3f650479 3ee57fcb 3f64d77b     ...>y.e?...>{.d?
   1bf24:	3ee63375 3f64aa59 3ee6e6fb 3f647d14     u3.>Y.d?...>.}d?
   1bf34:	3ee79a5d 3f644fac 3ee84d9c 3f642221     ]..>.Od?.M.>!"d?
   1bf44:	3ee900b7 3f63f473 3ee9b3ae 3f63c6a1     ...>s.c?...>..c?
   1bf54:	3eea6681 3f6398ac 3eeb1930 3f636a95     .f.>..c?0..>.jc?
   1bf64:	3eebcbbb 3f633c5a 3eec7e21 3f630dfc     ...>Z<c?!~.>..c?
   1bf74:	3eed3063 3f62df7b 3eede280 3f62b0d7     c0.>{.b?...>..b?
   1bf84:	3eee9479 3f628210 3eef464c 3f625326     y..>..b?LF.>&Sb?
   1bf94:	3eeff7fb 3f62241a 3ef0a985 3f61f4ea     ...>.$b?...>..a?
   1bfa4:	3ef15aea 3f61c598 3ef20c29 3f619622     .Z.>..a?)..>".a?
   1bfb4:	3ef2bd43 3f61668a 3ef36e38 3f6136d0     C..>.fa?8n.>.6a?
   1bfc4:	3ef41f07 3f6106f2 3ef4cfb1 3f60d6f2     ...>..a?...>..`?
   1bfd4:	3ef58035 3f60a6cf 3ef63093 3f607689     5..>..`?.0.>.v`?
   1bfe4:	3ef6e0cb 3f604621 3ef790dc 3f601596     ...>!F`?...>..`?
   1bff4:	3ef840c8 3f5fe4e9 3ef8f08e 3f5fb419     .@.>.._?...>.._?
   1c004:	3ef9a02d 3f5f8327 3efa4fa5 3f5f5212     -..>'._?.O.>.R_?
   1c014:	3efafef7 3f5f20db 3efbae22 3f5eef81     ...>. _?"..>..^?
   1c024:	3efc5d27 3f5ebe05 3efd0c04 3f5e8c67     '].>..^?...>g.^?
   1c034:	3efdbabb 3f5e5aa6 3efe694a 3f5e28c3     ...>.Z^?Ji.>.(^?
   1c044:	3eff17b2 3f5df6be 3effc5f3 3f5dc497     ...>..]?...>..]?
   1c054:	3f003a06 3f5d924d 3f0090ff 3f5d5fe1     .:.?M.]?...?._]?
   1c064:	3f00e7e4 3f5d2d53 3f013eb5 3f5cfaa3     ...?S-]?.>.?..\?
   1c074:	3f019573 3f5cc7d1 3f01ec1c 3f5c94dd     s..?..\?...?..\?
   1c084:	3f0242b1 3f5c61c7 3f029932 3f5c2e8e     .B.?.a\?2..?..\?
   1c094:	3f02ef9f 3f5bfb34 3f0345f8 3f5bc7b8     ...?4.[?.E.?..[?
   1c0a4:	3f039c3d 3f5b941a 3f03f26d 3f5b605a     =..?..[?m..?Z`[?
   1c0b4:	3f044889 3f5b2c79 3f049e91 3f5af875     .H.?y,[?...?u.Z?
   1c0c4:	3f04f484 3f5ac450 3f054a62 3f5a9009     ...?P.Z?bJ.?..Z?
   1c0d4:	3f05a02c 3f5a5ba0 3f05f5e2 3f5a2716     ,..?.[Z?...?.'Z?
   1c0e4:	3f064b82 3f59f26a 3f06a10e 3f59bd9c     .K.?j.Y?...?..Y?
   1c0f4:	3f06f686 3f5988ad 3f074be8 3f59539c     ...?..Y?.K.?.SY?
   1c104:	3f07a136 3f591e6a 3f07f66f 3f58e917     6..?j.Y?o..?..X?
   1c114:	3f084b92 3f58b3a1 3f08a0a1 3f587e0b     .K.?..X?...?.~X?
   1c124:	3f08f59b 3f584853 3f094a7f 3f581279     ...?SHX?.J.?y.X?
   1c134:	3f099f4e 3f57dc7f 3f09f409 3f57a663     N..?..W?...?c.W?
   1c144:	3f0a48ad 3f577026 3f0a9d3d 3f5739c7     .H.?&pW?=..?.9W?
   1c154:	3f0af1b7 3f570348 3f0b461c 3f56cca7     ...?H.W?.F.?..V?
   1c164:	3f0b9a6b 3f5695e5 3f0beea5 3f565f02     k..?..V?...?._V?
   1c174:	3f0c42c9 3f5627fe 3f0c96d7 3f55f0d9     .B.?.'V?...?..U?
   1c184:	3f0cead0 3f55b993 3f0d3eb3 3f55822c     ...?..U?.>.?,.U?
   1c194:	3f0d9281 3f554aa4 3f0de638 3f5512fb     ...?.JU?8..?..U?
   1c1a4:	3f0e39da 3f54db31 3f0e8d65 3f54a347     .9.?1.T?e..?G.T?
   1c1b4:	3f0ee0db 3f546b3b 3f0f343b 3f54330f     ...?;kT?;4.?.3T?
   1c1c4:	3f0f8784 3f53fac3 3f0fdab8 3f53c255     ...?..S?...?U.S?
   1c1d4:	3f102dd5 3f5389c7 3f1080dc 3f535118     .-.?..S?...?.QS?
   1c1e4:	3f10d3cd 3f531849 3f1126a7 3f52df59     ...?I.S?.&.?Y.R?
   1c1f4:	3f11796b 3f52a649 3f11cc19 3f526d18     ky.?I.R?...?.mR?
   1c204:	3f121eb0 3f5233c6 3f127130 3f51fa54     ...?.3R?0q.?T.Q?
   1c214:	3f12c39a 3f51c0c2 3f1315ee 3f518710     ...?..Q?...?..Q?
   1c224:	3f13682a 3f514d3d 3f13ba50 3f51134a     *h.?=MQ?P..?J.Q?
   1c234:	3f140c5f 3f50d937 3f145e58 3f509f03     _..?7.P?X^.?..P?
   1c244:	3f14b039 3f5064af 3f150204 3f502a3b     9..?.dP?...?;*P?
   1c254:	3f1553b7 3f4fefa8 3f15a554 3f4fb4f4     .S.?..O?T..?..O?
   1c264:	3f15f6d9 3f4f7a1f 3f164847 3f4f3f2b     ...?.zO?GH.?+?O?
   1c274:	3f16999f 3f4f0417 3f16eadf 3f4ec8e4     ...?..O?...?..N?
   1c284:	3f173c07 3f4e8d90 3f178d18 3f4e521c     .<.?..N?...?.RN?
   1c294:	3f17de12 3f4e1689 3f182ef5 3f4ddad5     ...?..N?...?..M?
   1c2a4:	3f187fc0 3f4d9f02 3f18d073 3f4d6310     ...?..M?s..?.cM?
   1c2b4:	3f19210f 3f4d26fd 3f197194 3f4ceacb     .!.?.&M?.q.?..L?
   1c2c4:	3f19c200 3f4cae79 3f1a1255 3f4c7208     ...?y.L?U..?.rL?
   1c2d4:	3f1a6293 3f4c3578 3f1ab2b8 3f4bf8c7     .b.?x5L?...?..K?
   1c2e4:	3f1b02c6 3f4bbbf8 3f1b52bb 3f4b7f09     ...?..K?.R.?..K?
   1c2f4:	3f1ba299 3f4b41fa 3f1bf25f 3f4b04cc     ...?.AK?_..?..K?
   1c304:	3f1c420c 3f4ac77f 3f1c91a2 3f4a8a13     .B.?..J?...?..J?
   1c314:	3f1ce11f 3f4a4c87 3f1d3084 3f4a0edc     ...?.LJ?.0.?..J?
   1c324:	3f1d7fd1 3f49d112 3f1dcf06 3f499329     ...?..I?...?).I?
   1c334:	3f1e1e22 3f495521 3f1e6d26 3f4916fa     "..?!UI?&m.?..I?
   1c344:	3f1ebc12 3f48d8b3 3f1f0ae5 3f489a4e     ...?..H?...?N.H?
   1c354:	3f1f599f 3f485bca 3f1fa841 3f481d27     .Y.?.[H?A..?'.H?
   1c364:	3f1ff6cb 3f47de65 3f20453b 3f479f84     ...?e.G?;E ?..G?
   1c374:	3f209393 3f476085 3f20e1d2 3f472167     .. ?.`G?.. ?g!G?
   1c384:	3f212ff9 3f46e22a 3f217e06 3f46a2ce     ./!?*.F?.~!?..F?
   1c394:	3f21cbfb 3f466354 3f2219d7 3f4623bb     ..!?TcF?.."?.#F?
   1c3a4:	3f226799 3f45e403 3f22b543 3f45a42d     .g"?..E?C."?-.E?
   1c3b4:	3f2302d3 3f456439 3f23504b 3f452426     ..#?9dE?KP#?&$E?
   1c3c4:	3f239da9 3f44e3f5 3f23eaee 3f44a3a5     ..#?..D?..#?..D?
   1c3d4:	3f24381a 3f446337 3f24852c 3f4422ab     .8$?7cD?,.$?."D?
   1c3e4:	3f24d225 3f43e200 3f251f04 3f43a138     %.$?..C?..%?8.C?
   1c3f4:	3f256bcb 3f436051 3f25b877 3f431f4c     .k%?Q`C?w.%?L.C?
   1c404:	3f26050a 3f42de29 3f265184 3f429ce8     ..&?).B?.Q&?..B?
   1c414:	3f269de3 3f425b89 3f26ea2a 3f421a0b     ..&?.[B?*.&?..B?
   1c424:	3f273656 3f41d870 3f278268 3f4196b7     V6'?p.A?h.'?..A?
   1c434:	3f27ce61 3f4154e1 3f281a40 3f4112ec     a.'?.TA?@.(?..A?
   1c444:	3f286605 3f40d0da 3f28b1b0 3f408ea9     .f(?..@?..(?..@?
   1c454:	3f28fd41 3f404c5c 3f2948b8 3f4009f0     A.(?\L@?.H)?..@?
   1c464:	3f299415 3f3fc767 3f29df57 3f3f84c0     ..)?g.??W.)?..??
   1c474:	3f2a2a80 3f3f41fc 3f2a758e 3f3eff1b     .**?.A??.u*?..>?
   1c484:	3f2ac082 3f3ebc1b 3f2b0b5b 3f3e78ff     ..*?..>?[.+?.x>?
   1c494:	3f2b561b 3f3e35c5 3f2ba0bf 3f3df26e     .V+?.5>?..+?n.=?
   1c4a4:	3f2beb4a 3f3daef9 3f2c35b9 3f3d6b67     J.+?..=?.5,?gk=?
   1c4b4:	3f2c800f 3f3d27b8 3f2cca49 3f3ce3ec     ..,?.'=?I.,?..<?
   1c4c4:	3f2d1469 3f3ca003 3f2d5e6f 3f3c5bfc     i.-?..<?o^-?.[<?
   1c4d4:	3f2da859 3f3c17d9 3f2df229 3f3bd398     Y.-?..<?).-?..;?
   1c4e4:	3f2e3bde 3f3b8f3b 3f2e8578 3f3b4ac1     .;.?;.;?x..?.J;?
   1c4f4:	3f2ecef7 3f3b0629 3f2f185b 3f3ac175     ...?).;?[./?u.:?
   1c504:	3f2f61a5 3f3a7ca4 3f2faad3 3f3a37b7     .a/?.|:?../?.7:?
   1c514:	3f2ff3e6 3f39f2ac 3f303cde 3f39ad85     ../?..9?.<0?..9?
   1c524:	3f3085bb 3f396842 3f30ce7c 3f3922e1     ..0?Bh9?|.0?."9?
   1c534:	3f311722 3f38dd65 3f315fad 3f3897cb     ".1?e.8?._1?..8?
   1c544:	3f31a81d 3f385216 3f31f071 3f380c43     ..1?.R8?q.1?C.8?
   1c554:	3f3238aa 3f37c655 3f3280c7 3f37804a     .82?U.7?..2?J.7?
   1c564:	3f32c8c9 3f373a23 3f3310af 3f36f3df     ..2?#:7?..3?..6?
   1c574:	3f33587a 3f36ad7f 3f33a029 3f366704     zX3?..6?).3?.g6?
   1c584:	3f33e7bc 3f36206c 3f342f34 3f35d9b8     ..3?l 6?4/4?..5?
   1c594:	3f34768f 3f3592e7 3f34bdcf 3f354bfb     .v4?..5?..4?.K5?
   1c5a4:	3f3504f3 3f3504f3 3f354bfb 3f34bdcf     ..5?..5?.K5?..4?
   1c5b4:	3f3592e7 3f34768f 3f35d9b8 3f342f34     ..5?.v4?..5?4/4?
   1c5c4:	3f36206c 3f33e7bc 3f366704 3f33a029     l 6?..3?.g6?).3?
   1c5d4:	3f36ad7f 3f33587a 3f36f3df 3f3310af     ..6?zX3?..6?..3?
   1c5e4:	3f373a23 3f32c8c9 3f37804a 3f3280c7     #:7?..2?J.7?..2?
   1c5f4:	3f37c655 3f3238aa 3f380c43 3f31f071     U.7?.82?C.8?q.1?
   1c604:	3f385216 3f31a81d 3f3897cb 3f315fad     .R8?..1?..8?._1?
   1c614:	3f38dd65 3f311722 3f3922e1 3f30ce7c     e.8?".1?."9?|.0?
   1c624:	3f396842 3f3085bb 3f39ad85 3f303cde     Bh9?..0?..9?.<0?
   1c634:	3f39f2ac 3f2ff3e6 3f3a37b7 3f2faad3     ..9?../?.7:?../?
   1c644:	3f3a7ca4 3f2f61a5 3f3ac175 3f2f185b     .|:?.a/?u.:?[./?
   1c654:	3f3b0629 3f2ecef7 3f3b4ac1 3f2e8578     ).;?...?.J;?x..?
   1c664:	3f3b8f3b 3f2e3bde 3f3bd398 3f2df229     ;.;?.;.?..;?).-?
   1c674:	3f3c17d9 3f2da859 3f3c5bfc 3f2d5e6f     ..<?Y.-?.[<?o^-?
   1c684:	3f3ca003 3f2d1469 3f3ce3ec 3f2cca49     ..<?i.-?..<?I.,?
   1c694:	3f3d27b8 3f2c800f 3f3d6b67 3f2c35b9     .'=?..,?gk=?.5,?
   1c6a4:	3f3daef9 3f2beb4a 3f3df26e 3f2ba0bf     ..=?J.+?n.=?..+?
   1c6b4:	3f3e35c5 3f2b561b 3f3e78ff 3f2b0b5b     .5>?.V+?.x>?[.+?
   1c6c4:	3f3ebc1b 3f2ac082 3f3eff1b 3f2a758e     ..>?..*?..>?.u*?
   1c6d4:	3f3f41fc 3f2a2a80 3f3f84c0 3f29df57     .A??.**?..??W.)?
   1c6e4:	3f3fc767 3f299415 3f4009f0 3f2948b8     g.??..)?..@?.H)?
   1c6f4:	3f404c5c 3f28fd41 3f408ea9 3f28b1b0     \L@?A.(?..@?..(?
   1c704:	3f40d0da 3f286605 3f4112ec 3f281a40     ..@?.f(?..A?@.(?
   1c714:	3f4154e1 3f27ce61 3f4196b7 3f278268     .TA?a.'?..A?h.'?
   1c724:	3f41d870 3f273656 3f421a0b 3f26ea2a     p.A?V6'?..B?*.&?
   1c734:	3f425b89 3f269de3 3f429ce8 3f265184     .[B?..&?..B?.Q&?
   1c744:	3f42de29 3f26050a 3f431f4c 3f25b877     ).B?..&?L.C?w.%?
   1c754:	3f436051 3f256bcb 3f43a138 3f251f04     Q`C?.k%?8.C?..%?
   1c764:	3f43e200 3f24d225 3f4422ab 3f24852c     ..C?%.$?."D?,.$?
   1c774:	3f446337 3f24381a 3f44a3a5 3f23eaee     7cD?.8$?..D?..#?
   1c784:	3f44e3f5 3f239da9 3f452426 3f23504b     ..D?..#?&$E?KP#?
   1c794:	3f456439 3f2302d3 3f45a42d 3f22b543     9dE?..#?-.E?C."?
   1c7a4:	3f45e403 3f226799 3f4623bb 3f2219d7     ..E?.g"?.#F?.."?
   1c7b4:	3f466354 3f21cbfb 3f46a2ce 3f217e06     TcF?..!?..F?.~!?
   1c7c4:	3f46e22a 3f212ff9 3f472167 3f20e1d2     *.F?./!?g!G?.. ?
   1c7d4:	3f476085 3f209393 3f479f84 3f20453b     .`G?.. ?..G?;E ?
   1c7e4:	3f47de65 3f1ff6cb 3f481d27 3f1fa841     e.G?...?'.H?A..?
   1c7f4:	3f485bca 3f1f599f 3f489a4e 3f1f0ae5     .[H?.Y.?N.H?...?
   1c804:	3f48d8b3 3f1ebc12 3f4916fa 3f1e6d26     ..H?...?..I?&m.?
   1c814:	3f495521 3f1e1e22 3f499329 3f1dcf06     !UI?"..?).I?...?
   1c824:	3f49d112 3f1d7fd1 3f4a0edc 3f1d3084     ..I?...?..J?.0.?
   1c834:	3f4a4c87 3f1ce11f 3f4a8a13 3f1c91a2     .LJ?...?..J?...?
   1c844:	3f4ac77f 3f1c420c 3f4b04cc 3f1bf25f     ..J?.B.?..K?_..?
   1c854:	3f4b41fa 3f1ba299 3f4b7f09 3f1b52bb     .AK?...?..K?.R.?
   1c864:	3f4bbbf8 3f1b02c6 3f4bf8c7 3f1ab2b8     ..K?...?..K?...?
   1c874:	3f4c3578 3f1a6293 3f4c7208 3f1a1255     x5L?.b.?.rL?U..?
   1c884:	3f4cae79 3f19c200 3f4ceacb 3f197194     y.L?...?..L?.q.?
   1c894:	3f4d26fd 3f19210f 3f4d6310 3f18d073     .&M?.!.?.cM?s..?
   1c8a4:	3f4d9f02 3f187fc0 3f4ddad5 3f182ef5     ..M?...?..M?...?
   1c8b4:	3f4e1689 3f17de12 3f4e521c 3f178d18     ..N?...?.RN?...?
   1c8c4:	3f4e8d90 3f173c07 3f4ec8e4 3f16eadf     ..N?.<.?..N?...?
   1c8d4:	3f4f0417 3f16999f 3f4f3f2b 3f164847     ..O?...?+?O?GH.?
   1c8e4:	3f4f7a1f 3f15f6d9 3f4fb4f4 3f15a554     .zO?...?..O?T..?
   1c8f4:	3f4fefa8 3f1553b7 3f502a3b 3f150204     ..O?.S.?;*P?...?
   1c904:	3f5064af 3f14b039 3f509f03 3f145e58     .dP?9..?..P?X^.?
   1c914:	3f50d937 3f140c5f 3f51134a 3f13ba50     7.P?_..?J.Q?P..?
   1c924:	3f514d3d 3f13682a 3f518710 3f1315ee     =MQ?*h.?..Q?...?
   1c934:	3f51c0c2 3f12c39a 3f51fa54 3f127130     ..Q?...?T.Q?0q.?
   1c944:	3f5233c6 3f121eb0 3f526d18 3f11cc19     .3R?...?.mR?...?
   1c954:	3f52a649 3f11796b 3f52df59 3f1126a7     I.R?ky.?Y.R?.&.?
   1c964:	3f531849 3f10d3cd 3f535118 3f1080dc     I.S?...?.QS?...?
   1c974:	3f5389c7 3f102dd5 3f53c255 3f0fdab8     ..S?.-.?U.S?...?
   1c984:	3f53fac3 3f0f8784 3f54330f 3f0f343b     ..S?...?.3T?;4.?
   1c994:	3f546b3b 3f0ee0db 3f54a347 3f0e8d65     ;kT?...?G.T?e..?
   1c9a4:	3f54db31 3f0e39da 3f5512fb 3f0de638     1.T?.9.?..U?8..?
   1c9b4:	3f554aa4 3f0d9281 3f55822c 3f0d3eb3     .JU?...?,.U?.>.?
   1c9c4:	3f55b993 3f0cead0 3f55f0d9 3f0c96d7     ..U?...?..U?...?
   1c9d4:	3f5627fe 3f0c42c9 3f565f02 3f0beea5     .'V?.B.?._V?...?
   1c9e4:	3f5695e5 3f0b9a6b 3f56cca7 3f0b461c     ..V?k..?..V?.F.?
   1c9f4:	3f570348 3f0af1b7 3f5739c7 3f0a9d3d     H.W?...?.9W?=..?
   1ca04:	3f577026 3f0a48ad 3f57a663 3f09f409     &pW?.H.?c.W?...?
   1ca14:	3f57dc7f 3f099f4e 3f581279 3f094a7f     ..W?N..?y.X?.J.?
   1ca24:	3f584853 3f08f59b 3f587e0b 3f08a0a1     SHX?...?.~X?...?
   1ca34:	3f58b3a1 3f084b92 3f58e917 3f07f66f     ..X?.K.?..X?o..?
   1ca44:	3f591e6a 3f07a136 3f59539c 3f074be8     j.Y?6..?.SY?.K.?
   1ca54:	3f5988ad 3f06f686 3f59bd9c 3f06a10e     ..Y?...?..Y?...?
   1ca64:	3f59f26a 3f064b82 3f5a2716 3f05f5e2     j.Y?.K.?.'Z?...?
   1ca74:	3f5a5ba0 3f05a02c 3f5a9009 3f054a62     .[Z?,..?..Z?bJ.?
   1ca84:	3f5ac450 3f04f484 3f5af875 3f049e91     P.Z?...?u.Z?...?
   1ca94:	3f5b2c79 3f044889 3f5b605a 3f03f26d     y,[?.H.?Z`[?m..?
   1caa4:	3f5b941a 3f039c3d 3f5bc7b8 3f0345f8     ..[?=..?..[?.E.?
   1cab4:	3f5bfb34 3f02ef9f 3f5c2e8e 3f029932     4.[?...?..\?2..?
   1cac4:	3f5c61c7 3f0242b1 3f5c94dd 3f01ec1c     .a\?.B.?..\?...?
   1cad4:	3f5cc7d1 3f019573 3f5cfaa3 3f013eb5     ..\?s..?..\?.>.?
   1cae4:	3f5d2d53 3f00e7e4 3f5d5fe1 3f0090ff     S-]?...?._]?...?
   1caf4:	3f5d924d 3f003a06 3f5dc497 3effc5f3     M.]?.:.?..]?...>
   1cb04:	3f5df6be 3eff17b2 3f5e28c3 3efe694a     ..]?...>.(^?Ji.>
   1cb14:	3f5e5aa6 3efdbabb 3f5e8c67 3efd0c04     .Z^?...>g.^?...>
   1cb24:	3f5ebe05 3efc5d27 3f5eef81 3efbae22     ..^?'].>..^?"..>
   1cb34:	3f5f20db 3efafef7 3f5f5212 3efa4fa5     . _?...>.R_?.O.>
   1cb44:	3f5f8327 3ef9a02d 3f5fb419 3ef8f08e     '._?-..>.._?...>
   1cb54:	3f5fe4e9 3ef840c8 3f601596 3ef790dc     .._?.@.>..`?...>
   1cb64:	3f604621 3ef6e0cb 3f607689 3ef63093     !F`?...>.v`?.0.>
   1cb74:	3f60a6cf 3ef58035 3f60d6f2 3ef4cfb1     ..`?5..>..`?...>
   1cb84:	3f6106f2 3ef41f07 3f6136d0 3ef36e38     ..a?...>.6a?8n.>
   1cb94:	3f61668a 3ef2bd43 3f619622 3ef20c29     .fa?C..>".a?)..>
   1cba4:	3f61c598 3ef15aea 3f61f4ea 3ef0a985     ..a?.Z.>..a?...>
   1cbb4:	3f62241a 3eeff7fb 3f625326 3eef464c     .$b?...>&Sb?LF.>
   1cbc4:	3f628210 3eee9479 3f62b0d7 3eede280     ..b?y..>..b?...>
   1cbd4:	3f62df7b 3eed3063 3f630dfc 3eec7e21     {.b?c0.>..c?!~.>
   1cbe4:	3f633c5a 3eebcbbb 3f636a95 3eeb1930     Z<c?...>.jc?0..>
   1cbf4:	3f6398ac 3eea6681 3f63c6a1 3ee9b3ae     ..c?.f.>..c?...>
   1cc04:	3f63f473 3ee900b7 3f642221 3ee84d9c     s.c?...>!"d?.M.>
   1cc14:	3f644fac 3ee79a5d 3f647d14 3ee6e6fb     .Od?]..>.}d?...>
   1cc24:	3f64aa59 3ee63375 3f64d77b 3ee57fcb     Y.d?u3.>{.d?...>
   1cc34:	3f650479 3ee4cbfe 3f653154 3ee4180e     y.e?...>T1e?...>
   1cc44:	3f655e0b 3ee363fa 3f658aa0 3ee2afc4     .^e?.c.>..e?...>
   1cc54:	3f65b710 3ee1fb6a 3f65e35e 3ee146ee     ..e?j..>^.e?.F.>
   1cc64:	3f660f88 3ee0924f 3f663b8e 3edfdd8d     ..f?O..>.;f?...>
   1cc74:	3f666771 3edf28a9 3f669330 3ede73a2     qgf?.(.>0.f?.s.>
   1cc84:	3f66becc 3eddbe79 3f66ea45 3edd092e     ..f?y..>E.f?...>
   1cc94:	3f671599 3edc53c1 3f6740ca 3edb9e31     ..g?.S.>.@g?1..>
   1cca4:	3f676bd8 3edae880 3f6796c1 3eda32ad     .kg?...>..g?.2.>
   1ccb4:	3f67c187 3ed97cb9 3f67ec2a 3ed8c6a3     ..g?.|.>*.g?...>
   1ccc4:	3f6816a8 3ed8106b 3f684103 3ed75a13     ..h?k..>.Ah?.Z.>
   1ccd4:	3f686b39 3ed6a399 3f68954c 3ed5ecfd     9kh?...>L.h?...>
   1cce4:	3f68bf3c 3ed53641 3f68e907 3ed47f64     <.h?A6.>..h?d..>
   1ccf4:	3f6912ae 3ed3c867 3f693c32 3ed31148     ..i?g..>2<i?H..>
   1cd04:	3f696591 3ed25a09 3f698ecc 3ed1a2aa     .ei?.Z.>..i?...>
   1cd14:	3f69b7e4 3ed0eb2a 3f69e0d7 3ed0338a     ..i?*..>..i?.3.>
   1cd24:	3f6a09a7 3ecf7bca 3f6a3252 3ecec3ea     ..j?.{.>R2j?...>
   1cd34:	3f6a5ad9 3ece0bea 3f6a833c 3ecd53ca     .Zj?...><.j?.S.>
   1cd44:	3f6aab7b 3ecc9b8b 3f6ad395 3ecbe32c     {.j?...>..j?,..>
   1cd54:	3f6afb8c 3ecb2aae 3f6b235e 3eca7210     ..j?.*.>^#k?.r.>
   1cd64:	3f6b4b0c 3ec9b953 3f6b7295 3ec90077     .Kk?S..>.rk?w..>
   1cd74:	3f6b99fb 3ec8477c 3f6bc13b 3ec78e62     ..k?|G.>;.k?b..>
   1cd84:	3f6be858 3ec6d529 3f6c0f50 3ec61bd2     X.k?)..>P.l?...>
   1cd94:	3f6c3624 3ec5625c 3f6c5cd4 3ec4a8c8     $6l?\b.>.\l?...>
   1cda4:	3f6c835e 3ec3ef15 3f6ca9c5 3ec33544     ^.l?...>..l?D5.>
   1cdb4:	3f6cd007 3ec27b55 3f6cf624 3ec1c148     ..l?U{.>$.l?H..>
   1cdc4:	3f6d1c1d 3ec1071e 3f6d41f2 3ec04cd5     ..m?...>.Am?.L.>
   1cdd4:	3f6d67a1 3ebf926f 3f6d8d2d 3ebed7eb     .gm?o..>-.m?...>
   1cde4:	3f6db293 3ebe1d4a 3f6dd7d5 3ebd628b     ..m?J..>..m?.b.>
   1cdf4:	3f6dfcf2 3ebca7af 3f6e21eb 3ebbecb6     ..m?...>.!n?...>
   1ce04:	3f6e46be 3ebb31a0 3f6e6b6d 3eba766e     .Fn?.1.>mkn?nv.>
   1ce14:	3f6e8ff8 3eb9bb1e 3f6eb45d 3eb8ffb2     ..n?...>].n?...>
   1ce24:	3f6ed89e 3eb8442a 3f6efcba 3eb78884     ..n?*D.>..n?...>
   1ce34:	3f6f20b0 3eb6ccc3 3f6f4483 3eb610e6     . o?...>.Do?...>
   1ce44:	3f6f6830 3eb554ec 3f6f8bb8 3eb498d6     0ho?.T.>..o?...>
   1ce54:	3f6faf1b 3eb3dca5 3f6fd25a 3eb32058     ..o?...>Z.o?X .>
   1ce64:	3f6ff573 3eb263ef 3f701867 3eb1a76b     s.o?.c.>g.p?k..>
   1ce74:	3f703b37 3eb0eacb 3f705de1 3eb02e10     7;p?...>.]p?...>
   1ce84:	3f708066 3eaf713a 3f70a2c6 3eaeb449     f.p?:q.>..p?I..>
   1ce94:	3f70c502 3eadf73c 3f70e717 3ead3a15     ..p?<..>..p?.:.>
   1cea4:	3f710908 3eac7cd4 3f712ad4 3eabbf77     ..q?.|.>.*q?w..>
   1ceb4:	3f714c7a 3eab0201 3f716dfb 3eaa446f     zLq?...>.mq?oD.>
   1cec4:	3f718f57 3ea986c4 3f71b08e 3ea8c8fe     W.q?...>..q?...>
   1ced4:	3f71d19f 3ea80b1f 3f71f28c 3ea74d25     ..q?...>..q?%M.>
   1cee4:	3f721352 3ea68f12 3f7233f4 3ea5d0e5     R.r?...>.3r?...>
   1cef4:	3f725470 3ea5129f 3f7274c7 3ea4543f     pTr?...>.tr??T.>
   1cf04:	3f7294f8 3ea395c5 3f72b504 3ea2d733     ..r?...>..r?3..>
   1cf14:	3f72d4eb 3ea21887 3f72f4ac 3ea159c2     ..r?...>..r?.Y.>
   1cf24:	3f731447 3ea09ae5 3f7333be 3e9fdbee     G.s?...>.3s?...>
   1cf34:	3f73530e 3e9f1cdf 3f737239 3e9e5db8     .Ss?...>9rs?.].>
   1cf44:	3f73913f 3e9d9e78 3f73b01f 3e9cdf20     ?.s?x..>..s? ..>
   1cf54:	3f73ced9 3e9c1faf 3f73ed6e 3e9b6027     ..s?...>n.s?'`.>
   1cf64:	3f740bdd 3e9aa086 3f742a27 3e99e0ce     ..t?...>'*t?...>
   1cf74:	3f74484b 3e9920fe 3f746649 3e986116     KHt?. .>Ift?.a.>
   1cf84:	3f748422 3e97a117 3f74a1d5 3e96e100     ".t?...>..t?...>
   1cf94:	3f74bf62 3e9620d2 3f74dcc9 3e95608d     b.t?. .>..t?.`.>
   1cfa4:	3f74fa0b 3e94a031 3f751727 3e93dfbf     ..t?1..>'.u?...>
   1cfb4:	3f75341d 3e931f35 3f7550ed 3e925e94     .4u?5..>.Pu?.^.>
   1cfc4:	3f756d97 3e919ddd 3f758a1c 3e90dd10     .mu?...>..u?...>
   1cfd4:	3f75a67b 3e901c2c 3f75c2b3 3e8f5b32     {.u?,..>..u?2[.>
   1cfe4:	3f75dec6 3e8e9a22 3f75fab3 3e8dd8fc     ..u?"..>..u?...>
   1cff4:	3f76167a 3e8d17c0 3f76321b 3e8c566e     z.v?...>.2v?nV.>
   1d004:	3f764d97 3e8b9507 3f7668ec 3e8ad38a     .Mv?...>.hv?...>
   1d014:	3f76841b 3e8a11f8 3f769f24 3e895050     ..v?...>$.v?PP.>
   1d024:	3f76ba07 3e888e93 3f76d4c4 3e87ccc1     ..v?...>..v?...>
   1d034:	3f76ef5b 3e870ada 3f7709cc 3e8648df     [.v?...>..w?.H.>
   1d044:	3f772417 3e8586ce 3f773e3c 3e84c4aa     .$w?...><>w?...>
   1d054:	3f77583a 3e840270 3f777213 3e834022     :Xw?p..>.rw?"@.>
   1d064:	3f778bc5 3e827dc0 3f77a551 3e81bb4a     ..w?.}.>Q.w?J..>
   1d074:	3f77beb7 3e80f8c0 3f77d7f7 3e803622     ..w?...>..w?"6.>
   1d084:	3f77f110 3e7ee6e1 3f780a04 3e7d6156     ..w?..~>..x?Va}>
   1d094:	3f7822d1 3e7bdba4 3f783b77 3e7a55cb     ."x?..{>w;x?.Uz>
   1d0a4:	3f7853f8 3e78cfcc 3f786c52 3e7749a6     .Sx?..x>Rlx?.Iw>
   1d0b4:	3f788486 3e75c35a 3f789c93 3e743ce8     ..x?Z.u>..x?.<t>
   1d0c4:	3f78b47b 3e72b651 3f78cc3b 3e712f94     {.x?Q.r>;.x?./q>
   1d0d4:	3f78e3d6 3e6fa8b2 3f78fb4a 3e6e21ab     ..x?..o>J.x?.!n>
   1d0e4:	3f791298 3e6c9a7f 3f7929bf 3e6b132f     ..y?..l>.)y?/.k>
   1d0f4:	3f7940c0 3e698bba 3f79579a 3e680422     .@y?..i>.Wy?".h>
   1d104:	3f796e4e 3e667c66 3f7984dc 3e64f486     Nny?f|f>..y?..d>
   1d114:	3f799b43 3e636c83 3f79b183 3e61e45c     C.y?.lc>..y?\.a>
   1d124:	3f79c79d 3e605c13 3f79dd91 3e5ed3a8     ..y?.\`>..y?..^>
   1d134:	3f79f35e 3e5d4b1a 3f7a0904 3e5bc26a     ^.y?.K]>..z?j.[>
   1d144:	3f7a1e84 3e5a3997 3f7a33dd 3e58b0a4     ..z?.9Z>.3z?..X>
   1d154:	3f7a4910 3e57278f 3f7a5e1c 3e559e58     .Iz?.'W>.^z?X.U>
   1d164:	3f7a7302 3e541501 3f7a87c1 3e528b89     .sz?..T>..z?..R>
   1d174:	3f7a9c59 3e5101f1 3f7ab0cb 3e4f7838     Y.z?..Q>..z?8xO>
   1d184:	3f7ac516 3e4dee60 3f7ad93a 3e4c6467     ..z?`.M>:.z?gdL>
   1d194:	3f7aed37 3e4ada4f 3f7b010e 3e495018     7.z?O.J>..{?.PI>
   1d1a4:	3f7b14be 3e47c5c2 3f7b2848 3e463b4d     ..{?..G>H({?M;F>
   1d1b4:	3f7b3bab 3e44b0b9 3f7b4ee7 3e432607     .;{?..D>.N{?.&C>
   1d1c4:	3f7b61fc 3e419b37 3f7b74ea 3e401049     .a{?7.A>.t{?I.@>
   1d1d4:	3f7b87b2 3e3e853e 3f7b9a53 3e3cfa15     ..{?>.>>S.{?..<>
   1d1e4:	3f7baccd 3e3b6ecf 3f7bbf20 3e39e36c     ..{?.n;> .{?l.9>
   1d1f4:	3f7bd14d 3e3857ec 3f7be353 3e36cc50     M.{?.W8>S.{?P.6>
   1d204:	3f7bf531 3e354098 3f7c06e9 3e33b4c4     1.{?.@5>..|?..3>
   1d214:	3f7c187a 3e3228d4 3f7c29e5 3e309cc9     z.|?.(2>.)|?..0>
   1d224:	3f7c3b28 3e2f10a2 3f7c4c44 3e2d8461     (;|?../>DL|?a.->
   1d234:	3f7c5d3a 3e2bf804 3f7c6e08 3e2a6b8d     :]|?..+>.n|?.k*>
   1d244:	3f7c7eb0 3e28defc 3f7c8f31 3e275251     .~|?..(>1.|?QR'>
   1d254:	3f7c9f8a 3e25c58c 3f7cafbd 3e2438ad     ..|?..%>..|?.8$>
   1d264:	3f7cbfc9 3e22abb6 3f7ccfae 3e211ea5     ..|?..">..|?..!>
   1d274:	3f7cdf6c 3e1f917b 3f7cef03 3e1e0438     l.|?{..>..|?8..>
   1d284:	3f7cfe73 3e1c76de 3f7d0dbc 3e1ae96b     s.|?.v.>..}?k..>
   1d294:	3f7d1cdd 3e195be0 3f7d2bd8 3e17ce3d     ..}?.[.>.+}?=..>
   1d2a4:	3f7d3aac 3e164083 3f7d4959 3e14b2b2     .:}?.@.>YI}?...>
   1d2b4:	3f7d57de 3e1324ca 3f7d663d 3e1196cc     .W}?.$.>=f}?...>
   1d2c4:	3f7d7474 3e1008b7 3f7d8285 3e0e7a8b     tt}?...>..}?.z.>
   1d2d4:	3f7d906e 3e0cec4a 3f7d9e30 3e0b5df3     n.}?J..>0.}?.].>
   1d2e4:	3f7dabcc 3e09cf86 3f7db940 3e084105     ..}?...>@.}?.A.>
   1d2f4:	3f7dc68c 3e06b26e 3f7dd3b2 3e0523c2     ..}?n..>..}?.#.>
   1d304:	3f7de0b1 3e039502 3f7ded88 3e02062e     ..}?...>..}?...>
   1d314:	3f7dfa38 3e007745 3f7e06c2 3dfdd092     8.}?Ew.>..~?...=
   1d324:	3f7e1324 3dfab273 3f7e1f5e 3df7942c     $.~?s..=^.~?,..=
   1d334:	3f7e2b72 3df475c0 3f7e375e 3df1572e     r+~?.u.=^7~?.W.=
   1d344:	3f7e4323 3dee3876 3f7e4ec1 3deb199a     #C~?v8.=.N~?...=
   1d354:	3f7e5a38 3de7fa9a 3f7e6588 3de4db76     8Z~?...=.e~?v..=
   1d364:	3f7e70b0 3de1bc2e 3f7e7bb1 3dde9cc4     .p~?...=.{~?...=
   1d374:	3f7e868b 3ddb7d37 3f7e913d 3dd85d89     ..~?7}.==.~?.].=
   1d384:	3f7e9bc9 3dd53db9 3f7ea62d 3dd21dc8     ..~?.=.=-.~?...=
   1d394:	3f7eb069 3dcefdb7 3f7eba7f 3dcbdd86     i.~?...=..~?...=
   1d3a4:	3f7ec46d 3dc8bd36 3f7ece34 3dc59cc6     m.~?6..=4.~?...=
   1d3b4:	3f7ed7d4 3dc27c39 3f7ee14c 3dbf5b8d     ..~?9|.=L.~?.[.=
   1d3c4:	3f7eea9d 3dbc3ac3 3f7ef3c7 3db919dd     ..~?.:.=..~?...=
   1d3d4:	3f7efcc9 3db5f8da 3f7f05a4 3db2d7bb     ..~?...=...?...=
   1d3e4:	3f7f0e58 3dafb680 3f7f16e4 3dac952b     X..?...=...?+..=
   1d3f4:	3f7f1f49 3da973ba 3f7f2787 3da65230     I..?.s.=.'.?0R.=
   1d404:	3f7f2f9d 3da3308c 3f7f378d 3da00ecf     ./.?.0.=.7.?...=
   1d414:	3f7f3f54 3d9cecf9 3f7f46f4 3d99cb0a     T?.?...=.F.?...=
   1d424:	3f7f4e6d 3d96a905 3f7f55bf 3d9386e7     mN.?...=.U.?...=
   1d434:	3f7f5ce9 3d9064b4 3f7f63ec 3d8d426a     .\.?.d.=.c.?jB.=
   1d444:	3f7f6ac7 3d8a200a 3f7f717b 3d86fd94     .j.?. .={q.?...=
   1d454:	3f7f7808 3d83db0a 3f7f7e6d 3d80b86c     .x.?...=m~.?l..=
   1d464:	3f7f84ab 3d7b2b74 3f7f8ac2 3d74e5e9     ...?t+{=...?..t=
   1d474:	3f7f90b1 3d6ea038 3f7f9678 3d685a62     ...?8.n=x..?bZh=
   1d484:	3f7f9c18 3d621468 3f7fa191 3d5bce4c     ...?h.b=...?L.[=
   1d494:	3f7fa6e3 3d55880e 3f7fac0d 3d4f41af     ...?..U=...?.AO=
   1d4a4:	3f7fb10f 3d48fb2f 3f7fb5ea 3d42b491     ...?/.H=...?..B=
   1d4b4:	3f7fba9e 3d3c6dd5 3f7fbf2a 3d3626fc     ...?.m<=*..?.&6=
   1d4c4:	3f7fc38f 3d2fe007 3f7fc7cc 3d2998f6     ...?../=...?..)=
   1d4d4:	3f7fcbe2 3d2351cc 3f7fcfd1 3d1d0a88     ...?.Q#=...?...=
   1d4e4:	3f7fd398 3d16c32c 3f7fd737 3d107bb8     ...?,..=7..?.{.=
   1d4f4:	3f7fdaaf 3d0a342f 3f7fde00 3d03ec90     ...?/4.=...?...=
   1d504:	3f7fe129 3cfb49b9 3f7fe42b 3ceeba2d     )..?.I.<+..?-..<
   1d514:	3f7fe705 3ce22a7b 3f7fe9b8 3cd59aa6     ...?{*.<...?...<
   1d524:	3f7fec43 3cc90ab0 3f7feea7 3cbc7a9b     C..?...<...?.z.<
   1d534:	3f7ff0e3 3cafea69 3f7ff2f8 3ca35a1c     ...?i..<...?.Z.<
   1d544:	3f7ff4e6 3c96c9b6 3f7ff6ac 3c8a3938     ...?...<...?89.<
   1d554:	3f7ff84a 3c7b514b 3f7ff9c1 3c623000     J..?KQ{<...?.0b<
   1d564:	3f7ffb11 3c490e90 3f7ffc39 3c2fed02     ...?..I<9..?../<
   1d574:	3f7ffd39 3c16cb59 3f7ffe13 3bfb5330     9..?Y..<...?0S.;
   1d584:	3f7ffec4 3bc90f89 3f7fff4e 3b96cbc1     ...?...;N..?...;
   1d594:	3f7fffb1 3b490fc7 3f7fffec 3ac90fd4     ...?..I;...?...:
   1d5a4:	3f800000 00000000 3f7fffec bac90fd4     ...?.......?....
   1d5b4:	3f7fffb1 bb490fc7 3f7fff4e bb96cbc1     ...?..I.N..?....
   1d5c4:	3f7ffec4 bbc90f89 3f7ffe13 bbfb5330     ...?.......?0S..
   1d5d4:	3f7ffd39 bc16cb59 3f7ffc39 bc2fed02     9..?Y...9..?../.
   1d5e4:	3f7ffb11 bc490e90 3f7ff9c1 bc623000     ...?..I....?.0b.
   1d5f4:	3f7ff84a bc7b514b 3f7ff6ac bc8a3938     J..?KQ{....?89..
   1d604:	3f7ff4e6 bc96c9b6 3f7ff2f8 bca35a1c     ...?.......?.Z..
   1d614:	3f7ff0e3 bcafea69 3f7feea7 bcbc7a9b     ...?i......?.z..
   1d624:	3f7fec43 bcc90ab0 3f7fe9b8 bcd59aa6     C..?.......?....
   1d634:	3f7fe705 bce22a7b 3f7fe42b bceeba2d     ...?{*..+..?-...
   1d644:	3f7fe129 bcfb49b9 3f7fde00 bd03ec90     )..?.I.....?....
   1d654:	3f7fdaaf bd0a342f 3f7fd737 bd107bb8     ...?/4..7..?.{..
   1d664:	3f7fd398 bd16c32c 3f7fcfd1 bd1d0a88     ...?,......?....
   1d674:	3f7fcbe2 bd2351cc 3f7fc7cc bd2998f6     ...?.Q#....?..).
   1d684:	3f7fc38f bd2fe007 3f7fbf2a bd3626fc     ...?../.*..?.&6.
   1d694:	3f7fba9e bd3c6dd5 3f7fb5ea bd42b491     ...?.m<....?..B.
   1d6a4:	3f7fb10f bd48fb2f 3f7fac0d bd4f41af     ...?/.H....?.AO.
   1d6b4:	3f7fa6e3 bd55880e 3f7fa191 bd5bce4c     ...?..U....?L.[.
   1d6c4:	3f7f9c18 bd621468 3f7f9678 bd685a62     ...?h.b.x..?bZh.
   1d6d4:	3f7f90b1 bd6ea038 3f7f8ac2 bd74e5e9     ...?8.n....?..t.
   1d6e4:	3f7f84ab bd7b2b74 3f7f7e6d bd80b86c     ...?t+{.m~.?l...
   1d6f4:	3f7f7808 bd83db0a 3f7f717b bd86fd94     .x.?....{q.?....
   1d704:	3f7f6ac7 bd8a200a 3f7f63ec bd8d426a     .j.?. ...c.?jB..
   1d714:	3f7f5ce9 bd9064b4 3f7f55bf bd9386e7     .\.?.d...U.?....
   1d724:	3f7f4e6d bd96a905 3f7f46f4 bd99cb0a     mN.?.....F.?....
   1d734:	3f7f3f54 bd9cecf9 3f7f378d bda00ecf     T?.?.....7.?....
   1d744:	3f7f2f9d bda3308c 3f7f2787 bda65230     ./.?.0...'.?0R..
   1d754:	3f7f1f49 bda973ba 3f7f16e4 bdac952b     I..?.s.....?+...
   1d764:	3f7f0e58 bdafb680 3f7f05a4 bdb2d7bb     X..?.......?....
   1d774:	3f7efcc9 bdb5f8da 3f7ef3c7 bdb919dd     ..~?......~?....
   1d784:	3f7eea9d bdbc3ac3 3f7ee14c bdbf5b8d     ..~?.:..L.~?.[..
   1d794:	3f7ed7d4 bdc27c39 3f7ece34 bdc59cc6     ..~?9|..4.~?....
   1d7a4:	3f7ec46d bdc8bd36 3f7eba7f bdcbdd86     m.~?6.....~?....
   1d7b4:	3f7eb069 bdcefdb7 3f7ea62d bdd21dc8     i.~?....-.~?....
   1d7c4:	3f7e9bc9 bdd53db9 3f7e913d bdd85d89     ..~?.=..=.~?.]..
   1d7d4:	3f7e868b bddb7d37 3f7e7bb1 bdde9cc4     ..~?7}...{~?....
   1d7e4:	3f7e70b0 bde1bc2e 3f7e6588 bde4db76     .p~?.....e~?v...
   1d7f4:	3f7e5a38 bde7fa9a 3f7e4ec1 bdeb199a     8Z~?.....N~?....
   1d804:	3f7e4323 bdee3876 3f7e375e bdf1572e     #C~?v8..^7~?.W..
   1d814:	3f7e2b72 bdf475c0 3f7e1f5e bdf7942c     r+~?.u..^.~?,...
   1d824:	3f7e1324 bdfab273 3f7e06c2 bdfdd092     $.~?s.....~?....
   1d834:	3f7dfa38 be007745 3f7ded88 be02062e     8.}?Ew....}?....
   1d844:	3f7de0b1 be039502 3f7dd3b2 be0523c2     ..}?......}?.#..
   1d854:	3f7dc68c be06b26e 3f7db940 be084105     ..}?n...@.}?.A..
   1d864:	3f7dabcc be09cf86 3f7d9e30 be0b5df3     ..}?....0.}?.]..
   1d874:	3f7d906e be0cec4a 3f7d8285 be0e7a8b     n.}?J.....}?.z..
   1d884:	3f7d7474 be1008b7 3f7d663d be1196cc     tt}?....=f}?....
   1d894:	3f7d57de be1324ca 3f7d4959 be14b2b2     .W}?.$..YI}?....
   1d8a4:	3f7d3aac be164083 3f7d2bd8 be17ce3d     .:}?.@...+}?=...
   1d8b4:	3f7d1cdd be195be0 3f7d0dbc be1ae96b     ..}?.[....}?k...
   1d8c4:	3f7cfe73 be1c76de 3f7cef03 be1e0438     s.|?.v....|?8...
   1d8d4:	3f7cdf6c be1f917b 3f7ccfae be211ea5     l.|?{.....|?..!.
   1d8e4:	3f7cbfc9 be22abb6 3f7cafbd be2438ad     ..|?.."...|?.8$.
   1d8f4:	3f7c9f8a be25c58c 3f7c8f31 be275251     ..|?..%.1.|?QR'.
   1d904:	3f7c7eb0 be28defc 3f7c6e08 be2a6b8d     .~|?..(..n|?.k*.
   1d914:	3f7c5d3a be2bf804 3f7c4c44 be2d8461     :]|?..+.DL|?a.-.
   1d924:	3f7c3b28 be2f10a2 3f7c29e5 be309cc9     (;|?../..)|?..0.
   1d934:	3f7c187a be3228d4 3f7c06e9 be33b4c4     z.|?.(2...|?..3.
   1d944:	3f7bf531 be354098 3f7be353 be36cc50     1.{?.@5.S.{?P.6.
   1d954:	3f7bd14d be3857ec 3f7bbf20 be39e36c     M.{?.W8. .{?l.9.
   1d964:	3f7baccd be3b6ecf 3f7b9a53 be3cfa15     ..{?.n;.S.{?..<.
   1d974:	3f7b87b2 be3e853e 3f7b74ea be401049     ..{?>.>..t{?I.@.
   1d984:	3f7b61fc be419b37 3f7b4ee7 be432607     .a{?7.A..N{?.&C.
   1d994:	3f7b3bab be44b0b9 3f7b2848 be463b4d     .;{?..D.H({?M;F.
   1d9a4:	3f7b14be be47c5c2 3f7b010e be495018     ..{?..G...{?.PI.
   1d9b4:	3f7aed37 be4ada4f 3f7ad93a be4c6467     7.z?O.J.:.z?gdL.
   1d9c4:	3f7ac516 be4dee60 3f7ab0cb be4f7838     ..z?`.M...z?8xO.
   1d9d4:	3f7a9c59 be5101f1 3f7a87c1 be528b89     Y.z?..Q...z?..R.
   1d9e4:	3f7a7302 be541501 3f7a5e1c be559e58     .sz?..T..^z?X.U.
   1d9f4:	3f7a4910 be57278f 3f7a33dd be58b0a4     .Iz?.'W..3z?..X.
   1da04:	3f7a1e84 be5a3997 3f7a0904 be5bc26a     ..z?.9Z...z?j.[.
   1da14:	3f79f35e be5d4b1a 3f79dd91 be5ed3a8     ^.y?.K]...y?..^.
   1da24:	3f79c79d be605c13 3f79b183 be61e45c     ..y?.\`...y?\.a.
   1da34:	3f799b43 be636c83 3f7984dc be64f486     C.y?.lc...y?..d.
   1da44:	3f796e4e be667c66 3f79579a be680422     Nny?f|f..Wy?".h.
   1da54:	3f7940c0 be698bba 3f7929bf be6b132f     .@y?..i..)y?/.k.
   1da64:	3f791298 be6c9a7f 3f78fb4a be6e21ab     ..y?..l.J.x?.!n.
   1da74:	3f78e3d6 be6fa8b2 3f78cc3b be712f94     ..x?..o.;.x?./q.
   1da84:	3f78b47b be72b651 3f789c93 be743ce8     {.x?Q.r...x?.<t.
   1da94:	3f788486 be75c35a 3f786c52 be7749a6     ..x?Z.u.Rlx?.Iw.
   1daa4:	3f7853f8 be78cfcc 3f783b77 be7a55cb     .Sx?..x.w;x?.Uz.
   1dab4:	3f7822d1 be7bdba4 3f780a04 be7d6156     ."x?..{...x?Va}.
   1dac4:	3f77f110 be7ee6e1 3f77d7f7 be803622     ..w?..~...w?"6..
   1dad4:	3f77beb7 be80f8c0 3f77a551 be81bb4a     ..w?....Q.w?J...
   1dae4:	3f778bc5 be827dc0 3f777213 be834022     ..w?.}...rw?"@..
   1daf4:	3f77583a be840270 3f773e3c be84c4aa     :Xw?p...<>w?....
   1db04:	3f772417 be8586ce 3f7709cc be8648df     .$w?......w?.H..
   1db14:	3f76ef5b be870ada 3f76d4c4 be87ccc1     [.v?......v?....
   1db24:	3f76ba07 be888e93 3f769f24 be895050     ..v?....$.v?PP..
   1db34:	3f76841b be8a11f8 3f7668ec be8ad38a     ..v?.....hv?....
   1db44:	3f764d97 be8b9507 3f76321b be8c566e     .Mv?.....2v?nV..
   1db54:	3f76167a be8d17c0 3f75fab3 be8dd8fc     z.v?......u?....
   1db64:	3f75dec6 be8e9a22 3f75c2b3 be8f5b32     ..u?".....u?2[..
   1db74:	3f75a67b be901c2c 3f758a1c be90dd10     {.u?,.....u?....
   1db84:	3f756d97 be919ddd 3f7550ed be925e94     .mu?.....Pu?.^..
   1db94:	3f75341d be931f35 3f751727 be93dfbf     .4u?5...'.u?....
   1dba4:	3f74fa0b be94a031 3f74dcc9 be95608d     ..t?1.....t?.`..
   1dbb4:	3f74bf62 be9620d2 3f74a1d5 be96e100     b.t?. ....t?....
   1dbc4:	3f748422 be97a117 3f746649 be986116     ".t?....Ift?.a..
   1dbd4:	3f74484b be9920fe 3f742a27 be99e0ce     KHt?. ..'*t?....
   1dbe4:	3f740bdd be9aa086 3f73ed6e be9b6027     ..t?....n.s?'`..
   1dbf4:	3f73ced9 be9c1faf 3f73b01f be9cdf20     ..s?......s? ...
   1dc04:	3f73913f be9d9e78 3f737239 be9e5db8     ?.s?x...9rs?.]..
   1dc14:	3f73530e be9f1cdf 3f7333be be9fdbee     .Ss?.....3s?....
   1dc24:	3f731447 bea09ae5 3f72f4ac bea159c2     G.s?......r?.Y..
   1dc34:	3f72d4eb bea21887 3f72b504 bea2d733     ..r?......r?3...
   1dc44:	3f7294f8 bea395c5 3f7274c7 bea4543f     ..r?.....tr??T..
   1dc54:	3f725470 bea5129f 3f7233f4 bea5d0e5     pTr?.....3r?....
   1dc64:	3f721352 bea68f12 3f71f28c bea74d25     R.r?......q?%M..
   1dc74:	3f71d19f bea80b1f 3f71b08e bea8c8fe     ..q?......q?....
   1dc84:	3f718f57 bea986c4 3f716dfb beaa446f     W.q?.....mq?oD..
   1dc94:	3f714c7a beab0201 3f712ad4 beabbf77     zLq?.....*q?w...
   1dca4:	3f710908 beac7cd4 3f70e717 bead3a15     ..q?.|....p?.:..
   1dcb4:	3f70c502 beadf73c 3f70a2c6 beaeb449     ..p?<.....p?I...
   1dcc4:	3f708066 beaf713a 3f705de1 beb02e10     f.p?:q...]p?....
   1dcd4:	3f703b37 beb0eacb 3f701867 beb1a76b     7;p?....g.p?k...
   1dce4:	3f6ff573 beb263ef 3f6fd25a beb32058     s.o?.c..Z.o?X ..
   1dcf4:	3f6faf1b beb3dca5 3f6f8bb8 beb498d6     ..o?......o?....
   1dd04:	3f6f6830 beb554ec 3f6f4483 beb610e6     0ho?.T...Do?....
   1dd14:	3f6f20b0 beb6ccc3 3f6efcba beb78884     . o?......n?....
   1dd24:	3f6ed89e beb8442a 3f6eb45d beb8ffb2     ..n?*D..].n?....
   1dd34:	3f6e8ff8 beb9bb1e 3f6e6b6d beba766e     ..n?....mkn?nv..
   1dd44:	3f6e46be bebb31a0 3f6e21eb bebbecb6     .Fn?.1...!n?....
   1dd54:	3f6dfcf2 bebca7af 3f6dd7d5 bebd628b     ..m?......m?.b..
   1dd64:	3f6db293 bebe1d4a 3f6d8d2d bebed7eb     ..m?J...-.m?....
   1dd74:	3f6d67a1 bebf926f 3f6d41f2 bec04cd5     .gm?o....Am?.L..
   1dd84:	3f6d1c1d bec1071e 3f6cf624 bec1c148     ..m?....$.l?H...
   1dd94:	3f6cd007 bec27b55 3f6ca9c5 bec33544     ..l?U{....l?D5..
   1dda4:	3f6c835e bec3ef15 3f6c5cd4 bec4a8c8     ^.l?.....\l?....
   1ddb4:	3f6c3624 bec5625c 3f6c0f50 bec61bd2     $6l?\b..P.l?....
   1ddc4:	3f6be858 bec6d529 3f6bc13b bec78e62     X.k?)...;.k?b...
   1ddd4:	3f6b99fb bec8477c 3f6b7295 bec90077     ..k?|G...rk?w...
   1dde4:	3f6b4b0c bec9b953 3f6b235e beca7210     .Kk?S...^#k?.r..
   1ddf4:	3f6afb8c becb2aae 3f6ad395 becbe32c     ..j?.*....j?,...
   1de04:	3f6aab7b becc9b8b 3f6a833c becd53ca     {.j?....<.j?.S..
   1de14:	3f6a5ad9 bece0bea 3f6a3252 becec3ea     .Zj?....R2j?....
   1de24:	3f6a09a7 becf7bca 3f69e0d7 bed0338a     ..j?.{....i?.3..
   1de34:	3f69b7e4 bed0eb2a 3f698ecc bed1a2aa     ..i?*.....i?....
   1de44:	3f696591 bed25a09 3f693c32 bed31148     .ei?.Z..2<i?H...
   1de54:	3f6912ae bed3c867 3f68e907 bed47f64     ..i?g.....h?d...
   1de64:	3f68bf3c bed53641 3f68954c bed5ecfd     <.h?A6..L.h?....
   1de74:	3f686b39 bed6a399 3f684103 bed75a13     9kh?.....Ah?.Z..
   1de84:	3f6816a8 bed8106b 3f67ec2a bed8c6a3     ..h?k...*.g?....
   1de94:	3f67c187 bed97cb9 3f6796c1 beda32ad     ..g?.|....g?.2..
   1dea4:	3f676bd8 bedae880 3f6740ca bedb9e31     .kg?.....@g?1...
   1deb4:	3f671599 bedc53c1 3f66ea45 bedd092e     ..g?.S..E.f?....
   1dec4:	3f66becc beddbe79 3f669330 bede73a2     ..f?y...0.f?.s..
   1ded4:	3f666771 bedf28a9 3f663b8e bedfdd8d     qgf?.(...;f?....
   1dee4:	3f660f88 bee0924f 3f65e35e bee146ee     ..f?O...^.e?.F..
   1def4:	3f65b710 bee1fb6a 3f658aa0 bee2afc4     ..e?j.....e?....
   1df04:	3f655e0b bee363fa 3f653154 bee4180e     .^e?.c..T1e?....
   1df14:	3f650479 bee4cbfe 3f64d77b bee57fcb     y.e?....{.d?....
   1df24:	3f64aa59 bee63375 3f647d14 bee6e6fb     Y.d?u3...}d?....
   1df34:	3f644fac bee79a5d 3f642221 bee84d9c     .Od?]...!"d?.M..
   1df44:	3f63f473 bee900b7 3f63c6a1 bee9b3ae     s.c?......c?....
   1df54:	3f6398ac beea6681 3f636a95 beeb1930     ..c?.f...jc?0...
   1df64:	3f633c5a beebcbbb 3f630dfc beec7e21     Z<c?......c?!~..
   1df74:	3f62df7b beed3063 3f62b0d7 beede280     {.b?c0....b?....
   1df84:	3f628210 beee9479 3f625326 beef464c     ..b?y...&Sb?LF..
   1df94:	3f62241a beeff7fb 3f61f4ea bef0a985     .$b?......a?....
   1dfa4:	3f61c598 bef15aea 3f619622 bef20c29     ..a?.Z..".a?)...
   1dfb4:	3f61668a bef2bd43 3f6136d0 bef36e38     .fa?C....6a?8n..
   1dfc4:	3f6106f2 bef41f07 3f60d6f2 bef4cfb1     ..a?......`?....
   1dfd4:	3f60a6cf bef58035 3f607689 bef63093     ..`?5....v`?.0..
   1dfe4:	3f604621 bef6e0cb 3f601596 bef790dc     !F`?......`?....
   1dff4:	3f5fe4e9 bef840c8 3f5fb419 bef8f08e     .._?.@...._?....
   1e004:	3f5f8327 bef9a02d 3f5f5212 befa4fa5     '._?-....R_?.O..
   1e014:	3f5f20db befafef7 3f5eef81 befbae22     . _?......^?"...
   1e024:	3f5ebe05 befc5d27 3f5e8c67 befd0c04     ..^?']..g.^?....
   1e034:	3f5e5aa6 befdbabb 3f5e28c3 befe694a     .Z^?.....(^?Ji..
   1e044:	3f5df6be beff17b2 3f5dc497 beffc5f3     ..]?......]?....
   1e054:	3f5d924d bf003a06 3f5d5fe1 bf0090ff     M.]?.:..._]?....
   1e064:	3f5d2d53 bf00e7e4 3f5cfaa3 bf013eb5     S-]?......\?.>..
   1e074:	3f5cc7d1 bf019573 3f5c94dd bf01ec1c     ..\?s.....\?....
   1e084:	3f5c61c7 bf0242b1 3f5c2e8e bf029932     .a\?.B....\?2...
   1e094:	3f5bfb34 bf02ef9f 3f5bc7b8 bf0345f8     4.[?......[?.E..
   1e0a4:	3f5b941a bf039c3d 3f5b605a bf03f26d     ..[?=...Z`[?m...
   1e0b4:	3f5b2c79 bf044889 3f5af875 bf049e91     y,[?.H..u.Z?....
   1e0c4:	3f5ac450 bf04f484 3f5a9009 bf054a62     P.Z?......Z?bJ..
   1e0d4:	3f5a5ba0 bf05a02c 3f5a2716 bf05f5e2     .[Z?,....'Z?....
   1e0e4:	3f59f26a bf064b82 3f59bd9c bf06a10e     j.Y?.K....Y?....
   1e0f4:	3f5988ad bf06f686 3f59539c bf074be8     ..Y?.....SY?.K..
   1e104:	3f591e6a bf07a136 3f58e917 bf07f66f     j.Y?6.....X?o...
   1e114:	3f58b3a1 bf084b92 3f587e0b bf08a0a1     ..X?.K...~X?....
   1e124:	3f584853 bf08f59b 3f581279 bf094a7f     SHX?....y.X?.J..
   1e134:	3f57dc7f bf099f4e 3f57a663 bf09f409     ..W?N...c.W?....
   1e144:	3f577026 bf0a48ad 3f5739c7 bf0a9d3d     &pW?.H...9W?=...
   1e154:	3f570348 bf0af1b7 3f56cca7 bf0b461c     H.W?......V?.F..
   1e164:	3f5695e5 bf0b9a6b 3f565f02 bf0beea5     ..V?k...._V?....
   1e174:	3f5627fe bf0c42c9 3f55f0d9 bf0c96d7     .'V?.B....U?....
   1e184:	3f55b993 bf0cead0 3f55822c bf0d3eb3     ..U?....,.U?.>..
   1e194:	3f554aa4 bf0d9281 3f5512fb bf0de638     .JU?......U?8...
   1e1a4:	3f54db31 bf0e39da 3f54a347 bf0e8d65     1.T?.9..G.T?e...
   1e1b4:	3f546b3b bf0ee0db 3f54330f bf0f343b     ;kT?.....3T?;4..
   1e1c4:	3f53fac3 bf0f8784 3f53c255 bf0fdab8     ..S?....U.S?....
   1e1d4:	3f5389c7 bf102dd5 3f535118 bf1080dc     ..S?.-...QS?....
   1e1e4:	3f531849 bf10d3cd 3f52df59 bf1126a7     I.S?....Y.R?.&..
   1e1f4:	3f52a649 bf11796b 3f526d18 bf11cc19     I.R?ky...mR?....
   1e204:	3f5233c6 bf121eb0 3f51fa54 bf127130     .3R?....T.Q?0q..
   1e214:	3f51c0c2 bf12c39a 3f518710 bf1315ee     ..Q?......Q?....
   1e224:	3f514d3d bf13682a 3f51134a bf13ba50     =MQ?*h..J.Q?P...
   1e234:	3f50d937 bf140c5f 3f509f03 bf145e58     7.P?_.....P?X^..
   1e244:	3f5064af bf14b039 3f502a3b bf150204     .dP?9...;*P?....
   1e254:	3f4fefa8 bf1553b7 3f4fb4f4 bf15a554     ..O?.S....O?T...
   1e264:	3f4f7a1f bf15f6d9 3f4f3f2b bf164847     .zO?....+?O?GH..
   1e274:	3f4f0417 bf16999f 3f4ec8e4 bf16eadf     ..O?......N?....
   1e284:	3f4e8d90 bf173c07 3f4e521c bf178d18     ..N?.<...RN?....
   1e294:	3f4e1689 bf17de12 3f4ddad5 bf182ef5     ..N?......M?....
   1e2a4:	3f4d9f02 bf187fc0 3f4d6310 bf18d073     ..M?.....cM?s...
   1e2b4:	3f4d26fd bf19210f 3f4ceacb bf197194     .&M?.!....L?.q..
   1e2c4:	3f4cae79 bf19c200 3f4c7208 bf1a1255     y.L?.....rL?U...
   1e2d4:	3f4c3578 bf1a6293 3f4bf8c7 bf1ab2b8     x5L?.b....K?....
   1e2e4:	3f4bbbf8 bf1b02c6 3f4b7f09 bf1b52bb     ..K?......K?.R..
   1e2f4:	3f4b41fa bf1ba299 3f4b04cc bf1bf25f     .AK?......K?_...
   1e304:	3f4ac77f bf1c420c 3f4a8a13 bf1c91a2     ..J?.B....J?....
   1e314:	3f4a4c87 bf1ce11f 3f4a0edc bf1d3084     .LJ?......J?.0..
   1e324:	3f49d112 bf1d7fd1 3f499329 bf1dcf06     ..I?....).I?....
   1e334:	3f495521 bf1e1e22 3f4916fa bf1e6d26     !UI?".....I?&m..
   1e344:	3f48d8b3 bf1ebc12 3f489a4e bf1f0ae5     ..H?....N.H?....
   1e354:	3f485bca bf1f599f 3f481d27 bf1fa841     .[H?.Y..'.H?A...
   1e364:	3f47de65 bf1ff6cb 3f479f84 bf20453b     e.G?......G?;E .
   1e374:	3f476085 bf209393 3f472167 bf20e1d2     .`G?.. .g!G?.. .
   1e384:	3f46e22a bf212ff9 3f46a2ce bf217e06     *.F?./!...F?.~!.
   1e394:	3f466354 bf21cbfb 3f4623bb bf2219d7     TcF?..!..#F?..".
   1e3a4:	3f45e403 bf226799 3f45a42d bf22b543     ..E?.g".-.E?C.".
   1e3b4:	3f456439 bf2302d3 3f452426 bf23504b     9dE?..#.&$E?KP#.
   1e3c4:	3f44e3f5 bf239da9 3f44a3a5 bf23eaee     ..D?..#...D?..#.
   1e3d4:	3f446337 bf24381a 3f4422ab bf24852c     7cD?.8$.."D?,.$.
   1e3e4:	3f43e200 bf24d225 3f43a138 bf251f04     ..C?%.$.8.C?..%.
   1e3f4:	3f436051 bf256bcb 3f431f4c bf25b877     Q`C?.k%.L.C?w.%.
   1e404:	3f42de29 bf26050a 3f429ce8 bf265184     ).B?..&...B?.Q&.
   1e414:	3f425b89 bf269de3 3f421a0b bf26ea2a     .[B?..&...B?*.&.
   1e424:	3f41d870 bf273656 3f4196b7 bf278268     p.A?V6'...A?h.'.
   1e434:	3f4154e1 bf27ce61 3f4112ec bf281a40     .TA?a.'...A?@.(.
   1e444:	3f40d0da bf286605 3f408ea9 bf28b1b0     ..@?.f(...@?..(.
   1e454:	3f404c5c bf28fd41 3f4009f0 bf2948b8     \L@?A.(...@?.H).
   1e464:	3f3fc767 bf299415 3f3f84c0 bf29df57     g.??..)...??W.).
   1e474:	3f3f41fc bf2a2a80 3f3eff1b bf2a758e     .A??.**...>?.u*.
   1e484:	3f3ebc1b bf2ac082 3f3e78ff bf2b0b5b     ..>?..*..x>?[.+.
   1e494:	3f3e35c5 bf2b561b 3f3df26e bf2ba0bf     .5>?.V+.n.=?..+.
   1e4a4:	3f3daef9 bf2beb4a 3f3d6b67 bf2c35b9     ..=?J.+.gk=?.5,.
   1e4b4:	3f3d27b8 bf2c800f 3f3ce3ec bf2cca49     .'=?..,...<?I.,.
   1e4c4:	3f3ca003 bf2d1469 3f3c5bfc bf2d5e6f     ..<?i.-..[<?o^-.
   1e4d4:	3f3c17d9 bf2da859 3f3bd398 bf2df229     ..<?Y.-...;?).-.
   1e4e4:	3f3b8f3b bf2e3bde 3f3b4ac1 bf2e8578     ;.;?.;...J;?x...
   1e4f4:	3f3b0629 bf2ecef7 3f3ac175 bf2f185b     ).;?....u.:?[./.
   1e504:	3f3a7ca4 bf2f61a5 3f3a37b7 bf2faad3     .|:?.a/..7:?../.
   1e514:	3f39f2ac bf2ff3e6 3f39ad85 bf303cde     ..9?../...9?.<0.
   1e524:	3f396842 bf3085bb 3f3922e1 bf30ce7c     Bh9?..0.."9?|.0.
   1e534:	3f38dd65 bf311722 3f3897cb bf315fad     e.8?".1...8?._1.
   1e544:	3f385216 bf31a81d 3f380c43 bf31f071     .R8?..1.C.8?q.1.
   1e554:	3f37c655 bf3238aa 3f37804a bf3280c7     U.7?.82.J.7?..2.
   1e564:	3f373a23 bf32c8c9 3f36f3df bf3310af     #:7?..2...6?..3.
   1e574:	3f36ad7f bf33587a 3f366704 bf33a029     ..6?zX3..g6?).3.
   1e584:	3f36206c bf33e7bc 3f35d9b8 bf342f34     l 6?..3...5?4/4.
   1e594:	3f3592e7 bf34768f 3f354bfb bf34bdcf     ..5?.v4..K5?..4.
   1e5a4:	3f3504f3 bf3504f3 3f34bdcf bf354bfb     ..5?..5...4?.K5.
   1e5b4:	3f34768f bf3592e7 3f342f34 bf35d9b8     .v4?..5.4/4?..5.
   1e5c4:	3f33e7bc bf36206c 3f33a029 bf366704     ..3?l 6.).3?.g6.
   1e5d4:	3f33587a bf36ad7f 3f3310af bf36f3df     zX3?..6...3?..6.
   1e5e4:	3f32c8c9 bf373a23 3f3280c7 bf37804a     ..2?#:7...2?J.7.
   1e5f4:	3f3238aa bf37c655 3f31f071 bf380c43     .82?U.7.q.1?C.8.
   1e604:	3f31a81d bf385216 3f315fad bf3897cb     ..1?.R8.._1?..8.
   1e614:	3f311722 bf38dd65 3f30ce7c bf3922e1     ".1?e.8.|.0?."9.
   1e624:	3f3085bb bf396842 3f303cde bf39ad85     ..0?Bh9..<0?..9.
   1e634:	3f2ff3e6 bf39f2ac 3f2faad3 bf3a37b7     ../?..9.../?.7:.
   1e644:	3f2f61a5 bf3a7ca4 3f2f185b bf3ac175     .a/?.|:.[./?u.:.
   1e654:	3f2ecef7 bf3b0629 3f2e8578 bf3b4ac1     ...?).;.x..?.J;.
   1e664:	3f2e3bde bf3b8f3b 3f2df229 bf3bd398     .;.?;.;.).-?..;.
   1e674:	3f2da859 bf3c17d9 3f2d5e6f bf3c5bfc     Y.-?..<.o^-?.[<.
   1e684:	3f2d1469 bf3ca003 3f2cca49 bf3ce3ec     i.-?..<.I.,?..<.
   1e694:	3f2c800f bf3d27b8 3f2c35b9 bf3d6b67     ..,?.'=..5,?gk=.
   1e6a4:	3f2beb4a bf3daef9 3f2ba0bf bf3df26e     J.+?..=...+?n.=.
   1e6b4:	3f2b561b bf3e35c5 3f2b0b5b bf3e78ff     .V+?.5>.[.+?.x>.
   1e6c4:	3f2ac082 bf3ebc1b 3f2a758e bf3eff1b     ..*?..>..u*?..>.
   1e6d4:	3f2a2a80 bf3f41fc 3f29df57 bf3f84c0     .**?.A?.W.)?..?.
   1e6e4:	3f299415 bf3fc767 3f2948b8 bf4009f0     ..)?g.?..H)?..@.
   1e6f4:	3f28fd41 bf404c5c 3f28b1b0 bf408ea9     A.(?\L@...(?..@.
   1e704:	3f286605 bf40d0da 3f281a40 bf4112ec     .f(?..@.@.(?..A.
   1e714:	3f27ce61 bf4154e1 3f278268 bf4196b7     a.'?.TA.h.'?..A.
   1e724:	3f273656 bf41d870 3f26ea2a bf421a0b     V6'?p.A.*.&?..B.
   1e734:	3f269de3 bf425b89 3f265184 bf429ce8     ..&?.[B..Q&?..B.
   1e744:	3f26050a bf42de29 3f25b877 bf431f4c     ..&?).B.w.%?L.C.
   1e754:	3f256bcb bf436051 3f251f04 bf43a138     .k%?Q`C...%?8.C.
   1e764:	3f24d225 bf43e200 3f24852c bf4422ab     %.$?..C.,.$?."D.
   1e774:	3f24381a bf446337 3f23eaee bf44a3a5     .8$?7cD...#?..D.
   1e784:	3f239da9 bf44e3f5 3f23504b bf452426     ..#?..D.KP#?&$E.
   1e794:	3f2302d3 bf456439 3f22b543 bf45a42d     ..#?9dE.C."?-.E.
   1e7a4:	3f226799 bf45e403 3f2219d7 bf4623bb     .g"?..E..."?.#F.
   1e7b4:	3f21cbfb bf466354 3f217e06 bf46a2ce     ..!?TcF..~!?..F.
   1e7c4:	3f212ff9 bf46e22a 3f20e1d2 bf472167     ./!?*.F... ?g!G.
   1e7d4:	3f209393 bf476085 3f20453b bf479f84     .. ?.`G.;E ?..G.
   1e7e4:	3f1ff6cb bf47de65 3f1fa841 bf481d27     ...?e.G.A..?'.H.
   1e7f4:	3f1f599f bf485bca 3f1f0ae5 bf489a4e     .Y.?.[H....?N.H.
   1e804:	3f1ebc12 bf48d8b3 3f1e6d26 bf4916fa     ...?..H.&m.?..I.
   1e814:	3f1e1e22 bf495521 3f1dcf06 bf499329     "..?!UI....?).I.
   1e824:	3f1d7fd1 bf49d112 3f1d3084 bf4a0edc     ...?..I..0.?..J.
   1e834:	3f1ce11f bf4a4c87 3f1c91a2 bf4a8a13     ...?.LJ....?..J.
   1e844:	3f1c420c bf4ac77f 3f1bf25f bf4b04cc     .B.?..J._..?..K.
   1e854:	3f1ba299 bf4b41fa 3f1b52bb bf4b7f09     ...?.AK..R.?..K.
   1e864:	3f1b02c6 bf4bbbf8 3f1ab2b8 bf4bf8c7     ...?..K....?..K.
   1e874:	3f1a6293 bf4c3578 3f1a1255 bf4c7208     .b.?x5L.U..?.rL.
   1e884:	3f19c200 bf4cae79 3f197194 bf4ceacb     ...?y.L..q.?..L.
   1e894:	3f19210f bf4d26fd 3f18d073 bf4d6310     .!.?.&M.s..?.cM.
   1e8a4:	3f187fc0 bf4d9f02 3f182ef5 bf4ddad5     ...?..M....?..M.
   1e8b4:	3f17de12 bf4e1689 3f178d18 bf4e521c     ...?..N....?.RN.
   1e8c4:	3f173c07 bf4e8d90 3f16eadf bf4ec8e4     .<.?..N....?..N.
   1e8d4:	3f16999f bf4f0417 3f164847 bf4f3f2b     ...?..O.GH.?+?O.
   1e8e4:	3f15f6d9 bf4f7a1f 3f15a554 bf4fb4f4     ...?.zO.T..?..O.
   1e8f4:	3f1553b7 bf4fefa8 3f150204 bf502a3b     .S.?..O....?;*P.
   1e904:	3f14b039 bf5064af 3f145e58 bf509f03     9..?.dP.X^.?..P.
   1e914:	3f140c5f bf50d937 3f13ba50 bf51134a     _..?7.P.P..?J.Q.
   1e924:	3f13682a bf514d3d 3f1315ee bf518710     *h.?=MQ....?..Q.
   1e934:	3f12c39a bf51c0c2 3f127130 bf51fa54     ...?..Q.0q.?T.Q.
   1e944:	3f121eb0 bf5233c6 3f11cc19 bf526d18     ...?.3R....?.mR.
   1e954:	3f11796b bf52a649 3f1126a7 bf52df59     ky.?I.R..&.?Y.R.
   1e964:	3f10d3cd bf531849 3f1080dc bf535118     ...?I.S....?.QS.
   1e974:	3f102dd5 bf5389c7 3f0fdab8 bf53c255     .-.?..S....?U.S.
   1e984:	3f0f8784 bf53fac3 3f0f343b bf54330f     ...?..S.;4.?.3T.
   1e994:	3f0ee0db bf546b3b 3f0e8d65 bf54a347     ...?;kT.e..?G.T.
   1e9a4:	3f0e39da bf54db31 3f0de638 bf5512fb     .9.?1.T.8..?..U.
   1e9b4:	3f0d9281 bf554aa4 3f0d3eb3 bf55822c     ...?.JU..>.?,.U.
   1e9c4:	3f0cead0 bf55b993 3f0c96d7 bf55f0d9     ...?..U....?..U.
   1e9d4:	3f0c42c9 bf5627fe 3f0beea5 bf565f02     .B.?.'V....?._V.
   1e9e4:	3f0b9a6b bf5695e5 3f0b461c bf56cca7     k..?..V..F.?..V.
   1e9f4:	3f0af1b7 bf570348 3f0a9d3d bf5739c7     ...?H.W.=..?.9W.
   1ea04:	3f0a48ad bf577026 3f09f409 bf57a663     .H.?&pW....?c.W.
   1ea14:	3f099f4e bf57dc7f 3f094a7f bf581279     N..?..W..J.?y.X.
   1ea24:	3f08f59b bf584853 3f08a0a1 bf587e0b     ...?SHX....?.~X.
   1ea34:	3f084b92 bf58b3a1 3f07f66f bf58e917     .K.?..X.o..?..X.
   1ea44:	3f07a136 bf591e6a 3f074be8 bf59539c     6..?j.Y..K.?.SY.
   1ea54:	3f06f686 bf5988ad 3f06a10e bf59bd9c     ...?..Y....?..Y.
   1ea64:	3f064b82 bf59f26a 3f05f5e2 bf5a2716     .K.?j.Y....?.'Z.
   1ea74:	3f05a02c bf5a5ba0 3f054a62 bf5a9009     ,..?.[Z.bJ.?..Z.
   1ea84:	3f04f484 bf5ac450 3f049e91 bf5af875     ...?P.Z....?u.Z.
   1ea94:	3f044889 bf5b2c79 3f03f26d bf5b605a     .H.?y,[.m..?Z`[.
   1eaa4:	3f039c3d bf5b941a 3f0345f8 bf5bc7b8     =..?..[..E.?..[.
   1eab4:	3f02ef9f bf5bfb34 3f029932 bf5c2e8e     ...?4.[.2..?..\.
   1eac4:	3f0242b1 bf5c61c7 3f01ec1c bf5c94dd     .B.?.a\....?..\.
   1ead4:	3f019573 bf5cc7d1 3f013eb5 bf5cfaa3     s..?..\..>.?..\.
   1eae4:	3f00e7e4 bf5d2d53 3f0090ff bf5d5fe1     ...?S-]....?._].
   1eaf4:	3f003a06 bf5d924d 3effc5f3 bf5dc497     .:.?M.]....>..].
   1eb04:	3eff17b2 bf5df6be 3efe694a bf5e28c3     ...>..].Ji.>.(^.
   1eb14:	3efdbabb bf5e5aa6 3efd0c04 bf5e8c67     ...>.Z^....>g.^.
   1eb24:	3efc5d27 bf5ebe05 3efbae22 bf5eef81     '].>..^."..>..^.
   1eb34:	3efafef7 bf5f20db 3efa4fa5 bf5f5212     ...>. _..O.>.R_.
   1eb44:	3ef9a02d bf5f8327 3ef8f08e bf5fb419     -..>'._....>.._.
   1eb54:	3ef840c8 bf5fe4e9 3ef790dc bf601596     .@.>.._....>..`.
   1eb64:	3ef6e0cb bf604621 3ef63093 bf607689     ...>!F`..0.>.v`.
   1eb74:	3ef58035 bf60a6cf 3ef4cfb1 bf60d6f2     5..>..`....>..`.
   1eb84:	3ef41f07 bf6106f2 3ef36e38 bf6136d0     ...>..a.8n.>.6a.
   1eb94:	3ef2bd43 bf61668a 3ef20c29 bf619622     C..>.fa.)..>".a.
   1eba4:	3ef15aea bf61c598 3ef0a985 bf61f4ea     .Z.>..a....>..a.
   1ebb4:	3eeff7fb bf62241a 3eef464c bf625326     ...>.$b.LF.>&Sb.
   1ebc4:	3eee9479 bf628210 3eede280 bf62b0d7     y..>..b....>..b.
   1ebd4:	3eed3063 bf62df7b 3eec7e21 bf630dfc     c0.>{.b.!~.>..c.
   1ebe4:	3eebcbbb bf633c5a 3eeb1930 bf636a95     ...>Z<c.0..>.jc.
   1ebf4:	3eea6681 bf6398ac 3ee9b3ae bf63c6a1     .f.>..c....>..c.
   1ec04:	3ee900b7 bf63f473 3ee84d9c bf642221     ...>s.c..M.>!"d.
   1ec14:	3ee79a5d bf644fac 3ee6e6fb bf647d14     ]..>.Od....>.}d.
   1ec24:	3ee63375 bf64aa59 3ee57fcb bf64d77b     u3.>Y.d....>{.d.
   1ec34:	3ee4cbfe bf650479 3ee4180e bf653154     ...>y.e....>T1e.
   1ec44:	3ee363fa bf655e0b 3ee2afc4 bf658aa0     .c.>.^e....>..e.
   1ec54:	3ee1fb6a bf65b710 3ee146ee bf65e35e     j..>..e..F.>^.e.
   1ec64:	3ee0924f bf660f88 3edfdd8d bf663b8e     O..>..f....>.;f.
   1ec74:	3edf28a9 bf666771 3ede73a2 bf669330     .(.>qgf..s.>0.f.
   1ec84:	3eddbe79 bf66becc 3edd092e bf66ea45     y..>..f....>E.f.
   1ec94:	3edc53c1 bf671599 3edb9e31 bf6740ca     .S.>..g.1..>.@g.
   1eca4:	3edae880 bf676bd8 3eda32ad bf6796c1     ...>.kg..2.>..g.
   1ecb4:	3ed97cb9 bf67c187 3ed8c6a3 bf67ec2a     .|.>..g....>*.g.
   1ecc4:	3ed8106b bf6816a8 3ed75a13 bf684103     k..>..h..Z.>.Ah.
   1ecd4:	3ed6a399 bf686b39 3ed5ecfd bf68954c     ...>9kh....>L.h.
   1ece4:	3ed53641 bf68bf3c 3ed47f64 bf68e907     A6.><.h.d..>..h.
   1ecf4:	3ed3c867 bf6912ae 3ed31148 bf693c32     g..>..i.H..>2<i.
   1ed04:	3ed25a09 bf696591 3ed1a2aa bf698ecc     .Z.>.ei....>..i.
   1ed14:	3ed0eb2a bf69b7e4 3ed0338a bf69e0d7     *..>..i..3.>..i.
   1ed24:	3ecf7bca bf6a09a7 3ecec3ea bf6a3252     .{.>..j....>R2j.
   1ed34:	3ece0bea bf6a5ad9 3ecd53ca bf6a833c     ...>.Zj..S.><.j.
   1ed44:	3ecc9b8b bf6aab7b 3ecbe32c bf6ad395     ...>{.j.,..>..j.
   1ed54:	3ecb2aae bf6afb8c 3eca7210 bf6b235e     .*.>..j..r.>^#k.
   1ed64:	3ec9b953 bf6b4b0c 3ec90077 bf6b7295     S..>.Kk.w..>.rk.
   1ed74:	3ec8477c bf6b99fb 3ec78e62 bf6bc13b     |G.>..k.b..>;.k.
   1ed84:	3ec6d529 bf6be858 3ec61bd2 bf6c0f50     )..>X.k....>P.l.
   1ed94:	3ec5625c bf6c3624 3ec4a8c8 bf6c5cd4     \b.>$6l....>.\l.
   1eda4:	3ec3ef15 bf6c835e 3ec33544 bf6ca9c5     ...>^.l.D5.>..l.
   1edb4:	3ec27b55 bf6cd007 3ec1c148 bf6cf624     U{.>..l.H..>$.l.
   1edc4:	3ec1071e bf6d1c1d 3ec04cd5 bf6d41f2     ...>..m..L.>.Am.
   1edd4:	3ebf926f bf6d67a1 3ebed7eb bf6d8d2d     o..>.gm....>-.m.
   1ede4:	3ebe1d4a bf6db293 3ebd628b bf6dd7d5     J..>..m..b.>..m.
   1edf4:	3ebca7af bf6dfcf2 3ebbecb6 bf6e21eb     ...>..m....>.!n.
   1ee04:	3ebb31a0 bf6e46be 3eba766e bf6e6b6d     .1.>.Fn.nv.>mkn.
   1ee14:	3eb9bb1e bf6e8ff8 3eb8ffb2 bf6eb45d     ...>..n....>].n.
   1ee24:	3eb8442a bf6ed89e 3eb78884 bf6efcba     *D.>..n....>..n.
   1ee34:	3eb6ccc3 bf6f20b0 3eb610e6 bf6f4483     ...>. o....>.Do.
   1ee44:	3eb554ec bf6f6830 3eb498d6 bf6f8bb8     .T.>0ho....>..o.
   1ee54:	3eb3dca5 bf6faf1b 3eb32058 bf6fd25a     ...>..o.X .>Z.o.
   1ee64:	3eb263ef bf6ff573 3eb1a76b bf701867     .c.>s.o.k..>g.p.
   1ee74:	3eb0eacb bf703b37 3eb02e10 bf705de1     ...>7;p....>.]p.
   1ee84:	3eaf713a bf708066 3eaeb449 bf70a2c6     :q.>f.p.I..>..p.
   1ee94:	3eadf73c bf70c502 3ead3a15 bf70e717     <..>..p..:.>..p.
   1eea4:	3eac7cd4 bf710908 3eabbf77 bf712ad4     .|.>..q.w..>.*q.
   1eeb4:	3eab0201 bf714c7a 3eaa446f bf716dfb     ...>zLq.oD.>.mq.
   1eec4:	3ea986c4 bf718f57 3ea8c8fe bf71b08e     ...>W.q....>..q.
   1eed4:	3ea80b1f bf71d19f 3ea74d25 bf71f28c     ...>..q.%M.>..q.
   1eee4:	3ea68f12 bf721352 3ea5d0e5 bf7233f4     ...>R.r....>.3r.
   1eef4:	3ea5129f bf725470 3ea4543f bf7274c7     ...>pTr.?T.>.tr.
   1ef04:	3ea395c5 bf7294f8 3ea2d733 bf72b504     ...>..r.3..>..r.
   1ef14:	3ea21887 bf72d4eb 3ea159c2 bf72f4ac     ...>..r..Y.>..r.
   1ef24:	3ea09ae5 bf731447 3e9fdbee bf7333be     ...>G.s....>.3s.
   1ef34:	3e9f1cdf bf73530e 3e9e5db8 bf737239     ...>.Ss..].>9rs.
   1ef44:	3e9d9e78 bf73913f 3e9cdf20 bf73b01f     x..>?.s. ..>..s.
   1ef54:	3e9c1faf bf73ced9 3e9b6027 bf73ed6e     ...>..s.'`.>n.s.
   1ef64:	3e9aa086 bf740bdd 3e99e0ce bf742a27     ...>..t....>'*t.
   1ef74:	3e9920fe bf74484b 3e986116 bf746649     . .>KHt..a.>Ift.
   1ef84:	3e97a117 bf748422 3e96e100 bf74a1d5     ...>".t....>..t.
   1ef94:	3e9620d2 bf74bf62 3e95608d bf74dcc9     . .>b.t..`.>..t.
   1efa4:	3e94a031 bf74fa0b 3e93dfbf bf751727     1..>..t....>'.u.
   1efb4:	3e931f35 bf75341d 3e925e94 bf7550ed     5..>.4u..^.>.Pu.
   1efc4:	3e919ddd bf756d97 3e90dd10 bf758a1c     ...>.mu....>..u.
   1efd4:	3e901c2c bf75a67b 3e8f5b32 bf75c2b3     ,..>{.u.2[.>..u.
   1efe4:	3e8e9a22 bf75dec6 3e8dd8fc bf75fab3     "..>..u....>..u.
   1eff4:	3e8d17c0 bf76167a 3e8c566e bf76321b     ...>z.v.nV.>.2v.
   1f004:	3e8b9507 bf764d97 3e8ad38a bf7668ec     ...>.Mv....>.hv.
   1f014:	3e8a11f8 bf76841b 3e895050 bf769f24     ...>..v.PP.>$.v.
   1f024:	3e888e93 bf76ba07 3e87ccc1 bf76d4c4     ...>..v....>..v.
   1f034:	3e870ada bf76ef5b 3e8648df bf7709cc     ...>[.v..H.>..w.
   1f044:	3e8586ce bf772417 3e84c4aa bf773e3c     ...>.$w....><>w.
   1f054:	3e840270 bf77583a 3e834022 bf777213     p..>:Xw."@.>.rw.
   1f064:	3e827dc0 bf778bc5 3e81bb4a bf77a551     .}.>..w.J..>Q.w.
   1f074:	3e80f8c0 bf77beb7 3e803622 bf77d7f7     ...>..w."6.>..w.
   1f084:	3e7ee6e1 bf77f110 3e7d6156 bf780a04     ..~>..w.Va}>..x.
   1f094:	3e7bdba4 bf7822d1 3e7a55cb bf783b77     ..{>."x..Uz>w;x.
   1f0a4:	3e78cfcc bf7853f8 3e7749a6 bf786c52     ..x>.Sx..Iw>Rlx.
   1f0b4:	3e75c35a bf788486 3e743ce8 bf789c93     Z.u>..x..<t>..x.
   1f0c4:	3e72b651 bf78b47b 3e712f94 bf78cc3b     Q.r>{.x../q>;.x.
   1f0d4:	3e6fa8b2 bf78e3d6 3e6e21ab bf78fb4a     ..o>..x..!n>J.x.
   1f0e4:	3e6c9a7f bf791298 3e6b132f bf7929bf     ..l>..y./.k>.)y.
   1f0f4:	3e698bba bf7940c0 3e680422 bf79579a     ..i>.@y.".h>.Wy.
   1f104:	3e667c66 bf796e4e 3e64f486 bf7984dc     f|f>Nny...d>..y.
   1f114:	3e636c83 bf799b43 3e61e45c bf79b183     .lc>C.y.\.a>..y.
   1f124:	3e605c13 bf79c79d 3e5ed3a8 bf79dd91     .\`>..y...^>..y.
   1f134:	3e5d4b1a bf79f35e 3e5bc26a bf7a0904     .K]>^.y.j.[>..z.
   1f144:	3e5a3997 bf7a1e84 3e58b0a4 bf7a33dd     .9Z>..z...X>.3z.
   1f154:	3e57278f bf7a4910 3e559e58 bf7a5e1c     .'W>.Iz.X.U>.^z.
   1f164:	3e541501 bf7a7302 3e528b89 bf7a87c1     ..T>.sz...R>..z.
   1f174:	3e5101f1 bf7a9c59 3e4f7838 bf7ab0cb     ..Q>Y.z.8xO>..z.
   1f184:	3e4dee60 bf7ac516 3e4c6467 bf7ad93a     `.M>..z.gdL>:.z.
   1f194:	3e4ada4f bf7aed37 3e495018 bf7b010e     O.J>7.z..PI>..{.
   1f1a4:	3e47c5c2 bf7b14be 3e463b4d bf7b2848     ..G>..{.M;F>H({.
   1f1b4:	3e44b0b9 bf7b3bab 3e432607 bf7b4ee7     ..D>.;{..&C>.N{.
   1f1c4:	3e419b37 bf7b61fc 3e401049 bf7b74ea     7.A>.a{.I.@>.t{.
   1f1d4:	3e3e853e bf7b87b2 3e3cfa15 bf7b9a53     >.>>..{...<>S.{.
   1f1e4:	3e3b6ecf bf7baccd 3e39e36c bf7bbf20     .n;>..{.l.9> .{.
   1f1f4:	3e3857ec bf7bd14d 3e36cc50 bf7be353     .W8>M.{.P.6>S.{.
   1f204:	3e354098 bf7bf531 3e33b4c4 bf7c06e9     .@5>1.{...3>..|.
   1f214:	3e3228d4 bf7c187a 3e309cc9 bf7c29e5     .(2>z.|...0>.)|.
   1f224:	3e2f10a2 bf7c3b28 3e2d8461 bf7c4c44     ../>(;|.a.->DL|.
   1f234:	3e2bf804 bf7c5d3a 3e2a6b8d bf7c6e08     ..+>:]|..k*>.n|.
   1f244:	3e28defc bf7c7eb0 3e275251 bf7c8f31     ..(>.~|.QR'>1.|.
   1f254:	3e25c58c bf7c9f8a 3e2438ad bf7cafbd     ..%>..|..8$>..|.
   1f264:	3e22abb6 bf7cbfc9 3e211ea5 bf7ccfae     ..">..|...!>..|.
   1f274:	3e1f917b bf7cdf6c 3e1e0438 bf7cef03     {..>l.|.8..>..|.
   1f284:	3e1c76de bf7cfe73 3e1ae96b bf7d0dbc     .v.>s.|.k..>..}.
   1f294:	3e195be0 bf7d1cdd 3e17ce3d bf7d2bd8     .[.>..}.=..>.+}.
   1f2a4:	3e164083 bf7d3aac 3e14b2b2 bf7d4959     .@.>.:}....>YI}.
   1f2b4:	3e1324ca bf7d57de 3e1196cc bf7d663d     .$.>.W}....>=f}.
   1f2c4:	3e1008b7 bf7d7474 3e0e7a8b bf7d8285     ...>tt}..z.>..}.
   1f2d4:	3e0cec4a bf7d906e 3e0b5df3 bf7d9e30     J..>n.}..].>0.}.
   1f2e4:	3e09cf86 bf7dabcc 3e084105 bf7db940     ...>..}..A.>@.}.
   1f2f4:	3e06b26e bf7dc68c 3e0523c2 bf7dd3b2     n..>..}..#.>..}.
   1f304:	3e039502 bf7de0b1 3e02062e bf7ded88     ...>..}....>..}.
   1f314:	3e007745 bf7dfa38 3dfdd092 bf7e06c2     Ew.>8.}....=..~.
   1f324:	3dfab273 bf7e1324 3df7942c bf7e1f5e     s..=$.~.,..=^.~.
   1f334:	3df475c0 bf7e2b72 3df1572e bf7e375e     .u.=r+~..W.=^7~.
   1f344:	3dee3876 bf7e4323 3deb199a bf7e4ec1     v8.=#C~....=.N~.
   1f354:	3de7fa9a bf7e5a38 3de4db76 bf7e6588     ...=8Z~.v..=.e~.
   1f364:	3de1bc2e bf7e70b0 3dde9cc4 bf7e7bb1     ...=.p~....=.{~.
   1f374:	3ddb7d37 bf7e868b 3dd85d89 bf7e913d     7}.=..~..].==.~.
   1f384:	3dd53db9 bf7e9bc9 3dd21dc8 bf7ea62d     .=.=..~....=-.~.
   1f394:	3dcefdb7 bf7eb069 3dcbdd86 bf7eba7f     ...=i.~....=..~.
   1f3a4:	3dc8bd36 bf7ec46d 3dc59cc6 bf7ece34     6..=m.~....=4.~.
   1f3b4:	3dc27c39 bf7ed7d4 3dbf5b8d bf7ee14c     9|.=..~..[.=L.~.
   1f3c4:	3dbc3ac3 bf7eea9d 3db919dd bf7ef3c7     .:.=..~....=..~.
   1f3d4:	3db5f8da bf7efcc9 3db2d7bb bf7f05a4     ...=..~....=....
   1f3e4:	3dafb680 bf7f0e58 3dac952b bf7f16e4     ...=X...+..=....
   1f3f4:	3da973ba bf7f1f49 3da65230 bf7f2787     .s.=I...0R.=.'..
   1f404:	3da3308c bf7f2f9d 3da00ecf bf7f378d     .0.=./.....=.7..
   1f414:	3d9cecf9 bf7f3f54 3d99cb0a bf7f46f4     ...=T?.....=.F..
   1f424:	3d96a905 bf7f4e6d 3d9386e7 bf7f55bf     ...=mN.....=.U..
   1f434:	3d9064b4 bf7f5ce9 3d8d426a bf7f63ec     .d.=.\..jB.=.c..
   1f444:	3d8a200a bf7f6ac7 3d86fd94 bf7f717b     . .=.j.....={q..
   1f454:	3d83db0a bf7f7808 3d80b86c bf7f7e6d     ...=.x..l..=m~..
   1f464:	3d7b2b74 bf7f84ab 3d74e5e9 bf7f8ac2     t+{=......t=....
   1f474:	3d6ea038 bf7f90b1 3d685a62 bf7f9678     8.n=....bZh=x...
   1f484:	3d621468 bf7f9c18 3d5bce4c bf7fa191     h.b=....L.[=....
   1f494:	3d55880e bf7fa6e3 3d4f41af bf7fac0d     ..U=.....AO=....
   1f4a4:	3d48fb2f bf7fb10f 3d42b491 bf7fb5ea     /.H=......B=....
   1f4b4:	3d3c6dd5 bf7fba9e 3d3626fc bf7fbf2a     .m<=.....&6=*...
   1f4c4:	3d2fe007 bf7fc38f 3d2998f6 bf7fc7cc     ../=......)=....
   1f4d4:	3d2351cc bf7fcbe2 3d1d0a88 bf7fcfd1     .Q#=.......=....
   1f4e4:	3d16c32c bf7fd398 3d107bb8 bf7fd737     ,..=.....{.=7...
   1f4f4:	3d0a342f bf7fdaaf 3d03ec90 bf7fde00     /4.=.......=....
   1f504:	3cfb49b9 bf7fe129 3ceeba2d bf7fe42b     .I.<)...-..<+...
   1f514:	3ce22a7b bf7fe705 3cd59aa6 bf7fe9b8     {*.<.......<....
   1f524:	3cc90ab0 bf7fec43 3cbc7a9b bf7feea7     ...<C....z.<....
   1f534:	3cafea69 bf7ff0e3 3ca35a1c bf7ff2f8     i..<.....Z.<....
   1f544:	3c96c9b6 bf7ff4e6 3c8a3938 bf7ff6ac     ...<....89.<....
   1f554:	3c7b514b bf7ff84a 3c623000 bf7ff9c1     KQ{<J....0b<....
   1f564:	3c490e90 bf7ffb11 3c2fed02 bf7ffc39     ..I<....../<9...
   1f574:	3c16cb59 bf7ffd39 3bfb5330 bf7ffe13     Y..<9...0S.;....
   1f584:	3bc90f89 bf7ffec4 3b96cbc1 bf7fff4e     ...;.......;N...
   1f594:	3b490fc7 bf7fffb1 3ac90fd4 bf7fffec     ..I;.......:....

0001f5a4 <twiddleCoef_rfft_512>:
   1f5a4:	00000000 3f800000 3c490e90 3f7ffb11     .......?..I<...?
   1f5b4:	3cc90ab0 3f7fec43 3d16c32c 3f7fd398     ...<C..?,..=...?
   1f5c4:	3d48fb2f 3f7fb10f 3d7b2b74 3f7f84ab     /.H=...?t+{=...?
   1f5d4:	3d96a905 3f7f4e6d 3dafb680 3f7f0e58     ...=mN.?...=X..?
   1f5e4:	3dc8bd36 3f7ec46d 3de1bc2e 3f7e70b0     6..=m.~?...=.p~?
   1f5f4:	3dfab273 3f7e1324 3e09cf86 3f7dabcc     s..=$.~?...>..}?
   1f604:	3e164083 3f7d3aac 3e22abb6 3f7cbfc9     .@.>.:}?..">..|?
   1f614:	3e2f10a2 3f7c3b28 3e3b6ecf 3f7baccd     ../>(;|?.n;>..{?
   1f624:	3e47c5c2 3f7b14be 3e541501 3f7a7302     ..G>..{?..T>.sz?
   1f634:	3e605c13 3f79c79d 3e6c9a7f 3f791298     .\`>..y?..l>..y?
   1f644:	3e78cfcc 3f7853f8 3e827dc0 3f778bc5     ..x>.Sx?.}.>..w?
   1f654:	3e888e93 3f76ba07 3e8e9a22 3f75dec6     ...>..v?"..>..u?
   1f664:	3e94a031 3f74fa0b 3e9aa086 3f740bdd     1..>..t?...>..t?
   1f674:	3ea09ae5 3f731447 3ea68f12 3f721352     ...>G.s?...>R.r?
   1f684:	3eac7cd4 3f710908 3eb263ef 3f6ff573     .|.>..q?.c.>s.o?
   1f694:	3eb8442a 3f6ed89e 3ebe1d4a 3f6db293     *D.>..n?J..>..m?
   1f6a4:	3ec3ef15 3f6c835e 3ec9b953 3f6b4b0c     ...>^.l?S..>.Kk?
   1f6b4:	3ecf7bca 3f6a09a7 3ed53641 3f68bf3c     .{.>..j?A6.><.h?
   1f6c4:	3edae880 3f676bd8 3ee0924f 3f660f88     ...>.kg?O..>..f?
   1f6d4:	3ee63375 3f64aa59 3eebcbbb 3f633c5a     u3.>Y.d?...>Z<c?
   1f6e4:	3ef15aea 3f61c598 3ef6e0cb 3f604621     .Z.>..a?...>!F`?
   1f6f4:	3efc5d27 3f5ebe05 3f00e7e4 3f5d2d53     '].>..^?...?S-]?
   1f704:	3f039c3d 3f5b941a 3f064b82 3f59f26a     =..?..[?.K.?j.Y?
   1f714:	3f08f59b 3f584853 3f0b9a6b 3f5695e5     ...?SHX?k..?..V?
   1f724:	3f0e39da 3f54db31 3f10d3cd 3f531849     .9.?1.T?...?I.S?
   1f734:	3f13682a 3f514d3d 3f15f6d9 3f4f7a1f     *h.?=MQ?...?.zO?
   1f744:	3f187fc0 3f4d9f02 3f1b02c6 3f4bbbf8     ...?..M?...?..K?
   1f754:	3f1d7fd1 3f49d112 3f1ff6cb 3f47de65     ...?..I?...?e.G?
   1f764:	3f226799 3f45e403 3f24d225 3f43e200     .g"?..E?%.$?..C?
   1f774:	3f273656 3f41d870 3f299415 3f3fc767     V6'?p.A?..)?g.??
   1f784:	3f2beb4a 3f3daef9 3f2e3bde 3f3b8f3b     J.+?..=?.;.?;.;?
   1f794:	3f3085bb 3f396842 3f32c8c9 3f373a23     ..0?Bh9?..2?#:7?
   1f7a4:	3f3504f3 3f3504f3 3f373a23 3f32c8c9     ..5?..5?#:7?..2?
   1f7b4:	3f396842 3f3085bb 3f3b8f3b 3f2e3bde     Bh9?..0?;.;?.;.?
   1f7c4:	3f3daef9 3f2beb4a 3f3fc767 3f299415     ..=?J.+?g.??..)?
   1f7d4:	3f41d870 3f273656 3f43e200 3f24d225     p.A?V6'?..C?%.$?
   1f7e4:	3f45e403 3f226799 3f47de65 3f1ff6cb     ..E?.g"?e.G?...?
   1f7f4:	3f49d112 3f1d7fd1 3f4bbbf8 3f1b02c6     ..I?...?..K?...?
   1f804:	3f4d9f02 3f187fc0 3f4f7a1f 3f15f6d9     ..M?...?.zO?...?
   1f814:	3f514d3d 3f13682a 3f531849 3f10d3cd     =MQ?*h.?I.S?...?
   1f824:	3f54db31 3f0e39da 3f5695e5 3f0b9a6b     1.T?.9.?..V?k..?
   1f834:	3f584853 3f08f59b 3f59f26a 3f064b82     SHX?...?j.Y?.K.?
   1f844:	3f5b941a 3f039c3d 3f5d2d53 3f00e7e4     ..[?=..?S-]?...?
   1f854:	3f5ebe05 3efc5d27 3f604621 3ef6e0cb     ..^?'].>!F`?...>
   1f864:	3f61c598 3ef15aea 3f633c5a 3eebcbbb     ..a?.Z.>Z<c?...>
   1f874:	3f64aa59 3ee63375 3f660f88 3ee0924f     Y.d?u3.>..f?O..>
   1f884:	3f676bd8 3edae880 3f68bf3c 3ed53641     .kg?...><.h?A6.>
   1f894:	3f6a09a7 3ecf7bca 3f6b4b0c 3ec9b953     ..j?.{.>.Kk?S..>
   1f8a4:	3f6c835e 3ec3ef15 3f6db293 3ebe1d4a     ^.l?...>..m?J..>
   1f8b4:	3f6ed89e 3eb8442a 3f6ff573 3eb263ef     ..n?*D.>s.o?.c.>
   1f8c4:	3f710908 3eac7cd4 3f721352 3ea68f12     ..q?.|.>R.r?...>
   1f8d4:	3f731447 3ea09ae5 3f740bdd 3e9aa086     G.s?...>..t?...>
   1f8e4:	3f74fa0b 3e94a031 3f75dec6 3e8e9a22     ..t?1..>..u?"..>
   1f8f4:	3f76ba07 3e888e93 3f778bc5 3e827dc0     ..v?...>..w?.}.>
   1f904:	3f7853f8 3e78cfcc 3f791298 3e6c9a7f     .Sx?..x>..y?..l>
   1f914:	3f79c79d 3e605c13 3f7a7302 3e541501     ..y?.\`>.sz?..T>
   1f924:	3f7b14be 3e47c5c2 3f7baccd 3e3b6ecf     ..{?..G>..{?.n;>
   1f934:	3f7c3b28 3e2f10a2 3f7cbfc9 3e22abb6     (;|?../>..|?..">
   1f944:	3f7d3aac 3e164083 3f7dabcc 3e09cf86     .:}?.@.>..}?...>
   1f954:	3f7e1324 3dfab273 3f7e70b0 3de1bc2e     $.~?s..=.p~?...=
   1f964:	3f7ec46d 3dc8bd36 3f7f0e58 3dafb680     m.~?6..=X..?...=
   1f974:	3f7f4e6d 3d96a905 3f7f84ab 3d7b2b74     mN.?...=...?t+{=
   1f984:	3f7fb10f 3d48fb2f 3f7fd398 3d16c32c     ...?/.H=...?,..=
   1f994:	3f7fec43 3cc90ab0 3f7ffb11 3c490e90     C..?...<...?..I<
   1f9a4:	3f800000 00000000 3f7ffb11 bc490e90     ...?.......?..I.
   1f9b4:	3f7fec43 bcc90ab0 3f7fd398 bd16c32c     C..?.......?,...
   1f9c4:	3f7fb10f bd48fb2f 3f7f84ab bd7b2b74     ...?/.H....?t+{.
   1f9d4:	3f7f4e6d bd96a905 3f7f0e58 bdafb680     mN.?....X..?....
   1f9e4:	3f7ec46d bdc8bd36 3f7e70b0 bde1bc2e     m.~?6....p~?....
   1f9f4:	3f7e1324 bdfab273 3f7dabcc be09cf86     $.~?s.....}?....
   1fa04:	3f7d3aac be164083 3f7cbfc9 be22abb6     .:}?.@....|?..".
   1fa14:	3f7c3b28 be2f10a2 3f7baccd be3b6ecf     (;|?../...{?.n;.
   1fa24:	3f7b14be be47c5c2 3f7a7302 be541501     ..{?..G..sz?..T.
   1fa34:	3f79c79d be605c13 3f791298 be6c9a7f     ..y?.\`...y?..l.
   1fa44:	3f7853f8 be78cfcc 3f778bc5 be827dc0     .Sx?..x...w?.}..
   1fa54:	3f76ba07 be888e93 3f75dec6 be8e9a22     ..v?......u?"...
   1fa64:	3f74fa0b be94a031 3f740bdd be9aa086     ..t?1.....t?....
   1fa74:	3f731447 bea09ae5 3f721352 bea68f12     G.s?....R.r?....
   1fa84:	3f710908 beac7cd4 3f6ff573 beb263ef     ..q?.|..s.o?.c..
   1fa94:	3f6ed89e beb8442a 3f6db293 bebe1d4a     ..n?*D....m?J...
   1faa4:	3f6c835e bec3ef15 3f6b4b0c bec9b953     ^.l?.....Kk?S...
   1fab4:	3f6a09a7 becf7bca 3f68bf3c bed53641     ..j?.{..<.h?A6..
   1fac4:	3f676bd8 bedae880 3f660f88 bee0924f     .kg?......f?O...
   1fad4:	3f64aa59 bee63375 3f633c5a beebcbbb     Y.d?u3..Z<c?....
   1fae4:	3f61c598 bef15aea 3f604621 bef6e0cb     ..a?.Z..!F`?....
   1faf4:	3f5ebe05 befc5d27 3f5d2d53 bf00e7e4     ..^?']..S-]?....
   1fb04:	3f5b941a bf039c3d 3f59f26a bf064b82     ..[?=...j.Y?.K..
   1fb14:	3f584853 bf08f59b 3f5695e5 bf0b9a6b     SHX?......V?k...
   1fb24:	3f54db31 bf0e39da 3f531849 bf10d3cd     1.T?.9..I.S?....
   1fb34:	3f514d3d bf13682a 3f4f7a1f bf15f6d9     =MQ?*h...zO?....
   1fb44:	3f4d9f02 bf187fc0 3f4bbbf8 bf1b02c6     ..M?......K?....
   1fb54:	3f49d112 bf1d7fd1 3f47de65 bf1ff6cb     ..I?....e.G?....
   1fb64:	3f45e403 bf226799 3f43e200 bf24d225     ..E?.g"...C?%.$.
   1fb74:	3f41d870 bf273656 3f3fc767 bf299415     p.A?V6'.g.??..).
   1fb84:	3f3daef9 bf2beb4a 3f3b8f3b bf2e3bde     ..=?J.+.;.;?.;..
   1fb94:	3f396842 bf3085bb 3f373a23 bf32c8c9     Bh9?..0.#:7?..2.
   1fba4:	3f3504f3 bf3504f3 3f32c8c9 bf373a23     ..5?..5...2?#:7.
   1fbb4:	3f3085bb bf396842 3f2e3bde bf3b8f3b     ..0?Bh9..;.?;.;.
   1fbc4:	3f2beb4a bf3daef9 3f299415 bf3fc767     J.+?..=...)?g.?.
   1fbd4:	3f273656 bf41d870 3f24d225 bf43e200     V6'?p.A.%.$?..C.
   1fbe4:	3f226799 bf45e403 3f1ff6cb bf47de65     .g"?..E....?e.G.
   1fbf4:	3f1d7fd1 bf49d112 3f1b02c6 bf4bbbf8     ...?..I....?..K.
   1fc04:	3f187fc0 bf4d9f02 3f15f6d9 bf4f7a1f     ...?..M....?.zO.
   1fc14:	3f13682a bf514d3d 3f10d3cd bf531849     *h.?=MQ....?I.S.
   1fc24:	3f0e39da bf54db31 3f0b9a6b bf5695e5     .9.?1.T.k..?..V.
   1fc34:	3f08f59b bf584853 3f064b82 bf59f26a     ...?SHX..K.?j.Y.
   1fc44:	3f039c3d bf5b941a 3f00e7e4 bf5d2d53     =..?..[....?S-].
   1fc54:	3efc5d27 bf5ebe05 3ef6e0cb bf604621     '].>..^....>!F`.
   1fc64:	3ef15aea bf61c598 3eebcbbb bf633c5a     .Z.>..a....>Z<c.
   1fc74:	3ee63375 bf64aa59 3ee0924f bf660f88     u3.>Y.d.O..>..f.
   1fc84:	3edae880 bf676bd8 3ed53641 bf68bf3c     ...>.kg.A6.><.h.
   1fc94:	3ecf7bca bf6a09a7 3ec9b953 bf6b4b0c     .{.>..j.S..>.Kk.
   1fca4:	3ec3ef15 bf6c835e 3ebe1d4a bf6db293     ...>^.l.J..>..m.
   1fcb4:	3eb8442a bf6ed89e 3eb263ef bf6ff573     *D.>..n..c.>s.o.
   1fcc4:	3eac7cd4 bf710908 3ea68f12 bf721352     .|.>..q....>R.r.
   1fcd4:	3ea09ae5 bf731447 3e9aa086 bf740bdd     ...>G.s....>..t.
   1fce4:	3e94a031 bf74fa0b 3e8e9a22 bf75dec6     1..>..t."..>..u.
   1fcf4:	3e888e93 bf76ba07 3e827dc0 bf778bc5     ...>..v..}.>..w.
   1fd04:	3e78cfcc bf7853f8 3e6c9a7f bf791298     ..x>.Sx...l>..y.
   1fd14:	3e605c13 bf79c79d 3e541501 bf7a7302     .\`>..y...T>.sz.
   1fd24:	3e47c5c2 bf7b14be 3e3b6ecf bf7baccd     ..G>..{..n;>..{.
   1fd34:	3e2f10a2 bf7c3b28 3e22abb6 bf7cbfc9     ../>(;|...">..|.
   1fd44:	3e164083 bf7d3aac 3e09cf86 bf7dabcc     .@.>.:}....>..}.
   1fd54:	3dfab273 bf7e1324 3de1bc2e bf7e70b0     s..=$.~....=.p~.
   1fd64:	3dc8bd36 bf7ec46d 3dafb680 bf7f0e58     6..=m.~....=X...
   1fd74:	3d96a905 bf7f4e6d 3d7b2b74 bf7f84ab     ...=mN..t+{=....
   1fd84:	3d48fb2f bf7fb10f 3d16c32c bf7fd398     /.H=....,..=....
   1fd94:	3cc90ab0 bf7fec43 3c490e90 bf7ffb11     ...<C.....I<....

0001fda4 <twiddleCoef_rfft_64>:
   1fda4:	00000000 3f800000 3dc8bd36 3f7ec46d     .......?6..=m.~?
   1fdb4:	3e47c5c2 3f7b14be 3e94a031 3f74fa0b     ..G>..{?1..>..t?
   1fdc4:	3ec3ef15 3f6c835e 3ef15aea 3f61c598     ...>^.l?.Z.>..a?
   1fdd4:	3f0e39da 3f54db31 3f226799 3f45e403     .9.?1.T?.g"?..E?
   1fde4:	3f3504f3 3f3504f3 3f45e403 3f226799     ..5?..5?..E?.g"?
   1fdf4:	3f54db31 3f0e39da 3f61c598 3ef15aea     1.T?.9.?..a?.Z.>
   1fe04:	3f6c835e 3ec3ef15 3f74fa0b 3e94a031     ^.l?...>..t?1..>
   1fe14:	3f7b14be 3e47c5c2 3f7ec46d 3dc8bd36     ..{?..G>m.~?6..=
   1fe24:	3f800000 00000000 3f7ec46d bdc8bd36     ...?....m.~?6...
   1fe34:	3f7b14be be47c5c2 3f74fa0b be94a031     ..{?..G...t?1...
   1fe44:	3f6c835e bec3ef15 3f61c598 bef15aea     ^.l?......a?.Z..
   1fe54:	3f54db31 bf0e39da 3f45e403 bf226799     1.T?.9....E?.g".
   1fe64:	3f3504f3 bf3504f3 3f226799 bf45e403     ..5?..5..g"?..E.
   1fe74:	3f0e39da bf54db31 3ef15aea bf61c598     .9.?1.T..Z.>..a.
   1fe84:	3ec3ef15 bf6c835e 3e94a031 bf74fa0b     ...>^.l.1..>..t.
   1fe94:	3e47c5c2 bf7b14be 3dc8bd36 bf7ec46d     ..G>..{.6..=m.~.

0001fea4 <arm_cfft_sR_f32_len1024>:
   1fea4:	00000400 00007fa4 00002acc 00000708     .........*......

0001feb4 <arm_cfft_sR_f32_len128>:
   1feb4:	00000080 00009fa4 000038dc 000000d0     .........8......

0001fec4 <arm_cfft_sR_f32_len16>:
   1fec4:	00000010 0000a3a4 00003a7c 00000014     ........|:......

0001fed4 <arm_cfft_sR_f32_len2048>:
   1fed4:	00000800 0000a424 00003aa4 00000ee0     ....$....:......

0001fee4 <arm_cfft_sR_f32_len256>:
   1fee4:	00000100 0000e424 00005864 000001b8     ....$...dX......

0001fef4 <arm_cfft_sR_f32_len32>:
   1fef4:	00000020 0000ec24 00005bd4 00000030      ...$....[..0...

0001ff04 <arm_cfft_sR_f32_len4096>:
   1ff04:	00001000 0000ed24 00005c34 00000fc0     ....$...4\......

0001ff14 <arm_cfft_sR_f32_len512>:
   1ff14:	00000200 00016d24 00007bb4 000001c0     ....$m...{......

0001ff24 <arm_cfft_sR_f32_len64>:
   1ff24:	00000040 00017d24 00007f34 00000038     @...$}..4...8...
