arm-none-eabi-objdump -d embedded.elf

embedded.elf:     file format elf32-littlearm


Disassembly of section .text:

00000000 <__Vectors>:
       0:	00 00 02 20 29 05 00 00 25 05 00 00 21 05 00 00     ... )...%...!...
      10:	25 05 00 00 25 05 00 00 25 05 00 00 00 00 00 00     %...%...%.......
	...
      2c:	25 05 00 00 25 05 00 00 00 00 00 00 25 05 00 00     %...%.......%...
      3c:	25 05 00 00 25 05 00 00 25 05 00 00 25 05 00 00     %...%...%...%...
      4c:	25 05 00 00 25 05 00 00 25 05 00 00 25 05 00 00     %...%...%...%...
      5c:	25 05 00 00 25 05 00 00 25 05 00 00 00 00 00 00     %...%...%.......
	...

000003c0 <eig_decomp>:
     3c0:	e92d 4ff0 	stmdb	sp!, {r4, r5, r6, r7, r8, r9, sl, fp, lr}
     3c4:	ed2d 8b06 	vpush	{d8-d10}
     3c8:	688d      	ldr	r5, [r1, #8]
     3ca:	f8d1 a00c 	ldr.w	sl, [r1, #12]
     3ce:	680c      	ldr	r4, [r1, #0]
     3d0:	690e      	ldr	r6, [r1, #16]
     3d2:	edd1 8a05 	vldr	s17, [r1, #20]
     3d6:	6048      	str	r0, [r1, #4]
     3d8:	b087      	sub	sp, #28
     3da:	4683      	mov	fp, r0
     3dc:	9103      	str	r1, [sp, #12]
     3de:	b15d      	cbz	r5, 3f8 <eig_decomp+0x38>
     3e0:	2300      	movs	r3, #0
     3e2:	461a      	mov	r2, r3
     3e4:	f04f 517e 	mov.w	r1, #1065353216	; 0x3f800000
     3e8:	3301      	adds	r3, #1
     3ea:	b21b      	sxth	r3, r3
     3ec:	eb0a 0282 	add.w	r2, sl, r2, lsl #2
     3f0:	42ab      	cmp	r3, r5
     3f2:	6011      	str	r1, [r2, #0]
     3f4:	461a      	mov	r2, r3
     3f6:	d3f7      	bcc.n	3e8 <eig_decomp+0x28>
     3f8:	4632      	mov	r2, r6
     3fa:	2300      	movs	r3, #0
     3fc:	e9cd 2300 	strd	r2, r3, [sp]
     400:	2e00      	cmp	r6, #0
     402:	f000 8081 	beq.w	508 <__STACK_SIZE+0x108>
     406:	ed9f aa44 	vldr	s20, [pc, #272]	; 518 <__STACK_SIZE+0x118>
     40a:	00ab      	lsls	r3, r5, #2
     40c:	4622      	mov	r2, r4
     40e:	4651      	mov	r1, sl
     410:	4658      	mov	r0, fp
     412:	9302      	str	r3, [sp, #8]
     414:	ed9f 9b3e 	vldr	d9, [pc, #248]	; 510 <__STACK_SIZE+0x110>
     418:	f002 ffce 	bl	33b8 <arm_mat_vec_mult_f32>
     41c:	2600      	movs	r6, #0
     41e:	2700      	movs	r7, #0
     420:	ed8d aa05 	vstr	s20, [sp, #20]
     424:	2d00      	cmp	r5, #0
     426:	d059      	beq.n	4dc <__STACK_SIZE+0xdc>
     428:	f04f 0800 	mov.w	r8, #0
     42c:	46c1      	mov	r9, r8
     42e:	ab05      	add	r3, sp, #20
     430:	f108 0801 	add.w	r8, r8, #1
     434:	462a      	mov	r2, r5
     436:	4621      	mov	r1, r4
     438:	4620      	mov	r0, r4
     43a:	f003 fa11 	bl	3860 <arm_dot_prod_f32>
     43e:	45a8      	cmp	r8, r5
     440:	d1f4      	bne.n	42c <__STACK_SIZE+0x2c>
     442:	9805      	ldr	r0, [sp, #20]
     444:	f003 fd96 	bl	3f74 <__aeabi_f2d>
     448:	ec41 0b10 	vmov	d0, r0, r1
     44c:	f003 fafc 	bl	3a48 <sqrt>
     450:	ec51 0b10 	vmov	r0, r1, d0
     454:	f004 f896 	bl	4584 <__aeabi_d2f>
     458:	f04f 0800 	mov.w	r8, #0
     45c:	ee00 0a10 	vmov	s0, r0
     460:	9005      	str	r0, [sp, #20]
     462:	eeb7 8a00 	vmov.f32	s16, #112	; 0x3f800000  1.0
     466:	e002      	b.n	46e <__STACK_SIZE+0x6e>
     468:	ed9d 0a05 	vldr	s0, [sp, #20]
     46c:	4698      	mov	r8, r3
     46e:	ee88 0a00 	vdiv.f32	s0, s16, s0
     472:	462a      	mov	r2, r5
     474:	4621      	mov	r1, r4
     476:	4620      	mov	r0, r4
     478:	f003 fa74 	bl	3964 <arm_scale_f32>
     47c:	45c1      	cmp	r9, r8
     47e:	f108 0301 	add.w	r3, r8, #1
     482:	d1f1      	bne.n	468 <__STACK_SIZE+0x68>
     484:	9902      	ldr	r1, [sp, #8]
     486:	ed9f 7a24 	vldr	s14, [pc, #144]	; 518 <__STACK_SIZE+0x118>
     48a:	4623      	mov	r3, r4
     48c:	4652      	mov	r2, sl
     48e:	4421      	add	r1, r4
     490:	ecf3 7a01 	vldmia	r3!, {s15}
     494:	ecf2 6a01 	vldmia	r2!, {s13}
     498:	ee77 7ae6 	vsub.f32	s15, s15, s13
     49c:	4299      	cmp	r1, r3
     49e:	eef0 7ae7 	vabs.f32	s15, s15
     4a2:	ee37 7a27 	vadd.f32	s14, s14, s15
     4a6:	d1f3      	bne.n	490 <__STACK_SIZE+0x90>
     4a8:	eef4 8ac7 	vcmpe.f32	s17, s14
     4ac:	eef1 fa10 	vmrs	APSR_nzcv, fpscr
     4b0:	dc21      	bgt.n	4f6 <__STACK_SIZE+0xf6>
     4b2:	e9dd 2300 	ldrd	r2, r3, [sp]
     4b6:	3601      	adds	r6, #1
     4b8:	f147 0700 	adc.w	r7, r7, #0
     4bc:	429f      	cmp	r7, r3
     4be:	bf08      	it	eq
     4c0:	4296      	cmpeq	r6, r2
     4c2:	d018      	beq.n	4f6 <__STACK_SIZE+0xf6>
     4c4:	4653      	mov	r3, sl
     4c6:	46a2      	mov	sl, r4
     4c8:	461c      	mov	r4, r3
     4ca:	4622      	mov	r2, r4
     4cc:	4651      	mov	r1, sl
     4ce:	4658      	mov	r0, fp
     4d0:	f002 ff72 	bl	33b8 <arm_mat_vec_mult_f32>
     4d4:	ed8d aa05 	vstr	s20, [sp, #20]
     4d8:	2d00      	cmp	r5, #0
     4da:	d1a5      	bne.n	428 <__STACK_SIZE+0x28>
     4dc:	eeb0 0a49 	vmov.f32	s0, s18
     4e0:	eef0 0a69 	vmov.f32	s1, s19
     4e4:	f003 fab0 	bl	3a48 <sqrt>
     4e8:	ed9f 7a0b 	vldr	s14, [pc, #44]	; 518 <__STACK_SIZE+0x118>
     4ec:	eef4 8ac7 	vcmpe.f32	s17, s14
     4f0:	eef1 fa10 	vmrs	APSR_nzcv, fpscr
     4f4:	dddd      	ble.n	4b2 <__STACK_SIZE+0xb2>
     4f6:	9b03      	ldr	r3, [sp, #12]
     4f8:	60dc      	str	r4, [r3, #12]
     4fa:	f8c3 a000 	str.w	sl, [r3]
     4fe:	b007      	add	sp, #28
     500:	ecbd 8b06 	vpop	{d8-d10}
     504:	e8bd 8ff0 	ldmia.w	sp!, {r4, r5, r6, r7, r8, r9, sl, fp, pc}
     508:	4623      	mov	r3, r4
     50a:	4654      	mov	r4, sl
     50c:	469a      	mov	sl, r3
     50e:	e7f2      	b.n	4f6 <__STACK_SIZE+0xf6>
	...

0000051c <_start>:
     51c:	fa0000a8 	blx	7c4 <main>

00000520 <HardFault_Handler>:
     520:	e7fe      	b.n	520 <HardFault_Handler>
     522:	bf00      	nop

00000524 <Default_Handler>:
     524:	e7fe      	b.n	524 <Default_Handler>
     526:	bf00      	nop

00000528 <Reset_Handler>:
     528:	4c1c      	ldr	r4, [pc, #112]	; (59c <Reset_Handler+0x74>)
     52a:	4d1d      	ldr	r5, [pc, #116]	; (5a0 <Reset_Handler+0x78>)
     52c:	b508      	push	{r3, lr}
     52e:	f000 f83d 	bl	5ac <SystemInit>
     532:	42ac      	cmp	r4, r5
     534:	d211      	bcs.n	55a <Reset_Handler+0x32>
     536:	68a3      	ldr	r3, [r4, #8]
     538:	b163      	cbz	r3, 554 <Reset_Handler+0x2c>
     53a:	e9d4 1200 	ldrd	r1, r2, [r4]
     53e:	2300      	movs	r3, #0
     540:	3904      	subs	r1, #4
     542:	3a04      	subs	r2, #4
     544:	f851 0f04 	ldr.w	r0, [r1, #4]!
     548:	f842 0f04 	str.w	r0, [r2, #4]!
     54c:	68a0      	ldr	r0, [r4, #8]
     54e:	3301      	adds	r3, #1
     550:	4283      	cmp	r3, r0
     552:	d3f7      	bcc.n	544 <Reset_Handler+0x1c>
     554:	340c      	adds	r4, #12
     556:	42ac      	cmp	r4, r5
     558:	d3ed      	bcc.n	536 <Reset_Handler+0xe>
     55a:	4812      	ldr	r0, [pc, #72]	; (5a4 <Reset_Handler+0x7c>)
     55c:	4d12      	ldr	r5, [pc, #72]	; (5a8 <Reset_Handler+0x80>)
     55e:	42a8      	cmp	r0, r5
     560:	d219      	bcs.n	596 <Reset_Handler+0x6e>
     562:	3d01      	subs	r5, #1
     564:	1a2d      	subs	r5, r5, r0
     566:	f100 0310 	add.w	r3, r0, #16
     56a:	f025 0507 	bic.w	r5, r5, #7
     56e:	441d      	add	r5, r3
     570:	3008      	adds	r0, #8
     572:	2400      	movs	r4, #0
     574:	f850 3c04 	ldr.w	r3, [r0, #-4]
     578:	b153      	cbz	r3, 590 <Reset_Handler+0x68>
     57a:	f850 2c08 	ldr.w	r2, [r0, #-8]
     57e:	2300      	movs	r3, #0
     580:	3a04      	subs	r2, #4
     582:	f842 4f04 	str.w	r4, [r2, #4]!
     586:	f850 1c04 	ldr.w	r1, [r0, #-4]
     58a:	3301      	adds	r3, #1
     58c:	428b      	cmp	r3, r1
     58e:	d3f8      	bcc.n	582 <Reset_Handler+0x5a>
     590:	3008      	adds	r0, #8
     592:	42a8      	cmp	r0, r5
     594:	d1ee      	bne.n	574 <Reset_Handler+0x4c>
     596:	f7ff ffc1 	bl	51c <_start>
     59a:	bf00      	nop
     59c:	00021a98 	.word	0x00021a98
     5a0:	00021aa4 	.word	0x00021aa4
     5a4:	00021aa4 	.word	0x00021aa4
     5a8:	00021aa4 	.word	0x00021aa4

000005ac <SystemInit>:
     5ac:	4b06      	ldr	r3, [pc, #24]	; (5c8 <SystemInit+0x1c>)
     5ae:	4a07      	ldr	r2, [pc, #28]	; (5cc <SystemInit+0x20>)
     5b0:	609a      	str	r2, [r3, #8]
     5b2:	f8d3 2088 	ldr.w	r2, [r3, #136]	; 0x88
     5b6:	4906      	ldr	r1, [pc, #24]	; (5d0 <SystemInit+0x24>)
     5b8:	4806      	ldr	r0, [pc, #24]	; (5d4 <SystemInit+0x28>)
     5ba:	f442 0270 	orr.w	r2, r2, #15728640	; 0xf00000
     5be:	f8c3 2088 	str.w	r2, [r3, #136]	; 0x88
     5c2:	6008      	str	r0, [r1, #0]
     5c4:	4770      	bx	lr
     5c6:	bf00      	nop
     5c8:	e000ed00 	.word	0xe000ed00
     5cc:	00000000 	.word	0x00000000
     5d0:	20000000 	.word	0x20000000
     5d4:	017d7840 	.word	0x017d7840

000005d8 <cov>:
     5d8:	e92d 4ff0 	stmdb	sp!, {r4, r5, r6, r7, r8, r9, sl, fp, lr}
     5dc:	b085      	sub	sp, #20
     5de:	9e0e      	ldr	r6, [sp, #56]	; 0x38
     5e0:	9302      	str	r3, [sp, #8]
     5e2:	2b00      	cmp	r3, #0
     5e4:	f000 8083 	beq.w	6ee <cov+0x116>
     5e8:	ee07 6a90 	vmov	s15, r6
     5ec:	eef8 7a67 	vcvt.f32.u32	s15, s15
     5f0:	eeb7 7a00 	vmov.f32	s14, #112	; 0x3f800000  1.0
     5f4:	ee87 6a27 	vdiv.f32	s12, s14, s15
     5f8:	4694      	mov	ip, r2
     5fa:	4683      	mov	fp, r0
     5fc:	eb00 0783 	add.w	r7, r0, r3, lsl #2
     600:	4614      	mov	r4, r2
     602:	009d      	lsls	r5, r3, #2
     604:	eddf 6a46 	vldr	s13, [pc, #280]	; 720 <cov+0x148>
     608:	ece4 6a01 	vstmia	r4!, {s13}
     60c:	2e00      	cmp	r6, #0
     60e:	d07f      	beq.n	710 <cov+0x138>
     610:	eddf 7a43 	vldr	s15, [pc, #268]	; 720 <cov+0x148>
     614:	4602      	mov	r2, r0
     616:	2300      	movs	r3, #0
     618:	ed92 7a00 	vldr	s14, [r2]
     61c:	3301      	adds	r3, #1
     61e:	429e      	cmp	r6, r3
     620:	ee77 7a87 	vadd.f32	s15, s15, s14
     624:	442a      	add	r2, r5
     626:	d1f7      	bne.n	618 <cov+0x40>
     628:	ee67 7a86 	vmul.f32	s15, s15, s12
     62c:	3004      	adds	r0, #4
     62e:	42b8      	cmp	r0, r7
     630:	ed44 7a01 	vstr	s15, [r4, #-4]
     634:	d1e8      	bne.n	608 <cov+0x30>
     636:	1e73      	subs	r3, r6, #1
     638:	ee07 3a90 	vmov	s15, r3
     63c:	eef8 7a67 	vcvt.f32.u32	s15, s15
     640:	eeb7 7a00 	vmov.f32	s14, #112	; 0x3f800000  1.0
     644:	eec7 4a27 	vdiv.f32	s9, s14, s15
     648:	f04f 0e00 	mov.w	lr, #0
     64c:	1d2b      	adds	r3, r5, #4
     64e:	9101      	str	r1, [sp, #4]
     650:	46f2      	mov	sl, lr
     652:	9303      	str	r3, [sp, #12]
     654:	ed9f 5a32 	vldr	s10, [pc, #200]	; 720 <cov+0x148>
     658:	9b02      	ldr	r3, [sp, #8]
     65a:	4553      	cmp	r3, sl
     65c:	d95b      	bls.n	716 <cov+0x13e>
     65e:	9801      	ldr	r0, [sp, #4]
     660:	f10a 0301 	add.w	r3, sl, #1
     664:	ea4f 048a 	mov.w	r4, sl, lsl #2
     668:	4667      	mov	r7, ip
     66a:	4681      	mov	r9, r0
     66c:	46d0      	mov	r8, sl
     66e:	9300      	str	r3, [sp, #0]
     670:	eca0 5a01 	vstmia	r0!, {s10}
     674:	2e00      	cmp	r6, #0
     676:	d048      	beq.n	70a <cov+0x132>
     678:	eddf 6a29 	vldr	s13, [pc, #164]	; 720 <cov+0x148>
     67c:	465b      	mov	r3, fp
     67e:	2100      	movs	r1, #0
     680:	eb0e 0203 	add.w	r2, lr, r3
     684:	4422      	add	r2, r4
     686:	ed93 7a00 	vldr	s14, [r3]
     68a:	edd2 7a00 	vldr	s15, [r2]
     68e:	edd7 5a00 	vldr	s11, [r7]
     692:	ed9c 6a00 	vldr	s12, [ip]
     696:	ee77 7ae5 	vsub.f32	s15, s15, s11
     69a:	ee37 7a46 	vsub.f32	s14, s14, s12
     69e:	3101      	adds	r1, #1
     6a0:	eee7 6a27 	vfma.f32	s13, s14, s15
     6a4:	42b1      	cmp	r1, r6
     6a6:	442b      	add	r3, r5
     6a8:	ed40 6a01 	vstr	s13, [r0, #-4]
     6ac:	d1e8      	bne.n	680 <cov+0xa8>
     6ae:	ee66 6aa4 	vmul.f32	s13, s13, s9
     6b2:	45c2      	cmp	sl, r8
     6b4:	ed40 6a01 	vstr	s13, [r0, #-4]
     6b8:	f104 0404 	add.w	r4, r4, #4
     6bc:	d01a      	beq.n	6f4 <cov+0x11c>
     6be:	42ac      	cmp	r4, r5
     6c0:	edc9 6a00 	vstr	s13, [r9]
     6c4:	f108 0801 	add.w	r8, r8, #1
     6c8:	44a9      	add	r9, r5
     6ca:	f107 0704 	add.w	r7, r7, #4
     6ce:	d1cf      	bne.n	670 <cov+0x98>
     6d0:	9b01      	ldr	r3, [sp, #4]
     6d2:	9a03      	ldr	r2, [sp, #12]
     6d4:	f8dd a000 	ldr.w	sl, [sp]
     6d8:	4413      	add	r3, r2
     6da:	9301      	str	r3, [sp, #4]
     6dc:	9b02      	ldr	r3, [sp, #8]
     6de:	459a      	cmp	sl, r3
     6e0:	f10c 0c04 	add.w	ip, ip, #4
     6e4:	f10b 0b04 	add.w	fp, fp, #4
     6e8:	f1ae 0e04 	sub.w	lr, lr, #4
     6ec:	d1b4      	bne.n	658 <cov+0x80>
     6ee:	b005      	add	sp, #20
     6f0:	e8bd 8ff0 	ldmia.w	sp!, {r4, r5, r6, r7, r8, r9, sl, fp, pc}
     6f4:	42ac      	cmp	r4, r5
     6f6:	f8dd 8000 	ldr.w	r8, [sp]
     6fa:	44a9      	add	r9, r5
     6fc:	f107 0704 	add.w	r7, r7, #4
     700:	d0e6      	beq.n	6d0 <cov+0xf8>
     702:	eca0 5a01 	vstmia	r0!, {s10}
     706:	2e00      	cmp	r6, #0
     708:	d1b6      	bne.n	678 <cov+0xa0>
     70a:	eef0 6a45 	vmov.f32	s13, s10
     70e:	e7d0      	b.n	6b2 <cov+0xda>
     710:	eef0 7a66 	vmov.f32	s15, s13
     714:	e78a      	b.n	62c <cov+0x54>
     716:	f10a 0301 	add.w	r3, sl, #1
     71a:	9300      	str	r3, [sp, #0]
     71c:	e7d8      	b.n	6d0 <cov+0xf8>
     71e:	bf00      	nop
     720:	00000000 	.word	0x00000000

00000724 <fft_pca>:
     724:	e92d 4ff0 	stmdb	sp!, {r4, r5, r6, r7, r8, r9, sl, fp, lr}
     728:	f8df a090 	ldr.w	sl, [pc, #144]	; 7bc <fft_pca+0x98>
     72c:	4f1c      	ldr	r7, [pc, #112]	; (7a0 <fft_pca+0x7c>)
     72e:	f8da 5000 	ldr.w	r5, [sl]
     732:	683c      	ldr	r4, [r7, #0]
     734:	b085      	sub	sp, #20
     736:	9002      	str	r0, [sp, #8]
     738:	b305      	cbz	r5, 77c <fft_pca+0x58>
     73a:	0863      	lsrs	r3, r4, #1
     73c:	4e19      	ldr	r6, [pc, #100]	; (7a4 <fft_pca+0x80>)
     73e:	f8df b080 	ldr.w	fp, [pc, #128]	; 7c0 <fft_pca+0x9c>
     742:	3301      	adds	r3, #1
     744:	009b      	lsls	r3, r3, #2
     746:	9303      	str	r3, [sp, #12]
     748:	00a4      	lsls	r4, r4, #2
     74a:	46b1      	mov	r9, r6
     74c:	f04f 0800 	mov.w	r8, #0
     750:	4b15      	ldr	r3, [pc, #84]	; (7a8 <fft_pca+0x84>)
     752:	4816      	ldr	r0, [pc, #88]	; (7ac <fft_pca+0x88>)
     754:	781b      	ldrb	r3, [r3, #0]
     756:	4631      	mov	r1, r6
     758:	465a      	mov	r2, fp
     75a:	f000 fa41 	bl	be0 <arm_rfft_fast_f32>
     75e:	9b03      	ldr	r3, [sp, #12]
     760:	4649      	mov	r1, r9
     762:	f108 0801 	add.w	r8, r8, #1
     766:	462a      	mov	r2, r5
     768:	4658      	mov	r0, fp
     76a:	4499      	add	r9, r3
     76c:	f002 ff67 	bl	363e <arm_cmplx_mag_f32>
     770:	4545      	cmp	r5, r8
     772:	4426      	add	r6, r4
     774:	d1ec      	bne.n	750 <fft_pca+0x2c>
     776:	f8da 5000 	ldr.w	r5, [sl]
     77a:	683c      	ldr	r4, [r7, #0]
     77c:	4a0c      	ldr	r2, [pc, #48]	; (7b0 <fft_pca+0x8c>)
     77e:	490d      	ldr	r1, [pc, #52]	; (7b4 <fft_pca+0x90>)
     780:	4808      	ldr	r0, [pc, #32]	; (7a4 <fft_pca+0x80>)
     782:	9500      	str	r5, [sp, #0]
     784:	0864      	lsrs	r4, r4, #1
     786:	1c63      	adds	r3, r4, #1
     788:	603b      	str	r3, [r7, #0]
     78a:	f7ff ff25 	bl	5d8 <cov>
     78e:	9b02      	ldr	r3, [sp, #8]
     790:	4809      	ldr	r0, [pc, #36]	; (7b8 <fft_pca+0x94>)
     792:	6819      	ldr	r1, [r3, #0]
     794:	b005      	add	sp, #20
     796:	e8bd 4ff0 	ldmia.w	sp!, {r4, r5, r6, r7, r8, r9, sl, fp, lr}
     79a:	f7ff be11 	b.w	3c0 <eig_decomp>
     79e:	bf00      	nop
     7a0:	20000080 	.word	0x20000080
     7a4:	20000084 	.word	0x20000084
     7a8:	200001d0 	.word	0x200001d0
     7ac:	20000120 	.word	0x20000120
     7b0:	200001bc 	.word	0x200001bc
     7b4:	200001e8 	.word	0x200001e8
     7b8:	20000118 	.word	0x20000118
     7bc:	20000138 	.word	0x20000138
     7c0:	2000006c 	.word	0x2000006c

000007c4 <main>:
     7c4:	e92d 4ff0 	stmdb	sp!, {r4, r5, r6, r7, r8, r9, sl, fp, lr}
     7c8:	f8df 80a8 	ldr.w	r8, [pc, #168]	; 874 <main+0xb0>
     7cc:	4d20      	ldr	r5, [pc, #128]	; (850 <main+0x8c>)
     7ce:	4c21      	ldr	r4, [pc, #132]	; (854 <main+0x90>)
     7d0:	f8df 90a4 	ldr.w	r9, [pc, #164]	; 878 <main+0xb4>
     7d4:	4f20      	ldr	r7, [pc, #128]	; (858 <main+0x94>)
     7d6:	4e21      	ldr	r6, [pc, #132]	; (85c <main+0x98>)
     7d8:	f8df a0a0 	ldr.w	sl, [pc, #160]	; 87c <main+0xb8>
     7dc:	b091      	sub	sp, #68	; 0x44
     7de:	2108      	movs	r1, #8
     7e0:	2201      	movs	r2, #1
     7e2:	2304      	movs	r3, #4
     7e4:	4640      	mov	r0, r8
     7e6:	f889 2000 	strb.w	r2, [r9]
     7ea:	6029      	str	r1, [r5, #0]
     7ec:	f8ca 1000 	str.w	r1, [sl]
     7f0:	6023      	str	r3, [r4, #0]
     7f2:	f000 fb55 	bl	ea0 <arm_rfft_fast_init_f32>
     7f6:	8822      	ldrh	r2, [r4, #0]
     7f8:	8829      	ldrh	r1, [r5, #0]
     7fa:	463b      	mov	r3, r7
     7fc:	4630      	mov	r0, r6
     7fe:	f002 fdc3 	bl	3388 <arm_mat_init_f32>
     802:	6828      	ldr	r0, [r5, #0]
     804:	f8d4 b000 	ldr.w	fp, [r4]
     808:	f8da a000 	ldr.w	sl, [sl]
     80c:	f899 e000 	ldrb.w	lr, [r9]
     810:	f8df c06c 	ldr.w	ip, [pc, #108]	; 880 <main+0xbc>
     814:	4912      	ldr	r1, [pc, #72]	; (860 <main+0x9c>)
     816:	4a13      	ldr	r2, [pc, #76]	; (864 <main+0xa0>)
     818:	4b13      	ldr	r3, [pc, #76]	; (868 <main+0xa4>)
     81a:	9008      	str	r0, [sp, #32]
     81c:	4d13      	ldr	r5, [pc, #76]	; (86c <main+0xa8>)
     81e:	4c14      	ldr	r4, [pc, #80]	; (870 <main+0xac>)
     820:	f8cd 802c 	str.w	r8, [sp, #44]	; 0x2c
     824:	a801      	add	r0, sp, #4
     826:	f8cd b024 	str.w	fp, [sp, #36]	; 0x24
     82a:	f8cd a034 	str.w	sl, [sp, #52]	; 0x34
     82e:	f88d e03c 	strb.w	lr, [sp, #60]	; 0x3c
     832:	970a      	str	r7, [sp, #40]	; 0x28
     834:	9607      	str	r6, [sp, #28]
     836:	f8cd c008 	str.w	ip, [sp, #8]
     83a:	9503      	str	r5, [sp, #12]
     83c:	9404      	str	r4, [sp, #16]
     83e:	910e      	str	r1, [sp, #56]	; 0x38
     840:	920c      	str	r2, [sp, #48]	; 0x30
     842:	9306      	str	r3, [sp, #24]
     844:	f7ff ff6e 	bl	724 <fft_pca>
     848:	b011      	add	sp, #68	; 0x44
     84a:	e8bd 8ff0 	ldmia.w	sp!, {r4, r5, r6, r7, r8, r9, sl, fp, pc}
     84e:	bf00      	nop
     850:	20000080 	.word	0x20000080
     854:	20000138 	.word	0x20000138
     858:	20000084 	.word	0x20000084
     85c:	20000118 	.word	0x20000118
     860:	20000104 	.word	0x20000104
     864:	2000013c 	.word	0x2000013c
     868:	2000006c 	.word	0x2000006c
     86c:	200001e8 	.word	0x200001e8
     870:	200001bc 	.word	0x200001bc
     874:	20000120 	.word	0x20000120
     878:	200001d0 	.word	0x200001d0
     87c:	20000114 	.word	0x20000114
     880:	200001d4 	.word	0x200001d4

00000884 <stage_rfft_f32>:
     884:	b480      	push	{r7}
     886:	b095      	sub	sp, #84	; 0x54
     888:	af00      	add	r7, sp, #0
     88a:	60f8      	str	r0, [r7, #12]
     88c:	60b9      	str	r1, [r7, #8]
     88e:	607a      	str	r2, [r7, #4]
     890:	68fb      	ldr	r3, [r7, #12]
     892:	695b      	ldr	r3, [r3, #20]
     894:	64bb      	str	r3, [r7, #72]	; 0x48
     896:	68bb      	ldr	r3, [r7, #8]
     898:	647b      	str	r3, [r7, #68]	; 0x44
     89a:	68bb      	ldr	r3, [r7, #8]
     89c:	643b      	str	r3, [r7, #64]	; 0x40
     89e:	68fb      	ldr	r3, [r7, #12]
     8a0:	881b      	ldrh	r3, [r3, #0]
     8a2:	3b01      	subs	r3, #1
     8a4:	64fb      	str	r3, [r7, #76]	; 0x4c
     8a6:	6c3b      	ldr	r3, [r7, #64]	; 0x40
     8a8:	681b      	ldr	r3, [r3, #0]
     8aa:	63fb      	str	r3, [r7, #60]	; 0x3c
     8ac:	6c3b      	ldr	r3, [r7, #64]	; 0x40
     8ae:	685b      	ldr	r3, [r3, #4]
     8b0:	63bb      	str	r3, [r7, #56]	; 0x38
     8b2:	6c7b      	ldr	r3, [r7, #68]	; 0x44
     8b4:	681b      	ldr	r3, [r3, #0]
     8b6:	637b      	str	r3, [r7, #52]	; 0x34
     8b8:	6c7b      	ldr	r3, [r7, #68]	; 0x44
     8ba:	685b      	ldr	r3, [r3, #4]
     8bc:	633b      	str	r3, [r7, #48]	; 0x30
     8be:	6cbb      	ldr	r3, [r7, #72]	; 0x48
     8c0:	1d1a      	adds	r2, r3, #4
     8c2:	64ba      	str	r2, [r7, #72]	; 0x48
     8c4:	681b      	ldr	r3, [r3, #0]
     8c6:	62fb      	str	r3, [r7, #44]	; 0x2c
     8c8:	6cbb      	ldr	r3, [r7, #72]	; 0x48
     8ca:	1d1a      	adds	r2, r3, #4
     8cc:	64ba      	str	r2, [r7, #72]	; 0x48
     8ce:	681b      	ldr	r3, [r3, #0]
     8d0:	62bb      	str	r3, [r7, #40]	; 0x28
     8d2:	ed97 7a0f 	vldr	s14, [r7, #60]	; 0x3c
     8d6:	edd7 7a0d 	vldr	s15, [r7, #52]	; 0x34
     8da:	ee77 7a27 	vadd.f32	s15, s14, s15
     8de:	edc7 7a09 	vstr	s15, [r7, #36]	; 0x24
     8e2:	ed97 7a0e 	vldr	s14, [r7, #56]	; 0x38
     8e6:	edd7 7a0c 	vldr	s15, [r7, #48]	; 0x30
     8ea:	ee77 7a27 	vadd.f32	s15, s14, s15
     8ee:	edc7 7a08 	vstr	s15, [r7, #32]
     8f2:	ed97 7a09 	vldr	s14, [r7, #36]	; 0x24
     8f6:	edd7 7a08 	vldr	s15, [r7, #32]
     8fa:	ee77 7a27 	vadd.f32	s15, s14, s15
     8fe:	687b      	ldr	r3, [r7, #4]
     900:	1d1a      	adds	r2, r3, #4
     902:	607a      	str	r2, [r7, #4]
     904:	eeb6 7a00 	vmov.f32	s14, #96	; 0x3f000000  0.5
     908:	ee67 7a87 	vmul.f32	s15, s15, s14
     90c:	edc3 7a00 	vstr	s15, [r3]
     910:	ed97 7a09 	vldr	s14, [r7, #36]	; 0x24
     914:	edd7 7a08 	vldr	s15, [r7, #32]
     918:	ee77 7a67 	vsub.f32	s15, s14, s15
     91c:	687b      	ldr	r3, [r7, #4]
     91e:	1d1a      	adds	r2, r3, #4
     920:	607a      	str	r2, [r7, #4]
     922:	eeb6 7a00 	vmov.f32	s14, #96	; 0x3f000000  0.5
     926:	ee67 7a87 	vmul.f32	s15, s15, s14
     92a:	edc3 7a00 	vstr	s15, [r3]
     92e:	6cfb      	ldr	r3, [r7, #76]	; 0x4c
     930:	00db      	lsls	r3, r3, #3
     932:	68ba      	ldr	r2, [r7, #8]
     934:	4413      	add	r3, r2
     936:	643b      	str	r3, [r7, #64]	; 0x40
     938:	6c7b      	ldr	r3, [r7, #68]	; 0x44
     93a:	3308      	adds	r3, #8
     93c:	647b      	str	r3, [r7, #68]	; 0x44
     93e:	6c3b      	ldr	r3, [r7, #64]	; 0x40
     940:	685b      	ldr	r3, [r3, #4]
     942:	63bb      	str	r3, [r7, #56]	; 0x38
     944:	6c3b      	ldr	r3, [r7, #64]	; 0x40
     946:	681b      	ldr	r3, [r3, #0]
     948:	63fb      	str	r3, [r7, #60]	; 0x3c
     94a:	6c7b      	ldr	r3, [r7, #68]	; 0x44
     94c:	681b      	ldr	r3, [r3, #0]
     94e:	637b      	str	r3, [r7, #52]	; 0x34
     950:	6c7b      	ldr	r3, [r7, #68]	; 0x44
     952:	685b      	ldr	r3, [r3, #4]
     954:	633b      	str	r3, [r7, #48]	; 0x30
     956:	6cbb      	ldr	r3, [r7, #72]	; 0x48
     958:	1d1a      	adds	r2, r3, #4
     95a:	64ba      	str	r2, [r7, #72]	; 0x48
     95c:	681b      	ldr	r3, [r3, #0]
     95e:	62fb      	str	r3, [r7, #44]	; 0x2c
     960:	6cbb      	ldr	r3, [r7, #72]	; 0x48
     962:	1d1a      	adds	r2, r3, #4
     964:	64ba      	str	r2, [r7, #72]	; 0x48
     966:	681b      	ldr	r3, [r3, #0]
     968:	62bb      	str	r3, [r7, #40]	; 0x28
     96a:	ed97 7a0f 	vldr	s14, [r7, #60]	; 0x3c
     96e:	edd7 7a0d 	vldr	s15, [r7, #52]	; 0x34
     972:	ee77 7a67 	vsub.f32	s15, s14, s15
     976:	edc7 7a09 	vstr	s15, [r7, #36]	; 0x24
     97a:	ed97 7a0e 	vldr	s14, [r7, #56]	; 0x38
     97e:	edd7 7a0c 	vldr	s15, [r7, #48]	; 0x30
     982:	ee77 7a27 	vadd.f32	s15, s14, s15
     986:	edc7 7a08 	vstr	s15, [r7, #32]
     98a:	ed97 7a0b 	vldr	s14, [r7, #44]	; 0x2c
     98e:	edd7 7a09 	vldr	s15, [r7, #36]	; 0x24
     992:	ee67 7a27 	vmul.f32	s15, s14, s15
     996:	edc7 7a07 	vstr	s15, [r7, #28]
     99a:	ed97 7a0a 	vldr	s14, [r7, #40]	; 0x28
     99e:	edd7 7a09 	vldr	s15, [r7, #36]	; 0x24
     9a2:	ee67 7a27 	vmul.f32	s15, s14, s15
     9a6:	edc7 7a06 	vstr	s15, [r7, #24]
     9aa:	ed97 7a0b 	vldr	s14, [r7, #44]	; 0x2c
     9ae:	edd7 7a08 	vldr	s15, [r7, #32]
     9b2:	ee67 7a27 	vmul.f32	s15, s14, s15
     9b6:	edc7 7a05 	vstr	s15, [r7, #20]
     9ba:	ed97 7a0a 	vldr	s14, [r7, #40]	; 0x28
     9be:	edd7 7a08 	vldr	s15, [r7, #32]
     9c2:	ee67 7a27 	vmul.f32	s15, s14, s15
     9c6:	edc7 7a04 	vstr	s15, [r7, #16]
     9ca:	ed97 7a0d 	vldr	s14, [r7, #52]	; 0x34
     9ce:	edd7 7a0f 	vldr	s15, [r7, #60]	; 0x3c
     9d2:	ee37 7a27 	vadd.f32	s14, s14, s15
     9d6:	edd7 7a07 	vldr	s15, [r7, #28]
     9da:	ee37 7a27 	vadd.f32	s14, s14, s15
     9de:	edd7 7a04 	vldr	s15, [r7, #16]
     9e2:	ee77 7a27 	vadd.f32	s15, s14, s15
     9e6:	687b      	ldr	r3, [r7, #4]
     9e8:	1d1a      	adds	r2, r3, #4
     9ea:	607a      	str	r2, [r7, #4]
     9ec:	eeb6 7a00 	vmov.f32	s14, #96	; 0x3f000000  0.5
     9f0:	ee67 7a87 	vmul.f32	s15, s15, s14
     9f4:	edc3 7a00 	vstr	s15, [r3]
     9f8:	ed97 7a0c 	vldr	s14, [r7, #48]	; 0x30
     9fc:	edd7 7a0e 	vldr	s15, [r7, #56]	; 0x38
     a00:	ee37 7a67 	vsub.f32	s14, s14, s15
     a04:	edd7 7a06 	vldr	s15, [r7, #24]
     a08:	ee37 7a27 	vadd.f32	s14, s14, s15
     a0c:	edd7 7a05 	vldr	s15, [r7, #20]
     a10:	ee77 7a67 	vsub.f32	s15, s14, s15
     a14:	687b      	ldr	r3, [r7, #4]
     a16:	1d1a      	adds	r2, r3, #4
     a18:	607a      	str	r2, [r7, #4]
     a1a:	eeb6 7a00 	vmov.f32	s14, #96	; 0x3f000000  0.5
     a1e:	ee67 7a87 	vmul.f32	s15, s15, s14
     a22:	edc3 7a00 	vstr	s15, [r3]
     a26:	6c7b      	ldr	r3, [r7, #68]	; 0x44
     a28:	3308      	adds	r3, #8
     a2a:	647b      	str	r3, [r7, #68]	; 0x44
     a2c:	6c3b      	ldr	r3, [r7, #64]	; 0x40
     a2e:	3b08      	subs	r3, #8
     a30:	643b      	str	r3, [r7, #64]	; 0x40
     a32:	6cfb      	ldr	r3, [r7, #76]	; 0x4c
     a34:	3b01      	subs	r3, #1
     a36:	64fb      	str	r3, [r7, #76]	; 0x4c
     a38:	6cfb      	ldr	r3, [r7, #76]	; 0x4c
     a3a:	2b00      	cmp	r3, #0
     a3c:	f73f af7f 	bgt.w	93e <stage_rfft_f32+0xba>
     a40:	bf00      	nop
     a42:	bf00      	nop
     a44:	3754      	adds	r7, #84	; 0x54
     a46:	46bd      	mov	sp, r7
     a48:	f85d 7b04 	ldr.w	r7, [sp], #4
     a4c:	4770      	bx	lr

00000a4e <merge_rfft_f32>:
     a4e:	b480      	push	{r7}
     a50:	b095      	sub	sp, #84	; 0x54
     a52:	af00      	add	r7, sp, #0
     a54:	60f8      	str	r0, [r7, #12]
     a56:	60b9      	str	r1, [r7, #8]
     a58:	607a      	str	r2, [r7, #4]
     a5a:	68fb      	ldr	r3, [r7, #12]
     a5c:	695b      	ldr	r3, [r3, #20]
     a5e:	64bb      	str	r3, [r7, #72]	; 0x48
     a60:	68bb      	ldr	r3, [r7, #8]
     a62:	647b      	str	r3, [r7, #68]	; 0x44
     a64:	68bb      	ldr	r3, [r7, #8]
     a66:	643b      	str	r3, [r7, #64]	; 0x40
     a68:	68fb      	ldr	r3, [r7, #12]
     a6a:	881b      	ldrh	r3, [r3, #0]
     a6c:	3b01      	subs	r3, #1
     a6e:	64fb      	str	r3, [r7, #76]	; 0x4c
     a70:	6c7b      	ldr	r3, [r7, #68]	; 0x44
     a72:	681b      	ldr	r3, [r3, #0]
     a74:	63fb      	str	r3, [r7, #60]	; 0x3c
     a76:	6c7b      	ldr	r3, [r7, #68]	; 0x44
     a78:	685b      	ldr	r3, [r3, #4]
     a7a:	63bb      	str	r3, [r7, #56]	; 0x38
     a7c:	6cbb      	ldr	r3, [r7, #72]	; 0x48
     a7e:	3308      	adds	r3, #8
     a80:	64bb      	str	r3, [r7, #72]	; 0x48
     a82:	ed97 7a0f 	vldr	s14, [r7, #60]	; 0x3c
     a86:	edd7 7a0e 	vldr	s15, [r7, #56]	; 0x38
     a8a:	ee77 7a27 	vadd.f32	s15, s14, s15
     a8e:	687b      	ldr	r3, [r7, #4]
     a90:	1d1a      	adds	r2, r3, #4
     a92:	607a      	str	r2, [r7, #4]
     a94:	eeb6 7a00 	vmov.f32	s14, #96	; 0x3f000000  0.5
     a98:	ee67 7a87 	vmul.f32	s15, s15, s14
     a9c:	edc3 7a00 	vstr	s15, [r3]
     aa0:	ed97 7a0f 	vldr	s14, [r7, #60]	; 0x3c
     aa4:	edd7 7a0e 	vldr	s15, [r7, #56]	; 0x38
     aa8:	ee77 7a67 	vsub.f32	s15, s14, s15
     aac:	687b      	ldr	r3, [r7, #4]
     aae:	1d1a      	adds	r2, r3, #4
     ab0:	607a      	str	r2, [r7, #4]
     ab2:	eeb6 7a00 	vmov.f32	s14, #96	; 0x3f000000  0.5
     ab6:	ee67 7a87 	vmul.f32	s15, s15, s14
     aba:	edc3 7a00 	vstr	s15, [r3]
     abe:	6cfb      	ldr	r3, [r7, #76]	; 0x4c
     ac0:	00db      	lsls	r3, r3, #3
     ac2:	68ba      	ldr	r2, [r7, #8]
     ac4:	4413      	add	r3, r2
     ac6:	643b      	str	r3, [r7, #64]	; 0x40
     ac8:	6c7b      	ldr	r3, [r7, #68]	; 0x44
     aca:	3308      	adds	r3, #8
     acc:	647b      	str	r3, [r7, #68]	; 0x44
     ace:	e07c      	b.n	bca <merge_rfft_f32+0x17c>
     ad0:	6c3b      	ldr	r3, [r7, #64]	; 0x40
     ad2:	685b      	ldr	r3, [r3, #4]
     ad4:	637b      	str	r3, [r7, #52]	; 0x34
     ad6:	6c3b      	ldr	r3, [r7, #64]	; 0x40
     ad8:	681b      	ldr	r3, [r3, #0]
     ada:	633b      	str	r3, [r7, #48]	; 0x30
     adc:	6c7b      	ldr	r3, [r7, #68]	; 0x44
     ade:	681b      	ldr	r3, [r3, #0]
     ae0:	63fb      	str	r3, [r7, #60]	; 0x3c
     ae2:	6c7b      	ldr	r3, [r7, #68]	; 0x44
     ae4:	685b      	ldr	r3, [r3, #4]
     ae6:	63bb      	str	r3, [r7, #56]	; 0x38
     ae8:	6cbb      	ldr	r3, [r7, #72]	; 0x48
     aea:	1d1a      	adds	r2, r3, #4
     aec:	64ba      	str	r2, [r7, #72]	; 0x48
     aee:	681b      	ldr	r3, [r3, #0]
     af0:	62fb      	str	r3, [r7, #44]	; 0x2c
     af2:	6cbb      	ldr	r3, [r7, #72]	; 0x48
     af4:	1d1a      	adds	r2, r3, #4
     af6:	64ba      	str	r2, [r7, #72]	; 0x48
     af8:	681b      	ldr	r3, [r3, #0]
     afa:	62bb      	str	r3, [r7, #40]	; 0x28
     afc:	ed97 7a0f 	vldr	s14, [r7, #60]	; 0x3c
     b00:	edd7 7a0c 	vldr	s15, [r7, #48]	; 0x30
     b04:	ee77 7a67 	vsub.f32	s15, s14, s15
     b08:	edc7 7a09 	vstr	s15, [r7, #36]	; 0x24
     b0c:	ed97 7a0e 	vldr	s14, [r7, #56]	; 0x38
     b10:	edd7 7a0d 	vldr	s15, [r7, #52]	; 0x34
     b14:	ee77 7a27 	vadd.f32	s15, s14, s15
     b18:	edc7 7a08 	vstr	s15, [r7, #32]
     b1c:	ed97 7a0b 	vldr	s14, [r7, #44]	; 0x2c
     b20:	edd7 7a09 	vldr	s15, [r7, #36]	; 0x24
     b24:	ee67 7a27 	vmul.f32	s15, s14, s15
     b28:	edc7 7a07 	vstr	s15, [r7, #28]
     b2c:	ed97 7a0a 	vldr	s14, [r7, #40]	; 0x28
     b30:	edd7 7a08 	vldr	s15, [r7, #32]
     b34:	ee67 7a27 	vmul.f32	s15, s14, s15
     b38:	edc7 7a06 	vstr	s15, [r7, #24]
     b3c:	ed97 7a0a 	vldr	s14, [r7, #40]	; 0x28
     b40:	edd7 7a09 	vldr	s15, [r7, #36]	; 0x24
     b44:	ee67 7a27 	vmul.f32	s15, s14, s15
     b48:	edc7 7a05 	vstr	s15, [r7, #20]
     b4c:	ed97 7a0b 	vldr	s14, [r7, #44]	; 0x2c
     b50:	edd7 7a08 	vldr	s15, [r7, #32]
     b54:	ee67 7a27 	vmul.f32	s15, s14, s15
     b58:	edc7 7a04 	vstr	s15, [r7, #16]
     b5c:	ed97 7a0f 	vldr	s14, [r7, #60]	; 0x3c
     b60:	edd7 7a0c 	vldr	s15, [r7, #48]	; 0x30
     b64:	ee37 7a27 	vadd.f32	s14, s14, s15
     b68:	edd7 7a07 	vldr	s15, [r7, #28]
     b6c:	ee37 7a67 	vsub.f32	s14, s14, s15
     b70:	edd7 7a06 	vldr	s15, [r7, #24]
     b74:	ee77 7a67 	vsub.f32	s15, s14, s15
     b78:	687b      	ldr	r3, [r7, #4]
     b7a:	1d1a      	adds	r2, r3, #4
     b7c:	607a      	str	r2, [r7, #4]
     b7e:	eeb6 7a00 	vmov.f32	s14, #96	; 0x3f000000  0.5
     b82:	ee67 7a87 	vmul.f32	s15, s15, s14
     b86:	edc3 7a00 	vstr	s15, [r3]
     b8a:	ed97 7a0e 	vldr	s14, [r7, #56]	; 0x38
     b8e:	edd7 7a0d 	vldr	s15, [r7, #52]	; 0x34
     b92:	ee37 7a67 	vsub.f32	s14, s14, s15
     b96:	edd7 7a05 	vldr	s15, [r7, #20]
     b9a:	ee37 7a27 	vadd.f32	s14, s14, s15
     b9e:	edd7 7a04 	vldr	s15, [r7, #16]
     ba2:	ee77 7a67 	vsub.f32	s15, s14, s15
     ba6:	687b      	ldr	r3, [r7, #4]
     ba8:	1d1a      	adds	r2, r3, #4
     baa:	607a      	str	r2, [r7, #4]
     bac:	eeb6 7a00 	vmov.f32	s14, #96	; 0x3f000000  0.5
     bb0:	ee67 7a87 	vmul.f32	s15, s15, s14
     bb4:	edc3 7a00 	vstr	s15, [r3]
     bb8:	6c7b      	ldr	r3, [r7, #68]	; 0x44
     bba:	3308      	adds	r3, #8
     bbc:	647b      	str	r3, [r7, #68]	; 0x44
     bbe:	6c3b      	ldr	r3, [r7, #64]	; 0x40
     bc0:	3b08      	subs	r3, #8
     bc2:	643b      	str	r3, [r7, #64]	; 0x40
     bc4:	6cfb      	ldr	r3, [r7, #76]	; 0x4c
     bc6:	3b01      	subs	r3, #1
     bc8:	64fb      	str	r3, [r7, #76]	; 0x4c
     bca:	6cfb      	ldr	r3, [r7, #76]	; 0x4c
     bcc:	2b00      	cmp	r3, #0
     bce:	f73f af7f 	bgt.w	ad0 <merge_rfft_f32+0x82>
     bd2:	bf00      	nop
     bd4:	bf00      	nop
     bd6:	3754      	adds	r7, #84	; 0x54
     bd8:	46bd      	mov	sp, r7
     bda:	f85d 7b04 	ldr.w	r7, [sp], #4
     bde:	4770      	bx	lr

00000be0 <arm_rfft_fast_f32>:
     be0:	b580      	push	{r7, lr}
     be2:	b086      	sub	sp, #24
     be4:	af00      	add	r7, sp, #0
     be6:	60f8      	str	r0, [r7, #12]
     be8:	60b9      	str	r1, [r7, #8]
     bea:	607a      	str	r2, [r7, #4]
     bec:	70fb      	strb	r3, [r7, #3]
     bee:	68fb      	ldr	r3, [r7, #12]
     bf0:	617b      	str	r3, [r7, #20]
     bf2:	78fb      	ldrb	r3, [r7, #3]
     bf4:	2b00      	cmp	r3, #0
     bf6:	d00b      	beq.n	c10 <__HEAP_SIZE+0x10>
     bf8:	687a      	ldr	r2, [r7, #4]
     bfa:	68b9      	ldr	r1, [r7, #8]
     bfc:	68f8      	ldr	r0, [r7, #12]
     bfe:	f7ff ff26 	bl	a4e <merge_rfft_f32>
     c02:	78fa      	ldrb	r2, [r7, #3]
     c04:	2301      	movs	r3, #1
     c06:	6879      	ldr	r1, [r7, #4]
     c08:	6978      	ldr	r0, [r7, #20]
     c0a:	f001 f9d0 	bl	1fae <arm_cfft_f32>
     c0e:	e00a      	b.n	c26 <__HEAP_SIZE+0x26>
     c10:	78fa      	ldrb	r2, [r7, #3]
     c12:	2301      	movs	r3, #1
     c14:	68b9      	ldr	r1, [r7, #8]
     c16:	6978      	ldr	r0, [r7, #20]
     c18:	f001 f9c9 	bl	1fae <arm_cfft_f32>
     c1c:	687a      	ldr	r2, [r7, #4]
     c1e:	68b9      	ldr	r1, [r7, #8]
     c20:	68f8      	ldr	r0, [r7, #12]
     c22:	f7ff fe2f 	bl	884 <stage_rfft_f32>
     c26:	bf00      	nop
     c28:	3718      	adds	r7, #24
     c2a:	46bd      	mov	sp, r7
     c2c:	bd80      	pop	{r7, pc}
	...

00000c30 <arm_rfft_32_fast_init_f32>:
     c30:	b580      	push	{r7, lr}
     c32:	b084      	sub	sp, #16
     c34:	af00      	add	r7, sp, #0
     c36:	6078      	str	r0, [r7, #4]
     c38:	687b      	ldr	r3, [r7, #4]
     c3a:	2b00      	cmp	r3, #0
     c3c:	d102      	bne.n	c44 <arm_rfft_32_fast_init_f32+0x14>
     c3e:	f04f 33ff 	mov.w	r3, #4294967295	; 0xffffffff
     c42:	e014      	b.n	c6e <arm_rfft_32_fast_init_f32+0x3e>
     c44:	687b      	ldr	r3, [r7, #4]
     c46:	2110      	movs	r1, #16
     c48:	4618      	mov	r0, r3
     c4a:	f001 fa6b 	bl	2124 <arm_cfft_init_f32>
     c4e:	4603      	mov	r3, r0
     c50:	73fb      	strb	r3, [r7, #15]
     c52:	f997 300f 	ldrsb.w	r3, [r7, #15]
     c56:	2b00      	cmp	r3, #0
     c58:	d002      	beq.n	c60 <arm_rfft_32_fast_init_f32+0x30>
     c5a:	f997 300f 	ldrsb.w	r3, [r7, #15]
     c5e:	e006      	b.n	c6e <arm_rfft_32_fast_init_f32+0x3e>
     c60:	687b      	ldr	r3, [r7, #4]
     c62:	2220      	movs	r2, #32
     c64:	821a      	strh	r2, [r3, #16]
     c66:	687b      	ldr	r3, [r7, #4]
     c68:	4a03      	ldr	r2, [pc, #12]	; (c78 <arm_rfft_32_fast_init_f32+0x48>)
     c6a:	615a      	str	r2, [r3, #20]
     c6c:	2300      	movs	r3, #0
     c6e:	4618      	mov	r0, r3
     c70:	3710      	adds	r7, #16
     c72:	46bd      	mov	sp, r7
     c74:	bd80      	pop	{r7, pc}
     c76:	bf00      	nop
     c78:	00019a88 	.word	0x00019a88

00000c7c <arm_rfft_64_fast_init_f32>:
     c7c:	b580      	push	{r7, lr}
     c7e:	b084      	sub	sp, #16
     c80:	af00      	add	r7, sp, #0
     c82:	6078      	str	r0, [r7, #4]
     c84:	687b      	ldr	r3, [r7, #4]
     c86:	2b00      	cmp	r3, #0
     c88:	d102      	bne.n	c90 <arm_rfft_64_fast_init_f32+0x14>
     c8a:	f04f 33ff 	mov.w	r3, #4294967295	; 0xffffffff
     c8e:	e014      	b.n	cba <arm_rfft_64_fast_init_f32+0x3e>
     c90:	687b      	ldr	r3, [r7, #4]
     c92:	2120      	movs	r1, #32
     c94:	4618      	mov	r0, r3
     c96:	f001 fa45 	bl	2124 <arm_cfft_init_f32>
     c9a:	4603      	mov	r3, r0
     c9c:	73fb      	strb	r3, [r7, #15]
     c9e:	f997 300f 	ldrsb.w	r3, [r7, #15]
     ca2:	2b00      	cmp	r3, #0
     ca4:	d002      	beq.n	cac <arm_rfft_64_fast_init_f32+0x30>
     ca6:	f997 300f 	ldrsb.w	r3, [r7, #15]
     caa:	e006      	b.n	cba <arm_rfft_64_fast_init_f32+0x3e>
     cac:	687b      	ldr	r3, [r7, #4]
     cae:	2240      	movs	r2, #64	; 0x40
     cb0:	821a      	strh	r2, [r3, #16]
     cb2:	687b      	ldr	r3, [r7, #4]
     cb4:	4a03      	ldr	r2, [pc, #12]	; (cc4 <arm_rfft_64_fast_init_f32+0x48>)
     cb6:	615a      	str	r2, [r3, #20]
     cb8:	2300      	movs	r3, #0
     cba:	4618      	mov	r0, r3
     cbc:	3710      	adds	r7, #16
     cbe:	46bd      	mov	sp, r7
     cc0:	bd80      	pop	{r7, pc}
     cc2:	bf00      	nop
     cc4:	00019b08 	.word	0x00019b08

00000cc8 <arm_rfft_128_fast_init_f32>:
     cc8:	b580      	push	{r7, lr}
     cca:	b084      	sub	sp, #16
     ccc:	af00      	add	r7, sp, #0
     cce:	6078      	str	r0, [r7, #4]
     cd0:	687b      	ldr	r3, [r7, #4]
     cd2:	2b00      	cmp	r3, #0
     cd4:	d102      	bne.n	cdc <arm_rfft_128_fast_init_f32+0x14>
     cd6:	f04f 33ff 	mov.w	r3, #4294967295	; 0xffffffff
     cda:	e014      	b.n	d06 <arm_rfft_128_fast_init_f32+0x3e>
     cdc:	687b      	ldr	r3, [r7, #4]
     cde:	2140      	movs	r1, #64	; 0x40
     ce0:	4618      	mov	r0, r3
     ce2:	f001 fa1f 	bl	2124 <arm_cfft_init_f32>
     ce6:	4603      	mov	r3, r0
     ce8:	73fb      	strb	r3, [r7, #15]
     cea:	f997 300f 	ldrsb.w	r3, [r7, #15]
     cee:	2b00      	cmp	r3, #0
     cf0:	d002      	beq.n	cf8 <arm_rfft_128_fast_init_f32+0x30>
     cf2:	f997 300f 	ldrsb.w	r3, [r7, #15]
     cf6:	e006      	b.n	d06 <arm_rfft_128_fast_init_f32+0x3e>
     cf8:	687b      	ldr	r3, [r7, #4]
     cfa:	2280      	movs	r2, #128	; 0x80
     cfc:	821a      	strh	r2, [r3, #16]
     cfe:	687b      	ldr	r3, [r7, #4]
     d00:	4a03      	ldr	r2, [pc, #12]	; (d10 <arm_rfft_128_fast_init_f32+0x48>)
     d02:	615a      	str	r2, [r3, #20]
     d04:	2300      	movs	r3, #0
     d06:	4618      	mov	r0, r3
     d08:	3710      	adds	r7, #16
     d0a:	46bd      	mov	sp, r7
     d0c:	bd80      	pop	{r7, pc}
     d0e:	bf00      	nop
     d10:	00019c08 	.word	0x00019c08

00000d14 <arm_rfft_256_fast_init_f32>:
     d14:	b580      	push	{r7, lr}
     d16:	b084      	sub	sp, #16
     d18:	af00      	add	r7, sp, #0
     d1a:	6078      	str	r0, [r7, #4]
     d1c:	687b      	ldr	r3, [r7, #4]
     d1e:	2b00      	cmp	r3, #0
     d20:	d102      	bne.n	d28 <arm_rfft_256_fast_init_f32+0x14>
     d22:	f04f 33ff 	mov.w	r3, #4294967295	; 0xffffffff
     d26:	e015      	b.n	d54 <arm_rfft_256_fast_init_f32+0x40>
     d28:	687b      	ldr	r3, [r7, #4]
     d2a:	2180      	movs	r1, #128	; 0x80
     d2c:	4618      	mov	r0, r3
     d2e:	f001 f9f9 	bl	2124 <arm_cfft_init_f32>
     d32:	4603      	mov	r3, r0
     d34:	73fb      	strb	r3, [r7, #15]
     d36:	f997 300f 	ldrsb.w	r3, [r7, #15]
     d3a:	2b00      	cmp	r3, #0
     d3c:	d002      	beq.n	d44 <arm_rfft_256_fast_init_f32+0x30>
     d3e:	f997 300f 	ldrsb.w	r3, [r7, #15]
     d42:	e007      	b.n	d54 <arm_rfft_256_fast_init_f32+0x40>
     d44:	687b      	ldr	r3, [r7, #4]
     d46:	f44f 7280 	mov.w	r2, #256	; 0x100
     d4a:	821a      	strh	r2, [r3, #16]
     d4c:	687b      	ldr	r3, [r7, #4]
     d4e:	4a03      	ldr	r2, [pc, #12]	; (d5c <arm_rfft_256_fast_init_f32+0x48>)
     d50:	615a      	str	r2, [r3, #20]
     d52:	2300      	movs	r3, #0
     d54:	4618      	mov	r0, r3
     d56:	3710      	adds	r7, #16
     d58:	46bd      	mov	sp, r7
     d5a:	bd80      	pop	{r7, pc}
     d5c:	00019e08 	.word	0x00019e08

00000d60 <arm_rfft_512_fast_init_f32>:
     d60:	b580      	push	{r7, lr}
     d62:	b084      	sub	sp, #16
     d64:	af00      	add	r7, sp, #0
     d66:	6078      	str	r0, [r7, #4]
     d68:	687b      	ldr	r3, [r7, #4]
     d6a:	2b00      	cmp	r3, #0
     d6c:	d102      	bne.n	d74 <arm_rfft_512_fast_init_f32+0x14>
     d6e:	f04f 33ff 	mov.w	r3, #4294967295	; 0xffffffff
     d72:	e016      	b.n	da2 <arm_rfft_512_fast_init_f32+0x42>
     d74:	687b      	ldr	r3, [r7, #4]
     d76:	f44f 7180 	mov.w	r1, #256	; 0x100
     d7a:	4618      	mov	r0, r3
     d7c:	f001 f9d2 	bl	2124 <arm_cfft_init_f32>
     d80:	4603      	mov	r3, r0
     d82:	73fb      	strb	r3, [r7, #15]
     d84:	f997 300f 	ldrsb.w	r3, [r7, #15]
     d88:	2b00      	cmp	r3, #0
     d8a:	d002      	beq.n	d92 <arm_rfft_512_fast_init_f32+0x32>
     d8c:	f997 300f 	ldrsb.w	r3, [r7, #15]
     d90:	e007      	b.n	da2 <arm_rfft_512_fast_init_f32+0x42>
     d92:	687b      	ldr	r3, [r7, #4]
     d94:	f44f 7200 	mov.w	r2, #512	; 0x200
     d98:	821a      	strh	r2, [r3, #16]
     d9a:	687b      	ldr	r3, [r7, #4]
     d9c:	4a03      	ldr	r2, [pc, #12]	; (dac <arm_rfft_512_fast_init_f32+0x4c>)
     d9e:	615a      	str	r2, [r3, #20]
     da0:	2300      	movs	r3, #0
     da2:	4618      	mov	r0, r3
     da4:	3710      	adds	r7, #16
     da6:	46bd      	mov	sp, r7
     da8:	bd80      	pop	{r7, pc}
     daa:	bf00      	nop
     dac:	0001a208 	.word	0x0001a208

00000db0 <arm_rfft_1024_fast_init_f32>:
     db0:	b580      	push	{r7, lr}
     db2:	b084      	sub	sp, #16
     db4:	af00      	add	r7, sp, #0
     db6:	6078      	str	r0, [r7, #4]
     db8:	687b      	ldr	r3, [r7, #4]
     dba:	2b00      	cmp	r3, #0
     dbc:	d102      	bne.n	dc4 <arm_rfft_1024_fast_init_f32+0x14>
     dbe:	f04f 33ff 	mov.w	r3, #4294967295	; 0xffffffff
     dc2:	e016      	b.n	df2 <arm_rfft_1024_fast_init_f32+0x42>
     dc4:	687b      	ldr	r3, [r7, #4]
     dc6:	f44f 7100 	mov.w	r1, #512	; 0x200
     dca:	4618      	mov	r0, r3
     dcc:	f001 f9aa 	bl	2124 <arm_cfft_init_f32>
     dd0:	4603      	mov	r3, r0
     dd2:	73fb      	strb	r3, [r7, #15]
     dd4:	f997 300f 	ldrsb.w	r3, [r7, #15]
     dd8:	2b00      	cmp	r3, #0
     dda:	d002      	beq.n	de2 <arm_rfft_1024_fast_init_f32+0x32>
     ddc:	f997 300f 	ldrsb.w	r3, [r7, #15]
     de0:	e007      	b.n	df2 <arm_rfft_1024_fast_init_f32+0x42>
     de2:	687b      	ldr	r3, [r7, #4]
     de4:	f44f 6280 	mov.w	r2, #1024	; 0x400
     de8:	821a      	strh	r2, [r3, #16]
     dea:	687b      	ldr	r3, [r7, #4]
     dec:	4a03      	ldr	r2, [pc, #12]	; (dfc <arm_rfft_1024_fast_init_f32+0x4c>)
     dee:	615a      	str	r2, [r3, #20]
     df0:	2300      	movs	r3, #0
     df2:	4618      	mov	r0, r3
     df4:	3710      	adds	r7, #16
     df6:	46bd      	mov	sp, r7
     df8:	bd80      	pop	{r7, pc}
     dfa:	bf00      	nop
     dfc:	0001aa08 	.word	0x0001aa08

00000e00 <arm_rfft_2048_fast_init_f32>:
     e00:	b580      	push	{r7, lr}
     e02:	b084      	sub	sp, #16
     e04:	af00      	add	r7, sp, #0
     e06:	6078      	str	r0, [r7, #4]
     e08:	687b      	ldr	r3, [r7, #4]
     e0a:	2b00      	cmp	r3, #0
     e0c:	d102      	bne.n	e14 <arm_rfft_2048_fast_init_f32+0x14>
     e0e:	f04f 33ff 	mov.w	r3, #4294967295	; 0xffffffff
     e12:	e016      	b.n	e42 <arm_rfft_2048_fast_init_f32+0x42>
     e14:	687b      	ldr	r3, [r7, #4]
     e16:	f44f 6180 	mov.w	r1, #1024	; 0x400
     e1a:	4618      	mov	r0, r3
     e1c:	f001 f982 	bl	2124 <arm_cfft_init_f32>
     e20:	4603      	mov	r3, r0
     e22:	73fb      	strb	r3, [r7, #15]
     e24:	f997 300f 	ldrsb.w	r3, [r7, #15]
     e28:	2b00      	cmp	r3, #0
     e2a:	d002      	beq.n	e32 <arm_rfft_2048_fast_init_f32+0x32>
     e2c:	f997 300f 	ldrsb.w	r3, [r7, #15]
     e30:	e007      	b.n	e42 <arm_rfft_2048_fast_init_f32+0x42>
     e32:	687b      	ldr	r3, [r7, #4]
     e34:	f44f 6200 	mov.w	r2, #2048	; 0x800
     e38:	821a      	strh	r2, [r3, #16]
     e3a:	687b      	ldr	r3, [r7, #4]
     e3c:	4a03      	ldr	r2, [pc, #12]	; (e4c <arm_rfft_2048_fast_init_f32+0x4c>)
     e3e:	615a      	str	r2, [r3, #20]
     e40:	2300      	movs	r3, #0
     e42:	4618      	mov	r0, r3
     e44:	3710      	adds	r7, #16
     e46:	46bd      	mov	sp, r7
     e48:	bd80      	pop	{r7, pc}
     e4a:	bf00      	nop
     e4c:	0001ba08 	.word	0x0001ba08

00000e50 <arm_rfft_4096_fast_init_f32>:
     e50:	b580      	push	{r7, lr}
     e52:	b084      	sub	sp, #16
     e54:	af00      	add	r7, sp, #0
     e56:	6078      	str	r0, [r7, #4]
     e58:	687b      	ldr	r3, [r7, #4]
     e5a:	2b00      	cmp	r3, #0
     e5c:	d102      	bne.n	e64 <arm_rfft_4096_fast_init_f32+0x14>
     e5e:	f04f 33ff 	mov.w	r3, #4294967295	; 0xffffffff
     e62:	e016      	b.n	e92 <arm_rfft_4096_fast_init_f32+0x42>
     e64:	687b      	ldr	r3, [r7, #4]
     e66:	f44f 6100 	mov.w	r1, #2048	; 0x800
     e6a:	4618      	mov	r0, r3
     e6c:	f001 f95a 	bl	2124 <arm_cfft_init_f32>
     e70:	4603      	mov	r3, r0
     e72:	73fb      	strb	r3, [r7, #15]
     e74:	f997 300f 	ldrsb.w	r3, [r7, #15]
     e78:	2b00      	cmp	r3, #0
     e7a:	d002      	beq.n	e82 <arm_rfft_4096_fast_init_f32+0x32>
     e7c:	f997 300f 	ldrsb.w	r3, [r7, #15]
     e80:	e007      	b.n	e92 <arm_rfft_4096_fast_init_f32+0x42>
     e82:	687b      	ldr	r3, [r7, #4]
     e84:	f44f 5280 	mov.w	r2, #4096	; 0x1000
     e88:	821a      	strh	r2, [r3, #16]
     e8a:	687b      	ldr	r3, [r7, #4]
     e8c:	4a03      	ldr	r2, [pc, #12]	; (e9c <arm_rfft_4096_fast_init_f32+0x4c>)
     e8e:	615a      	str	r2, [r3, #20]
     e90:	2300      	movs	r3, #0
     e92:	4618      	mov	r0, r3
     e94:	3710      	adds	r7, #16
     e96:	46bd      	mov	sp, r7
     e98:	bd80      	pop	{r7, pc}
     e9a:	bf00      	nop
     e9c:	0001da08 	.word	0x0001da08

00000ea0 <arm_rfft_fast_init_f32>:
     ea0:	b580      	push	{r7, lr}
     ea2:	b084      	sub	sp, #16
     ea4:	af00      	add	r7, sp, #0
     ea6:	6078      	str	r0, [r7, #4]
     ea8:	460b      	mov	r3, r1
     eaa:	807b      	strh	r3, [r7, #2]
     eac:	2300      	movs	r3, #0
     eae:	60fb      	str	r3, [r7, #12]
     eb0:	887b      	ldrh	r3, [r7, #2]
     eb2:	f5b3 5f80 	cmp.w	r3, #4096	; 0x1000
     eb6:	d023      	beq.n	f00 <arm_rfft_fast_init_f32+0x60>
     eb8:	f5b3 5f80 	cmp.w	r3, #4096	; 0x1000
     ebc:	dc38      	bgt.n	f30 <arm_rfft_fast_init_f32+0x90>
     ebe:	f5b3 6f00 	cmp.w	r3, #2048	; 0x800
     ec2:	d020      	beq.n	f06 <arm_rfft_fast_init_f32+0x66>
     ec4:	f5b3 6f00 	cmp.w	r3, #2048	; 0x800
     ec8:	dc32      	bgt.n	f30 <arm_rfft_fast_init_f32+0x90>
     eca:	f5b3 6f80 	cmp.w	r3, #1024	; 0x400
     ece:	d01d      	beq.n	f0c <arm_rfft_fast_init_f32+0x6c>
     ed0:	f5b3 6f80 	cmp.w	r3, #1024	; 0x400
     ed4:	dc2c      	bgt.n	f30 <arm_rfft_fast_init_f32+0x90>
     ed6:	f5b3 7f00 	cmp.w	r3, #512	; 0x200
     eda:	d01a      	beq.n	f12 <arm_rfft_fast_init_f32+0x72>
     edc:	f5b3 7f00 	cmp.w	r3, #512	; 0x200
     ee0:	dc26      	bgt.n	f30 <arm_rfft_fast_init_f32+0x90>
     ee2:	f5b3 7f80 	cmp.w	r3, #256	; 0x100
     ee6:	d017      	beq.n	f18 <arm_rfft_fast_init_f32+0x78>
     ee8:	f5b3 7f80 	cmp.w	r3, #256	; 0x100
     eec:	dc20      	bgt.n	f30 <arm_rfft_fast_init_f32+0x90>
     eee:	2b80      	cmp	r3, #128	; 0x80
     ef0:	d015      	beq.n	f1e <arm_rfft_fast_init_f32+0x7e>
     ef2:	2b80      	cmp	r3, #128	; 0x80
     ef4:	dc1c      	bgt.n	f30 <arm_rfft_fast_init_f32+0x90>
     ef6:	2b20      	cmp	r3, #32
     ef8:	d017      	beq.n	f2a <arm_rfft_fast_init_f32+0x8a>
     efa:	2b40      	cmp	r3, #64	; 0x40
     efc:	d012      	beq.n	f24 <arm_rfft_fast_init_f32+0x84>
     efe:	e017      	b.n	f30 <arm_rfft_fast_init_f32+0x90>
     f00:	4b13      	ldr	r3, [pc, #76]	; (f50 <arm_rfft_fast_init_f32+0xb0>)
     f02:	60fb      	str	r3, [r7, #12]
     f04:	e015      	b.n	f32 <arm_rfft_fast_init_f32+0x92>
     f06:	4b13      	ldr	r3, [pc, #76]	; (f54 <arm_rfft_fast_init_f32+0xb4>)
     f08:	60fb      	str	r3, [r7, #12]
     f0a:	e012      	b.n	f32 <arm_rfft_fast_init_f32+0x92>
     f0c:	4b12      	ldr	r3, [pc, #72]	; (f58 <arm_rfft_fast_init_f32+0xb8>)
     f0e:	60fb      	str	r3, [r7, #12]
     f10:	e00f      	b.n	f32 <arm_rfft_fast_init_f32+0x92>
     f12:	4b12      	ldr	r3, [pc, #72]	; (f5c <arm_rfft_fast_init_f32+0xbc>)
     f14:	60fb      	str	r3, [r7, #12]
     f16:	e00c      	b.n	f32 <arm_rfft_fast_init_f32+0x92>
     f18:	4b11      	ldr	r3, [pc, #68]	; (f60 <arm_rfft_fast_init_f32+0xc0>)
     f1a:	60fb      	str	r3, [r7, #12]
     f1c:	e009      	b.n	f32 <arm_rfft_fast_init_f32+0x92>
     f1e:	4b11      	ldr	r3, [pc, #68]	; (f64 <arm_rfft_fast_init_f32+0xc4>)
     f20:	60fb      	str	r3, [r7, #12]
     f22:	e006      	b.n	f32 <arm_rfft_fast_init_f32+0x92>
     f24:	4b10      	ldr	r3, [pc, #64]	; (f68 <arm_rfft_fast_init_f32+0xc8>)
     f26:	60fb      	str	r3, [r7, #12]
     f28:	e003      	b.n	f32 <arm_rfft_fast_init_f32+0x92>
     f2a:	4b10      	ldr	r3, [pc, #64]	; (f6c <arm_rfft_fast_init_f32+0xcc>)
     f2c:	60fb      	str	r3, [r7, #12]
     f2e:	e000      	b.n	f32 <arm_rfft_fast_init_f32+0x92>
     f30:	bf00      	nop
     f32:	68fb      	ldr	r3, [r7, #12]
     f34:	2b00      	cmp	r3, #0
     f36:	d102      	bne.n	f3e <arm_rfft_fast_init_f32+0x9e>
     f38:	f04f 33ff 	mov.w	r3, #4294967295	; 0xffffffff
     f3c:	e003      	b.n	f46 <arm_rfft_fast_init_f32+0xa6>
     f3e:	68fb      	ldr	r3, [r7, #12]
     f40:	6878      	ldr	r0, [r7, #4]
     f42:	4798      	blx	r3
     f44:	4603      	mov	r3, r0
     f46:	4618      	mov	r0, r3
     f48:	3710      	adds	r7, #16
     f4a:	46bd      	mov	sp, r7
     f4c:	bd80      	pop	{r7, pc}
     f4e:	bf00      	nop
     f50:	00000e51 	.word	0x00000e51
     f54:	00000e01 	.word	0x00000e01
     f58:	00000db1 	.word	0x00000db1
     f5c:	00000d61 	.word	0x00000d61
     f60:	00000d15 	.word	0x00000d15
     f64:	00000cc9 	.word	0x00000cc9
     f68:	00000c7d 	.word	0x00000c7d
     f6c:	00000c31 	.word	0x00000c31

00000f70 <arm_cfft_radix8by2_f32>:
     f70:	b580      	push	{r7, lr}
     f72:	b0a0      	sub	sp, #128	; 0x80
     f74:	af00      	add	r7, sp, #0
     f76:	6078      	str	r0, [r7, #4]
     f78:	6039      	str	r1, [r7, #0]
     f7a:	687b      	ldr	r3, [r7, #4]
     f7c:	881b      	ldrh	r3, [r3, #0]
     f7e:	66bb      	str	r3, [r7, #104]	; 0x68
     f80:	6ebb      	ldr	r3, [r7, #104]	; 0x68
     f82:	009b      	lsls	r3, r3, #2
     f84:	683a      	ldr	r2, [r7, #0]
     f86:	4413      	add	r3, r2
     f88:	677b      	str	r3, [r7, #116]	; 0x74
     f8a:	687b      	ldr	r3, [r7, #4]
     f8c:	685b      	ldr	r3, [r3, #4]
     f8e:	673b      	str	r3, [r7, #112]	; 0x70
     f90:	683b      	ldr	r3, [r7, #0]
     f92:	667b      	str	r3, [r7, #100]	; 0x64
     f94:	6f7b      	ldr	r3, [r7, #116]	; 0x74
     f96:	663b      	str	r3, [r7, #96]	; 0x60
     f98:	6ebb      	ldr	r3, [r7, #104]	; 0x68
     f9a:	085b      	lsrs	r3, r3, #1
     f9c:	66bb      	str	r3, [r7, #104]	; 0x68
     f9e:	6ebb      	ldr	r3, [r7, #104]	; 0x68
     fa0:	009b      	lsls	r3, r3, #2
     fa2:	683a      	ldr	r2, [r7, #0]
     fa4:	4413      	add	r3, r2
     fa6:	67fb      	str	r3, [r7, #124]	; 0x7c
     fa8:	6ebb      	ldr	r3, [r7, #104]	; 0x68
     faa:	009b      	lsls	r3, r3, #2
     fac:	6f7a      	ldr	r2, [r7, #116]	; 0x74
     fae:	4413      	add	r3, r2
     fb0:	67bb      	str	r3, [r7, #120]	; 0x78
     fb2:	6ebb      	ldr	r3, [r7, #104]	; 0x68
     fb4:	089b      	lsrs	r3, r3, #2
     fb6:	66fb      	str	r3, [r7, #108]	; 0x6c
     fb8:	e1b6      	b.n	1328 <arm_cfft_radix8by2_f32+0x3b8>
     fba:	683b      	ldr	r3, [r7, #0]
     fbc:	681b      	ldr	r3, [r3, #0]
     fbe:	63bb      	str	r3, [r7, #56]	; 0x38
     fc0:	683b      	ldr	r3, [r7, #0]
     fc2:	685b      	ldr	r3, [r3, #4]
     fc4:	63fb      	str	r3, [r7, #60]	; 0x3c
     fc6:	683b      	ldr	r3, [r7, #0]
     fc8:	689b      	ldr	r3, [r3, #8]
     fca:	643b      	str	r3, [r7, #64]	; 0x40
     fcc:	683b      	ldr	r3, [r7, #0]
     fce:	68db      	ldr	r3, [r3, #12]
     fd0:	647b      	str	r3, [r7, #68]	; 0x44
     fd2:	6f7b      	ldr	r3, [r7, #116]	; 0x74
     fd4:	681b      	ldr	r3, [r3, #0]
     fd6:	62bb      	str	r3, [r7, #40]	; 0x28
     fd8:	6f7b      	ldr	r3, [r7, #116]	; 0x74
     fda:	685b      	ldr	r3, [r3, #4]
     fdc:	62fb      	str	r3, [r7, #44]	; 0x2c
     fde:	6f7b      	ldr	r3, [r7, #116]	; 0x74
     fe0:	689b      	ldr	r3, [r3, #8]
     fe2:	633b      	str	r3, [r7, #48]	; 0x30
     fe4:	6f7b      	ldr	r3, [r7, #116]	; 0x74
     fe6:	68db      	ldr	r3, [r3, #12]
     fe8:	637b      	str	r3, [r7, #52]	; 0x34
     fea:	6ffb      	ldr	r3, [r7, #124]	; 0x7c
     fec:	681b      	ldr	r3, [r3, #0]
     fee:	61bb      	str	r3, [r7, #24]
     ff0:	6ffb      	ldr	r3, [r7, #124]	; 0x7c
     ff2:	685b      	ldr	r3, [r3, #4]
     ff4:	61fb      	str	r3, [r7, #28]
     ff6:	6ffb      	ldr	r3, [r7, #124]	; 0x7c
     ff8:	689b      	ldr	r3, [r3, #8]
     ffa:	623b      	str	r3, [r7, #32]
     ffc:	6ffb      	ldr	r3, [r7, #124]	; 0x7c
     ffe:	68db      	ldr	r3, [r3, #12]
    1000:	627b      	str	r3, [r7, #36]	; 0x24
    1002:	6fbb      	ldr	r3, [r7, #120]	; 0x78
    1004:	681b      	ldr	r3, [r3, #0]
    1006:	60bb      	str	r3, [r7, #8]
    1008:	6fbb      	ldr	r3, [r7, #120]	; 0x78
    100a:	685b      	ldr	r3, [r3, #4]
    100c:	60fb      	str	r3, [r7, #12]
    100e:	6fbb      	ldr	r3, [r7, #120]	; 0x78
    1010:	689b      	ldr	r3, [r3, #8]
    1012:	613b      	str	r3, [r7, #16]
    1014:	6fbb      	ldr	r3, [r7, #120]	; 0x78
    1016:	68db      	ldr	r3, [r3, #12]
    1018:	617b      	str	r3, [r7, #20]
    101a:	ed97 7a0e 	vldr	s14, [r7, #56]	; 0x38
    101e:	edd7 7a0a 	vldr	s15, [r7, #40]	; 0x28
    1022:	683b      	ldr	r3, [r7, #0]
    1024:	1d1a      	adds	r2, r3, #4
    1026:	603a      	str	r2, [r7, #0]
    1028:	ee77 7a27 	vadd.f32	s15, s14, s15
    102c:	edc3 7a00 	vstr	s15, [r3]
    1030:	ed97 7a0f 	vldr	s14, [r7, #60]	; 0x3c
    1034:	edd7 7a0b 	vldr	s15, [r7, #44]	; 0x2c
    1038:	683b      	ldr	r3, [r7, #0]
    103a:	1d1a      	adds	r2, r3, #4
    103c:	603a      	str	r2, [r7, #0]
    103e:	ee77 7a27 	vadd.f32	s15, s14, s15
    1042:	edc3 7a00 	vstr	s15, [r3]
    1046:	ed97 7a10 	vldr	s14, [r7, #64]	; 0x40
    104a:	edd7 7a0c 	vldr	s15, [r7, #48]	; 0x30
    104e:	683b      	ldr	r3, [r7, #0]
    1050:	1d1a      	adds	r2, r3, #4
    1052:	603a      	str	r2, [r7, #0]
    1054:	ee77 7a27 	vadd.f32	s15, s14, s15
    1058:	edc3 7a00 	vstr	s15, [r3]
    105c:	ed97 7a11 	vldr	s14, [r7, #68]	; 0x44
    1060:	edd7 7a0d 	vldr	s15, [r7, #52]	; 0x34
    1064:	683b      	ldr	r3, [r7, #0]
    1066:	1d1a      	adds	r2, r3, #4
    1068:	603a      	str	r2, [r7, #0]
    106a:	ee77 7a27 	vadd.f32	s15, s14, s15
    106e:	edc3 7a00 	vstr	s15, [r3]
    1072:	ed97 7a0e 	vldr	s14, [r7, #56]	; 0x38
    1076:	edd7 7a0a 	vldr	s15, [r7, #40]	; 0x28
    107a:	ee77 7a67 	vsub.f32	s15, s14, s15
    107e:	edc7 7a0a 	vstr	s15, [r7, #40]	; 0x28
    1082:	ed97 7a0f 	vldr	s14, [r7, #60]	; 0x3c
    1086:	edd7 7a0b 	vldr	s15, [r7, #44]	; 0x2c
    108a:	ee77 7a67 	vsub.f32	s15, s14, s15
    108e:	edc7 7a0b 	vstr	s15, [r7, #44]	; 0x2c
    1092:	ed97 7a10 	vldr	s14, [r7, #64]	; 0x40
    1096:	edd7 7a0c 	vldr	s15, [r7, #48]	; 0x30
    109a:	ee77 7a67 	vsub.f32	s15, s14, s15
    109e:	edc7 7a0c 	vstr	s15, [r7, #48]	; 0x30
    10a2:	ed97 7a11 	vldr	s14, [r7, #68]	; 0x44
    10a6:	edd7 7a0d 	vldr	s15, [r7, #52]	; 0x34
    10aa:	ee77 7a67 	vsub.f32	s15, s14, s15
    10ae:	edc7 7a0d 	vstr	s15, [r7, #52]	; 0x34
    10b2:	ed97 7a06 	vldr	s14, [r7, #24]
    10b6:	edd7 7a02 	vldr	s15, [r7, #8]
    10ba:	6ffb      	ldr	r3, [r7, #124]	; 0x7c
    10bc:	1d1a      	adds	r2, r3, #4
    10be:	67fa      	str	r2, [r7, #124]	; 0x7c
    10c0:	ee77 7a27 	vadd.f32	s15, s14, s15
    10c4:	edc3 7a00 	vstr	s15, [r3]
    10c8:	ed97 7a07 	vldr	s14, [r7, #28]
    10cc:	edd7 7a03 	vldr	s15, [r7, #12]
    10d0:	6ffb      	ldr	r3, [r7, #124]	; 0x7c
    10d2:	1d1a      	adds	r2, r3, #4
    10d4:	67fa      	str	r2, [r7, #124]	; 0x7c
    10d6:	ee77 7a27 	vadd.f32	s15, s14, s15
    10da:	edc3 7a00 	vstr	s15, [r3]
    10de:	ed97 7a08 	vldr	s14, [r7, #32]
    10e2:	edd7 7a04 	vldr	s15, [r7, #16]
    10e6:	6ffb      	ldr	r3, [r7, #124]	; 0x7c
    10e8:	1d1a      	adds	r2, r3, #4
    10ea:	67fa      	str	r2, [r7, #124]	; 0x7c
    10ec:	ee77 7a27 	vadd.f32	s15, s14, s15
    10f0:	edc3 7a00 	vstr	s15, [r3]
    10f4:	ed97 7a09 	vldr	s14, [r7, #36]	; 0x24
    10f8:	edd7 7a05 	vldr	s15, [r7, #20]
    10fc:	6ffb      	ldr	r3, [r7, #124]	; 0x7c
    10fe:	1d1a      	adds	r2, r3, #4
    1100:	67fa      	str	r2, [r7, #124]	; 0x7c
    1102:	ee77 7a27 	vadd.f32	s15, s14, s15
    1106:	edc3 7a00 	vstr	s15, [r3]
    110a:	ed97 7a02 	vldr	s14, [r7, #8]
    110e:	edd7 7a06 	vldr	s15, [r7, #24]
    1112:	ee77 7a67 	vsub.f32	s15, s14, s15
    1116:	edc7 7a02 	vstr	s15, [r7, #8]
    111a:	ed97 7a03 	vldr	s14, [r7, #12]
    111e:	edd7 7a07 	vldr	s15, [r7, #28]
    1122:	ee77 7a67 	vsub.f32	s15, s14, s15
    1126:	edc7 7a03 	vstr	s15, [r7, #12]
    112a:	ed97 7a04 	vldr	s14, [r7, #16]
    112e:	edd7 7a08 	vldr	s15, [r7, #32]
    1132:	ee77 7a67 	vsub.f32	s15, s14, s15
    1136:	edc7 7a04 	vstr	s15, [r7, #16]
    113a:	ed97 7a05 	vldr	s14, [r7, #20]
    113e:	edd7 7a09 	vldr	s15, [r7, #36]	; 0x24
    1142:	ee77 7a67 	vsub.f32	s15, s14, s15
    1146:	edc7 7a05 	vstr	s15, [r7, #20]
    114a:	6f3b      	ldr	r3, [r7, #112]	; 0x70
    114c:	1d1a      	adds	r2, r3, #4
    114e:	673a      	str	r2, [r7, #112]	; 0x70
    1150:	681b      	ldr	r3, [r3, #0]
    1152:	65fb      	str	r3, [r7, #92]	; 0x5c
    1154:	6f3b      	ldr	r3, [r7, #112]	; 0x70
    1156:	1d1a      	adds	r2, r3, #4
    1158:	673a      	str	r2, [r7, #112]	; 0x70
    115a:	681b      	ldr	r3, [r3, #0]
    115c:	65bb      	str	r3, [r7, #88]	; 0x58
    115e:	edd7 7a0a 	vldr	s15, [r7, #40]	; 0x28
    1162:	ed97 7a17 	vldr	s14, [r7, #92]	; 0x5c
    1166:	ee67 7a27 	vmul.f32	s15, s14, s15
    116a:	edc7 7a15 	vstr	s15, [r7, #84]	; 0x54
    116e:	edd7 7a0b 	vldr	s15, [r7, #44]	; 0x2c
    1172:	ed97 7a16 	vldr	s14, [r7, #88]	; 0x58
    1176:	ee67 7a27 	vmul.f32	s15, s14, s15
    117a:	edc7 7a14 	vstr	s15, [r7, #80]	; 0x50
    117e:	edd7 7a0b 	vldr	s15, [r7, #44]	; 0x2c
    1182:	ed97 7a17 	vldr	s14, [r7, #92]	; 0x5c
    1186:	ee67 7a27 	vmul.f32	s15, s14, s15
    118a:	edc7 7a13 	vstr	s15, [r7, #76]	; 0x4c
    118e:	edd7 7a0a 	vldr	s15, [r7, #40]	; 0x28
    1192:	ed97 7a16 	vldr	s14, [r7, #88]	; 0x58
    1196:	ee67 7a27 	vmul.f32	s15, s14, s15
    119a:	edc7 7a12 	vstr	s15, [r7, #72]	; 0x48
    119e:	6f7b      	ldr	r3, [r7, #116]	; 0x74
    11a0:	1d1a      	adds	r2, r3, #4
    11a2:	677a      	str	r2, [r7, #116]	; 0x74
    11a4:	ed97 7a15 	vldr	s14, [r7, #84]	; 0x54
    11a8:	edd7 7a14 	vldr	s15, [r7, #80]	; 0x50
    11ac:	ee77 7a27 	vadd.f32	s15, s14, s15
    11b0:	edc3 7a00 	vstr	s15, [r3]
    11b4:	6f7b      	ldr	r3, [r7, #116]	; 0x74
    11b6:	1d1a      	adds	r2, r3, #4
    11b8:	677a      	str	r2, [r7, #116]	; 0x74
    11ba:	ed97 7a13 	vldr	s14, [r7, #76]	; 0x4c
    11be:	edd7 7a12 	vldr	s15, [r7, #72]	; 0x48
    11c2:	ee77 7a67 	vsub.f32	s15, s14, s15
    11c6:	edc3 7a00 	vstr	s15, [r3]
    11ca:	edd7 7a02 	vldr	s15, [r7, #8]
    11ce:	ed97 7a16 	vldr	s14, [r7, #88]	; 0x58
    11d2:	ee67 7a27 	vmul.f32	s15, s14, s15
    11d6:	edc7 7a15 	vstr	s15, [r7, #84]	; 0x54
    11da:	edd7 7a03 	vldr	s15, [r7, #12]
    11de:	ed97 7a17 	vldr	s14, [r7, #92]	; 0x5c
    11e2:	ee67 7a27 	vmul.f32	s15, s14, s15
    11e6:	edc7 7a14 	vstr	s15, [r7, #80]	; 0x50
    11ea:	edd7 7a03 	vldr	s15, [r7, #12]
    11ee:	ed97 7a16 	vldr	s14, [r7, #88]	; 0x58
    11f2:	ee67 7a27 	vmul.f32	s15, s14, s15
    11f6:	edc7 7a13 	vstr	s15, [r7, #76]	; 0x4c
    11fa:	edd7 7a02 	vldr	s15, [r7, #8]
    11fe:	ed97 7a17 	vldr	s14, [r7, #92]	; 0x5c
    1202:	ee67 7a27 	vmul.f32	s15, s14, s15
    1206:	edc7 7a12 	vstr	s15, [r7, #72]	; 0x48
    120a:	6fbb      	ldr	r3, [r7, #120]	; 0x78
    120c:	1d1a      	adds	r2, r3, #4
    120e:	67ba      	str	r2, [r7, #120]	; 0x78
    1210:	ed97 7a15 	vldr	s14, [r7, #84]	; 0x54
    1214:	edd7 7a14 	vldr	s15, [r7, #80]	; 0x50
    1218:	ee77 7a67 	vsub.f32	s15, s14, s15
    121c:	edc3 7a00 	vstr	s15, [r3]
    1220:	6fbb      	ldr	r3, [r7, #120]	; 0x78
    1222:	1d1a      	adds	r2, r3, #4
    1224:	67ba      	str	r2, [r7, #120]	; 0x78
    1226:	ed97 7a13 	vldr	s14, [r7, #76]	; 0x4c
    122a:	edd7 7a12 	vldr	s15, [r7, #72]	; 0x48
    122e:	ee77 7a27 	vadd.f32	s15, s14, s15
    1232:	edc3 7a00 	vstr	s15, [r3]
    1236:	6f3b      	ldr	r3, [r7, #112]	; 0x70
    1238:	1d1a      	adds	r2, r3, #4
    123a:	673a      	str	r2, [r7, #112]	; 0x70
    123c:	681b      	ldr	r3, [r3, #0]
    123e:	65fb      	str	r3, [r7, #92]	; 0x5c
    1240:	6f3b      	ldr	r3, [r7, #112]	; 0x70
    1242:	1d1a      	adds	r2, r3, #4
    1244:	673a      	str	r2, [r7, #112]	; 0x70
    1246:	681b      	ldr	r3, [r3, #0]
    1248:	65bb      	str	r3, [r7, #88]	; 0x58
    124a:	edd7 7a0c 	vldr	s15, [r7, #48]	; 0x30
    124e:	ed97 7a17 	vldr	s14, [r7, #92]	; 0x5c
    1252:	ee67 7a27 	vmul.f32	s15, s14, s15
    1256:	edc7 7a15 	vstr	s15, [r7, #84]	; 0x54
    125a:	edd7 7a0d 	vldr	s15, [r7, #52]	; 0x34
    125e:	ed97 7a16 	vldr	s14, [r7, #88]	; 0x58
    1262:	ee67 7a27 	vmul.f32	s15, s14, s15
    1266:	edc7 7a14 	vstr	s15, [r7, #80]	; 0x50
    126a:	edd7 7a0d 	vldr	s15, [r7, #52]	; 0x34
    126e:	ed97 7a17 	vldr	s14, [r7, #92]	; 0x5c
    1272:	ee67 7a27 	vmul.f32	s15, s14, s15
    1276:	edc7 7a13 	vstr	s15, [r7, #76]	; 0x4c
    127a:	edd7 7a0c 	vldr	s15, [r7, #48]	; 0x30
    127e:	ed97 7a16 	vldr	s14, [r7, #88]	; 0x58
    1282:	ee67 7a27 	vmul.f32	s15, s14, s15
    1286:	edc7 7a12 	vstr	s15, [r7, #72]	; 0x48
    128a:	6f7b      	ldr	r3, [r7, #116]	; 0x74
    128c:	1d1a      	adds	r2, r3, #4
    128e:	677a      	str	r2, [r7, #116]	; 0x74
    1290:	ed97 7a15 	vldr	s14, [r7, #84]	; 0x54
    1294:	edd7 7a14 	vldr	s15, [r7, #80]	; 0x50
    1298:	ee77 7a27 	vadd.f32	s15, s14, s15
    129c:	edc3 7a00 	vstr	s15, [r3]
    12a0:	6f7b      	ldr	r3, [r7, #116]	; 0x74
    12a2:	1d1a      	adds	r2, r3, #4
    12a4:	677a      	str	r2, [r7, #116]	; 0x74
    12a6:	ed97 7a13 	vldr	s14, [r7, #76]	; 0x4c
    12aa:	edd7 7a12 	vldr	s15, [r7, #72]	; 0x48
    12ae:	ee77 7a67 	vsub.f32	s15, s14, s15
    12b2:	edc3 7a00 	vstr	s15, [r3]
    12b6:	edd7 7a04 	vldr	s15, [r7, #16]
    12ba:	ed97 7a16 	vldr	s14, [r7, #88]	; 0x58
    12be:	ee67 7a27 	vmul.f32	s15, s14, s15
    12c2:	edc7 7a15 	vstr	s15, [r7, #84]	; 0x54
    12c6:	edd7 7a05 	vldr	s15, [r7, #20]
    12ca:	ed97 7a17 	vldr	s14, [r7, #92]	; 0x5c
    12ce:	ee67 7a27 	vmul.f32	s15, s14, s15
    12d2:	edc7 7a14 	vstr	s15, [r7, #80]	; 0x50
    12d6:	edd7 7a05 	vldr	s15, [r7, #20]
    12da:	ed97 7a16 	vldr	s14, [r7, #88]	; 0x58
    12de:	ee67 7a27 	vmul.f32	s15, s14, s15
    12e2:	edc7 7a13 	vstr	s15, [r7, #76]	; 0x4c
    12e6:	edd7 7a04 	vldr	s15, [r7, #16]
    12ea:	ed97 7a17 	vldr	s14, [r7, #92]	; 0x5c
    12ee:	ee67 7a27 	vmul.f32	s15, s14, s15
    12f2:	edc7 7a12 	vstr	s15, [r7, #72]	; 0x48
    12f6:	6fbb      	ldr	r3, [r7, #120]	; 0x78
    12f8:	1d1a      	adds	r2, r3, #4
    12fa:	67ba      	str	r2, [r7, #120]	; 0x78
    12fc:	ed97 7a15 	vldr	s14, [r7, #84]	; 0x54
    1300:	edd7 7a14 	vldr	s15, [r7, #80]	; 0x50
    1304:	ee77 7a67 	vsub.f32	s15, s14, s15
    1308:	edc3 7a00 	vstr	s15, [r3]
    130c:	6fbb      	ldr	r3, [r7, #120]	; 0x78
    130e:	1d1a      	adds	r2, r3, #4
    1310:	67ba      	str	r2, [r7, #120]	; 0x78
    1312:	ed97 7a13 	vldr	s14, [r7, #76]	; 0x4c
    1316:	edd7 7a12 	vldr	s15, [r7, #72]	; 0x48
    131a:	ee77 7a27 	vadd.f32	s15, s14, s15
    131e:	edc3 7a00 	vstr	s15, [r3]
    1322:	6efb      	ldr	r3, [r7, #108]	; 0x6c
    1324:	3b01      	subs	r3, #1
    1326:	66fb      	str	r3, [r7, #108]	; 0x6c
    1328:	6efb      	ldr	r3, [r7, #108]	; 0x6c
    132a:	2b00      	cmp	r3, #0
    132c:	f47f ae45 	bne.w	fba <arm_cfft_radix8by2_f32+0x4a>
    1330:	6ebb      	ldr	r3, [r7, #104]	; 0x68
    1332:	b299      	uxth	r1, r3
    1334:	687b      	ldr	r3, [r7, #4]
    1336:	685a      	ldr	r2, [r3, #4]
    1338:	2302      	movs	r3, #2
    133a:	6e78      	ldr	r0, [r7, #100]	; 0x64
    133c:	f001 f81e 	bl	237c <arm_radix8_butterfly_f32>
    1340:	6ebb      	ldr	r3, [r7, #104]	; 0x68
    1342:	b299      	uxth	r1, r3
    1344:	687b      	ldr	r3, [r7, #4]
    1346:	685a      	ldr	r2, [r3, #4]
    1348:	2302      	movs	r3, #2
    134a:	6e38      	ldr	r0, [r7, #96]	; 0x60
    134c:	f001 f816 	bl	237c <arm_radix8_butterfly_f32>
    1350:	bf00      	nop
    1352:	3780      	adds	r7, #128	; 0x80
    1354:	46bd      	mov	sp, r7
    1356:	bd80      	pop	{r7, pc}

00001358 <arm_cfft_radix8by4_f32>:
    1358:	b580      	push	{r7, lr}
    135a:	b0ac      	sub	sp, #176	; 0xb0
    135c:	af00      	add	r7, sp, #0
    135e:	6078      	str	r0, [r7, #4]
    1360:	6039      	str	r1, [r7, #0]
    1362:	687b      	ldr	r3, [r7, #4]
    1364:	881b      	ldrh	r3, [r3, #0]
    1366:	085b      	lsrs	r3, r3, #1
    1368:	b29b      	uxth	r3, r3
    136a:	f8c7 3080 	str.w	r3, [r7, #128]	; 0x80
    136e:	f8d7 3080 	ldr.w	r3, [r7, #128]	; 0x80
    1372:	009b      	lsls	r3, r3, #2
    1374:	683a      	ldr	r2, [r7, #0]
    1376:	4413      	add	r3, r2
    1378:	f8c7 3090 	str.w	r3, [r7, #144]	; 0x90
    137c:	f8d7 3080 	ldr.w	r3, [r7, #128]	; 0x80
    1380:	009b      	lsls	r3, r3, #2
    1382:	f8d7 2090 	ldr.w	r2, [r7, #144]	; 0x90
    1386:	4413      	add	r3, r2
    1388:	f8c7 308c 	str.w	r3, [r7, #140]	; 0x8c
    138c:	f8d7 3080 	ldr.w	r3, [r7, #128]	; 0x80
    1390:	009b      	lsls	r3, r3, #2
    1392:	f8d7 208c 	ldr.w	r2, [r7, #140]	; 0x8c
    1396:	4413      	add	r3, r2
    1398:	f8c7 3088 	str.w	r3, [r7, #136]	; 0x88
    139c:	683b      	ldr	r3, [r7, #0]
    139e:	67fb      	str	r3, [r7, #124]	; 0x7c
    13a0:	f8d7 3090 	ldr.w	r3, [r7, #144]	; 0x90
    13a4:	67bb      	str	r3, [r7, #120]	; 0x78
    13a6:	f8d7 308c 	ldr.w	r3, [r7, #140]	; 0x8c
    13aa:	677b      	str	r3, [r7, #116]	; 0x74
    13ac:	f8d7 3088 	ldr.w	r3, [r7, #136]	; 0x88
    13b0:	673b      	str	r3, [r7, #112]	; 0x70
    13b2:	f8d7 3090 	ldr.w	r3, [r7, #144]	; 0x90
    13b6:	3b04      	subs	r3, #4
    13b8:	f8c7 30ac 	str.w	r3, [r7, #172]	; 0xac
    13bc:	f8d7 308c 	ldr.w	r3, [r7, #140]	; 0x8c
    13c0:	3b04      	subs	r3, #4
    13c2:	f8c7 30a8 	str.w	r3, [r7, #168]	; 0xa8
    13c6:	f8d7 3088 	ldr.w	r3, [r7, #136]	; 0x88
    13ca:	3b04      	subs	r3, #4
    13cc:	f8c7 30a4 	str.w	r3, [r7, #164]	; 0xa4
    13d0:	f8d7 3080 	ldr.w	r3, [r7, #128]	; 0x80
    13d4:	009b      	lsls	r3, r3, #2
    13d6:	f8d7 20a4 	ldr.w	r2, [r7, #164]	; 0xa4
    13da:	4413      	add	r3, r2
    13dc:	f8c7 30a0 	str.w	r3, [r7, #160]	; 0xa0
    13e0:	687b      	ldr	r3, [r7, #4]
    13e2:	685b      	ldr	r3, [r3, #4]
    13e4:	f8c7 3094 	str.w	r3, [r7, #148]	; 0x94
    13e8:	f8d7 3094 	ldr.w	r3, [r7, #148]	; 0x94
    13ec:	f8c7 3098 	str.w	r3, [r7, #152]	; 0x98
    13f0:	f8d7 3098 	ldr.w	r3, [r7, #152]	; 0x98
    13f4:	f8c7 309c 	str.w	r3, [r7, #156]	; 0x9c
    13f8:	f8d7 3080 	ldr.w	r3, [r7, #128]	; 0x80
    13fc:	085b      	lsrs	r3, r3, #1
    13fe:	f8c7 3080 	str.w	r3, [r7, #128]	; 0x80
    1402:	2302      	movs	r3, #2
    1404:	66fb      	str	r3, [r7, #108]	; 0x6c
    1406:	2304      	movs	r3, #4
    1408:	66bb      	str	r3, [r7, #104]	; 0x68
    140a:	2306      	movs	r3, #6
    140c:	667b      	str	r3, [r7, #100]	; 0x64
    140e:	683b      	ldr	r3, [r7, #0]
    1410:	ed93 7a00 	vldr	s14, [r3]
    1414:	f8d7 308c 	ldr.w	r3, [r7, #140]	; 0x8c
    1418:	edd3 7a00 	vldr	s15, [r3]
    141c:	ee77 7a27 	vadd.f32	s15, s14, s15
    1420:	edc7 7a18 	vstr	s15, [r7, #96]	; 0x60
    1424:	683b      	ldr	r3, [r7, #0]
    1426:	ed93 7a00 	vldr	s14, [r3]
    142a:	f8d7 308c 	ldr.w	r3, [r7, #140]	; 0x8c
    142e:	edd3 7a00 	vldr	s15, [r3]
    1432:	ee77 7a67 	vsub.f32	s15, s14, s15
    1436:	edc7 7a17 	vstr	s15, [r7, #92]	; 0x5c
    143a:	683b      	ldr	r3, [r7, #0]
    143c:	3304      	adds	r3, #4
    143e:	ed93 7a00 	vldr	s14, [r3]
    1442:	f8d7 308c 	ldr.w	r3, [r7, #140]	; 0x8c
    1446:	3304      	adds	r3, #4
    1448:	edd3 7a00 	vldr	s15, [r3]
    144c:	ee77 7a27 	vadd.f32	s15, s14, s15
    1450:	edc7 7a16 	vstr	s15, [r7, #88]	; 0x58
    1454:	683b      	ldr	r3, [r7, #0]
    1456:	3304      	adds	r3, #4
    1458:	ed93 7a00 	vldr	s14, [r3]
    145c:	f8d7 308c 	ldr.w	r3, [r7, #140]	; 0x8c
    1460:	3304      	adds	r3, #4
    1462:	edd3 7a00 	vldr	s15, [r3]
    1466:	ee77 7a67 	vsub.f32	s15, s14, s15
    146a:	edc7 7a15 	vstr	s15, [r7, #84]	; 0x54
    146e:	f8d7 3090 	ldr.w	r3, [r7, #144]	; 0x90
    1472:	3304      	adds	r3, #4
    1474:	ed93 7a00 	vldr	s14, [r3]
    1478:	edd7 7a17 	vldr	s15, [r7, #92]	; 0x5c
    147c:	ee37 7a27 	vadd.f32	s14, s14, s15
    1480:	f8d7 3088 	ldr.w	r3, [r7, #136]	; 0x88
    1484:	3304      	adds	r3, #4
    1486:	edd3 7a00 	vldr	s15, [r3]
    148a:	ee77 7a67 	vsub.f32	s15, s14, s15
    148e:	edc7 7a0b 	vstr	s15, [r7, #44]	; 0x2c
    1492:	f8d7 3090 	ldr.w	r3, [r7, #144]	; 0x90
    1496:	edd3 7a00 	vldr	s15, [r3]
    149a:	ed97 7a15 	vldr	s14, [r7, #84]	; 0x54
    149e:	ee37 7a67 	vsub.f32	s14, s14, s15
    14a2:	f8d7 3088 	ldr.w	r3, [r7, #136]	; 0x88
    14a6:	edd3 7a00 	vldr	s15, [r3]
    14aa:	ee77 7a27 	vadd.f32	s15, s14, s15
    14ae:	edc7 7a0c 	vstr	s15, [r7, #48]	; 0x30
    14b2:	f8d7 3090 	ldr.w	r3, [r7, #144]	; 0x90
    14b6:	edd3 7a00 	vldr	s15, [r3]
    14ba:	ed97 7a18 	vldr	s14, [r7, #96]	; 0x60
    14be:	ee37 7a67 	vsub.f32	s14, s14, s15
    14c2:	f8d7 3088 	ldr.w	r3, [r7, #136]	; 0x88
    14c6:	edd3 7a00 	vldr	s15, [r3]
    14ca:	ee77 7a67 	vsub.f32	s15, s14, s15
    14ce:	edc7 7a07 	vstr	s15, [r7, #28]
    14d2:	f8d7 3090 	ldr.w	r3, [r7, #144]	; 0x90
    14d6:	3304      	adds	r3, #4
    14d8:	edd3 7a00 	vldr	s15, [r3]
    14dc:	ed97 7a16 	vldr	s14, [r7, #88]	; 0x58
    14e0:	ee37 7a67 	vsub.f32	s14, s14, s15
    14e4:	f8d7 3088 	ldr.w	r3, [r7, #136]	; 0x88
    14e8:	3304      	adds	r3, #4
    14ea:	edd3 7a00 	vldr	s15, [r3]
    14ee:	ee77 7a67 	vsub.f32	s15, s14, s15
    14f2:	edc7 7a08 	vstr	s15, [r7, #32]
    14f6:	f8d7 3090 	ldr.w	r3, [r7, #144]	; 0x90
    14fa:	3304      	adds	r3, #4
    14fc:	edd3 7a00 	vldr	s15, [r3]
    1500:	ed97 7a17 	vldr	s14, [r7, #92]	; 0x5c
    1504:	ee37 7a67 	vsub.f32	s14, s14, s15
    1508:	f8d7 3088 	ldr.w	r3, [r7, #136]	; 0x88
    150c:	3304      	adds	r3, #4
    150e:	edd3 7a00 	vldr	s15, [r3]
    1512:	ee77 7a27 	vadd.f32	s15, s14, s15
    1516:	edc7 7a03 	vstr	s15, [r7, #12]
    151a:	f8d7 3090 	ldr.w	r3, [r7, #144]	; 0x90
    151e:	ed93 7a00 	vldr	s14, [r3]
    1522:	edd7 7a15 	vldr	s15, [r7, #84]	; 0x54
    1526:	ee37 7a27 	vadd.f32	s14, s14, s15
    152a:	f8d7 3088 	ldr.w	r3, [r7, #136]	; 0x88
    152e:	edd3 7a00 	vldr	s15, [r3]
    1532:	ee77 7a67 	vsub.f32	s15, s14, s15
    1536:	edc7 7a04 	vstr	s15, [r7, #16]
    153a:	f8d7 3090 	ldr.w	r3, [r7, #144]	; 0x90
    153e:	ed93 7a00 	vldr	s14, [r3]
    1542:	edd7 7a18 	vldr	s15, [r7, #96]	; 0x60
    1546:	ee37 7a27 	vadd.f32	s14, s14, s15
    154a:	f8d7 3088 	ldr.w	r3, [r7, #136]	; 0x88
    154e:	edd3 7a00 	vldr	s15, [r3]
    1552:	683b      	ldr	r3, [r7, #0]
    1554:	1d1a      	adds	r2, r3, #4
    1556:	603a      	str	r2, [r7, #0]
    1558:	ee77 7a27 	vadd.f32	s15, s14, s15
    155c:	edc3 7a00 	vstr	s15, [r3]
    1560:	f8d7 3090 	ldr.w	r3, [r7, #144]	; 0x90
    1564:	3304      	adds	r3, #4
    1566:	ed93 7a00 	vldr	s14, [r3]
    156a:	edd7 7a16 	vldr	s15, [r7, #88]	; 0x58
    156e:	ee37 7a27 	vadd.f32	s14, s14, s15
    1572:	f8d7 3088 	ldr.w	r3, [r7, #136]	; 0x88
    1576:	3304      	adds	r3, #4
    1578:	edd3 7a00 	vldr	s15, [r3]
    157c:	683b      	ldr	r3, [r7, #0]
    157e:	1d1a      	adds	r2, r3, #4
    1580:	603a      	str	r2, [r7, #0]
    1582:	ee77 7a27 	vadd.f32	s15, s14, s15
    1586:	edc3 7a00 	vstr	s15, [r3]
    158a:	f8d7 3090 	ldr.w	r3, [r7, #144]	; 0x90
    158e:	1d1a      	adds	r2, r3, #4
    1590:	f8c7 2090 	str.w	r2, [r7, #144]	; 0x90
    1594:	6afa      	ldr	r2, [r7, #44]	; 0x2c
    1596:	601a      	str	r2, [r3, #0]
    1598:	f8d7 3090 	ldr.w	r3, [r7, #144]	; 0x90
    159c:	1d1a      	adds	r2, r3, #4
    159e:	f8c7 2090 	str.w	r2, [r7, #144]	; 0x90
    15a2:	6b3a      	ldr	r2, [r7, #48]	; 0x30
    15a4:	601a      	str	r2, [r3, #0]
    15a6:	f8d7 308c 	ldr.w	r3, [r7, #140]	; 0x8c
    15aa:	1d1a      	adds	r2, r3, #4
    15ac:	f8c7 208c 	str.w	r2, [r7, #140]	; 0x8c
    15b0:	69fa      	ldr	r2, [r7, #28]
    15b2:	601a      	str	r2, [r3, #0]
    15b4:	f8d7 308c 	ldr.w	r3, [r7, #140]	; 0x8c
    15b8:	1d1a      	adds	r2, r3, #4
    15ba:	f8c7 208c 	str.w	r2, [r7, #140]	; 0x8c
    15be:	6a3a      	ldr	r2, [r7, #32]
    15c0:	601a      	str	r2, [r3, #0]
    15c2:	f8d7 3088 	ldr.w	r3, [r7, #136]	; 0x88
    15c6:	1d1a      	adds	r2, r3, #4
    15c8:	f8c7 2088 	str.w	r2, [r7, #136]	; 0x88
    15cc:	68fa      	ldr	r2, [r7, #12]
    15ce:	601a      	str	r2, [r3, #0]
    15d0:	f8d7 3088 	ldr.w	r3, [r7, #136]	; 0x88
    15d4:	1d1a      	adds	r2, r3, #4
    15d6:	f8c7 2088 	str.w	r2, [r7, #136]	; 0x88
    15da:	693a      	ldr	r2, [r7, #16]
    15dc:	601a      	str	r2, [r3, #0]
    15de:	6efb      	ldr	r3, [r7, #108]	; 0x6c
    15e0:	009b      	lsls	r3, r3, #2
    15e2:	f8d7 209c 	ldr.w	r2, [r7, #156]	; 0x9c
    15e6:	4413      	add	r3, r2
    15e8:	f8c7 309c 	str.w	r3, [r7, #156]	; 0x9c
    15ec:	6ebb      	ldr	r3, [r7, #104]	; 0x68
    15ee:	009b      	lsls	r3, r3, #2
    15f0:	f8d7 2098 	ldr.w	r2, [r7, #152]	; 0x98
    15f4:	4413      	add	r3, r2
    15f6:	f8c7 3098 	str.w	r3, [r7, #152]	; 0x98
    15fa:	6e7b      	ldr	r3, [r7, #100]	; 0x64
    15fc:	009b      	lsls	r3, r3, #2
    15fe:	f8d7 2094 	ldr.w	r2, [r7, #148]	; 0x94
    1602:	4413      	add	r3, r2
    1604:	f8c7 3094 	str.w	r3, [r7, #148]	; 0x94
    1608:	f8d7 3080 	ldr.w	r3, [r7, #128]	; 0x80
    160c:	3b02      	subs	r3, #2
    160e:	085b      	lsrs	r3, r3, #1
    1610:	f8c7 3084 	str.w	r3, [r7, #132]	; 0x84
    1614:	e31a      	b.n	1c4c <arm_cfft_radix8by4_f32+0x8f4>
    1616:	683b      	ldr	r3, [r7, #0]
    1618:	ed93 7a00 	vldr	s14, [r3]
    161c:	f8d7 308c 	ldr.w	r3, [r7, #140]	; 0x8c
    1620:	edd3 7a00 	vldr	s15, [r3]
    1624:	ee77 7a27 	vadd.f32	s15, s14, s15
    1628:	edc7 7a18 	vstr	s15, [r7, #96]	; 0x60
    162c:	683b      	ldr	r3, [r7, #0]
    162e:	ed93 7a00 	vldr	s14, [r3]
    1632:	f8d7 308c 	ldr.w	r3, [r7, #140]	; 0x8c
    1636:	edd3 7a00 	vldr	s15, [r3]
    163a:	ee77 7a67 	vsub.f32	s15, s14, s15
    163e:	edc7 7a17 	vstr	s15, [r7, #92]	; 0x5c
    1642:	683b      	ldr	r3, [r7, #0]
    1644:	3304      	adds	r3, #4
    1646:	ed93 7a00 	vldr	s14, [r3]
    164a:	f8d7 308c 	ldr.w	r3, [r7, #140]	; 0x8c
    164e:	3304      	adds	r3, #4
    1650:	edd3 7a00 	vldr	s15, [r3]
    1654:	ee77 7a27 	vadd.f32	s15, s14, s15
    1658:	edc7 7a16 	vstr	s15, [r7, #88]	; 0x58
    165c:	683b      	ldr	r3, [r7, #0]
    165e:	3304      	adds	r3, #4
    1660:	ed93 7a00 	vldr	s14, [r3]
    1664:	f8d7 308c 	ldr.w	r3, [r7, #140]	; 0x8c
    1668:	3304      	adds	r3, #4
    166a:	edd3 7a00 	vldr	s15, [r3]
    166e:	ee77 7a67 	vsub.f32	s15, s14, s15
    1672:	edc7 7a15 	vstr	s15, [r7, #84]	; 0x54
    1676:	f8d7 3090 	ldr.w	r3, [r7, #144]	; 0x90
    167a:	3304      	adds	r3, #4
    167c:	ed93 7a00 	vldr	s14, [r3]
    1680:	edd7 7a17 	vldr	s15, [r7, #92]	; 0x5c
    1684:	ee37 7a27 	vadd.f32	s14, s14, s15
    1688:	f8d7 3088 	ldr.w	r3, [r7, #136]	; 0x88
    168c:	3304      	adds	r3, #4
    168e:	edd3 7a00 	vldr	s15, [r3]
    1692:	ee77 7a67 	vsub.f32	s15, s14, s15
    1696:	edc7 7a0b 	vstr	s15, [r7, #44]	; 0x2c
    169a:	f8d7 3090 	ldr.w	r3, [r7, #144]	; 0x90
    169e:	edd3 7a00 	vldr	s15, [r3]
    16a2:	ed97 7a15 	vldr	s14, [r7, #84]	; 0x54
    16a6:	ee37 7a67 	vsub.f32	s14, s14, s15
    16aa:	f8d7 3088 	ldr.w	r3, [r7, #136]	; 0x88
    16ae:	edd3 7a00 	vldr	s15, [r3]
    16b2:	ee77 7a27 	vadd.f32	s15, s14, s15
    16b6:	edc7 7a0c 	vstr	s15, [r7, #48]	; 0x30
    16ba:	f8d7 3090 	ldr.w	r3, [r7, #144]	; 0x90
    16be:	edd3 7a00 	vldr	s15, [r3]
    16c2:	ed97 7a18 	vldr	s14, [r7, #96]	; 0x60
    16c6:	ee37 7a67 	vsub.f32	s14, s14, s15
    16ca:	f8d7 3088 	ldr.w	r3, [r7, #136]	; 0x88
    16ce:	edd3 7a00 	vldr	s15, [r3]
    16d2:	ee77 7a67 	vsub.f32	s15, s14, s15
    16d6:	edc7 7a07 	vstr	s15, [r7, #28]
    16da:	f8d7 3090 	ldr.w	r3, [r7, #144]	; 0x90
    16de:	3304      	adds	r3, #4
    16e0:	edd3 7a00 	vldr	s15, [r3]
    16e4:	ed97 7a16 	vldr	s14, [r7, #88]	; 0x58
    16e8:	ee37 7a67 	vsub.f32	s14, s14, s15
    16ec:	f8d7 3088 	ldr.w	r3, [r7, #136]	; 0x88
    16f0:	3304      	adds	r3, #4
    16f2:	edd3 7a00 	vldr	s15, [r3]
    16f6:	ee77 7a67 	vsub.f32	s15, s14, s15
    16fa:	edc7 7a08 	vstr	s15, [r7, #32]
    16fe:	f8d7 3090 	ldr.w	r3, [r7, #144]	; 0x90
    1702:	3304      	adds	r3, #4
    1704:	edd3 7a00 	vldr	s15, [r3]
    1708:	ed97 7a17 	vldr	s14, [r7, #92]	; 0x5c
    170c:	ee37 7a67 	vsub.f32	s14, s14, s15
    1710:	f8d7 3088 	ldr.w	r3, [r7, #136]	; 0x88
    1714:	3304      	adds	r3, #4
    1716:	edd3 7a00 	vldr	s15, [r3]
    171a:	ee77 7a27 	vadd.f32	s15, s14, s15
    171e:	edc7 7a03 	vstr	s15, [r7, #12]
    1722:	f8d7 3090 	ldr.w	r3, [r7, #144]	; 0x90
    1726:	ed93 7a00 	vldr	s14, [r3]
    172a:	edd7 7a15 	vldr	s15, [r7, #84]	; 0x54
    172e:	ee37 7a27 	vadd.f32	s14, s14, s15
    1732:	f8d7 3088 	ldr.w	r3, [r7, #136]	; 0x88
    1736:	edd3 7a00 	vldr	s15, [r3]
    173a:	ee77 7a67 	vsub.f32	s15, s14, s15
    173e:	edc7 7a04 	vstr	s15, [r7, #16]
    1742:	f8d7 3090 	ldr.w	r3, [r7, #144]	; 0x90
    1746:	ed93 7a00 	vldr	s14, [r3]
    174a:	edd7 7a18 	vldr	s15, [r7, #96]	; 0x60
    174e:	ee37 7a27 	vadd.f32	s14, s14, s15
    1752:	f8d7 3088 	ldr.w	r3, [r7, #136]	; 0x88
    1756:	edd3 7a00 	vldr	s15, [r3]
    175a:	683b      	ldr	r3, [r7, #0]
    175c:	1d1a      	adds	r2, r3, #4
    175e:	603a      	str	r2, [r7, #0]
    1760:	ee77 7a27 	vadd.f32	s15, s14, s15
    1764:	edc3 7a00 	vstr	s15, [r3]
    1768:	f8d7 3090 	ldr.w	r3, [r7, #144]	; 0x90
    176c:	3304      	adds	r3, #4
    176e:	ed93 7a00 	vldr	s14, [r3]
    1772:	edd7 7a16 	vldr	s15, [r7, #88]	; 0x58
    1776:	ee37 7a27 	vadd.f32	s14, s14, s15
    177a:	f8d7 3088 	ldr.w	r3, [r7, #136]	; 0x88
    177e:	3304      	adds	r3, #4
    1780:	edd3 7a00 	vldr	s15, [r3]
    1784:	683b      	ldr	r3, [r7, #0]
    1786:	1d1a      	adds	r2, r3, #4
    1788:	603a      	str	r2, [r7, #0]
    178a:	ee77 7a27 	vadd.f32	s15, s14, s15
    178e:	edc3 7a00 	vstr	s15, [r3]
    1792:	f8d7 30ac 	ldr.w	r3, [r7, #172]	; 0xac
    1796:	3b04      	subs	r3, #4
    1798:	ed93 7a00 	vldr	s14, [r3]
    179c:	f8d7 30a4 	ldr.w	r3, [r7, #164]	; 0xa4
    17a0:	3b04      	subs	r3, #4
    17a2:	edd3 7a00 	vldr	s15, [r3]
    17a6:	ee77 7a27 	vadd.f32	s15, s14, s15
    17aa:	edc7 7a16 	vstr	s15, [r7, #88]	; 0x58
    17ae:	f8d7 30ac 	ldr.w	r3, [r7, #172]	; 0xac
    17b2:	3b04      	subs	r3, #4
    17b4:	ed93 7a00 	vldr	s14, [r3]
    17b8:	f8d7 30a4 	ldr.w	r3, [r7, #164]	; 0xa4
    17bc:	3b04      	subs	r3, #4
    17be:	edd3 7a00 	vldr	s15, [r3]
    17c2:	ee77 7a67 	vsub.f32	s15, s14, s15
    17c6:	edc7 7a15 	vstr	s15, [r7, #84]	; 0x54
    17ca:	f8d7 30ac 	ldr.w	r3, [r7, #172]	; 0xac
    17ce:	ed93 7a00 	vldr	s14, [r3]
    17d2:	f8d7 30a4 	ldr.w	r3, [r7, #164]	; 0xa4
    17d6:	edd3 7a00 	vldr	s15, [r3]
    17da:	ee77 7a27 	vadd.f32	s15, s14, s15
    17de:	edc7 7a18 	vstr	s15, [r7, #96]	; 0x60
    17e2:	f8d7 30ac 	ldr.w	r3, [r7, #172]	; 0xac
    17e6:	ed93 7a00 	vldr	s14, [r3]
    17ea:	f8d7 30a4 	ldr.w	r3, [r7, #164]	; 0xa4
    17ee:	edd3 7a00 	vldr	s15, [r3]
    17f2:	ee77 7a67 	vsub.f32	s15, s14, s15
    17f6:	edc7 7a17 	vstr	s15, [r7, #92]	; 0x5c
    17fa:	f8d7 30a8 	ldr.w	r3, [r7, #168]	; 0xa8
    17fe:	ed93 7a00 	vldr	s14, [r3]
    1802:	f8d7 30a0 	ldr.w	r3, [r7, #160]	; 0xa0
    1806:	edd3 7a00 	vldr	s15, [r3]
    180a:	ee37 7a67 	vsub.f32	s14, s14, s15
    180e:	edd7 7a15 	vldr	s15, [r7, #84]	; 0x54
    1812:	ee77 7a27 	vadd.f32	s15, s14, s15
    1816:	edc7 7a0d 	vstr	s15, [r7, #52]	; 0x34
    181a:	f8d7 30ac 	ldr.w	r3, [r7, #172]	; 0xac
    181e:	ed93 7a00 	vldr	s14, [r3]
    1822:	f8d7 30a4 	ldr.w	r3, [r7, #164]	; 0xa4
    1826:	edd3 7a00 	vldr	s15, [r3]
    182a:	ee37 7a67 	vsub.f32	s14, s14, s15
    182e:	f8d7 30a8 	ldr.w	r3, [r7, #168]	; 0xa8
    1832:	3b04      	subs	r3, #4
    1834:	edd3 7a00 	vldr	s15, [r3]
    1838:	ee37 7a67 	vsub.f32	s14, s14, s15
    183c:	f8d7 30a0 	ldr.w	r3, [r7, #160]	; 0xa0
    1840:	3b04      	subs	r3, #4
    1842:	edd3 7a00 	vldr	s15, [r3]
    1846:	ee77 7a27 	vadd.f32	s15, s14, s15
    184a:	edc7 7a0e 	vstr	s15, [r7, #56]	; 0x38
    184e:	f8d7 30a8 	ldr.w	r3, [r7, #168]	; 0xa8
    1852:	3b04      	subs	r3, #4
    1854:	edd3 7a00 	vldr	s15, [r3]
    1858:	ed97 7a16 	vldr	s14, [r7, #88]	; 0x58
    185c:	ee37 7a67 	vsub.f32	s14, s14, s15
    1860:	f8d7 30a0 	ldr.w	r3, [r7, #160]	; 0xa0
    1864:	3b04      	subs	r3, #4
    1866:	edd3 7a00 	vldr	s15, [r3]
    186a:	ee77 7a67 	vsub.f32	s15, s14, s15
    186e:	edc7 7a09 	vstr	s15, [r7, #36]	; 0x24
    1872:	f8d7 30a8 	ldr.w	r3, [r7, #168]	; 0xa8
    1876:	edd3 7a00 	vldr	s15, [r3]
    187a:	ed97 7a18 	vldr	s14, [r7, #96]	; 0x60
    187e:	ee37 7a67 	vsub.f32	s14, s14, s15
    1882:	f8d7 30a0 	ldr.w	r3, [r7, #160]	; 0xa0
    1886:	edd3 7a00 	vldr	s15, [r3]
    188a:	ee77 7a67 	vsub.f32	s15, s14, s15
    188e:	edc7 7a0a 	vstr	s15, [r7, #40]	; 0x28
    1892:	f8d7 30a8 	ldr.w	r3, [r7, #168]	; 0xa8
    1896:	ed93 7a00 	vldr	s14, [r3]
    189a:	f8d7 30a0 	ldr.w	r3, [r7, #160]	; 0xa0
    189e:	edd3 7a00 	vldr	s15, [r3]
    18a2:	ee37 7a67 	vsub.f32	s14, s14, s15
    18a6:	edd7 7a15 	vldr	s15, [r7, #84]	; 0x54
    18aa:	ee77 7a67 	vsub.f32	s15, s14, s15
    18ae:	edc7 7a05 	vstr	s15, [r7, #20]
    18b2:	f8d7 30a0 	ldr.w	r3, [r7, #160]	; 0xa0
    18b6:	3b04      	subs	r3, #4
    18b8:	ed93 7a00 	vldr	s14, [r3]
    18bc:	f8d7 30a8 	ldr.w	r3, [r7, #168]	; 0xa8
    18c0:	3b04      	subs	r3, #4
    18c2:	edd3 7a00 	vldr	s15, [r3]
    18c6:	ee37 7a67 	vsub.f32	s14, s14, s15
    18ca:	edd7 7a17 	vldr	s15, [r7, #92]	; 0x5c
    18ce:	ee77 7a67 	vsub.f32	s15, s14, s15
    18d2:	edc7 7a06 	vstr	s15, [r7, #24]
    18d6:	f8d7 30a8 	ldr.w	r3, [r7, #168]	; 0xa8
    18da:	ed93 7a00 	vldr	s14, [r3]
    18de:	edd7 7a18 	vldr	s15, [r7, #96]	; 0x60
    18e2:	ee37 7a27 	vadd.f32	s14, s14, s15
    18e6:	f8d7 30a0 	ldr.w	r3, [r7, #160]	; 0xa0
    18ea:	edd3 7a00 	vldr	s15, [r3]
    18ee:	f8d7 30ac 	ldr.w	r3, [r7, #172]	; 0xac
    18f2:	1f1a      	subs	r2, r3, #4
    18f4:	f8c7 20ac 	str.w	r2, [r7, #172]	; 0xac
    18f8:	ee77 7a27 	vadd.f32	s15, s14, s15
    18fc:	edc3 7a00 	vstr	s15, [r3]
    1900:	f8d7 30a8 	ldr.w	r3, [r7, #168]	; 0xa8
    1904:	3b04      	subs	r3, #4
    1906:	ed93 7a00 	vldr	s14, [r3]
    190a:	edd7 7a16 	vldr	s15, [r7, #88]	; 0x58
    190e:	ee37 7a27 	vadd.f32	s14, s14, s15
    1912:	f8d7 30a0 	ldr.w	r3, [r7, #160]	; 0xa0
    1916:	3b04      	subs	r3, #4
    1918:	edd3 7a00 	vldr	s15, [r3]
    191c:	f8d7 30ac 	ldr.w	r3, [r7, #172]	; 0xac
    1920:	1f1a      	subs	r2, r3, #4
    1922:	f8c7 20ac 	str.w	r2, [r7, #172]	; 0xac
    1926:	ee77 7a27 	vadd.f32	s15, s14, s15
    192a:	edc3 7a00 	vstr	s15, [r3]
    192e:	f8d7 309c 	ldr.w	r3, [r7, #156]	; 0x9c
    1932:	1d1a      	adds	r2, r3, #4
    1934:	f8c7 209c 	str.w	r2, [r7, #156]	; 0x9c
    1938:	681b      	ldr	r3, [r3, #0]
    193a:	653b      	str	r3, [r7, #80]	; 0x50
    193c:	f8d7 309c 	ldr.w	r3, [r7, #156]	; 0x9c
    1940:	1d1a      	adds	r2, r3, #4
    1942:	f8c7 209c 	str.w	r2, [r7, #156]	; 0x9c
    1946:	681b      	ldr	r3, [r3, #0]
    1948:	64fb      	str	r3, [r7, #76]	; 0x4c
    194a:	edd7 7a0b 	vldr	s15, [r7, #44]	; 0x2c
    194e:	ed97 7a14 	vldr	s14, [r7, #80]	; 0x50
    1952:	ee67 7a27 	vmul.f32	s15, s14, s15
    1956:	edc7 7a12 	vstr	s15, [r7, #72]	; 0x48
    195a:	edd7 7a0c 	vldr	s15, [r7, #48]	; 0x30
    195e:	ed97 7a13 	vldr	s14, [r7, #76]	; 0x4c
    1962:	ee67 7a27 	vmul.f32	s15, s14, s15
    1966:	edc7 7a11 	vstr	s15, [r7, #68]	; 0x44
    196a:	edd7 7a0c 	vldr	s15, [r7, #48]	; 0x30
    196e:	ed97 7a14 	vldr	s14, [r7, #80]	; 0x50
    1972:	ee67 7a27 	vmul.f32	s15, s14, s15
    1976:	edc7 7a10 	vstr	s15, [r7, #64]	; 0x40
    197a:	edd7 7a0b 	vldr	s15, [r7, #44]	; 0x2c
    197e:	ed97 7a13 	vldr	s14, [r7, #76]	; 0x4c
    1982:	ee67 7a27 	vmul.f32	s15, s14, s15
    1986:	edc7 7a0f 	vstr	s15, [r7, #60]	; 0x3c
    198a:	f8d7 3090 	ldr.w	r3, [r7, #144]	; 0x90
    198e:	1d1a      	adds	r2, r3, #4
    1990:	f8c7 2090 	str.w	r2, [r7, #144]	; 0x90
    1994:	ed97 7a12 	vldr	s14, [r7, #72]	; 0x48
    1998:	edd7 7a11 	vldr	s15, [r7, #68]	; 0x44
    199c:	ee77 7a27 	vadd.f32	s15, s14, s15
    19a0:	edc3 7a00 	vstr	s15, [r3]
    19a4:	f8d7 3090 	ldr.w	r3, [r7, #144]	; 0x90
    19a8:	1d1a      	adds	r2, r3, #4
    19aa:	f8c7 2090 	str.w	r2, [r7, #144]	; 0x90
    19ae:	ed97 7a10 	vldr	s14, [r7, #64]	; 0x40
    19b2:	edd7 7a0f 	vldr	s15, [r7, #60]	; 0x3c
    19b6:	ee77 7a67 	vsub.f32	s15, s14, s15
    19ba:	edc3 7a00 	vstr	s15, [r3]
    19be:	edd7 7a0e 	vldr	s15, [r7, #56]	; 0x38
    19c2:	ed97 7a13 	vldr	s14, [r7, #76]	; 0x4c
    19c6:	ee67 7a27 	vmul.f32	s15, s14, s15
    19ca:	edc7 7a12 	vstr	s15, [r7, #72]	; 0x48
    19ce:	edd7 7a0d 	vldr	s15, [r7, #52]	; 0x34
    19d2:	ed97 7a14 	vldr	s14, [r7, #80]	; 0x50
    19d6:	ee67 7a27 	vmul.f32	s15, s14, s15
    19da:	edc7 7a11 	vstr	s15, [r7, #68]	; 0x44
    19de:	edd7 7a0d 	vldr	s15, [r7, #52]	; 0x34
    19e2:	ed97 7a13 	vldr	s14, [r7, #76]	; 0x4c
    19e6:	ee67 7a27 	vmul.f32	s15, s14, s15
    19ea:	edc7 7a10 	vstr	s15, [r7, #64]	; 0x40
    19ee:	edd7 7a0e 	vldr	s15, [r7, #56]	; 0x38
    19f2:	ed97 7a14 	vldr	s14, [r7, #80]	; 0x50
    19f6:	ee67 7a27 	vmul.f32	s15, s14, s15
    19fa:	edc7 7a0f 	vstr	s15, [r7, #60]	; 0x3c
    19fe:	f8d7 30a8 	ldr.w	r3, [r7, #168]	; 0xa8
    1a02:	1f1a      	subs	r2, r3, #4
    1a04:	f8c7 20a8 	str.w	r2, [r7, #168]	; 0xa8
    1a08:	ed97 7a12 	vldr	s14, [r7, #72]	; 0x48
    1a0c:	edd7 7a11 	vldr	s15, [r7, #68]	; 0x44
    1a10:	ee77 7a67 	vsub.f32	s15, s14, s15
    1a14:	edc3 7a00 	vstr	s15, [r3]
    1a18:	f8d7 30a8 	ldr.w	r3, [r7, #168]	; 0xa8
    1a1c:	1f1a      	subs	r2, r3, #4
    1a1e:	f8c7 20a8 	str.w	r2, [r7, #168]	; 0xa8
    1a22:	ed97 7a10 	vldr	s14, [r7, #64]	; 0x40
    1a26:	edd7 7a0f 	vldr	s15, [r7, #60]	; 0x3c
    1a2a:	ee77 7a27 	vadd.f32	s15, s14, s15
    1a2e:	edc3 7a00 	vstr	s15, [r3]
    1a32:	f8d7 3098 	ldr.w	r3, [r7, #152]	; 0x98
    1a36:	681b      	ldr	r3, [r3, #0]
    1a38:	653b      	str	r3, [r7, #80]	; 0x50
    1a3a:	f8d7 3098 	ldr.w	r3, [r7, #152]	; 0x98
    1a3e:	685b      	ldr	r3, [r3, #4]
    1a40:	64fb      	str	r3, [r7, #76]	; 0x4c
    1a42:	6ebb      	ldr	r3, [r7, #104]	; 0x68
    1a44:	009b      	lsls	r3, r3, #2
    1a46:	f8d7 2098 	ldr.w	r2, [r7, #152]	; 0x98
    1a4a:	4413      	add	r3, r2
    1a4c:	f8c7 3098 	str.w	r3, [r7, #152]	; 0x98
    1a50:	edd7 7a07 	vldr	s15, [r7, #28]
    1a54:	ed97 7a14 	vldr	s14, [r7, #80]	; 0x50
    1a58:	ee67 7a27 	vmul.f32	s15, s14, s15
    1a5c:	edc7 7a12 	vstr	s15, [r7, #72]	; 0x48
    1a60:	edd7 7a08 	vldr	s15, [r7, #32]
    1a64:	ed97 7a13 	vldr	s14, [r7, #76]	; 0x4c
    1a68:	ee67 7a27 	vmul.f32	s15, s14, s15
    1a6c:	edc7 7a11 	vstr	s15, [r7, #68]	; 0x44
    1a70:	edd7 7a08 	vldr	s15, [r7, #32]
    1a74:	ed97 7a14 	vldr	s14, [r7, #80]	; 0x50
    1a78:	ee67 7a27 	vmul.f32	s15, s14, s15
    1a7c:	edc7 7a10 	vstr	s15, [r7, #64]	; 0x40
    1a80:	edd7 7a07 	vldr	s15, [r7, #28]
    1a84:	ed97 7a13 	vldr	s14, [r7, #76]	; 0x4c
    1a88:	ee67 7a27 	vmul.f32	s15, s14, s15
    1a8c:	edc7 7a0f 	vstr	s15, [r7, #60]	; 0x3c
    1a90:	f8d7 308c 	ldr.w	r3, [r7, #140]	; 0x8c
    1a94:	1d1a      	adds	r2, r3, #4
    1a96:	f8c7 208c 	str.w	r2, [r7, #140]	; 0x8c
    1a9a:	ed97 7a12 	vldr	s14, [r7, #72]	; 0x48
    1a9e:	edd7 7a11 	vldr	s15, [r7, #68]	; 0x44
    1aa2:	ee77 7a27 	vadd.f32	s15, s14, s15
    1aa6:	edc3 7a00 	vstr	s15, [r3]
    1aaa:	f8d7 308c 	ldr.w	r3, [r7, #140]	; 0x8c
    1aae:	1d1a      	adds	r2, r3, #4
    1ab0:	f8c7 208c 	str.w	r2, [r7, #140]	; 0x8c
    1ab4:	ed97 7a10 	vldr	s14, [r7, #64]	; 0x40
    1ab8:	edd7 7a0f 	vldr	s15, [r7, #60]	; 0x3c
    1abc:	ee77 7a67 	vsub.f32	s15, s14, s15
    1ac0:	edc3 7a00 	vstr	s15, [r3]
    1ac4:	edd7 7a0a 	vldr	s15, [r7, #40]	; 0x28
    1ac8:	eef1 7a67 	vneg.f32	s15, s15
    1acc:	ed97 7a14 	vldr	s14, [r7, #80]	; 0x50
    1ad0:	ee67 7a27 	vmul.f32	s15, s14, s15
    1ad4:	edc7 7a12 	vstr	s15, [r7, #72]	; 0x48
    1ad8:	edd7 7a09 	vldr	s15, [r7, #36]	; 0x24
    1adc:	ed97 7a13 	vldr	s14, [r7, #76]	; 0x4c
    1ae0:	ee67 7a27 	vmul.f32	s15, s14, s15
    1ae4:	edc7 7a11 	vstr	s15, [r7, #68]	; 0x44
    1ae8:	edd7 7a09 	vldr	s15, [r7, #36]	; 0x24
    1aec:	ed97 7a14 	vldr	s14, [r7, #80]	; 0x50
    1af0:	ee67 7a27 	vmul.f32	s15, s14, s15
    1af4:	edc7 7a10 	vstr	s15, [r7, #64]	; 0x40
    1af8:	edd7 7a0a 	vldr	s15, [r7, #40]	; 0x28
    1afc:	ed97 7a13 	vldr	s14, [r7, #76]	; 0x4c
    1b00:	ee67 7a27 	vmul.f32	s15, s14, s15
    1b04:	edc7 7a0f 	vstr	s15, [r7, #60]	; 0x3c
    1b08:	f8d7 30a4 	ldr.w	r3, [r7, #164]	; 0xa4
    1b0c:	1f1a      	subs	r2, r3, #4
    1b0e:	f8c7 20a4 	str.w	r2, [r7, #164]	; 0xa4
    1b12:	ed97 7a12 	vldr	s14, [r7, #72]	; 0x48
    1b16:	edd7 7a11 	vldr	s15, [r7, #68]	; 0x44
    1b1a:	ee77 7a67 	vsub.f32	s15, s14, s15
    1b1e:	edc3 7a00 	vstr	s15, [r3]
    1b22:	f8d7 30a4 	ldr.w	r3, [r7, #164]	; 0xa4
    1b26:	1f1a      	subs	r2, r3, #4
    1b28:	f8c7 20a4 	str.w	r2, [r7, #164]	; 0xa4
    1b2c:	ed97 7a0f 	vldr	s14, [r7, #60]	; 0x3c
    1b30:	edd7 7a10 	vldr	s15, [r7, #64]	; 0x40
    1b34:	ee77 7a67 	vsub.f32	s15, s14, s15
    1b38:	edc3 7a00 	vstr	s15, [r3]
    1b3c:	f8d7 3094 	ldr.w	r3, [r7, #148]	; 0x94
    1b40:	681b      	ldr	r3, [r3, #0]
    1b42:	653b      	str	r3, [r7, #80]	; 0x50
    1b44:	f8d7 3094 	ldr.w	r3, [r7, #148]	; 0x94
    1b48:	685b      	ldr	r3, [r3, #4]
    1b4a:	64fb      	str	r3, [r7, #76]	; 0x4c
    1b4c:	6e7b      	ldr	r3, [r7, #100]	; 0x64
    1b4e:	009b      	lsls	r3, r3, #2
    1b50:	f8d7 2094 	ldr.w	r2, [r7, #148]	; 0x94
    1b54:	4413      	add	r3, r2
    1b56:	f8c7 3094 	str.w	r3, [r7, #148]	; 0x94
    1b5a:	edd7 7a03 	vldr	s15, [r7, #12]
    1b5e:	ed97 7a14 	vldr	s14, [r7, #80]	; 0x50
    1b62:	ee67 7a27 	vmul.f32	s15, s14, s15
    1b66:	edc7 7a12 	vstr	s15, [r7, #72]	; 0x48
    1b6a:	edd7 7a04 	vldr	s15, [r7, #16]
    1b6e:	ed97 7a13 	vldr	s14, [r7, #76]	; 0x4c
    1b72:	ee67 7a27 	vmul.f32	s15, s14, s15
    1b76:	edc7 7a11 	vstr	s15, [r7, #68]	; 0x44
    1b7a:	edd7 7a04 	vldr	s15, [r7, #16]
    1b7e:	ed97 7a14 	vldr	s14, [r7, #80]	; 0x50
    1b82:	ee67 7a27 	vmul.f32	s15, s14, s15
    1b86:	edc7 7a10 	vstr	s15, [r7, #64]	; 0x40
    1b8a:	edd7 7a03 	vldr	s15, [r7, #12]
    1b8e:	ed97 7a13 	vldr	s14, [r7, #76]	; 0x4c
    1b92:	ee67 7a27 	vmul.f32	s15, s14, s15
    1b96:	edc7 7a0f 	vstr	s15, [r7, #60]	; 0x3c
    1b9a:	f8d7 3088 	ldr.w	r3, [r7, #136]	; 0x88
    1b9e:	1d1a      	adds	r2, r3, #4
    1ba0:	f8c7 2088 	str.w	r2, [r7, #136]	; 0x88
    1ba4:	ed97 7a12 	vldr	s14, [r7, #72]	; 0x48
    1ba8:	edd7 7a11 	vldr	s15, [r7, #68]	; 0x44
    1bac:	ee77 7a27 	vadd.f32	s15, s14, s15
    1bb0:	edc3 7a00 	vstr	s15, [r3]
    1bb4:	f8d7 3088 	ldr.w	r3, [r7, #136]	; 0x88
    1bb8:	1d1a      	adds	r2, r3, #4
    1bba:	f8c7 2088 	str.w	r2, [r7, #136]	; 0x88
    1bbe:	ed97 7a10 	vldr	s14, [r7, #64]	; 0x40
    1bc2:	edd7 7a0f 	vldr	s15, [r7, #60]	; 0x3c
    1bc6:	ee77 7a67 	vsub.f32	s15, s14, s15
    1bca:	edc3 7a00 	vstr	s15, [r3]
    1bce:	edd7 7a06 	vldr	s15, [r7, #24]
    1bd2:	ed97 7a13 	vldr	s14, [r7, #76]	; 0x4c
    1bd6:	ee67 7a27 	vmul.f32	s15, s14, s15
    1bda:	edc7 7a12 	vstr	s15, [r7, #72]	; 0x48
    1bde:	edd7 7a05 	vldr	s15, [r7, #20]
    1be2:	ed97 7a14 	vldr	s14, [r7, #80]	; 0x50
    1be6:	ee67 7a27 	vmul.f32	s15, s14, s15
    1bea:	edc7 7a11 	vstr	s15, [r7, #68]	; 0x44
    1bee:	edd7 7a05 	vldr	s15, [r7, #20]
    1bf2:	ed97 7a13 	vldr	s14, [r7, #76]	; 0x4c
    1bf6:	ee67 7a27 	vmul.f32	s15, s14, s15
    1bfa:	edc7 7a10 	vstr	s15, [r7, #64]	; 0x40
    1bfe:	edd7 7a06 	vldr	s15, [r7, #24]
    1c02:	ed97 7a14 	vldr	s14, [r7, #80]	; 0x50
    1c06:	ee67 7a27 	vmul.f32	s15, s14, s15
    1c0a:	edc7 7a0f 	vstr	s15, [r7, #60]	; 0x3c
    1c0e:	f8d7 30a0 	ldr.w	r3, [r7, #160]	; 0xa0
    1c12:	1f1a      	subs	r2, r3, #4
    1c14:	f8c7 20a0 	str.w	r2, [r7, #160]	; 0xa0
    1c18:	ed97 7a12 	vldr	s14, [r7, #72]	; 0x48
    1c1c:	edd7 7a11 	vldr	s15, [r7, #68]	; 0x44
    1c20:	ee77 7a67 	vsub.f32	s15, s14, s15
    1c24:	edc3 7a00 	vstr	s15, [r3]
    1c28:	f8d7 30a0 	ldr.w	r3, [r7, #160]	; 0xa0
    1c2c:	1f1a      	subs	r2, r3, #4
    1c2e:	f8c7 20a0 	str.w	r2, [r7, #160]	; 0xa0
    1c32:	ed97 7a10 	vldr	s14, [r7, #64]	; 0x40
    1c36:	edd7 7a0f 	vldr	s15, [r7, #60]	; 0x3c
    1c3a:	ee77 7a27 	vadd.f32	s15, s14, s15
    1c3e:	edc3 7a00 	vstr	s15, [r3]
    1c42:	f8d7 3084 	ldr.w	r3, [r7, #132]	; 0x84
    1c46:	3b01      	subs	r3, #1
    1c48:	f8c7 3084 	str.w	r3, [r7, #132]	; 0x84
    1c4c:	f8d7 3084 	ldr.w	r3, [r7, #132]	; 0x84
    1c50:	2b00      	cmp	r3, #0
    1c52:	f47f ace0 	bne.w	1616 <arm_cfft_radix8by4_f32+0x2be>
    1c56:	683b      	ldr	r3, [r7, #0]
    1c58:	ed93 7a00 	vldr	s14, [r3]
    1c5c:	f8d7 308c 	ldr.w	r3, [r7, #140]	; 0x8c
    1c60:	edd3 7a00 	vldr	s15, [r3]
    1c64:	ee77 7a27 	vadd.f32	s15, s14, s15
    1c68:	edc7 7a18 	vstr	s15, [r7, #96]	; 0x60
    1c6c:	683b      	ldr	r3, [r7, #0]
    1c6e:	ed93 7a00 	vldr	s14, [r3]
    1c72:	f8d7 308c 	ldr.w	r3, [r7, #140]	; 0x8c
    1c76:	edd3 7a00 	vldr	s15, [r3]
    1c7a:	ee77 7a67 	vsub.f32	s15, s14, s15
    1c7e:	edc7 7a17 	vstr	s15, [r7, #92]	; 0x5c
    1c82:	683b      	ldr	r3, [r7, #0]
    1c84:	3304      	adds	r3, #4
    1c86:	ed93 7a00 	vldr	s14, [r3]
    1c8a:	f8d7 308c 	ldr.w	r3, [r7, #140]	; 0x8c
    1c8e:	3304      	adds	r3, #4
    1c90:	edd3 7a00 	vldr	s15, [r3]
    1c94:	ee77 7a27 	vadd.f32	s15, s14, s15
    1c98:	edc7 7a16 	vstr	s15, [r7, #88]	; 0x58
    1c9c:	683b      	ldr	r3, [r7, #0]
    1c9e:	3304      	adds	r3, #4
    1ca0:	ed93 7a00 	vldr	s14, [r3]
    1ca4:	f8d7 308c 	ldr.w	r3, [r7, #140]	; 0x8c
    1ca8:	3304      	adds	r3, #4
    1caa:	edd3 7a00 	vldr	s15, [r3]
    1cae:	ee77 7a67 	vsub.f32	s15, s14, s15
    1cb2:	edc7 7a15 	vstr	s15, [r7, #84]	; 0x54
    1cb6:	f8d7 3090 	ldr.w	r3, [r7, #144]	; 0x90
    1cba:	3304      	adds	r3, #4
    1cbc:	ed93 7a00 	vldr	s14, [r3]
    1cc0:	edd7 7a17 	vldr	s15, [r7, #92]	; 0x5c
    1cc4:	ee37 7a27 	vadd.f32	s14, s14, s15
    1cc8:	f8d7 3088 	ldr.w	r3, [r7, #136]	; 0x88
    1ccc:	3304      	adds	r3, #4
    1cce:	edd3 7a00 	vldr	s15, [r3]
    1cd2:	ee77 7a67 	vsub.f32	s15, s14, s15
    1cd6:	edc7 7a0b 	vstr	s15, [r7, #44]	; 0x2c
    1cda:	f8d7 3090 	ldr.w	r3, [r7, #144]	; 0x90
    1cde:	edd3 7a00 	vldr	s15, [r3]
    1ce2:	ed97 7a15 	vldr	s14, [r7, #84]	; 0x54
    1ce6:	ee37 7a67 	vsub.f32	s14, s14, s15
    1cea:	f8d7 3088 	ldr.w	r3, [r7, #136]	; 0x88
    1cee:	edd3 7a00 	vldr	s15, [r3]
    1cf2:	ee77 7a27 	vadd.f32	s15, s14, s15
    1cf6:	edc7 7a0c 	vstr	s15, [r7, #48]	; 0x30
    1cfa:	f8d7 3090 	ldr.w	r3, [r7, #144]	; 0x90
    1cfe:	edd3 7a00 	vldr	s15, [r3]
    1d02:	ed97 7a18 	vldr	s14, [r7, #96]	; 0x60
    1d06:	ee37 7a67 	vsub.f32	s14, s14, s15
    1d0a:	f8d7 3088 	ldr.w	r3, [r7, #136]	; 0x88
    1d0e:	edd3 7a00 	vldr	s15, [r3]
    1d12:	ee77 7a67 	vsub.f32	s15, s14, s15
    1d16:	edc7 7a07 	vstr	s15, [r7, #28]
    1d1a:	f8d7 3090 	ldr.w	r3, [r7, #144]	; 0x90
    1d1e:	3304      	adds	r3, #4
    1d20:	edd3 7a00 	vldr	s15, [r3]
    1d24:	ed97 7a16 	vldr	s14, [r7, #88]	; 0x58
    1d28:	ee37 7a67 	vsub.f32	s14, s14, s15
    1d2c:	f8d7 3088 	ldr.w	r3, [r7, #136]	; 0x88
    1d30:	3304      	adds	r3, #4
    1d32:	edd3 7a00 	vldr	s15, [r3]
    1d36:	ee77 7a67 	vsub.f32	s15, s14, s15
    1d3a:	edc7 7a08 	vstr	s15, [r7, #32]
    1d3e:	f8d7 3090 	ldr.w	r3, [r7, #144]	; 0x90
    1d42:	3304      	adds	r3, #4
    1d44:	edd3 7a00 	vldr	s15, [r3]
    1d48:	ed97 7a17 	vldr	s14, [r7, #92]	; 0x5c
    1d4c:	ee37 7a67 	vsub.f32	s14, s14, s15
    1d50:	f8d7 3088 	ldr.w	r3, [r7, #136]	; 0x88
    1d54:	3304      	adds	r3, #4
    1d56:	edd3 7a00 	vldr	s15, [r3]
    1d5a:	ee77 7a27 	vadd.f32	s15, s14, s15
    1d5e:	edc7 7a03 	vstr	s15, [r7, #12]
    1d62:	f8d7 3090 	ldr.w	r3, [r7, #144]	; 0x90
    1d66:	ed93 7a00 	vldr	s14, [r3]
    1d6a:	edd7 7a15 	vldr	s15, [r7, #84]	; 0x54
    1d6e:	ee37 7a27 	vadd.f32	s14, s14, s15
    1d72:	f8d7 3088 	ldr.w	r3, [r7, #136]	; 0x88
    1d76:	edd3 7a00 	vldr	s15, [r3]
    1d7a:	ee77 7a67 	vsub.f32	s15, s14, s15
    1d7e:	edc7 7a04 	vstr	s15, [r7, #16]
    1d82:	f8d7 3090 	ldr.w	r3, [r7, #144]	; 0x90
    1d86:	ed93 7a00 	vldr	s14, [r3]
    1d8a:	edd7 7a18 	vldr	s15, [r7, #96]	; 0x60
    1d8e:	ee37 7a27 	vadd.f32	s14, s14, s15
    1d92:	f8d7 3088 	ldr.w	r3, [r7, #136]	; 0x88
    1d96:	edd3 7a00 	vldr	s15, [r3]
    1d9a:	683b      	ldr	r3, [r7, #0]
    1d9c:	1d1a      	adds	r2, r3, #4
    1d9e:	603a      	str	r2, [r7, #0]
    1da0:	ee77 7a27 	vadd.f32	s15, s14, s15
    1da4:	edc3 7a00 	vstr	s15, [r3]
    1da8:	f8d7 3090 	ldr.w	r3, [r7, #144]	; 0x90
    1dac:	3304      	adds	r3, #4
    1dae:	ed93 7a00 	vldr	s14, [r3]
    1db2:	edd7 7a16 	vldr	s15, [r7, #88]	; 0x58
    1db6:	ee37 7a27 	vadd.f32	s14, s14, s15
    1dba:	f8d7 3088 	ldr.w	r3, [r7, #136]	; 0x88
    1dbe:	3304      	adds	r3, #4
    1dc0:	edd3 7a00 	vldr	s15, [r3]
    1dc4:	683b      	ldr	r3, [r7, #0]
    1dc6:	1d1a      	adds	r2, r3, #4
    1dc8:	603a      	str	r2, [r7, #0]
    1dca:	ee77 7a27 	vadd.f32	s15, s14, s15
    1dce:	edc3 7a00 	vstr	s15, [r3]
    1dd2:	f8d7 309c 	ldr.w	r3, [r7, #156]	; 0x9c
    1dd6:	681b      	ldr	r3, [r3, #0]
    1dd8:	653b      	str	r3, [r7, #80]	; 0x50
    1dda:	f8d7 309c 	ldr.w	r3, [r7, #156]	; 0x9c
    1dde:	685b      	ldr	r3, [r3, #4]
    1de0:	64fb      	str	r3, [r7, #76]	; 0x4c
    1de2:	edd7 7a0b 	vldr	s15, [r7, #44]	; 0x2c
    1de6:	ed97 7a14 	vldr	s14, [r7, #80]	; 0x50
    1dea:	ee67 7a27 	vmul.f32	s15, s14, s15
    1dee:	edc7 7a12 	vstr	s15, [r7, #72]	; 0x48
    1df2:	edd7 7a0c 	vldr	s15, [r7, #48]	; 0x30
    1df6:	ed97 7a13 	vldr	s14, [r7, #76]	; 0x4c
    1dfa:	ee67 7a27 	vmul.f32	s15, s14, s15
    1dfe:	edc7 7a11 	vstr	s15, [r7, #68]	; 0x44
    1e02:	edd7 7a0c 	vldr	s15, [r7, #48]	; 0x30
    1e06:	ed97 7a14 	vldr	s14, [r7, #80]	; 0x50
    1e0a:	ee67 7a27 	vmul.f32	s15, s14, s15
    1e0e:	edc7 7a10 	vstr	s15, [r7, #64]	; 0x40
    1e12:	edd7 7a0b 	vldr	s15, [r7, #44]	; 0x2c
    1e16:	ed97 7a13 	vldr	s14, [r7, #76]	; 0x4c
    1e1a:	ee67 7a27 	vmul.f32	s15, s14, s15
    1e1e:	edc7 7a0f 	vstr	s15, [r7, #60]	; 0x3c
    1e22:	f8d7 3090 	ldr.w	r3, [r7, #144]	; 0x90
    1e26:	1d1a      	adds	r2, r3, #4
    1e28:	f8c7 2090 	str.w	r2, [r7, #144]	; 0x90
    1e2c:	ed97 7a12 	vldr	s14, [r7, #72]	; 0x48
    1e30:	edd7 7a11 	vldr	s15, [r7, #68]	; 0x44
    1e34:	ee77 7a27 	vadd.f32	s15, s14, s15
    1e38:	edc3 7a00 	vstr	s15, [r3]
    1e3c:	f8d7 3090 	ldr.w	r3, [r7, #144]	; 0x90
    1e40:	1d1a      	adds	r2, r3, #4
    1e42:	f8c7 2090 	str.w	r2, [r7, #144]	; 0x90
    1e46:	ed97 7a10 	vldr	s14, [r7, #64]	; 0x40
    1e4a:	edd7 7a0f 	vldr	s15, [r7, #60]	; 0x3c
    1e4e:	ee77 7a67 	vsub.f32	s15, s14, s15
    1e52:	edc3 7a00 	vstr	s15, [r3]
    1e56:	f8d7 3098 	ldr.w	r3, [r7, #152]	; 0x98
    1e5a:	681b      	ldr	r3, [r3, #0]
    1e5c:	653b      	str	r3, [r7, #80]	; 0x50
    1e5e:	f8d7 3098 	ldr.w	r3, [r7, #152]	; 0x98
    1e62:	685b      	ldr	r3, [r3, #4]
    1e64:	64fb      	str	r3, [r7, #76]	; 0x4c
    1e66:	edd7 7a07 	vldr	s15, [r7, #28]
    1e6a:	ed97 7a14 	vldr	s14, [r7, #80]	; 0x50
    1e6e:	ee67 7a27 	vmul.f32	s15, s14, s15
    1e72:	edc7 7a12 	vstr	s15, [r7, #72]	; 0x48
    1e76:	edd7 7a08 	vldr	s15, [r7, #32]
    1e7a:	ed97 7a13 	vldr	s14, [r7, #76]	; 0x4c
    1e7e:	ee67 7a27 	vmul.f32	s15, s14, s15
    1e82:	edc7 7a11 	vstr	s15, [r7, #68]	; 0x44
    1e86:	edd7 7a08 	vldr	s15, [r7, #32]
    1e8a:	ed97 7a14 	vldr	s14, [r7, #80]	; 0x50
    1e8e:	ee67 7a27 	vmul.f32	s15, s14, s15
    1e92:	edc7 7a10 	vstr	s15, [r7, #64]	; 0x40
    1e96:	edd7 7a07 	vldr	s15, [r7, #28]
    1e9a:	ed97 7a13 	vldr	s14, [r7, #76]	; 0x4c
    1e9e:	ee67 7a27 	vmul.f32	s15, s14, s15
    1ea2:	edc7 7a0f 	vstr	s15, [r7, #60]	; 0x3c
    1ea6:	f8d7 308c 	ldr.w	r3, [r7, #140]	; 0x8c
    1eaa:	1d1a      	adds	r2, r3, #4
    1eac:	f8c7 208c 	str.w	r2, [r7, #140]	; 0x8c
    1eb0:	ed97 7a12 	vldr	s14, [r7, #72]	; 0x48
    1eb4:	edd7 7a11 	vldr	s15, [r7, #68]	; 0x44
    1eb8:	ee77 7a27 	vadd.f32	s15, s14, s15
    1ebc:	edc3 7a00 	vstr	s15, [r3]
    1ec0:	f8d7 308c 	ldr.w	r3, [r7, #140]	; 0x8c
    1ec4:	1d1a      	adds	r2, r3, #4
    1ec6:	f8c7 208c 	str.w	r2, [r7, #140]	; 0x8c
    1eca:	ed97 7a10 	vldr	s14, [r7, #64]	; 0x40
    1ece:	edd7 7a0f 	vldr	s15, [r7, #60]	; 0x3c
    1ed2:	ee77 7a67 	vsub.f32	s15, s14, s15
    1ed6:	edc3 7a00 	vstr	s15, [r3]
    1eda:	f8d7 3094 	ldr.w	r3, [r7, #148]	; 0x94
    1ede:	681b      	ldr	r3, [r3, #0]
    1ee0:	653b      	str	r3, [r7, #80]	; 0x50
    1ee2:	f8d7 3094 	ldr.w	r3, [r7, #148]	; 0x94
    1ee6:	685b      	ldr	r3, [r3, #4]
    1ee8:	64fb      	str	r3, [r7, #76]	; 0x4c
    1eea:	edd7 7a03 	vldr	s15, [r7, #12]
    1eee:	ed97 7a14 	vldr	s14, [r7, #80]	; 0x50
    1ef2:	ee67 7a27 	vmul.f32	s15, s14, s15
    1ef6:	edc7 7a12 	vstr	s15, [r7, #72]	; 0x48
    1efa:	edd7 7a04 	vldr	s15, [r7, #16]
    1efe:	ed97 7a13 	vldr	s14, [r7, #76]	; 0x4c
    1f02:	ee67 7a27 	vmul.f32	s15, s14, s15
    1f06:	edc7 7a11 	vstr	s15, [r7, #68]	; 0x44
    1f0a:	edd7 7a04 	vldr	s15, [r7, #16]
    1f0e:	ed97 7a14 	vldr	s14, [r7, #80]	; 0x50
    1f12:	ee67 7a27 	vmul.f32	s15, s14, s15
    1f16:	edc7 7a10 	vstr	s15, [r7, #64]	; 0x40
    1f1a:	edd7 7a03 	vldr	s15, [r7, #12]
    1f1e:	ed97 7a13 	vldr	s14, [r7, #76]	; 0x4c
    1f22:	ee67 7a27 	vmul.f32	s15, s14, s15
    1f26:	edc7 7a0f 	vstr	s15, [r7, #60]	; 0x3c
    1f2a:	f8d7 3088 	ldr.w	r3, [r7, #136]	; 0x88
    1f2e:	1d1a      	adds	r2, r3, #4
    1f30:	f8c7 2088 	str.w	r2, [r7, #136]	; 0x88
    1f34:	ed97 7a12 	vldr	s14, [r7, #72]	; 0x48
    1f38:	edd7 7a11 	vldr	s15, [r7, #68]	; 0x44
    1f3c:	ee77 7a27 	vadd.f32	s15, s14, s15
    1f40:	edc3 7a00 	vstr	s15, [r3]
    1f44:	f8d7 3088 	ldr.w	r3, [r7, #136]	; 0x88
    1f48:	1d1a      	adds	r2, r3, #4
    1f4a:	f8c7 2088 	str.w	r2, [r7, #136]	; 0x88
    1f4e:	ed97 7a10 	vldr	s14, [r7, #64]	; 0x40
    1f52:	edd7 7a0f 	vldr	s15, [r7, #60]	; 0x3c
    1f56:	ee77 7a67 	vsub.f32	s15, s14, s15
    1f5a:	edc3 7a00 	vstr	s15, [r3]
    1f5e:	f8d7 3080 	ldr.w	r3, [r7, #128]	; 0x80
    1f62:	b299      	uxth	r1, r3
    1f64:	687b      	ldr	r3, [r7, #4]
    1f66:	685a      	ldr	r2, [r3, #4]
    1f68:	2304      	movs	r3, #4
    1f6a:	6ff8      	ldr	r0, [r7, #124]	; 0x7c
    1f6c:	f000 fa06 	bl	237c <arm_radix8_butterfly_f32>
    1f70:	f8d7 3080 	ldr.w	r3, [r7, #128]	; 0x80
    1f74:	b299      	uxth	r1, r3
    1f76:	687b      	ldr	r3, [r7, #4]
    1f78:	685a      	ldr	r2, [r3, #4]
    1f7a:	2304      	movs	r3, #4
    1f7c:	6fb8      	ldr	r0, [r7, #120]	; 0x78
    1f7e:	f000 f9fd 	bl	237c <arm_radix8_butterfly_f32>
    1f82:	f8d7 3080 	ldr.w	r3, [r7, #128]	; 0x80
    1f86:	b299      	uxth	r1, r3
    1f88:	687b      	ldr	r3, [r7, #4]
    1f8a:	685a      	ldr	r2, [r3, #4]
    1f8c:	2304      	movs	r3, #4
    1f8e:	6f78      	ldr	r0, [r7, #116]	; 0x74
    1f90:	f000 f9f4 	bl	237c <arm_radix8_butterfly_f32>
    1f94:	f8d7 3080 	ldr.w	r3, [r7, #128]	; 0x80
    1f98:	b299      	uxth	r1, r3
    1f9a:	687b      	ldr	r3, [r7, #4]
    1f9c:	685a      	ldr	r2, [r3, #4]
    1f9e:	2304      	movs	r3, #4
    1fa0:	6f38      	ldr	r0, [r7, #112]	; 0x70
    1fa2:	f000 f9eb 	bl	237c <arm_radix8_butterfly_f32>
    1fa6:	bf00      	nop
    1fa8:	37b0      	adds	r7, #176	; 0xb0
    1faa:	46bd      	mov	sp, r7
    1fac:	bd80      	pop	{r7, pc}

00001fae <arm_cfft_f32>:
    1fae:	b580      	push	{r7, lr}
    1fb0:	b088      	sub	sp, #32
    1fb2:	af00      	add	r7, sp, #0
    1fb4:	60f8      	str	r0, [r7, #12]
    1fb6:	60b9      	str	r1, [r7, #8]
    1fb8:	4611      	mov	r1, r2
    1fba:	461a      	mov	r2, r3
    1fbc:	460b      	mov	r3, r1
    1fbe:	71fb      	strb	r3, [r7, #7]
    1fc0:	4613      	mov	r3, r2
    1fc2:	71bb      	strb	r3, [r7, #6]
    1fc4:	68fb      	ldr	r3, [r7, #12]
    1fc6:	881b      	ldrh	r3, [r3, #0]
    1fc8:	617b      	str	r3, [r7, #20]
    1fca:	79fb      	ldrb	r3, [r7, #7]
    1fcc:	2b01      	cmp	r3, #1
    1fce:	d117      	bne.n	2000 <arm_cfft_f32+0x52>
    1fd0:	68bb      	ldr	r3, [r7, #8]
    1fd2:	3304      	adds	r3, #4
    1fd4:	61bb      	str	r3, [r7, #24]
    1fd6:	2300      	movs	r3, #0
    1fd8:	61fb      	str	r3, [r7, #28]
    1fda:	e00d      	b.n	1ff8 <arm_cfft_f32+0x4a>
    1fdc:	69bb      	ldr	r3, [r7, #24]
    1fde:	edd3 7a00 	vldr	s15, [r3]
    1fe2:	eef1 7a67 	vneg.f32	s15, s15
    1fe6:	69bb      	ldr	r3, [r7, #24]
    1fe8:	edc3 7a00 	vstr	s15, [r3]
    1fec:	69bb      	ldr	r3, [r7, #24]
    1fee:	3308      	adds	r3, #8
    1ff0:	61bb      	str	r3, [r7, #24]
    1ff2:	69fb      	ldr	r3, [r7, #28]
    1ff4:	3301      	adds	r3, #1
    1ff6:	61fb      	str	r3, [r7, #28]
    1ff8:	69fa      	ldr	r2, [r7, #28]
    1ffa:	697b      	ldr	r3, [r7, #20]
    1ffc:	429a      	cmp	r2, r3
    1ffe:	d3ed      	bcc.n	1fdc <arm_cfft_f32+0x2e>
    2000:	697b      	ldr	r3, [r7, #20]
    2002:	f5b3 5f80 	cmp.w	r3, #4096	; 0x1000
    2006:	d040      	beq.n	208a <arm_cfft_f32+0xdc>
    2008:	697b      	ldr	r3, [r7, #20]
    200a:	f5b3 5f80 	cmp.w	r3, #4096	; 0x1000
    200e:	d845      	bhi.n	209c <arm_cfft_f32+0xee>
    2010:	697b      	ldr	r3, [r7, #20]
    2012:	f5b3 6f00 	cmp.w	r3, #2048	; 0x800
    2016:	d033      	beq.n	2080 <arm_cfft_f32+0xd2>
    2018:	697b      	ldr	r3, [r7, #20]
    201a:	f5b3 6f00 	cmp.w	r3, #2048	; 0x800
    201e:	d83d      	bhi.n	209c <arm_cfft_f32+0xee>
    2020:	697b      	ldr	r3, [r7, #20]
    2022:	f5b3 6f80 	cmp.w	r3, #1024	; 0x400
    2026:	d026      	beq.n	2076 <arm_cfft_f32+0xc8>
    2028:	697b      	ldr	r3, [r7, #20]
    202a:	f5b3 6f80 	cmp.w	r3, #1024	; 0x400
    202e:	d835      	bhi.n	209c <arm_cfft_f32+0xee>
    2030:	697b      	ldr	r3, [r7, #20]
    2032:	f5b3 7f00 	cmp.w	r3, #512	; 0x200
    2036:	d028      	beq.n	208a <arm_cfft_f32+0xdc>
    2038:	697b      	ldr	r3, [r7, #20]
    203a:	f5b3 7f00 	cmp.w	r3, #512	; 0x200
    203e:	d82d      	bhi.n	209c <arm_cfft_f32+0xee>
    2040:	697b      	ldr	r3, [r7, #20]
    2042:	f5b3 7f80 	cmp.w	r3, #256	; 0x100
    2046:	d01b      	beq.n	2080 <arm_cfft_f32+0xd2>
    2048:	697b      	ldr	r3, [r7, #20]
    204a:	f5b3 7f80 	cmp.w	r3, #256	; 0x100
    204e:	d825      	bhi.n	209c <arm_cfft_f32+0xee>
    2050:	697b      	ldr	r3, [r7, #20]
    2052:	2b80      	cmp	r3, #128	; 0x80
    2054:	d00f      	beq.n	2076 <arm_cfft_f32+0xc8>
    2056:	697b      	ldr	r3, [r7, #20]
    2058:	2b80      	cmp	r3, #128	; 0x80
    205a:	d81f      	bhi.n	209c <arm_cfft_f32+0xee>
    205c:	697b      	ldr	r3, [r7, #20]
    205e:	2b40      	cmp	r3, #64	; 0x40
    2060:	d013      	beq.n	208a <arm_cfft_f32+0xdc>
    2062:	697b      	ldr	r3, [r7, #20]
    2064:	2b40      	cmp	r3, #64	; 0x40
    2066:	d819      	bhi.n	209c <arm_cfft_f32+0xee>
    2068:	697b      	ldr	r3, [r7, #20]
    206a:	2b10      	cmp	r3, #16
    206c:	d003      	beq.n	2076 <arm_cfft_f32+0xc8>
    206e:	697b      	ldr	r3, [r7, #20]
    2070:	2b20      	cmp	r3, #32
    2072:	d005      	beq.n	2080 <arm_cfft_f32+0xd2>
    2074:	e012      	b.n	209c <arm_cfft_f32+0xee>
    2076:	68b9      	ldr	r1, [r7, #8]
    2078:	68f8      	ldr	r0, [r7, #12]
    207a:	f7fe ff79 	bl	f70 <arm_cfft_radix8by2_f32>
    207e:	e00d      	b.n	209c <arm_cfft_f32+0xee>
    2080:	68b9      	ldr	r1, [r7, #8]
    2082:	68f8      	ldr	r0, [r7, #12]
    2084:	f7ff f968 	bl	1358 <arm_cfft_radix8by4_f32>
    2088:	e008      	b.n	209c <arm_cfft_f32+0xee>
    208a:	697b      	ldr	r3, [r7, #20]
    208c:	b299      	uxth	r1, r3
    208e:	68fb      	ldr	r3, [r7, #12]
    2090:	685a      	ldr	r2, [r3, #4]
    2092:	2301      	movs	r3, #1
    2094:	68b8      	ldr	r0, [r7, #8]
    2096:	f000 f971 	bl	237c <arm_radix8_butterfly_f32>
    209a:	bf00      	nop
    209c:	79bb      	ldrb	r3, [r7, #6]
    209e:	2b00      	cmp	r3, #0
    20a0:	d007      	beq.n	20b2 <arm_cfft_f32+0x104>
    20a2:	68fb      	ldr	r3, [r7, #12]
    20a4:	8999      	ldrh	r1, [r3, #12]
    20a6:	68fb      	ldr	r3, [r7, #12]
    20a8:	689b      	ldr	r3, [r3, #8]
    20aa:	461a      	mov	r2, r3
    20ac:	68b8      	ldr	r0, [r7, #8]
    20ae:	f000 f90b 	bl	22c8 <arm_bitreversal_32>
    20b2:	79fb      	ldrb	r3, [r7, #7]
    20b4:	2b01      	cmp	r3, #1
    20b6:	d130      	bne.n	211a <arm_cfft_f32+0x16c>
    20b8:	697b      	ldr	r3, [r7, #20]
    20ba:	ee07 3a90 	vmov	s15, r3
    20be:	eeb8 7a67 	vcvt.f32.u32	s14, s15
    20c2:	eef7 6a00 	vmov.f32	s13, #112	; 0x3f800000  1.0
    20c6:	eec6 7a87 	vdiv.f32	s15, s13, s14
    20ca:	edc7 7a04 	vstr	s15, [r7, #16]
    20ce:	68bb      	ldr	r3, [r7, #8]
    20d0:	61bb      	str	r3, [r7, #24]
    20d2:	2300      	movs	r3, #0
    20d4:	61fb      	str	r3, [r7, #28]
    20d6:	e01c      	b.n	2112 <arm_cfft_f32+0x164>
    20d8:	69bb      	ldr	r3, [r7, #24]
    20da:	1d1a      	adds	r2, r3, #4
    20dc:	61ba      	str	r2, [r7, #24]
    20de:	ed93 7a00 	vldr	s14, [r3]
    20e2:	edd7 7a04 	vldr	s15, [r7, #16]
    20e6:	ee67 7a27 	vmul.f32	s15, s14, s15
    20ea:	edc3 7a00 	vstr	s15, [r3]
    20ee:	69bb      	ldr	r3, [r7, #24]
    20f0:	edd3 7a00 	vldr	s15, [r3]
    20f4:	eeb1 7a67 	vneg.f32	s14, s15
    20f8:	edd7 7a04 	vldr	s15, [r7, #16]
    20fc:	ee67 7a27 	vmul.f32	s15, s14, s15
    2100:	69bb      	ldr	r3, [r7, #24]
    2102:	edc3 7a00 	vstr	s15, [r3]
    2106:	69bb      	ldr	r3, [r7, #24]
    2108:	3304      	adds	r3, #4
    210a:	61bb      	str	r3, [r7, #24]
    210c:	69fb      	ldr	r3, [r7, #28]
    210e:	3301      	adds	r3, #1
    2110:	61fb      	str	r3, [r7, #28]
    2112:	69fa      	ldr	r2, [r7, #28]
    2114:	697b      	ldr	r3, [r7, #20]
    2116:	429a      	cmp	r2, r3
    2118:	d3de      	bcc.n	20d8 <arm_cfft_f32+0x12a>
    211a:	bf00      	nop
    211c:	3720      	adds	r7, #32
    211e:	46bd      	mov	sp, r7
    2120:	bd80      	pop	{r7, pc}
	...

00002124 <arm_cfft_init_f32>:
    2124:	b480      	push	{r7}
    2126:	b085      	sub	sp, #20
    2128:	af00      	add	r7, sp, #0
    212a:	6078      	str	r0, [r7, #4]
    212c:	460b      	mov	r3, r1
    212e:	807b      	strh	r3, [r7, #2]
    2130:	2300      	movs	r3, #0
    2132:	73fb      	strb	r3, [r7, #15]
    2134:	687b      	ldr	r3, [r7, #4]
    2136:	887a      	ldrh	r2, [r7, #2]
    2138:	801a      	strh	r2, [r3, #0]
    213a:	687b      	ldr	r3, [r7, #4]
    213c:	2200      	movs	r2, #0
    213e:	605a      	str	r2, [r3, #4]
    2140:	687b      	ldr	r3, [r7, #4]
    2142:	881b      	ldrh	r3, [r3, #0]
    2144:	f5b3 5f80 	cmp.w	r3, #4096	; 0x1000
    2148:	d02c      	beq.n	21a4 <arm_cfft_init_f32+0x80>
    214a:	f5b3 5f80 	cmp.w	r3, #4096	; 0x1000
    214e:	f300 809e 	bgt.w	228e <arm_cfft_init_f32+0x16a>
    2152:	f5b3 6f00 	cmp.w	r3, #2048	; 0x800
    2156:	d032      	beq.n	21be <arm_cfft_init_f32+0x9a>
    2158:	f5b3 6f00 	cmp.w	r3, #2048	; 0x800
    215c:	f300 8097 	bgt.w	228e <arm_cfft_init_f32+0x16a>
    2160:	f5b3 6f80 	cmp.w	r3, #1024	; 0x400
    2164:	d038      	beq.n	21d8 <arm_cfft_init_f32+0xb4>
    2166:	f5b3 6f80 	cmp.w	r3, #1024	; 0x400
    216a:	f300 8090 	bgt.w	228e <arm_cfft_init_f32+0x16a>
    216e:	f5b3 7f00 	cmp.w	r3, #512	; 0x200
    2172:	d03e      	beq.n	21f2 <arm_cfft_init_f32+0xce>
    2174:	f5b3 7f00 	cmp.w	r3, #512	; 0x200
    2178:	f300 8089 	bgt.w	228e <arm_cfft_init_f32+0x16a>
    217c:	f5b3 7f80 	cmp.w	r3, #256	; 0x100
    2180:	d044      	beq.n	220c <arm_cfft_init_f32+0xe8>
    2182:	f5b3 7f80 	cmp.w	r3, #256	; 0x100
    2186:	f300 8082 	bgt.w	228e <arm_cfft_init_f32+0x16a>
    218a:	2b80      	cmp	r3, #128	; 0x80
    218c:	d04b      	beq.n	2226 <arm_cfft_init_f32+0x102>
    218e:	2b80      	cmp	r3, #128	; 0x80
    2190:	dc7d      	bgt.n	228e <arm_cfft_init_f32+0x16a>
    2192:	2b40      	cmp	r3, #64	; 0x40
    2194:	d054      	beq.n	2240 <arm_cfft_init_f32+0x11c>
    2196:	2b40      	cmp	r3, #64	; 0x40
    2198:	dc79      	bgt.n	228e <arm_cfft_init_f32+0x16a>
    219a:	2b10      	cmp	r3, #16
    219c:	d06a      	beq.n	2274 <arm_cfft_init_f32+0x150>
    219e:	2b20      	cmp	r3, #32
    21a0:	d05b      	beq.n	225a <arm_cfft_init_f32+0x136>
    21a2:	e074      	b.n	228e <arm_cfft_init_f32+0x16a>
    21a4:	4b3f      	ldr	r3, [pc, #252]	; (22a4 <arm_cfft_init_f32+0x180>)
    21a6:	899a      	ldrh	r2, [r3, #12]
    21a8:	687b      	ldr	r3, [r7, #4]
    21aa:	819a      	strh	r2, [r3, #12]
    21ac:	4b3d      	ldr	r3, [pc, #244]	; (22a4 <arm_cfft_init_f32+0x180>)
    21ae:	689a      	ldr	r2, [r3, #8]
    21b0:	687b      	ldr	r3, [r7, #4]
    21b2:	609a      	str	r2, [r3, #8]
    21b4:	4b3b      	ldr	r3, [pc, #236]	; (22a4 <arm_cfft_init_f32+0x180>)
    21b6:	685a      	ldr	r2, [r3, #4]
    21b8:	687b      	ldr	r3, [r7, #4]
    21ba:	605a      	str	r2, [r3, #4]
    21bc:	e06a      	b.n	2294 <arm_cfft_init_f32+0x170>
    21be:	4b3a      	ldr	r3, [pc, #232]	; (22a8 <arm_cfft_init_f32+0x184>)
    21c0:	899a      	ldrh	r2, [r3, #12]
    21c2:	687b      	ldr	r3, [r7, #4]
    21c4:	819a      	strh	r2, [r3, #12]
    21c6:	4b38      	ldr	r3, [pc, #224]	; (22a8 <arm_cfft_init_f32+0x184>)
    21c8:	689a      	ldr	r2, [r3, #8]
    21ca:	687b      	ldr	r3, [r7, #4]
    21cc:	609a      	str	r2, [r3, #8]
    21ce:	4b36      	ldr	r3, [pc, #216]	; (22a8 <arm_cfft_init_f32+0x184>)
    21d0:	685a      	ldr	r2, [r3, #4]
    21d2:	687b      	ldr	r3, [r7, #4]
    21d4:	605a      	str	r2, [r3, #4]
    21d6:	e05d      	b.n	2294 <arm_cfft_init_f32+0x170>
    21d8:	4b34      	ldr	r3, [pc, #208]	; (22ac <arm_cfft_init_f32+0x188>)
    21da:	899a      	ldrh	r2, [r3, #12]
    21dc:	687b      	ldr	r3, [r7, #4]
    21de:	819a      	strh	r2, [r3, #12]
    21e0:	4b32      	ldr	r3, [pc, #200]	; (22ac <arm_cfft_init_f32+0x188>)
    21e2:	689a      	ldr	r2, [r3, #8]
    21e4:	687b      	ldr	r3, [r7, #4]
    21e6:	609a      	str	r2, [r3, #8]
    21e8:	4b30      	ldr	r3, [pc, #192]	; (22ac <arm_cfft_init_f32+0x188>)
    21ea:	685a      	ldr	r2, [r3, #4]
    21ec:	687b      	ldr	r3, [r7, #4]
    21ee:	605a      	str	r2, [r3, #4]
    21f0:	e050      	b.n	2294 <arm_cfft_init_f32+0x170>
    21f2:	4b2f      	ldr	r3, [pc, #188]	; (22b0 <arm_cfft_init_f32+0x18c>)
    21f4:	899a      	ldrh	r2, [r3, #12]
    21f6:	687b      	ldr	r3, [r7, #4]
    21f8:	819a      	strh	r2, [r3, #12]
    21fa:	4b2d      	ldr	r3, [pc, #180]	; (22b0 <arm_cfft_init_f32+0x18c>)
    21fc:	689a      	ldr	r2, [r3, #8]
    21fe:	687b      	ldr	r3, [r7, #4]
    2200:	609a      	str	r2, [r3, #8]
    2202:	4b2b      	ldr	r3, [pc, #172]	; (22b0 <arm_cfft_init_f32+0x18c>)
    2204:	685a      	ldr	r2, [r3, #4]
    2206:	687b      	ldr	r3, [r7, #4]
    2208:	605a      	str	r2, [r3, #4]
    220a:	e043      	b.n	2294 <arm_cfft_init_f32+0x170>
    220c:	4b29      	ldr	r3, [pc, #164]	; (22b4 <arm_cfft_init_f32+0x190>)
    220e:	899a      	ldrh	r2, [r3, #12]
    2210:	687b      	ldr	r3, [r7, #4]
    2212:	819a      	strh	r2, [r3, #12]
    2214:	4b27      	ldr	r3, [pc, #156]	; (22b4 <arm_cfft_init_f32+0x190>)
    2216:	689a      	ldr	r2, [r3, #8]
    2218:	687b      	ldr	r3, [r7, #4]
    221a:	609a      	str	r2, [r3, #8]
    221c:	4b25      	ldr	r3, [pc, #148]	; (22b4 <arm_cfft_init_f32+0x190>)
    221e:	685a      	ldr	r2, [r3, #4]
    2220:	687b      	ldr	r3, [r7, #4]
    2222:	605a      	str	r2, [r3, #4]
    2224:	e036      	b.n	2294 <arm_cfft_init_f32+0x170>
    2226:	4b24      	ldr	r3, [pc, #144]	; (22b8 <arm_cfft_init_f32+0x194>)
    2228:	899a      	ldrh	r2, [r3, #12]
    222a:	687b      	ldr	r3, [r7, #4]
    222c:	819a      	strh	r2, [r3, #12]
    222e:	4b22      	ldr	r3, [pc, #136]	; (22b8 <arm_cfft_init_f32+0x194>)
    2230:	689a      	ldr	r2, [r3, #8]
    2232:	687b      	ldr	r3, [r7, #4]
    2234:	609a      	str	r2, [r3, #8]
    2236:	4b20      	ldr	r3, [pc, #128]	; (22b8 <arm_cfft_init_f32+0x194>)
    2238:	685a      	ldr	r2, [r3, #4]
    223a:	687b      	ldr	r3, [r7, #4]
    223c:	605a      	str	r2, [r3, #4]
    223e:	e029      	b.n	2294 <arm_cfft_init_f32+0x170>
    2240:	4b1e      	ldr	r3, [pc, #120]	; (22bc <arm_cfft_init_f32+0x198>)
    2242:	899a      	ldrh	r2, [r3, #12]
    2244:	687b      	ldr	r3, [r7, #4]
    2246:	819a      	strh	r2, [r3, #12]
    2248:	4b1c      	ldr	r3, [pc, #112]	; (22bc <arm_cfft_init_f32+0x198>)
    224a:	689a      	ldr	r2, [r3, #8]
    224c:	687b      	ldr	r3, [r7, #4]
    224e:	609a      	str	r2, [r3, #8]
    2250:	4b1a      	ldr	r3, [pc, #104]	; (22bc <arm_cfft_init_f32+0x198>)
    2252:	685a      	ldr	r2, [r3, #4]
    2254:	687b      	ldr	r3, [r7, #4]
    2256:	605a      	str	r2, [r3, #4]
    2258:	e01c      	b.n	2294 <arm_cfft_init_f32+0x170>
    225a:	4b19      	ldr	r3, [pc, #100]	; (22c0 <arm_cfft_init_f32+0x19c>)
    225c:	899a      	ldrh	r2, [r3, #12]
    225e:	687b      	ldr	r3, [r7, #4]
    2260:	819a      	strh	r2, [r3, #12]
    2262:	4b17      	ldr	r3, [pc, #92]	; (22c0 <arm_cfft_init_f32+0x19c>)
    2264:	689a      	ldr	r2, [r3, #8]
    2266:	687b      	ldr	r3, [r7, #4]
    2268:	609a      	str	r2, [r3, #8]
    226a:	4b15      	ldr	r3, [pc, #84]	; (22c0 <arm_cfft_init_f32+0x19c>)
    226c:	685a      	ldr	r2, [r3, #4]
    226e:	687b      	ldr	r3, [r7, #4]
    2270:	605a      	str	r2, [r3, #4]
    2272:	e00f      	b.n	2294 <arm_cfft_init_f32+0x170>
    2274:	4b13      	ldr	r3, [pc, #76]	; (22c4 <arm_cfft_init_f32+0x1a0>)
    2276:	899a      	ldrh	r2, [r3, #12]
    2278:	687b      	ldr	r3, [r7, #4]
    227a:	819a      	strh	r2, [r3, #12]
    227c:	4b11      	ldr	r3, [pc, #68]	; (22c4 <arm_cfft_init_f32+0x1a0>)
    227e:	689a      	ldr	r2, [r3, #8]
    2280:	687b      	ldr	r3, [r7, #4]
    2282:	609a      	str	r2, [r3, #8]
    2284:	4b0f      	ldr	r3, [pc, #60]	; (22c4 <arm_cfft_init_f32+0x1a0>)
    2286:	685a      	ldr	r2, [r3, #4]
    2288:	687b      	ldr	r3, [r7, #4]
    228a:	605a      	str	r2, [r3, #4]
    228c:	e002      	b.n	2294 <arm_cfft_init_f32+0x170>
    228e:	23ff      	movs	r3, #255	; 0xff
    2290:	73fb      	strb	r3, [r7, #15]
    2292:	bf00      	nop
    2294:	f997 300f 	ldrsb.w	r3, [r7, #15]
    2298:	4618      	mov	r0, r3
    229a:	3714      	adds	r7, #20
    229c:	46bd      	mov	sp, r7
    229e:	f85d 7b04 	ldr.w	r7, [sp], #4
    22a2:	4770      	bx	lr
    22a4:	00021a88 	.word	0x00021a88
    22a8:	00021a78 	.word	0x00021a78
    22ac:	00021a68 	.word	0x00021a68
    22b0:	00021a58 	.word	0x00021a58
    22b4:	00021a48 	.word	0x00021a48
    22b8:	00021a38 	.word	0x00021a38
    22bc:	00021a28 	.word	0x00021a28
    22c0:	00021a18 	.word	0x00021a18
    22c4:	00021a08 	.word	0x00021a08

000022c8 <arm_bitreversal_32>:
    22c8:	b480      	push	{r7}
    22ca:	b089      	sub	sp, #36	; 0x24
    22cc:	af00      	add	r7, sp, #0
    22ce:	60f8      	str	r0, [r7, #12]
    22d0:	460b      	mov	r3, r1
    22d2:	607a      	str	r2, [r7, #4]
    22d4:	817b      	strh	r3, [r7, #10]
    22d6:	2300      	movs	r3, #0
    22d8:	61fb      	str	r3, [r7, #28]
    22da:	e043      	b.n	2364 <arm_bitreversal_32+0x9c>
    22dc:	69fb      	ldr	r3, [r7, #28]
    22de:	005b      	lsls	r3, r3, #1
    22e0:	687a      	ldr	r2, [r7, #4]
    22e2:	4413      	add	r3, r2
    22e4:	881b      	ldrh	r3, [r3, #0]
    22e6:	089b      	lsrs	r3, r3, #2
    22e8:	b29b      	uxth	r3, r3
    22ea:	61bb      	str	r3, [r7, #24]
    22ec:	69fb      	ldr	r3, [r7, #28]
    22ee:	3301      	adds	r3, #1
    22f0:	005b      	lsls	r3, r3, #1
    22f2:	687a      	ldr	r2, [r7, #4]
    22f4:	4413      	add	r3, r2
    22f6:	881b      	ldrh	r3, [r3, #0]
    22f8:	089b      	lsrs	r3, r3, #2
    22fa:	b29b      	uxth	r3, r3
    22fc:	617b      	str	r3, [r7, #20]
    22fe:	69bb      	ldr	r3, [r7, #24]
    2300:	009b      	lsls	r3, r3, #2
    2302:	68fa      	ldr	r2, [r7, #12]
    2304:	4413      	add	r3, r2
    2306:	681b      	ldr	r3, [r3, #0]
    2308:	613b      	str	r3, [r7, #16]
    230a:	697b      	ldr	r3, [r7, #20]
    230c:	009b      	lsls	r3, r3, #2
    230e:	68fa      	ldr	r2, [r7, #12]
    2310:	441a      	add	r2, r3
    2312:	69bb      	ldr	r3, [r7, #24]
    2314:	009b      	lsls	r3, r3, #2
    2316:	68f9      	ldr	r1, [r7, #12]
    2318:	440b      	add	r3, r1
    231a:	6812      	ldr	r2, [r2, #0]
    231c:	601a      	str	r2, [r3, #0]
    231e:	697b      	ldr	r3, [r7, #20]
    2320:	009b      	lsls	r3, r3, #2
    2322:	68fa      	ldr	r2, [r7, #12]
    2324:	4413      	add	r3, r2
    2326:	693a      	ldr	r2, [r7, #16]
    2328:	601a      	str	r2, [r3, #0]
    232a:	69bb      	ldr	r3, [r7, #24]
    232c:	3301      	adds	r3, #1
    232e:	009b      	lsls	r3, r3, #2
    2330:	68fa      	ldr	r2, [r7, #12]
    2332:	4413      	add	r3, r2
    2334:	681b      	ldr	r3, [r3, #0]
    2336:	613b      	str	r3, [r7, #16]
    2338:	697b      	ldr	r3, [r7, #20]
    233a:	3301      	adds	r3, #1
    233c:	009b      	lsls	r3, r3, #2
    233e:	68fa      	ldr	r2, [r7, #12]
    2340:	441a      	add	r2, r3
    2342:	69bb      	ldr	r3, [r7, #24]
    2344:	3301      	adds	r3, #1
    2346:	009b      	lsls	r3, r3, #2
    2348:	68f9      	ldr	r1, [r7, #12]
    234a:	440b      	add	r3, r1
    234c:	6812      	ldr	r2, [r2, #0]
    234e:	601a      	str	r2, [r3, #0]
    2350:	697b      	ldr	r3, [r7, #20]
    2352:	3301      	adds	r3, #1
    2354:	009b      	lsls	r3, r3, #2
    2356:	68fa      	ldr	r2, [r7, #12]
    2358:	4413      	add	r3, r2
    235a:	693a      	ldr	r2, [r7, #16]
    235c:	601a      	str	r2, [r3, #0]
    235e:	69fb      	ldr	r3, [r7, #28]
    2360:	3302      	adds	r3, #2
    2362:	61fb      	str	r3, [r7, #28]
    2364:	897b      	ldrh	r3, [r7, #10]
    2366:	69fa      	ldr	r2, [r7, #28]
    2368:	429a      	cmp	r2, r3
    236a:	d3b7      	bcc.n	22dc <arm_bitreversal_32+0x14>
    236c:	bf00      	nop
    236e:	bf00      	nop
    2370:	3724      	adds	r7, #36	; 0x24
    2372:	46bd      	mov	sp, r7
    2374:	f85d 7b04 	ldr.w	r7, [sp], #4
    2378:	4770      	bx	lr
	...

0000237c <arm_radix8_butterfly_f32>:
    237c:	b480      	push	{r7}
    237e:	b0bd      	sub	sp, #244	; 0xf4
    2380:	af00      	add	r7, sp, #0
    2382:	60f8      	str	r0, [r7, #12]
    2384:	607a      	str	r2, [r7, #4]
    2386:	461a      	mov	r2, r3
    2388:	460b      	mov	r3, r1
    238a:	817b      	strh	r3, [r7, #10]
    238c:	4613      	mov	r3, r2
    238e:	813b      	strh	r3, [r7, #8]
    2390:	4b09      	ldr	r3, [pc, #36]	; (23b8 <arm_radix8_butterfly_f32+0x3c>)
    2392:	f8c7 30dc 	str.w	r3, [r7, #220]	; 0xdc
    2396:	897b      	ldrh	r3, [r7, #10]
    2398:	f8c7 30e4 	str.w	r3, [r7, #228]	; 0xe4
    239c:	f8d7 30e4 	ldr.w	r3, [r7, #228]	; 0xe4
    23a0:	f8c7 30d8 	str.w	r3, [r7, #216]	; 0xd8
    23a4:	f8d7 30e4 	ldr.w	r3, [r7, #228]	; 0xe4
    23a8:	08db      	lsrs	r3, r3, #3
    23aa:	f8c7 30e4 	str.w	r3, [r7, #228]	; 0xe4
    23ae:	2300      	movs	r3, #0
    23b0:	f8c7 30e8 	str.w	r3, [r7, #232]	; 0xe8
    23b4:	e002      	b.n	23bc <arm_radix8_butterfly_f32+0x40>
    23b6:	bf00      	nop
    23b8:	3f3504f3 	.word	0x3f3504f3
    23bc:	f8d7 20e8 	ldr.w	r2, [r7, #232]	; 0xe8
    23c0:	f8d7 30e4 	ldr.w	r3, [r7, #228]	; 0xe4
    23c4:	4413      	add	r3, r2
    23c6:	f8c7 30d4 	str.w	r3, [r7, #212]	; 0xd4
    23ca:	f8d7 20d4 	ldr.w	r2, [r7, #212]	; 0xd4
    23ce:	f8d7 30e4 	ldr.w	r3, [r7, #228]	; 0xe4
    23d2:	4413      	add	r3, r2
    23d4:	f8c7 30d0 	str.w	r3, [r7, #208]	; 0xd0
    23d8:	f8d7 20d0 	ldr.w	r2, [r7, #208]	; 0xd0
    23dc:	f8d7 30e4 	ldr.w	r3, [r7, #228]	; 0xe4
    23e0:	4413      	add	r3, r2
    23e2:	f8c7 30cc 	str.w	r3, [r7, #204]	; 0xcc
    23e6:	f8d7 20cc 	ldr.w	r2, [r7, #204]	; 0xcc
    23ea:	f8d7 30e4 	ldr.w	r3, [r7, #228]	; 0xe4
    23ee:	4413      	add	r3, r2
    23f0:	f8c7 30c8 	str.w	r3, [r7, #200]	; 0xc8
    23f4:	f8d7 20c8 	ldr.w	r2, [r7, #200]	; 0xc8
    23f8:	f8d7 30e4 	ldr.w	r3, [r7, #228]	; 0xe4
    23fc:	4413      	add	r3, r2
    23fe:	f8c7 30c4 	str.w	r3, [r7, #196]	; 0xc4
    2402:	f8d7 20c4 	ldr.w	r2, [r7, #196]	; 0xc4
    2406:	f8d7 30e4 	ldr.w	r3, [r7, #228]	; 0xe4
    240a:	4413      	add	r3, r2
    240c:	f8c7 30c0 	str.w	r3, [r7, #192]	; 0xc0
    2410:	f8d7 20c0 	ldr.w	r2, [r7, #192]	; 0xc0
    2414:	f8d7 30e4 	ldr.w	r3, [r7, #228]	; 0xe4
    2418:	4413      	add	r3, r2
    241a:	f8c7 30bc 	str.w	r3, [r7, #188]	; 0xbc
    241e:	f8d7 30e8 	ldr.w	r3, [r7, #232]	; 0xe8
    2422:	00db      	lsls	r3, r3, #3
    2424:	68fa      	ldr	r2, [r7, #12]
    2426:	4413      	add	r3, r2
    2428:	ed93 7a00 	vldr	s14, [r3]
    242c:	f8d7 30c8 	ldr.w	r3, [r7, #200]	; 0xc8
    2430:	00db      	lsls	r3, r3, #3
    2432:	68fa      	ldr	r2, [r7, #12]
    2434:	4413      	add	r3, r2
    2436:	edd3 7a00 	vldr	s15, [r3]
    243a:	ee77 7a27 	vadd.f32	s15, s14, s15
    243e:	edc7 7a2e 	vstr	s15, [r7, #184]	; 0xb8
    2442:	f8d7 30e8 	ldr.w	r3, [r7, #232]	; 0xe8
    2446:	00db      	lsls	r3, r3, #3
    2448:	68fa      	ldr	r2, [r7, #12]
    244a:	4413      	add	r3, r2
    244c:	ed93 7a00 	vldr	s14, [r3]
    2450:	f8d7 30c8 	ldr.w	r3, [r7, #200]	; 0xc8
    2454:	00db      	lsls	r3, r3, #3
    2456:	68fa      	ldr	r2, [r7, #12]
    2458:	4413      	add	r3, r2
    245a:	edd3 7a00 	vldr	s15, [r3]
    245e:	ee77 7a67 	vsub.f32	s15, s14, s15
    2462:	edc7 7a2d 	vstr	s15, [r7, #180]	; 0xb4
    2466:	f8d7 30d4 	ldr.w	r3, [r7, #212]	; 0xd4
    246a:	00db      	lsls	r3, r3, #3
    246c:	68fa      	ldr	r2, [r7, #12]
    246e:	4413      	add	r3, r2
    2470:	ed93 7a00 	vldr	s14, [r3]
    2474:	f8d7 30c4 	ldr.w	r3, [r7, #196]	; 0xc4
    2478:	00db      	lsls	r3, r3, #3
    247a:	68fa      	ldr	r2, [r7, #12]
    247c:	4413      	add	r3, r2
    247e:	edd3 7a00 	vldr	s15, [r3]
    2482:	ee77 7a27 	vadd.f32	s15, s14, s15
    2486:	edc7 7a2c 	vstr	s15, [r7, #176]	; 0xb0
    248a:	f8d7 30d4 	ldr.w	r3, [r7, #212]	; 0xd4
    248e:	00db      	lsls	r3, r3, #3
    2490:	68fa      	ldr	r2, [r7, #12]
    2492:	4413      	add	r3, r2
    2494:	ed93 7a00 	vldr	s14, [r3]
    2498:	f8d7 30c4 	ldr.w	r3, [r7, #196]	; 0xc4
    249c:	00db      	lsls	r3, r3, #3
    249e:	68fa      	ldr	r2, [r7, #12]
    24a0:	4413      	add	r3, r2
    24a2:	edd3 7a00 	vldr	s15, [r3]
    24a6:	ee77 7a67 	vsub.f32	s15, s14, s15
    24aa:	edc7 7a2b 	vstr	s15, [r7, #172]	; 0xac
    24ae:	f8d7 30d0 	ldr.w	r3, [r7, #208]	; 0xd0
    24b2:	00db      	lsls	r3, r3, #3
    24b4:	68fa      	ldr	r2, [r7, #12]
    24b6:	4413      	add	r3, r2
    24b8:	ed93 7a00 	vldr	s14, [r3]
    24bc:	f8d7 30c0 	ldr.w	r3, [r7, #192]	; 0xc0
    24c0:	00db      	lsls	r3, r3, #3
    24c2:	68fa      	ldr	r2, [r7, #12]
    24c4:	4413      	add	r3, r2
    24c6:	edd3 7a00 	vldr	s15, [r3]
    24ca:	ee77 7a27 	vadd.f32	s15, s14, s15
    24ce:	edc7 7a2a 	vstr	s15, [r7, #168]	; 0xa8
    24d2:	f8d7 30d0 	ldr.w	r3, [r7, #208]	; 0xd0
    24d6:	00db      	lsls	r3, r3, #3
    24d8:	68fa      	ldr	r2, [r7, #12]
    24da:	4413      	add	r3, r2
    24dc:	ed93 7a00 	vldr	s14, [r3]
    24e0:	f8d7 30c0 	ldr.w	r3, [r7, #192]	; 0xc0
    24e4:	00db      	lsls	r3, r3, #3
    24e6:	68fa      	ldr	r2, [r7, #12]
    24e8:	4413      	add	r3, r2
    24ea:	edd3 7a00 	vldr	s15, [r3]
    24ee:	ee77 7a67 	vsub.f32	s15, s14, s15
    24f2:	edc7 7a29 	vstr	s15, [r7, #164]	; 0xa4
    24f6:	f8d7 30cc 	ldr.w	r3, [r7, #204]	; 0xcc
    24fa:	00db      	lsls	r3, r3, #3
    24fc:	68fa      	ldr	r2, [r7, #12]
    24fe:	4413      	add	r3, r2
    2500:	ed93 7a00 	vldr	s14, [r3]
    2504:	f8d7 30bc 	ldr.w	r3, [r7, #188]	; 0xbc
    2508:	00db      	lsls	r3, r3, #3
    250a:	68fa      	ldr	r2, [r7, #12]
    250c:	4413      	add	r3, r2
    250e:	edd3 7a00 	vldr	s15, [r3]
    2512:	ee77 7a27 	vadd.f32	s15, s14, s15
    2516:	edc7 7a28 	vstr	s15, [r7, #160]	; 0xa0
    251a:	f8d7 30cc 	ldr.w	r3, [r7, #204]	; 0xcc
    251e:	00db      	lsls	r3, r3, #3
    2520:	68fa      	ldr	r2, [r7, #12]
    2522:	4413      	add	r3, r2
    2524:	ed93 7a00 	vldr	s14, [r3]
    2528:	f8d7 30bc 	ldr.w	r3, [r7, #188]	; 0xbc
    252c:	00db      	lsls	r3, r3, #3
    252e:	68fa      	ldr	r2, [r7, #12]
    2530:	4413      	add	r3, r2
    2532:	edd3 7a00 	vldr	s15, [r3]
    2536:	ee77 7a67 	vsub.f32	s15, s14, s15
    253a:	edc7 7a27 	vstr	s15, [r7, #156]	; 0x9c
    253e:	ed97 7a2e 	vldr	s14, [r7, #184]	; 0xb8
    2542:	edd7 7a2a 	vldr	s15, [r7, #168]	; 0xa8
    2546:	ee77 7a67 	vsub.f32	s15, s14, s15
    254a:	edc7 7a26 	vstr	s15, [r7, #152]	; 0x98
    254e:	ed97 7a2e 	vldr	s14, [r7, #184]	; 0xb8
    2552:	edd7 7a2a 	vldr	s15, [r7, #168]	; 0xa8
    2556:	ee77 7a27 	vadd.f32	s15, s14, s15
    255a:	edc7 7a2e 	vstr	s15, [r7, #184]	; 0xb8
    255e:	ed97 7a2c 	vldr	s14, [r7, #176]	; 0xb0
    2562:	edd7 7a28 	vldr	s15, [r7, #160]	; 0xa0
    2566:	ee77 7a67 	vsub.f32	s15, s14, s15
    256a:	edc7 7a2a 	vstr	s15, [r7, #168]	; 0xa8
    256e:	ed97 7a2c 	vldr	s14, [r7, #176]	; 0xb0
    2572:	edd7 7a28 	vldr	s15, [r7, #160]	; 0xa0
    2576:	ee77 7a27 	vadd.f32	s15, s14, s15
    257a:	edc7 7a2c 	vstr	s15, [r7, #176]	; 0xb0
    257e:	f8d7 30e8 	ldr.w	r3, [r7, #232]	; 0xe8
    2582:	00db      	lsls	r3, r3, #3
    2584:	68fa      	ldr	r2, [r7, #12]
    2586:	4413      	add	r3, r2
    2588:	ed97 7a2e 	vldr	s14, [r7, #184]	; 0xb8
    258c:	edd7 7a2c 	vldr	s15, [r7, #176]	; 0xb0
    2590:	ee77 7a27 	vadd.f32	s15, s14, s15
    2594:	edc3 7a00 	vstr	s15, [r3]
    2598:	f8d7 30c8 	ldr.w	r3, [r7, #200]	; 0xc8
    259c:	00db      	lsls	r3, r3, #3
    259e:	68fa      	ldr	r2, [r7, #12]
    25a0:	4413      	add	r3, r2
    25a2:	ed97 7a2e 	vldr	s14, [r7, #184]	; 0xb8
    25a6:	edd7 7a2c 	vldr	s15, [r7, #176]	; 0xb0
    25aa:	ee77 7a67 	vsub.f32	s15, s14, s15
    25ae:	edc3 7a00 	vstr	s15, [r3]
    25b2:	f8d7 30e8 	ldr.w	r3, [r7, #232]	; 0xe8
    25b6:	00db      	lsls	r3, r3, #3
    25b8:	3304      	adds	r3, #4
    25ba:	68fa      	ldr	r2, [r7, #12]
    25bc:	4413      	add	r3, r2
    25be:	ed93 7a00 	vldr	s14, [r3]
    25c2:	f8d7 30c8 	ldr.w	r3, [r7, #200]	; 0xc8
    25c6:	00db      	lsls	r3, r3, #3
    25c8:	3304      	adds	r3, #4
    25ca:	68fa      	ldr	r2, [r7, #12]
    25cc:	4413      	add	r3, r2
    25ce:	edd3 7a00 	vldr	s15, [r3]
    25d2:	ee77 7a27 	vadd.f32	s15, s14, s15
    25d6:	edc7 7a2e 	vstr	s15, [r7, #184]	; 0xb8
    25da:	f8d7 30e8 	ldr.w	r3, [r7, #232]	; 0xe8
    25de:	00db      	lsls	r3, r3, #3
    25e0:	3304      	adds	r3, #4
    25e2:	68fa      	ldr	r2, [r7, #12]
    25e4:	4413      	add	r3, r2
    25e6:	ed93 7a00 	vldr	s14, [r3]
    25ea:	f8d7 30c8 	ldr.w	r3, [r7, #200]	; 0xc8
    25ee:	00db      	lsls	r3, r3, #3
    25f0:	3304      	adds	r3, #4
    25f2:	68fa      	ldr	r2, [r7, #12]
    25f4:	4413      	add	r3, r2
    25f6:	edd3 7a00 	vldr	s15, [r3]
    25fa:	ee77 7a67 	vsub.f32	s15, s14, s15
    25fe:	edc7 7a25 	vstr	s15, [r7, #148]	; 0x94
    2602:	f8d7 30d4 	ldr.w	r3, [r7, #212]	; 0xd4
    2606:	00db      	lsls	r3, r3, #3
    2608:	3304      	adds	r3, #4
    260a:	68fa      	ldr	r2, [r7, #12]
    260c:	4413      	add	r3, r2
    260e:	ed93 7a00 	vldr	s14, [r3]
    2612:	f8d7 30c4 	ldr.w	r3, [r7, #196]	; 0xc4
    2616:	00db      	lsls	r3, r3, #3
    2618:	3304      	adds	r3, #4
    261a:	68fa      	ldr	r2, [r7, #12]
    261c:	4413      	add	r3, r2
    261e:	edd3 7a00 	vldr	s15, [r3]
    2622:	ee77 7a27 	vadd.f32	s15, s14, s15
    2626:	edc7 7a2c 	vstr	s15, [r7, #176]	; 0xb0
    262a:	f8d7 30d4 	ldr.w	r3, [r7, #212]	; 0xd4
    262e:	00db      	lsls	r3, r3, #3
    2630:	3304      	adds	r3, #4
    2632:	68fa      	ldr	r2, [r7, #12]
    2634:	4413      	add	r3, r2
    2636:	ed93 7a00 	vldr	s14, [r3]
    263a:	f8d7 30c4 	ldr.w	r3, [r7, #196]	; 0xc4
    263e:	00db      	lsls	r3, r3, #3
    2640:	3304      	adds	r3, #4
    2642:	68fa      	ldr	r2, [r7, #12]
    2644:	4413      	add	r3, r2
    2646:	edd3 7a00 	vldr	s15, [r3]
    264a:	ee77 7a67 	vsub.f32	s15, s14, s15
    264e:	edc7 7a24 	vstr	s15, [r7, #144]	; 0x90
    2652:	f8d7 30d0 	ldr.w	r3, [r7, #208]	; 0xd0
    2656:	00db      	lsls	r3, r3, #3
    2658:	3304      	adds	r3, #4
    265a:	68fa      	ldr	r2, [r7, #12]
    265c:	4413      	add	r3, r2
    265e:	ed93 7a00 	vldr	s14, [r3]
    2662:	f8d7 30c0 	ldr.w	r3, [r7, #192]	; 0xc0
    2666:	00db      	lsls	r3, r3, #3
    2668:	3304      	adds	r3, #4
    266a:	68fa      	ldr	r2, [r7, #12]
    266c:	4413      	add	r3, r2
    266e:	edd3 7a00 	vldr	s15, [r3]
    2672:	ee77 7a27 	vadd.f32	s15, s14, s15
    2676:	edc7 7a23 	vstr	s15, [r7, #140]	; 0x8c
    267a:	f8d7 30d0 	ldr.w	r3, [r7, #208]	; 0xd0
    267e:	00db      	lsls	r3, r3, #3
    2680:	3304      	adds	r3, #4
    2682:	68fa      	ldr	r2, [r7, #12]
    2684:	4413      	add	r3, r2
    2686:	ed93 7a00 	vldr	s14, [r3]
    268a:	f8d7 30c0 	ldr.w	r3, [r7, #192]	; 0xc0
    268e:	00db      	lsls	r3, r3, #3
    2690:	3304      	adds	r3, #4
    2692:	68fa      	ldr	r2, [r7, #12]
    2694:	4413      	add	r3, r2
    2696:	edd3 7a00 	vldr	s15, [r3]
    269a:	ee77 7a67 	vsub.f32	s15, s14, s15
    269e:	edc7 7a22 	vstr	s15, [r7, #136]	; 0x88
    26a2:	f8d7 30cc 	ldr.w	r3, [r7, #204]	; 0xcc
    26a6:	00db      	lsls	r3, r3, #3
    26a8:	3304      	adds	r3, #4
    26aa:	68fa      	ldr	r2, [r7, #12]
    26ac:	4413      	add	r3, r2
    26ae:	ed93 7a00 	vldr	s14, [r3]
    26b2:	f8d7 30bc 	ldr.w	r3, [r7, #188]	; 0xbc
    26b6:	00db      	lsls	r3, r3, #3
    26b8:	3304      	adds	r3, #4
    26ba:	68fa      	ldr	r2, [r7, #12]
    26bc:	4413      	add	r3, r2
    26be:	edd3 7a00 	vldr	s15, [r3]
    26c2:	ee77 7a27 	vadd.f32	s15, s14, s15
    26c6:	edc7 7a28 	vstr	s15, [r7, #160]	; 0xa0
    26ca:	f8d7 30cc 	ldr.w	r3, [r7, #204]	; 0xcc
    26ce:	00db      	lsls	r3, r3, #3
    26d0:	3304      	adds	r3, #4
    26d2:	68fa      	ldr	r2, [r7, #12]
    26d4:	4413      	add	r3, r2
    26d6:	ed93 7a00 	vldr	s14, [r3]
    26da:	f8d7 30bc 	ldr.w	r3, [r7, #188]	; 0xbc
    26de:	00db      	lsls	r3, r3, #3
    26e0:	3304      	adds	r3, #4
    26e2:	68fa      	ldr	r2, [r7, #12]
    26e4:	4413      	add	r3, r2
    26e6:	edd3 7a00 	vldr	s15, [r3]
    26ea:	ee77 7a67 	vsub.f32	s15, s14, s15
    26ee:	edc7 7a21 	vstr	s15, [r7, #132]	; 0x84
    26f2:	ed97 7a2e 	vldr	s14, [r7, #184]	; 0xb8
    26f6:	edd7 7a23 	vldr	s15, [r7, #140]	; 0x8c
    26fa:	ee77 7a67 	vsub.f32	s15, s14, s15
    26fe:	edc7 7a20 	vstr	s15, [r7, #128]	; 0x80
    2702:	ed97 7a2e 	vldr	s14, [r7, #184]	; 0xb8
    2706:	edd7 7a23 	vldr	s15, [r7, #140]	; 0x8c
    270a:	ee77 7a27 	vadd.f32	s15, s14, s15
    270e:	edc7 7a2e 	vstr	s15, [r7, #184]	; 0xb8
    2712:	ed97 7a2c 	vldr	s14, [r7, #176]	; 0xb0
    2716:	edd7 7a28 	vldr	s15, [r7, #160]	; 0xa0
    271a:	ee77 7a67 	vsub.f32	s15, s14, s15
    271e:	edc7 7a23 	vstr	s15, [r7, #140]	; 0x8c
    2722:	ed97 7a2c 	vldr	s14, [r7, #176]	; 0xb0
    2726:	edd7 7a28 	vldr	s15, [r7, #160]	; 0xa0
    272a:	ee77 7a27 	vadd.f32	s15, s14, s15
    272e:	edc7 7a2c 	vstr	s15, [r7, #176]	; 0xb0
    2732:	f8d7 30e8 	ldr.w	r3, [r7, #232]	; 0xe8
    2736:	00db      	lsls	r3, r3, #3
    2738:	3304      	adds	r3, #4
    273a:	68fa      	ldr	r2, [r7, #12]
    273c:	4413      	add	r3, r2
    273e:	ed97 7a2e 	vldr	s14, [r7, #184]	; 0xb8
    2742:	edd7 7a2c 	vldr	s15, [r7, #176]	; 0xb0
    2746:	ee77 7a27 	vadd.f32	s15, s14, s15
    274a:	edc3 7a00 	vstr	s15, [r3]
    274e:	f8d7 30c8 	ldr.w	r3, [r7, #200]	; 0xc8
    2752:	00db      	lsls	r3, r3, #3
    2754:	3304      	adds	r3, #4
    2756:	68fa      	ldr	r2, [r7, #12]
    2758:	4413      	add	r3, r2
    275a:	ed97 7a2e 	vldr	s14, [r7, #184]	; 0xb8
    275e:	edd7 7a2c 	vldr	s15, [r7, #176]	; 0xb0
    2762:	ee77 7a67 	vsub.f32	s15, s14, s15
    2766:	edc3 7a00 	vstr	s15, [r3]
    276a:	f8d7 30d0 	ldr.w	r3, [r7, #208]	; 0xd0
    276e:	00db      	lsls	r3, r3, #3
    2770:	68fa      	ldr	r2, [r7, #12]
    2772:	4413      	add	r3, r2
    2774:	ed97 7a26 	vldr	s14, [r7, #152]	; 0x98
    2778:	edd7 7a23 	vldr	s15, [r7, #140]	; 0x8c
    277c:	ee77 7a27 	vadd.f32	s15, s14, s15
    2780:	edc3 7a00 	vstr	s15, [r3]
    2784:	f8d7 30c0 	ldr.w	r3, [r7, #192]	; 0xc0
    2788:	00db      	lsls	r3, r3, #3
    278a:	68fa      	ldr	r2, [r7, #12]
    278c:	4413      	add	r3, r2
    278e:	ed97 7a26 	vldr	s14, [r7, #152]	; 0x98
    2792:	edd7 7a23 	vldr	s15, [r7, #140]	; 0x8c
    2796:	ee77 7a67 	vsub.f32	s15, s14, s15
    279a:	edc3 7a00 	vstr	s15, [r3]
    279e:	f8d7 30d0 	ldr.w	r3, [r7, #208]	; 0xd0
    27a2:	00db      	lsls	r3, r3, #3
    27a4:	3304      	adds	r3, #4
    27a6:	68fa      	ldr	r2, [r7, #12]
    27a8:	4413      	add	r3, r2
    27aa:	ed97 7a20 	vldr	s14, [r7, #128]	; 0x80
    27ae:	edd7 7a2a 	vldr	s15, [r7, #168]	; 0xa8
    27b2:	ee77 7a67 	vsub.f32	s15, s14, s15
    27b6:	edc3 7a00 	vstr	s15, [r3]
    27ba:	f8d7 30c0 	ldr.w	r3, [r7, #192]	; 0xc0
    27be:	00db      	lsls	r3, r3, #3
    27c0:	3304      	adds	r3, #4
    27c2:	68fa      	ldr	r2, [r7, #12]
    27c4:	4413      	add	r3, r2
    27c6:	ed97 7a20 	vldr	s14, [r7, #128]	; 0x80
    27ca:	edd7 7a2a 	vldr	s15, [r7, #168]	; 0xa8
    27ce:	ee77 7a27 	vadd.f32	s15, s14, s15
    27d2:	edc3 7a00 	vstr	s15, [r3]
    27d6:	ed97 7a2b 	vldr	s14, [r7, #172]	; 0xac
    27da:	edd7 7a27 	vldr	s15, [r7, #156]	; 0x9c
    27de:	ee77 7a67 	vsub.f32	s15, s14, s15
    27e2:	ed97 7a37 	vldr	s14, [r7, #220]	; 0xdc
    27e6:	ee67 7a27 	vmul.f32	s15, s14, s15
    27ea:	edc7 7a2e 	vstr	s15, [r7, #184]	; 0xb8
    27ee:	ed97 7a2b 	vldr	s14, [r7, #172]	; 0xac
    27f2:	edd7 7a27 	vldr	s15, [r7, #156]	; 0x9c
    27f6:	ee77 7a27 	vadd.f32	s15, s14, s15
    27fa:	ed97 7a37 	vldr	s14, [r7, #220]	; 0xdc
    27fe:	ee67 7a27 	vmul.f32	s15, s14, s15
    2802:	edc7 7a2b 	vstr	s15, [r7, #172]	; 0xac
    2806:	ed97 7a24 	vldr	s14, [r7, #144]	; 0x90
    280a:	edd7 7a21 	vldr	s15, [r7, #132]	; 0x84
    280e:	ee77 7a67 	vsub.f32	s15, s14, s15
    2812:	ed97 7a37 	vldr	s14, [r7, #220]	; 0xdc
    2816:	ee67 7a27 	vmul.f32	s15, s14, s15
    281a:	edc7 7a2c 	vstr	s15, [r7, #176]	; 0xb0
    281e:	ed97 7a24 	vldr	s14, [r7, #144]	; 0x90
    2822:	edd7 7a21 	vldr	s15, [r7, #132]	; 0x84
    2826:	ee77 7a27 	vadd.f32	s15, s14, s15
    282a:	ed97 7a37 	vldr	s14, [r7, #220]	; 0xdc
    282e:	ee67 7a27 	vmul.f32	s15, s14, s15
    2832:	edc7 7a24 	vstr	s15, [r7, #144]	; 0x90
    2836:	ed97 7a2d 	vldr	s14, [r7, #180]	; 0xb4
    283a:	edd7 7a2e 	vldr	s15, [r7, #184]	; 0xb8
    283e:	ee77 7a67 	vsub.f32	s15, s14, s15
    2842:	edc7 7a26 	vstr	s15, [r7, #152]	; 0x98
    2846:	ed97 7a2d 	vldr	s14, [r7, #180]	; 0xb4
    284a:	edd7 7a2e 	vldr	s15, [r7, #184]	; 0xb8
    284e:	ee77 7a27 	vadd.f32	s15, s14, s15
    2852:	edc7 7a2d 	vstr	s15, [r7, #180]	; 0xb4
    2856:	ed97 7a29 	vldr	s14, [r7, #164]	; 0xa4
    285a:	edd7 7a2b 	vldr	s15, [r7, #172]	; 0xac
    285e:	ee77 7a67 	vsub.f32	s15, s14, s15
    2862:	edc7 7a27 	vstr	s15, [r7, #156]	; 0x9c
    2866:	ed97 7a29 	vldr	s14, [r7, #164]	; 0xa4
    286a:	edd7 7a2b 	vldr	s15, [r7, #172]	; 0xac
    286e:	ee77 7a27 	vadd.f32	s15, s14, s15
    2872:	edc7 7a29 	vstr	s15, [r7, #164]	; 0xa4
    2876:	ed97 7a25 	vldr	s14, [r7, #148]	; 0x94
    287a:	edd7 7a2c 	vldr	s15, [r7, #176]	; 0xb0
    287e:	ee77 7a67 	vsub.f32	s15, s14, s15
    2882:	edc7 7a20 	vstr	s15, [r7, #128]	; 0x80
    2886:	ed97 7a25 	vldr	s14, [r7, #148]	; 0x94
    288a:	edd7 7a2c 	vldr	s15, [r7, #176]	; 0xb0
    288e:	ee77 7a27 	vadd.f32	s15, s14, s15
    2892:	edc7 7a25 	vstr	s15, [r7, #148]	; 0x94
    2896:	ed97 7a22 	vldr	s14, [r7, #136]	; 0x88
    289a:	edd7 7a24 	vldr	s15, [r7, #144]	; 0x90
    289e:	ee77 7a67 	vsub.f32	s15, s14, s15
    28a2:	edc7 7a21 	vstr	s15, [r7, #132]	; 0x84
    28a6:	ed97 7a22 	vldr	s14, [r7, #136]	; 0x88
    28aa:	edd7 7a24 	vldr	s15, [r7, #144]	; 0x90
    28ae:	ee77 7a27 	vadd.f32	s15, s14, s15
    28b2:	edc7 7a22 	vstr	s15, [r7, #136]	; 0x88
    28b6:	f8d7 30d4 	ldr.w	r3, [r7, #212]	; 0xd4
    28ba:	00db      	lsls	r3, r3, #3
    28bc:	68fa      	ldr	r2, [r7, #12]
    28be:	4413      	add	r3, r2
    28c0:	ed97 7a2d 	vldr	s14, [r7, #180]	; 0xb4
    28c4:	edd7 7a22 	vldr	s15, [r7, #136]	; 0x88
    28c8:	ee77 7a27 	vadd.f32	s15, s14, s15
    28cc:	edc3 7a00 	vstr	s15, [r3]
    28d0:	f8d7 30bc 	ldr.w	r3, [r7, #188]	; 0xbc
    28d4:	00db      	lsls	r3, r3, #3
    28d6:	68fa      	ldr	r2, [r7, #12]
    28d8:	4413      	add	r3, r2
    28da:	ed97 7a2d 	vldr	s14, [r7, #180]	; 0xb4
    28de:	edd7 7a22 	vldr	s15, [r7, #136]	; 0x88
    28e2:	ee77 7a67 	vsub.f32	s15, s14, s15
    28e6:	edc3 7a00 	vstr	s15, [r3]
    28ea:	f8d7 30c4 	ldr.w	r3, [r7, #196]	; 0xc4
    28ee:	00db      	lsls	r3, r3, #3
    28f0:	68fa      	ldr	r2, [r7, #12]
    28f2:	4413      	add	r3, r2
    28f4:	ed97 7a26 	vldr	s14, [r7, #152]	; 0x98
    28f8:	edd7 7a21 	vldr	s15, [r7, #132]	; 0x84
    28fc:	ee77 7a27 	vadd.f32	s15, s14, s15
    2900:	edc3 7a00 	vstr	s15, [r3]
    2904:	f8d7 30cc 	ldr.w	r3, [r7, #204]	; 0xcc
    2908:	00db      	lsls	r3, r3, #3
    290a:	68fa      	ldr	r2, [r7, #12]
    290c:	4413      	add	r3, r2
    290e:	ed97 7a26 	vldr	s14, [r7, #152]	; 0x98
    2912:	edd7 7a21 	vldr	s15, [r7, #132]	; 0x84
    2916:	ee77 7a67 	vsub.f32	s15, s14, s15
    291a:	edc3 7a00 	vstr	s15, [r3]
    291e:	f8d7 30d4 	ldr.w	r3, [r7, #212]	; 0xd4
    2922:	00db      	lsls	r3, r3, #3
    2924:	3304      	adds	r3, #4
    2926:	68fa      	ldr	r2, [r7, #12]
    2928:	4413      	add	r3, r2
    292a:	ed97 7a25 	vldr	s14, [r7, #148]	; 0x94
    292e:	edd7 7a29 	vldr	s15, [r7, #164]	; 0xa4
    2932:	ee77 7a67 	vsub.f32	s15, s14, s15
    2936:	edc3 7a00 	vstr	s15, [r3]
    293a:	f8d7 30bc 	ldr.w	r3, [r7, #188]	; 0xbc
    293e:	00db      	lsls	r3, r3, #3
    2940:	3304      	adds	r3, #4
    2942:	68fa      	ldr	r2, [r7, #12]
    2944:	4413      	add	r3, r2
    2946:	ed97 7a25 	vldr	s14, [r7, #148]	; 0x94
    294a:	edd7 7a29 	vldr	s15, [r7, #164]	; 0xa4
    294e:	ee77 7a27 	vadd.f32	s15, s14, s15
    2952:	edc3 7a00 	vstr	s15, [r3]
    2956:	f8d7 30c4 	ldr.w	r3, [r7, #196]	; 0xc4
    295a:	00db      	lsls	r3, r3, #3
    295c:	3304      	adds	r3, #4
    295e:	68fa      	ldr	r2, [r7, #12]
    2960:	4413      	add	r3, r2
    2962:	ed97 7a20 	vldr	s14, [r7, #128]	; 0x80
    2966:	edd7 7a27 	vldr	s15, [r7, #156]	; 0x9c
    296a:	ee77 7a67 	vsub.f32	s15, s14, s15
    296e:	edc3 7a00 	vstr	s15, [r3]
    2972:	f8d7 30cc 	ldr.w	r3, [r7, #204]	; 0xcc
    2976:	00db      	lsls	r3, r3, #3
    2978:	3304      	adds	r3, #4
    297a:	68fa      	ldr	r2, [r7, #12]
    297c:	4413      	add	r3, r2
    297e:	ed97 7a20 	vldr	s14, [r7, #128]	; 0x80
    2982:	edd7 7a27 	vldr	s15, [r7, #156]	; 0x9c
    2986:	ee77 7a27 	vadd.f32	s15, s14, s15
    298a:	edc3 7a00 	vstr	s15, [r3]
    298e:	f8d7 20e8 	ldr.w	r2, [r7, #232]	; 0xe8
    2992:	f8d7 30d8 	ldr.w	r3, [r7, #216]	; 0xd8
    2996:	4413      	add	r3, r2
    2998:	f8c7 30e8 	str.w	r3, [r7, #232]	; 0xe8
    299c:	897b      	ldrh	r3, [r7, #10]
    299e:	f8d7 20e8 	ldr.w	r2, [r7, #232]	; 0xe8
    29a2:	429a      	cmp	r2, r3
    29a4:	f4ff ad0a 	bcc.w	23bc <arm_radix8_butterfly_f32+0x40>
    29a8:	f8d7 30e4 	ldr.w	r3, [r7, #228]	; 0xe4
    29ac:	2b07      	cmp	r3, #7
    29ae:	f240 84e3 	bls.w	3378 <arm_radix8_butterfly_f32+0xffc>
    29b2:	2300      	movs	r3, #0
    29b4:	f8c7 30ec 	str.w	r3, [r7, #236]	; 0xec
    29b8:	2301      	movs	r3, #1
    29ba:	f8c7 30e0 	str.w	r3, [r7, #224]	; 0xe0
    29be:	893b      	ldrh	r3, [r7, #8]
    29c0:	f8d7 20ec 	ldr.w	r2, [r7, #236]	; 0xec
    29c4:	4413      	add	r3, r2
    29c6:	67fb      	str	r3, [r7, #124]	; 0x7c
    29c8:	6ffb      	ldr	r3, [r7, #124]	; 0x7c
    29ca:	f8c7 30ec 	str.w	r3, [r7, #236]	; 0xec
    29ce:	f8d7 20ec 	ldr.w	r2, [r7, #236]	; 0xec
    29d2:	6ffb      	ldr	r3, [r7, #124]	; 0x7c
    29d4:	4413      	add	r3, r2
    29d6:	67bb      	str	r3, [r7, #120]	; 0x78
    29d8:	6fba      	ldr	r2, [r7, #120]	; 0x78
    29da:	6ffb      	ldr	r3, [r7, #124]	; 0x7c
    29dc:	4413      	add	r3, r2
    29de:	677b      	str	r3, [r7, #116]	; 0x74
    29e0:	6f7a      	ldr	r2, [r7, #116]	; 0x74
    29e2:	6ffb      	ldr	r3, [r7, #124]	; 0x7c
    29e4:	4413      	add	r3, r2
    29e6:	673b      	str	r3, [r7, #112]	; 0x70
    29e8:	6f3a      	ldr	r2, [r7, #112]	; 0x70
    29ea:	6ffb      	ldr	r3, [r7, #124]	; 0x7c
    29ec:	4413      	add	r3, r2
    29ee:	66fb      	str	r3, [r7, #108]	; 0x6c
    29f0:	6efa      	ldr	r2, [r7, #108]	; 0x6c
    29f2:	6ffb      	ldr	r3, [r7, #124]	; 0x7c
    29f4:	4413      	add	r3, r2
    29f6:	66bb      	str	r3, [r7, #104]	; 0x68
    29f8:	6eba      	ldr	r2, [r7, #104]	; 0x68
    29fa:	6ffb      	ldr	r3, [r7, #124]	; 0x7c
    29fc:	4413      	add	r3, r2
    29fe:	667b      	str	r3, [r7, #100]	; 0x64
    2a00:	f8d7 30ec 	ldr.w	r3, [r7, #236]	; 0xec
    2a04:	00db      	lsls	r3, r3, #3
    2a06:	687a      	ldr	r2, [r7, #4]
    2a08:	4413      	add	r3, r2
    2a0a:	681b      	ldr	r3, [r3, #0]
    2a0c:	663b      	str	r3, [r7, #96]	; 0x60
    2a0e:	6fbb      	ldr	r3, [r7, #120]	; 0x78
    2a10:	00db      	lsls	r3, r3, #3
    2a12:	687a      	ldr	r2, [r7, #4]
    2a14:	4413      	add	r3, r2
    2a16:	681b      	ldr	r3, [r3, #0]
    2a18:	65fb      	str	r3, [r7, #92]	; 0x5c
    2a1a:	6f7b      	ldr	r3, [r7, #116]	; 0x74
    2a1c:	00db      	lsls	r3, r3, #3
    2a1e:	687a      	ldr	r2, [r7, #4]
    2a20:	4413      	add	r3, r2
    2a22:	681b      	ldr	r3, [r3, #0]
    2a24:	65bb      	str	r3, [r7, #88]	; 0x58
    2a26:	6f3b      	ldr	r3, [r7, #112]	; 0x70
    2a28:	00db      	lsls	r3, r3, #3
    2a2a:	687a      	ldr	r2, [r7, #4]
    2a2c:	4413      	add	r3, r2
    2a2e:	681b      	ldr	r3, [r3, #0]
    2a30:	657b      	str	r3, [r7, #84]	; 0x54
    2a32:	6efb      	ldr	r3, [r7, #108]	; 0x6c
    2a34:	00db      	lsls	r3, r3, #3
    2a36:	687a      	ldr	r2, [r7, #4]
    2a38:	4413      	add	r3, r2
    2a3a:	681b      	ldr	r3, [r3, #0]
    2a3c:	653b      	str	r3, [r7, #80]	; 0x50
    2a3e:	6ebb      	ldr	r3, [r7, #104]	; 0x68
    2a40:	00db      	lsls	r3, r3, #3
    2a42:	687a      	ldr	r2, [r7, #4]
    2a44:	4413      	add	r3, r2
    2a46:	681b      	ldr	r3, [r3, #0]
    2a48:	64fb      	str	r3, [r7, #76]	; 0x4c
    2a4a:	6e7b      	ldr	r3, [r7, #100]	; 0x64
    2a4c:	00db      	lsls	r3, r3, #3
    2a4e:	687a      	ldr	r2, [r7, #4]
    2a50:	4413      	add	r3, r2
    2a52:	681b      	ldr	r3, [r3, #0]
    2a54:	64bb      	str	r3, [r7, #72]	; 0x48
    2a56:	f8d7 30ec 	ldr.w	r3, [r7, #236]	; 0xec
    2a5a:	00db      	lsls	r3, r3, #3
    2a5c:	3304      	adds	r3, #4
    2a5e:	687a      	ldr	r2, [r7, #4]
    2a60:	4413      	add	r3, r2
    2a62:	681b      	ldr	r3, [r3, #0]
    2a64:	647b      	str	r3, [r7, #68]	; 0x44
    2a66:	6fbb      	ldr	r3, [r7, #120]	; 0x78
    2a68:	00db      	lsls	r3, r3, #3
    2a6a:	3304      	adds	r3, #4
    2a6c:	687a      	ldr	r2, [r7, #4]
    2a6e:	4413      	add	r3, r2
    2a70:	681b      	ldr	r3, [r3, #0]
    2a72:	643b      	str	r3, [r7, #64]	; 0x40
    2a74:	6f7b      	ldr	r3, [r7, #116]	; 0x74
    2a76:	00db      	lsls	r3, r3, #3
    2a78:	3304      	adds	r3, #4
    2a7a:	687a      	ldr	r2, [r7, #4]
    2a7c:	4413      	add	r3, r2
    2a7e:	681b      	ldr	r3, [r3, #0]
    2a80:	63fb      	str	r3, [r7, #60]	; 0x3c
    2a82:	6f3b      	ldr	r3, [r7, #112]	; 0x70
    2a84:	00db      	lsls	r3, r3, #3
    2a86:	3304      	adds	r3, #4
    2a88:	687a      	ldr	r2, [r7, #4]
    2a8a:	4413      	add	r3, r2
    2a8c:	681b      	ldr	r3, [r3, #0]
    2a8e:	63bb      	str	r3, [r7, #56]	; 0x38
    2a90:	6efb      	ldr	r3, [r7, #108]	; 0x6c
    2a92:	00db      	lsls	r3, r3, #3
    2a94:	3304      	adds	r3, #4
    2a96:	687a      	ldr	r2, [r7, #4]
    2a98:	4413      	add	r3, r2
    2a9a:	681b      	ldr	r3, [r3, #0]
    2a9c:	637b      	str	r3, [r7, #52]	; 0x34
    2a9e:	6ebb      	ldr	r3, [r7, #104]	; 0x68
    2aa0:	00db      	lsls	r3, r3, #3
    2aa2:	3304      	adds	r3, #4
    2aa4:	687a      	ldr	r2, [r7, #4]
    2aa6:	4413      	add	r3, r2
    2aa8:	681b      	ldr	r3, [r3, #0]
    2aaa:	633b      	str	r3, [r7, #48]	; 0x30
    2aac:	6e7b      	ldr	r3, [r7, #100]	; 0x64
    2aae:	00db      	lsls	r3, r3, #3
    2ab0:	3304      	adds	r3, #4
    2ab2:	687a      	ldr	r2, [r7, #4]
    2ab4:	4413      	add	r3, r2
    2ab6:	681b      	ldr	r3, [r3, #0]
    2ab8:	62fb      	str	r3, [r7, #44]	; 0x2c
    2aba:	f8d7 30e0 	ldr.w	r3, [r7, #224]	; 0xe0
    2abe:	f8c7 30e8 	str.w	r3, [r7, #232]	; 0xe8
    2ac2:	f8d7 20e8 	ldr.w	r2, [r7, #232]	; 0xe8
    2ac6:	f8d7 30e4 	ldr.w	r3, [r7, #228]	; 0xe4
    2aca:	4413      	add	r3, r2
    2acc:	f8c7 30d4 	str.w	r3, [r7, #212]	; 0xd4
    2ad0:	f8d7 20d4 	ldr.w	r2, [r7, #212]	; 0xd4
    2ad4:	f8d7 30e4 	ldr.w	r3, [r7, #228]	; 0xe4
    2ad8:	4413      	add	r3, r2
    2ada:	f8c7 30d0 	str.w	r3, [r7, #208]	; 0xd0
    2ade:	f8d7 20d0 	ldr.w	r2, [r7, #208]	; 0xd0
    2ae2:	f8d7 30e4 	ldr.w	r3, [r7, #228]	; 0xe4
    2ae6:	4413      	add	r3, r2
    2ae8:	f8c7 30cc 	str.w	r3, [r7, #204]	; 0xcc
    2aec:	f8d7 20cc 	ldr.w	r2, [r7, #204]	; 0xcc
    2af0:	f8d7 30e4 	ldr.w	r3, [r7, #228]	; 0xe4
    2af4:	4413      	add	r3, r2
    2af6:	f8c7 30c8 	str.w	r3, [r7, #200]	; 0xc8
    2afa:	f8d7 20c8 	ldr.w	r2, [r7, #200]	; 0xc8
    2afe:	f8d7 30e4 	ldr.w	r3, [r7, #228]	; 0xe4
    2b02:	4413      	add	r3, r2
    2b04:	f8c7 30c4 	str.w	r3, [r7, #196]	; 0xc4
    2b08:	f8d7 20c4 	ldr.w	r2, [r7, #196]	; 0xc4
    2b0c:	f8d7 30e4 	ldr.w	r3, [r7, #228]	; 0xe4
    2b10:	4413      	add	r3, r2
    2b12:	f8c7 30c0 	str.w	r3, [r7, #192]	; 0xc0
    2b16:	f8d7 20c0 	ldr.w	r2, [r7, #192]	; 0xc0
    2b1a:	f8d7 30e4 	ldr.w	r3, [r7, #228]	; 0xe4
    2b1e:	4413      	add	r3, r2
    2b20:	f8c7 30bc 	str.w	r3, [r7, #188]	; 0xbc
    2b24:	f8d7 30e8 	ldr.w	r3, [r7, #232]	; 0xe8
    2b28:	00db      	lsls	r3, r3, #3
    2b2a:	68fa      	ldr	r2, [r7, #12]
    2b2c:	4413      	add	r3, r2
    2b2e:	ed93 7a00 	vldr	s14, [r3]
    2b32:	f8d7 30c8 	ldr.w	r3, [r7, #200]	; 0xc8
    2b36:	00db      	lsls	r3, r3, #3
    2b38:	68fa      	ldr	r2, [r7, #12]
    2b3a:	4413      	add	r3, r2
    2b3c:	edd3 7a00 	vldr	s15, [r3]
    2b40:	ee77 7a27 	vadd.f32	s15, s14, s15
    2b44:	edc7 7a2e 	vstr	s15, [r7, #184]	; 0xb8
    2b48:	f8d7 30e8 	ldr.w	r3, [r7, #232]	; 0xe8
    2b4c:	00db      	lsls	r3, r3, #3
    2b4e:	68fa      	ldr	r2, [r7, #12]
    2b50:	4413      	add	r3, r2
    2b52:	ed93 7a00 	vldr	s14, [r3]
    2b56:	f8d7 30c8 	ldr.w	r3, [r7, #200]	; 0xc8
    2b5a:	00db      	lsls	r3, r3, #3
    2b5c:	68fa      	ldr	r2, [r7, #12]
    2b5e:	4413      	add	r3, r2
    2b60:	edd3 7a00 	vldr	s15, [r3]
    2b64:	ee77 7a67 	vsub.f32	s15, s14, s15
    2b68:	edc7 7a2d 	vstr	s15, [r7, #180]	; 0xb4
    2b6c:	f8d7 30d4 	ldr.w	r3, [r7, #212]	; 0xd4
    2b70:	00db      	lsls	r3, r3, #3
    2b72:	68fa      	ldr	r2, [r7, #12]
    2b74:	4413      	add	r3, r2
    2b76:	ed93 7a00 	vldr	s14, [r3]
    2b7a:	f8d7 30c4 	ldr.w	r3, [r7, #196]	; 0xc4
    2b7e:	00db      	lsls	r3, r3, #3
    2b80:	68fa      	ldr	r2, [r7, #12]
    2b82:	4413      	add	r3, r2
    2b84:	edd3 7a00 	vldr	s15, [r3]
    2b88:	ee77 7a27 	vadd.f32	s15, s14, s15
    2b8c:	edc7 7a2c 	vstr	s15, [r7, #176]	; 0xb0
    2b90:	f8d7 30d4 	ldr.w	r3, [r7, #212]	; 0xd4
    2b94:	00db      	lsls	r3, r3, #3
    2b96:	68fa      	ldr	r2, [r7, #12]
    2b98:	4413      	add	r3, r2
    2b9a:	ed93 7a00 	vldr	s14, [r3]
    2b9e:	f8d7 30c4 	ldr.w	r3, [r7, #196]	; 0xc4
    2ba2:	00db      	lsls	r3, r3, #3
    2ba4:	68fa      	ldr	r2, [r7, #12]
    2ba6:	4413      	add	r3, r2
    2ba8:	edd3 7a00 	vldr	s15, [r3]
    2bac:	ee77 7a67 	vsub.f32	s15, s14, s15
    2bb0:	edc7 7a2b 	vstr	s15, [r7, #172]	; 0xac
    2bb4:	f8d7 30d0 	ldr.w	r3, [r7, #208]	; 0xd0
    2bb8:	00db      	lsls	r3, r3, #3
    2bba:	68fa      	ldr	r2, [r7, #12]
    2bbc:	4413      	add	r3, r2
    2bbe:	ed93 7a00 	vldr	s14, [r3]
    2bc2:	f8d7 30c0 	ldr.w	r3, [r7, #192]	; 0xc0
    2bc6:	00db      	lsls	r3, r3, #3
    2bc8:	68fa      	ldr	r2, [r7, #12]
    2bca:	4413      	add	r3, r2
    2bcc:	edd3 7a00 	vldr	s15, [r3]
    2bd0:	ee77 7a27 	vadd.f32	s15, s14, s15
    2bd4:	edc7 7a2a 	vstr	s15, [r7, #168]	; 0xa8
    2bd8:	f8d7 30d0 	ldr.w	r3, [r7, #208]	; 0xd0
    2bdc:	00db      	lsls	r3, r3, #3
    2bde:	68fa      	ldr	r2, [r7, #12]
    2be0:	4413      	add	r3, r2
    2be2:	ed93 7a00 	vldr	s14, [r3]
    2be6:	f8d7 30c0 	ldr.w	r3, [r7, #192]	; 0xc0
    2bea:	00db      	lsls	r3, r3, #3
    2bec:	68fa      	ldr	r2, [r7, #12]
    2bee:	4413      	add	r3, r2
    2bf0:	edd3 7a00 	vldr	s15, [r3]
    2bf4:	ee77 7a67 	vsub.f32	s15, s14, s15
    2bf8:	edc7 7a29 	vstr	s15, [r7, #164]	; 0xa4
    2bfc:	f8d7 30cc 	ldr.w	r3, [r7, #204]	; 0xcc
    2c00:	00db      	lsls	r3, r3, #3
    2c02:	68fa      	ldr	r2, [r7, #12]
    2c04:	4413      	add	r3, r2
    2c06:	ed93 7a00 	vldr	s14, [r3]
    2c0a:	f8d7 30bc 	ldr.w	r3, [r7, #188]	; 0xbc
    2c0e:	00db      	lsls	r3, r3, #3
    2c10:	68fa      	ldr	r2, [r7, #12]
    2c12:	4413      	add	r3, r2
    2c14:	edd3 7a00 	vldr	s15, [r3]
    2c18:	ee77 7a27 	vadd.f32	s15, s14, s15
    2c1c:	edc7 7a28 	vstr	s15, [r7, #160]	; 0xa0
    2c20:	f8d7 30cc 	ldr.w	r3, [r7, #204]	; 0xcc
    2c24:	00db      	lsls	r3, r3, #3
    2c26:	68fa      	ldr	r2, [r7, #12]
    2c28:	4413      	add	r3, r2
    2c2a:	ed93 7a00 	vldr	s14, [r3]
    2c2e:	f8d7 30bc 	ldr.w	r3, [r7, #188]	; 0xbc
    2c32:	00db      	lsls	r3, r3, #3
    2c34:	68fa      	ldr	r2, [r7, #12]
    2c36:	4413      	add	r3, r2
    2c38:	edd3 7a00 	vldr	s15, [r3]
    2c3c:	ee77 7a67 	vsub.f32	s15, s14, s15
    2c40:	edc7 7a27 	vstr	s15, [r7, #156]	; 0x9c
    2c44:	ed97 7a2e 	vldr	s14, [r7, #184]	; 0xb8
    2c48:	edd7 7a2a 	vldr	s15, [r7, #168]	; 0xa8
    2c4c:	ee77 7a67 	vsub.f32	s15, s14, s15
    2c50:	edc7 7a26 	vstr	s15, [r7, #152]	; 0x98
    2c54:	ed97 7a2e 	vldr	s14, [r7, #184]	; 0xb8
    2c58:	edd7 7a2a 	vldr	s15, [r7, #168]	; 0xa8
    2c5c:	ee77 7a27 	vadd.f32	s15, s14, s15
    2c60:	edc7 7a2e 	vstr	s15, [r7, #184]	; 0xb8
    2c64:	ed97 7a2c 	vldr	s14, [r7, #176]	; 0xb0
    2c68:	edd7 7a28 	vldr	s15, [r7, #160]	; 0xa0
    2c6c:	ee77 7a67 	vsub.f32	s15, s14, s15
    2c70:	edc7 7a2a 	vstr	s15, [r7, #168]	; 0xa8
    2c74:	ed97 7a2c 	vldr	s14, [r7, #176]	; 0xb0
    2c78:	edd7 7a28 	vldr	s15, [r7, #160]	; 0xa0
    2c7c:	ee77 7a27 	vadd.f32	s15, s14, s15
    2c80:	edc7 7a2c 	vstr	s15, [r7, #176]	; 0xb0
    2c84:	f8d7 30e8 	ldr.w	r3, [r7, #232]	; 0xe8
    2c88:	00db      	lsls	r3, r3, #3
    2c8a:	68fa      	ldr	r2, [r7, #12]
    2c8c:	4413      	add	r3, r2
    2c8e:	ed97 7a2e 	vldr	s14, [r7, #184]	; 0xb8
    2c92:	edd7 7a2c 	vldr	s15, [r7, #176]	; 0xb0
    2c96:	ee77 7a27 	vadd.f32	s15, s14, s15
    2c9a:	edc3 7a00 	vstr	s15, [r3]
    2c9e:	ed97 7a2e 	vldr	s14, [r7, #184]	; 0xb8
    2ca2:	edd7 7a2c 	vldr	s15, [r7, #176]	; 0xb0
    2ca6:	ee77 7a67 	vsub.f32	s15, s14, s15
    2caa:	edc7 7a2c 	vstr	s15, [r7, #176]	; 0xb0
    2cae:	f8d7 30e8 	ldr.w	r3, [r7, #232]	; 0xe8
    2cb2:	00db      	lsls	r3, r3, #3
    2cb4:	3304      	adds	r3, #4
    2cb6:	68fa      	ldr	r2, [r7, #12]
    2cb8:	4413      	add	r3, r2
    2cba:	ed93 7a00 	vldr	s14, [r3]
    2cbe:	f8d7 30c8 	ldr.w	r3, [r7, #200]	; 0xc8
    2cc2:	00db      	lsls	r3, r3, #3
    2cc4:	3304      	adds	r3, #4
    2cc6:	68fa      	ldr	r2, [r7, #12]
    2cc8:	4413      	add	r3, r2
    2cca:	edd3 7a00 	vldr	s15, [r3]
    2cce:	ee77 7a27 	vadd.f32	s15, s14, s15
    2cd2:	edc7 7a0a 	vstr	s15, [r7, #40]	; 0x28
    2cd6:	f8d7 30e8 	ldr.w	r3, [r7, #232]	; 0xe8
    2cda:	00db      	lsls	r3, r3, #3
    2cdc:	3304      	adds	r3, #4
    2cde:	68fa      	ldr	r2, [r7, #12]
    2ce0:	4413      	add	r3, r2
    2ce2:	ed93 7a00 	vldr	s14, [r3]
    2ce6:	f8d7 30c8 	ldr.w	r3, [r7, #200]	; 0xc8
    2cea:	00db      	lsls	r3, r3, #3
    2cec:	3304      	adds	r3, #4
    2cee:	68fa      	ldr	r2, [r7, #12]
    2cf0:	4413      	add	r3, r2
    2cf2:	edd3 7a00 	vldr	s15, [r3]
    2cf6:	ee77 7a67 	vsub.f32	s15, s14, s15
    2cfa:	edc7 7a25 	vstr	s15, [r7, #148]	; 0x94
    2cfe:	f8d7 30d4 	ldr.w	r3, [r7, #212]	; 0xd4
    2d02:	00db      	lsls	r3, r3, #3
    2d04:	3304      	adds	r3, #4
    2d06:	68fa      	ldr	r2, [r7, #12]
    2d08:	4413      	add	r3, r2
    2d0a:	ed93 7a00 	vldr	s14, [r3]
    2d0e:	f8d7 30c4 	ldr.w	r3, [r7, #196]	; 0xc4
    2d12:	00db      	lsls	r3, r3, #3
    2d14:	3304      	adds	r3, #4
    2d16:	68fa      	ldr	r2, [r7, #12]
    2d18:	4413      	add	r3, r2
    2d1a:	edd3 7a00 	vldr	s15, [r3]
    2d1e:	ee77 7a27 	vadd.f32	s15, s14, s15
    2d22:	edc7 7a09 	vstr	s15, [r7, #36]	; 0x24
    2d26:	f8d7 30d4 	ldr.w	r3, [r7, #212]	; 0xd4
    2d2a:	00db      	lsls	r3, r3, #3
    2d2c:	3304      	adds	r3, #4
    2d2e:	68fa      	ldr	r2, [r7, #12]
    2d30:	4413      	add	r3, r2
    2d32:	ed93 7a00 	vldr	s14, [r3]
    2d36:	f8d7 30c4 	ldr.w	r3, [r7, #196]	; 0xc4
    2d3a:	00db      	lsls	r3, r3, #3
    2d3c:	3304      	adds	r3, #4
    2d3e:	68fa      	ldr	r2, [r7, #12]
    2d40:	4413      	add	r3, r2
    2d42:	edd3 7a00 	vldr	s15, [r3]
    2d46:	ee77 7a67 	vsub.f32	s15, s14, s15
    2d4a:	edc7 7a24 	vstr	s15, [r7, #144]	; 0x90
    2d4e:	f8d7 30d0 	ldr.w	r3, [r7, #208]	; 0xd0
    2d52:	00db      	lsls	r3, r3, #3
    2d54:	3304      	adds	r3, #4
    2d56:	68fa      	ldr	r2, [r7, #12]
    2d58:	4413      	add	r3, r2
    2d5a:	ed93 7a00 	vldr	s14, [r3]
    2d5e:	f8d7 30c0 	ldr.w	r3, [r7, #192]	; 0xc0
    2d62:	00db      	lsls	r3, r3, #3
    2d64:	3304      	adds	r3, #4
    2d66:	68fa      	ldr	r2, [r7, #12]
    2d68:	4413      	add	r3, r2
    2d6a:	edd3 7a00 	vldr	s15, [r3]
    2d6e:	ee77 7a27 	vadd.f32	s15, s14, s15
    2d72:	edc7 7a23 	vstr	s15, [r7, #140]	; 0x8c
    2d76:	f8d7 30d0 	ldr.w	r3, [r7, #208]	; 0xd0
    2d7a:	00db      	lsls	r3, r3, #3
    2d7c:	3304      	adds	r3, #4
    2d7e:	68fa      	ldr	r2, [r7, #12]
    2d80:	4413      	add	r3, r2
    2d82:	ed93 7a00 	vldr	s14, [r3]
    2d86:	f8d7 30c0 	ldr.w	r3, [r7, #192]	; 0xc0
    2d8a:	00db      	lsls	r3, r3, #3
    2d8c:	3304      	adds	r3, #4
    2d8e:	68fa      	ldr	r2, [r7, #12]
    2d90:	4413      	add	r3, r2
    2d92:	edd3 7a00 	vldr	s15, [r3]
    2d96:	ee77 7a67 	vsub.f32	s15, s14, s15
    2d9a:	edc7 7a22 	vstr	s15, [r7, #136]	; 0x88
    2d9e:	f8d7 30cc 	ldr.w	r3, [r7, #204]	; 0xcc
    2da2:	00db      	lsls	r3, r3, #3
    2da4:	3304      	adds	r3, #4
    2da6:	68fa      	ldr	r2, [r7, #12]
    2da8:	4413      	add	r3, r2
    2daa:	ed93 7a00 	vldr	s14, [r3]
    2dae:	f8d7 30bc 	ldr.w	r3, [r7, #188]	; 0xbc
    2db2:	00db      	lsls	r3, r3, #3
    2db4:	3304      	adds	r3, #4
    2db6:	68fa      	ldr	r2, [r7, #12]
    2db8:	4413      	add	r3, r2
    2dba:	edd3 7a00 	vldr	s15, [r3]
    2dbe:	ee77 7a27 	vadd.f32	s15, s14, s15
    2dc2:	edc7 7a08 	vstr	s15, [r7, #32]
    2dc6:	f8d7 30cc 	ldr.w	r3, [r7, #204]	; 0xcc
    2dca:	00db      	lsls	r3, r3, #3
    2dcc:	3304      	adds	r3, #4
    2dce:	68fa      	ldr	r2, [r7, #12]
    2dd0:	4413      	add	r3, r2
    2dd2:	ed93 7a00 	vldr	s14, [r3]
    2dd6:	f8d7 30bc 	ldr.w	r3, [r7, #188]	; 0xbc
    2dda:	00db      	lsls	r3, r3, #3
    2ddc:	3304      	adds	r3, #4
    2dde:	68fa      	ldr	r2, [r7, #12]
    2de0:	4413      	add	r3, r2
    2de2:	edd3 7a00 	vldr	s15, [r3]
    2de6:	ee77 7a67 	vsub.f32	s15, s14, s15
    2dea:	edc7 7a21 	vstr	s15, [r7, #132]	; 0x84
    2dee:	ed97 7a0a 	vldr	s14, [r7, #40]	; 0x28
    2df2:	edd7 7a23 	vldr	s15, [r7, #140]	; 0x8c
    2df6:	ee77 7a67 	vsub.f32	s15, s14, s15
    2dfa:	edc7 7a20 	vstr	s15, [r7, #128]	; 0x80
    2dfe:	ed97 7a0a 	vldr	s14, [r7, #40]	; 0x28
    2e02:	edd7 7a23 	vldr	s15, [r7, #140]	; 0x8c
    2e06:	ee77 7a27 	vadd.f32	s15, s14, s15
    2e0a:	edc7 7a0a 	vstr	s15, [r7, #40]	; 0x28
    2e0e:	ed97 7a09 	vldr	s14, [r7, #36]	; 0x24
    2e12:	edd7 7a08 	vldr	s15, [r7, #32]
    2e16:	ee77 7a67 	vsub.f32	s15, s14, s15
    2e1a:	edc7 7a23 	vstr	s15, [r7, #140]	; 0x8c
    2e1e:	ed97 7a09 	vldr	s14, [r7, #36]	; 0x24
    2e22:	edd7 7a08 	vldr	s15, [r7, #32]
    2e26:	ee77 7a27 	vadd.f32	s15, s14, s15
    2e2a:	edc7 7a09 	vstr	s15, [r7, #36]	; 0x24
    2e2e:	ed97 7a26 	vldr	s14, [r7, #152]	; 0x98
    2e32:	edd7 7a23 	vldr	s15, [r7, #140]	; 0x8c
    2e36:	ee77 7a27 	vadd.f32	s15, s14, s15
    2e3a:	edc7 7a2e 	vstr	s15, [r7, #184]	; 0xb8
    2e3e:	ed97 7a26 	vldr	s14, [r7, #152]	; 0x98
    2e42:	edd7 7a23 	vldr	s15, [r7, #140]	; 0x8c
    2e46:	ee77 7a67 	vsub.f32	s15, s14, s15
    2e4a:	edc7 7a26 	vstr	s15, [r7, #152]	; 0x98
    2e4e:	f8d7 30e8 	ldr.w	r3, [r7, #232]	; 0xe8
    2e52:	00db      	lsls	r3, r3, #3
    2e54:	3304      	adds	r3, #4
    2e56:	68fa      	ldr	r2, [r7, #12]
    2e58:	4413      	add	r3, r2
    2e5a:	ed97 7a0a 	vldr	s14, [r7, #40]	; 0x28
    2e5e:	edd7 7a09 	vldr	s15, [r7, #36]	; 0x24
    2e62:	ee77 7a27 	vadd.f32	s15, s14, s15
    2e66:	edc3 7a00 	vstr	s15, [r3]
    2e6a:	ed97 7a0a 	vldr	s14, [r7, #40]	; 0x28
    2e6e:	edd7 7a09 	vldr	s15, [r7, #36]	; 0x24
    2e72:	ee77 7a67 	vsub.f32	s15, s14, s15
    2e76:	edc7 7a09 	vstr	s15, [r7, #36]	; 0x24
    2e7a:	ed97 7a20 	vldr	s14, [r7, #128]	; 0x80
    2e7e:	edd7 7a2a 	vldr	s15, [r7, #168]	; 0xa8
    2e82:	ee77 7a67 	vsub.f32	s15, s14, s15
    2e86:	edc7 7a0a 	vstr	s15, [r7, #40]	; 0x28
    2e8a:	ed97 7a20 	vldr	s14, [r7, #128]	; 0x80
    2e8e:	edd7 7a2a 	vldr	s15, [r7, #168]	; 0xa8
    2e92:	ee77 7a27 	vadd.f32	s15, s14, s15
    2e96:	edc7 7a20 	vstr	s15, [r7, #128]	; 0x80
    2e9a:	ed97 7a15 	vldr	s14, [r7, #84]	; 0x54
    2e9e:	edd7 7a2c 	vldr	s15, [r7, #176]	; 0xb0
    2ea2:	ee67 7a27 	vmul.f32	s15, s14, s15
    2ea6:	edc7 7a07 	vstr	s15, [r7, #28]
    2eaa:	ed97 7a0e 	vldr	s14, [r7, #56]	; 0x38
    2eae:	edd7 7a09 	vldr	s15, [r7, #36]	; 0x24
    2eb2:	ee67 7a27 	vmul.f32	s15, s14, s15
    2eb6:	edc7 7a06 	vstr	s15, [r7, #24]
    2eba:	ed97 7a15 	vldr	s14, [r7, #84]	; 0x54
    2ebe:	edd7 7a09 	vldr	s15, [r7, #36]	; 0x24
    2ec2:	ee67 7a27 	vmul.f32	s15, s14, s15
    2ec6:	edc7 7a05 	vstr	s15, [r7, #20]
    2eca:	ed97 7a0e 	vldr	s14, [r7, #56]	; 0x38
    2ece:	edd7 7a2c 	vldr	s15, [r7, #176]	; 0xb0
    2ed2:	ee67 7a27 	vmul.f32	s15, s14, s15
    2ed6:	edc7 7a04 	vstr	s15, [r7, #16]
    2eda:	f8d7 30c8 	ldr.w	r3, [r7, #200]	; 0xc8
    2ede:	00db      	lsls	r3, r3, #3
    2ee0:	68fa      	ldr	r2, [r7, #12]
    2ee2:	4413      	add	r3, r2
    2ee4:	ed97 7a07 	vldr	s14, [r7, #28]
    2ee8:	edd7 7a06 	vldr	s15, [r7, #24]
    2eec:	ee77 7a27 	vadd.f32	s15, s14, s15
    2ef0:	edc3 7a00 	vstr	s15, [r3]
    2ef4:	f8d7 30c8 	ldr.w	r3, [r7, #200]	; 0xc8
    2ef8:	00db      	lsls	r3, r3, #3
    2efa:	3304      	adds	r3, #4
    2efc:	68fa      	ldr	r2, [r7, #12]
    2efe:	4413      	add	r3, r2
    2f00:	ed97 7a05 	vldr	s14, [r7, #20]
    2f04:	edd7 7a04 	vldr	s15, [r7, #16]
    2f08:	ee77 7a67 	vsub.f32	s15, s14, s15
    2f0c:	edc3 7a00 	vstr	s15, [r3]
    2f10:	ed97 7a17 	vldr	s14, [r7, #92]	; 0x5c
    2f14:	edd7 7a2e 	vldr	s15, [r7, #184]	; 0xb8
    2f18:	ee67 7a27 	vmul.f32	s15, s14, s15
    2f1c:	edc7 7a07 	vstr	s15, [r7, #28]
    2f20:	ed97 7a10 	vldr	s14, [r7, #64]	; 0x40
    2f24:	edd7 7a0a 	vldr	s15, [r7, #40]	; 0x28
    2f28:	ee67 7a27 	vmul.f32	s15, s14, s15
    2f2c:	edc7 7a06 	vstr	s15, [r7, #24]
    2f30:	ed97 7a17 	vldr	s14, [r7, #92]	; 0x5c
    2f34:	edd7 7a0a 	vldr	s15, [r7, #40]	; 0x28
    2f38:	ee67 7a27 	vmul.f32	s15, s14, s15
    2f3c:	edc7 7a05 	vstr	s15, [r7, #20]
    2f40:	ed97 7a10 	vldr	s14, [r7, #64]	; 0x40
    2f44:	edd7 7a2e 	vldr	s15, [r7, #184]	; 0xb8
    2f48:	ee67 7a27 	vmul.f32	s15, s14, s15
    2f4c:	edc7 7a04 	vstr	s15, [r7, #16]
    2f50:	f8d7 30d0 	ldr.w	r3, [r7, #208]	; 0xd0
    2f54:	00db      	lsls	r3, r3, #3
    2f56:	68fa      	ldr	r2, [r7, #12]
    2f58:	4413      	add	r3, r2
    2f5a:	ed97 7a07 	vldr	s14, [r7, #28]
    2f5e:	edd7 7a06 	vldr	s15, [r7, #24]
    2f62:	ee77 7a27 	vadd.f32	s15, s14, s15
    2f66:	edc3 7a00 	vstr	s15, [r3]
    2f6a:	f8d7 30d0 	ldr.w	r3, [r7, #208]	; 0xd0
    2f6e:	00db      	lsls	r3, r3, #3
    2f70:	3304      	adds	r3, #4
    2f72:	68fa      	ldr	r2, [r7, #12]
    2f74:	4413      	add	r3, r2
    2f76:	ed97 7a05 	vldr	s14, [r7, #20]
    2f7a:	edd7 7a04 	vldr	s15, [r7, #16]
    2f7e:	ee77 7a67 	vsub.f32	s15, s14, s15
    2f82:	edc3 7a00 	vstr	s15, [r3]
    2f86:	ed97 7a13 	vldr	s14, [r7, #76]	; 0x4c
    2f8a:	edd7 7a26 	vldr	s15, [r7, #152]	; 0x98
    2f8e:	ee67 7a27 	vmul.f32	s15, s14, s15
    2f92:	edc7 7a07 	vstr	s15, [r7, #28]
    2f96:	ed97 7a0c 	vldr	s14, [r7, #48]	; 0x30
    2f9a:	edd7 7a20 	vldr	s15, [r7, #128]	; 0x80
    2f9e:	ee67 7a27 	vmul.f32	s15, s14, s15
    2fa2:	edc7 7a06 	vstr	s15, [r7, #24]
    2fa6:	ed97 7a13 	vldr	s14, [r7, #76]	; 0x4c
    2faa:	edd7 7a20 	vldr	s15, [r7, #128]	; 0x80
    2fae:	ee67 7a27 	vmul.f32	s15, s14, s15
    2fb2:	edc7 7a05 	vstr	s15, [r7, #20]
    2fb6:	ed97 7a0c 	vldr	s14, [r7, #48]	; 0x30
    2fba:	edd7 7a26 	vldr	s15, [r7, #152]	; 0x98
    2fbe:	ee67 7a27 	vmul.f32	s15, s14, s15
    2fc2:	edc7 7a04 	vstr	s15, [r7, #16]
    2fc6:	f8d7 30c0 	ldr.w	r3, [r7, #192]	; 0xc0
    2fca:	00db      	lsls	r3, r3, #3
    2fcc:	68fa      	ldr	r2, [r7, #12]
    2fce:	4413      	add	r3, r2
    2fd0:	ed97 7a07 	vldr	s14, [r7, #28]
    2fd4:	edd7 7a06 	vldr	s15, [r7, #24]
    2fd8:	ee77 7a27 	vadd.f32	s15, s14, s15
    2fdc:	edc3 7a00 	vstr	s15, [r3]
    2fe0:	f8d7 30c0 	ldr.w	r3, [r7, #192]	; 0xc0
    2fe4:	00db      	lsls	r3, r3, #3
    2fe6:	3304      	adds	r3, #4
    2fe8:	68fa      	ldr	r2, [r7, #12]
    2fea:	4413      	add	r3, r2
    2fec:	ed97 7a05 	vldr	s14, [r7, #20]
    2ff0:	edd7 7a04 	vldr	s15, [r7, #16]
    2ff4:	ee77 7a67 	vsub.f32	s15, s14, s15
    2ff8:	edc3 7a00 	vstr	s15, [r3]
    2ffc:	ed97 7a2b 	vldr	s14, [r7, #172]	; 0xac
    3000:	edd7 7a27 	vldr	s15, [r7, #156]	; 0x9c
    3004:	ee77 7a67 	vsub.f32	s15, s14, s15
    3008:	ed97 7a37 	vldr	s14, [r7, #220]	; 0xdc
    300c:	ee67 7a27 	vmul.f32	s15, s14, s15
    3010:	edc7 7a2e 	vstr	s15, [r7, #184]	; 0xb8
    3014:	ed97 7a2b 	vldr	s14, [r7, #172]	; 0xac
    3018:	edd7 7a27 	vldr	s15, [r7, #156]	; 0x9c
    301c:	ee77 7a27 	vadd.f32	s15, s14, s15
    3020:	ed97 7a37 	vldr	s14, [r7, #220]	; 0xdc
    3024:	ee67 7a27 	vmul.f32	s15, s14, s15
    3028:	edc7 7a2b 	vstr	s15, [r7, #172]	; 0xac
    302c:	ed97 7a24 	vldr	s14, [r7, #144]	; 0x90
    3030:	edd7 7a21 	vldr	s15, [r7, #132]	; 0x84
    3034:	ee77 7a67 	vsub.f32	s15, s14, s15
    3038:	ed97 7a37 	vldr	s14, [r7, #220]	; 0xdc
    303c:	ee67 7a27 	vmul.f32	s15, s14, s15
    3040:	edc7 7a0a 	vstr	s15, [r7, #40]	; 0x28
    3044:	ed97 7a24 	vldr	s14, [r7, #144]	; 0x90
    3048:	edd7 7a21 	vldr	s15, [r7, #132]	; 0x84
    304c:	ee77 7a27 	vadd.f32	s15, s14, s15
    3050:	ed97 7a37 	vldr	s14, [r7, #220]	; 0xdc
    3054:	ee67 7a27 	vmul.f32	s15, s14, s15
    3058:	edc7 7a24 	vstr	s15, [r7, #144]	; 0x90
    305c:	ed97 7a2d 	vldr	s14, [r7, #180]	; 0xb4
    3060:	edd7 7a2e 	vldr	s15, [r7, #184]	; 0xb8
    3064:	ee77 7a67 	vsub.f32	s15, s14, s15
    3068:	edc7 7a26 	vstr	s15, [r7, #152]	; 0x98
    306c:	ed97 7a2d 	vldr	s14, [r7, #180]	; 0xb4
    3070:	edd7 7a2e 	vldr	s15, [r7, #184]	; 0xb8
    3074:	ee77 7a27 	vadd.f32	s15, s14, s15
    3078:	edc7 7a2d 	vstr	s15, [r7, #180]	; 0xb4
    307c:	ed97 7a29 	vldr	s14, [r7, #164]	; 0xa4
    3080:	edd7 7a2b 	vldr	s15, [r7, #172]	; 0xac
    3084:	ee77 7a67 	vsub.f32	s15, s14, s15
    3088:	edc7 7a27 	vstr	s15, [r7, #156]	; 0x9c
    308c:	ed97 7a29 	vldr	s14, [r7, #164]	; 0xa4
    3090:	edd7 7a2b 	vldr	s15, [r7, #172]	; 0xac
    3094:	ee77 7a27 	vadd.f32	s15, s14, s15
    3098:	edc7 7a29 	vstr	s15, [r7, #164]	; 0xa4
    309c:	ed97 7a25 	vldr	s14, [r7, #148]	; 0x94
    30a0:	edd7 7a0a 	vldr	s15, [r7, #40]	; 0x28
    30a4:	ee77 7a67 	vsub.f32	s15, s14, s15
    30a8:	edc7 7a20 	vstr	s15, [r7, #128]	; 0x80
    30ac:	ed97 7a25 	vldr	s14, [r7, #148]	; 0x94
    30b0:	edd7 7a0a 	vldr	s15, [r7, #40]	; 0x28
    30b4:	ee77 7a27 	vadd.f32	s15, s14, s15
    30b8:	edc7 7a25 	vstr	s15, [r7, #148]	; 0x94
    30bc:	ed97 7a22 	vldr	s14, [r7, #136]	; 0x88
    30c0:	edd7 7a24 	vldr	s15, [r7, #144]	; 0x90
    30c4:	ee77 7a67 	vsub.f32	s15, s14, s15
    30c8:	edc7 7a21 	vstr	s15, [r7, #132]	; 0x84
    30cc:	ed97 7a22 	vldr	s14, [r7, #136]	; 0x88
    30d0:	edd7 7a24 	vldr	s15, [r7, #144]	; 0x90
    30d4:	ee77 7a27 	vadd.f32	s15, s14, s15
    30d8:	edc7 7a22 	vstr	s15, [r7, #136]	; 0x88
    30dc:	ed97 7a2d 	vldr	s14, [r7, #180]	; 0xb4
    30e0:	edd7 7a22 	vldr	s15, [r7, #136]	; 0x88
    30e4:	ee77 7a27 	vadd.f32	s15, s14, s15
    30e8:	edc7 7a2e 	vstr	s15, [r7, #184]	; 0xb8
    30ec:	ed97 7a2d 	vldr	s14, [r7, #180]	; 0xb4
    30f0:	edd7 7a22 	vldr	s15, [r7, #136]	; 0x88
    30f4:	ee77 7a67 	vsub.f32	s15, s14, s15
    30f8:	edc7 7a2d 	vstr	s15, [r7, #180]	; 0xb4
    30fc:	ed97 7a26 	vldr	s14, [r7, #152]	; 0x98
    3100:	edd7 7a21 	vldr	s15, [r7, #132]	; 0x84
    3104:	ee77 7a27 	vadd.f32	s15, s14, s15
    3108:	edc7 7a2b 	vstr	s15, [r7, #172]	; 0xac
    310c:	ed97 7a26 	vldr	s14, [r7, #152]	; 0x98
    3110:	edd7 7a21 	vldr	s15, [r7, #132]	; 0x84
    3114:	ee77 7a67 	vsub.f32	s15, s14, s15
    3118:	edc7 7a26 	vstr	s15, [r7, #152]	; 0x98
    311c:	ed97 7a25 	vldr	s14, [r7, #148]	; 0x94
    3120:	edd7 7a29 	vldr	s15, [r7, #164]	; 0xa4
    3124:	ee77 7a67 	vsub.f32	s15, s14, s15
    3128:	edc7 7a0a 	vstr	s15, [r7, #40]	; 0x28
    312c:	ed97 7a25 	vldr	s14, [r7, #148]	; 0x94
    3130:	edd7 7a29 	vldr	s15, [r7, #164]	; 0xa4
    3134:	ee77 7a27 	vadd.f32	s15, s14, s15
    3138:	edc7 7a25 	vstr	s15, [r7, #148]	; 0x94
    313c:	ed97 7a20 	vldr	s14, [r7, #128]	; 0x80
    3140:	edd7 7a27 	vldr	s15, [r7, #156]	; 0x9c
    3144:	ee77 7a67 	vsub.f32	s15, s14, s15
    3148:	edc7 7a24 	vstr	s15, [r7, #144]	; 0x90
    314c:	ed97 7a20 	vldr	s14, [r7, #128]	; 0x80
    3150:	edd7 7a27 	vldr	s15, [r7, #156]	; 0x9c
    3154:	ee77 7a27 	vadd.f32	s15, s14, s15
    3158:	edc7 7a20 	vstr	s15, [r7, #128]	; 0x80
    315c:	ed97 7a18 	vldr	s14, [r7, #96]	; 0x60
    3160:	edd7 7a2e 	vldr	s15, [r7, #184]	; 0xb8
    3164:	ee67 7a27 	vmul.f32	s15, s14, s15
    3168:	edc7 7a07 	vstr	s15, [r7, #28]
    316c:	ed97 7a11 	vldr	s14, [r7, #68]	; 0x44
    3170:	edd7 7a0a 	vldr	s15, [r7, #40]	; 0x28
    3174:	ee67 7a27 	vmul.f32	s15, s14, s15
    3178:	edc7 7a06 	vstr	s15, [r7, #24]
    317c:	ed97 7a18 	vldr	s14, [r7, #96]	; 0x60
    3180:	edd7 7a0a 	vldr	s15, [r7, #40]	; 0x28
    3184:	ee67 7a27 	vmul.f32	s15, s14, s15
    3188:	edc7 7a05 	vstr	s15, [r7, #20]
    318c:	ed97 7a11 	vldr	s14, [r7, #68]	; 0x44
    3190:	edd7 7a2e 	vldr	s15, [r7, #184]	; 0xb8
    3194:	ee67 7a27 	vmul.f32	s15, s14, s15
    3198:	edc7 7a04 	vstr	s15, [r7, #16]
    319c:	f8d7 30d4 	ldr.w	r3, [r7, #212]	; 0xd4
    31a0:	00db      	lsls	r3, r3, #3
    31a2:	68fa      	ldr	r2, [r7, #12]
    31a4:	4413      	add	r3, r2
    31a6:	ed97 7a07 	vldr	s14, [r7, #28]
    31aa:	edd7 7a06 	vldr	s15, [r7, #24]
    31ae:	ee77 7a27 	vadd.f32	s15, s14, s15
    31b2:	edc3 7a00 	vstr	s15, [r3]
    31b6:	f8d7 30d4 	ldr.w	r3, [r7, #212]	; 0xd4
    31ba:	00db      	lsls	r3, r3, #3
    31bc:	3304      	adds	r3, #4
    31be:	68fa      	ldr	r2, [r7, #12]
    31c0:	4413      	add	r3, r2
    31c2:	ed97 7a05 	vldr	s14, [r7, #20]
    31c6:	edd7 7a04 	vldr	s15, [r7, #16]
    31ca:	ee77 7a67 	vsub.f32	s15, s14, s15
    31ce:	edc3 7a00 	vstr	s15, [r3]
    31d2:	ed97 7a12 	vldr	s14, [r7, #72]	; 0x48
    31d6:	edd7 7a2d 	vldr	s15, [r7, #180]	; 0xb4
    31da:	ee67 7a27 	vmul.f32	s15, s14, s15
    31de:	edc7 7a07 	vstr	s15, [r7, #28]
    31e2:	ed97 7a0b 	vldr	s14, [r7, #44]	; 0x2c
    31e6:	edd7 7a25 	vldr	s15, [r7, #148]	; 0x94
    31ea:	ee67 7a27 	vmul.f32	s15, s14, s15
    31ee:	edc7 7a06 	vstr	s15, [r7, #24]
    31f2:	ed97 7a12 	vldr	s14, [r7, #72]	; 0x48
    31f6:	edd7 7a25 	vldr	s15, [r7, #148]	; 0x94
    31fa:	ee67 7a27 	vmul.f32	s15, s14, s15
    31fe:	edc7 7a05 	vstr	s15, [r7, #20]
    3202:	ed97 7a0b 	vldr	s14, [r7, #44]	; 0x2c
    3206:	edd7 7a2d 	vldr	s15, [r7, #180]	; 0xb4
    320a:	ee67 7a27 	vmul.f32	s15, s14, s15
    320e:	edc7 7a04 	vstr	s15, [r7, #16]
    3212:	f8d7 30bc 	ldr.w	r3, [r7, #188]	; 0xbc
    3216:	00db      	lsls	r3, r3, #3
    3218:	68fa      	ldr	r2, [r7, #12]
    321a:	4413      	add	r3, r2
    321c:	ed97 7a07 	vldr	s14, [r7, #28]
    3220:	edd7 7a06 	vldr	s15, [r7, #24]
    3224:	ee77 7a27 	vadd.f32	s15, s14, s15
    3228:	edc3 7a00 	vstr	s15, [r3]
    322c:	f8d7 30bc 	ldr.w	r3, [r7, #188]	; 0xbc
    3230:	00db      	lsls	r3, r3, #3
    3232:	3304      	adds	r3, #4
    3234:	68fa      	ldr	r2, [r7, #12]
    3236:	4413      	add	r3, r2
    3238:	ed97 7a05 	vldr	s14, [r7, #20]
    323c:	edd7 7a04 	vldr	s15, [r7, #16]
    3240:	ee77 7a67 	vsub.f32	s15, s14, s15
    3244:	edc3 7a00 	vstr	s15, [r3]
    3248:	ed97 7a14 	vldr	s14, [r7, #80]	; 0x50
    324c:	edd7 7a2b 	vldr	s15, [r7, #172]	; 0xac
    3250:	ee67 7a27 	vmul.f32	s15, s14, s15
    3254:	edc7 7a07 	vstr	s15, [r7, #28]
    3258:	ed97 7a0d 	vldr	s14, [r7, #52]	; 0x34
    325c:	edd7 7a24 	vldr	s15, [r7, #144]	; 0x90
    3260:	ee67 7a27 	vmul.f32	s15, s14, s15
    3264:	edc7 7a06 	vstr	s15, [r7, #24]
    3268:	ed97 7a14 	vldr	s14, [r7, #80]	; 0x50
    326c:	edd7 7a24 	vldr	s15, [r7, #144]	; 0x90
    3270:	ee67 7a27 	vmul.f32	s15, s14, s15
    3274:	edc7 7a05 	vstr	s15, [r7, #20]
    3278:	ed97 7a0d 	vldr	s14, [r7, #52]	; 0x34
    327c:	edd7 7a2b 	vldr	s15, [r7, #172]	; 0xac
    3280:	ee67 7a27 	vmul.f32	s15, s14, s15
    3284:	edc7 7a04 	vstr	s15, [r7, #16]
    3288:	f8d7 30c4 	ldr.w	r3, [r7, #196]	; 0xc4
    328c:	00db      	lsls	r3, r3, #3
    328e:	68fa      	ldr	r2, [r7, #12]
    3290:	4413      	add	r3, r2
    3292:	ed97 7a07 	vldr	s14, [r7, #28]
    3296:	edd7 7a06 	vldr	s15, [r7, #24]
    329a:	ee77 7a27 	vadd.f32	s15, s14, s15
    329e:	edc3 7a00 	vstr	s15, [r3]
    32a2:	f8d7 30c4 	ldr.w	r3, [r7, #196]	; 0xc4
    32a6:	00db      	lsls	r3, r3, #3
    32a8:	3304      	adds	r3, #4
    32aa:	68fa      	ldr	r2, [r7, #12]
    32ac:	4413      	add	r3, r2
    32ae:	ed97 7a05 	vldr	s14, [r7, #20]
    32b2:	edd7 7a04 	vldr	s15, [r7, #16]
    32b6:	ee77 7a67 	vsub.f32	s15, s14, s15
    32ba:	edc3 7a00 	vstr	s15, [r3]
    32be:	ed97 7a16 	vldr	s14, [r7, #88]	; 0x58
    32c2:	edd7 7a26 	vldr	s15, [r7, #152]	; 0x98
    32c6:	ee67 7a27 	vmul.f32	s15, s14, s15
    32ca:	edc7 7a07 	vstr	s15, [r7, #28]
    32ce:	ed97 7a0f 	vldr	s14, [r7, #60]	; 0x3c
    32d2:	edd7 7a20 	vldr	s15, [r7, #128]	; 0x80
    32d6:	ee67 7a27 	vmul.f32	s15, s14, s15
    32da:	edc7 7a06 	vstr	s15, [r7, #24]
    32de:	ed97 7a16 	vldr	s14, [r7, #88]	; 0x58
    32e2:	edd7 7a20 	vldr	s15, [r7, #128]	; 0x80
    32e6:	ee67 7a27 	vmul.f32	s15, s14, s15
    32ea:	edc7 7a05 	vstr	s15, [r7, #20]
    32ee:	ed97 7a0f 	vldr	s14, [r7, #60]	; 0x3c
    32f2:	edd7 7a26 	vldr	s15, [r7, #152]	; 0x98
    32f6:	ee67 7a27 	vmul.f32	s15, s14, s15
    32fa:	edc7 7a04 	vstr	s15, [r7, #16]
    32fe:	f8d7 30cc 	ldr.w	r3, [r7, #204]	; 0xcc
    3302:	00db      	lsls	r3, r3, #3
    3304:	68fa      	ldr	r2, [r7, #12]
    3306:	4413      	add	r3, r2
    3308:	ed97 7a07 	vldr	s14, [r7, #28]
    330c:	edd7 7a06 	vldr	s15, [r7, #24]
    3310:	ee77 7a27 	vadd.f32	s15, s14, s15
    3314:	edc3 7a00 	vstr	s15, [r3]
    3318:	f8d7 30cc 	ldr.w	r3, [r7, #204]	; 0xcc
    331c:	00db      	lsls	r3, r3, #3
    331e:	3304      	adds	r3, #4
    3320:	68fa      	ldr	r2, [r7, #12]
    3322:	4413      	add	r3, r2
    3324:	ed97 7a05 	vldr	s14, [r7, #20]
    3328:	edd7 7a04 	vldr	s15, [r7, #16]
    332c:	ee77 7a67 	vsub.f32	s15, s14, s15
    3330:	edc3 7a00 	vstr	s15, [r3]
    3334:	f8d7 20e8 	ldr.w	r2, [r7, #232]	; 0xe8
    3338:	f8d7 30d8 	ldr.w	r3, [r7, #216]	; 0xd8
    333c:	4413      	add	r3, r2
    333e:	f8c7 30e8 	str.w	r3, [r7, #232]	; 0xe8
    3342:	897b      	ldrh	r3, [r7, #10]
    3344:	f8d7 20e8 	ldr.w	r2, [r7, #232]	; 0xe8
    3348:	429a      	cmp	r2, r3
    334a:	f4ff abba 	bcc.w	2ac2 <arm_radix8_butterfly_f32+0x746>
    334e:	f8d7 30e0 	ldr.w	r3, [r7, #224]	; 0xe0
    3352:	3301      	adds	r3, #1
    3354:	f8c7 30e0 	str.w	r3, [r7, #224]	; 0xe0
    3358:	f8d7 20e0 	ldr.w	r2, [r7, #224]	; 0xe0
    335c:	f8d7 30e4 	ldr.w	r3, [r7, #228]	; 0xe4
    3360:	429a      	cmp	r2, r3
    3362:	f4ff ab2c 	bcc.w	29be <arm_radix8_butterfly_f32+0x642>
    3366:	893b      	ldrh	r3, [r7, #8]
    3368:	00db      	lsls	r3, r3, #3
    336a:	813b      	strh	r3, [r7, #8]
    336c:	f8d7 30e4 	ldr.w	r3, [r7, #228]	; 0xe4
    3370:	2b07      	cmp	r3, #7
    3372:	f63f a813 	bhi.w	239c <arm_radix8_butterfly_f32+0x20>
    3376:	e000      	b.n	337a <arm_radix8_butterfly_f32+0xffe>
    3378:	bf00      	nop
    337a:	bf00      	nop
    337c:	37f4      	adds	r7, #244	; 0xf4
    337e:	46bd      	mov	sp, r7
    3380:	f85d 7b04 	ldr.w	r7, [sp], #4
    3384:	4770      	bx	lr
    3386:	bf00      	nop

00003388 <arm_mat_init_f32>:
    3388:	b480      	push	{r7}
    338a:	b085      	sub	sp, #20
    338c:	af00      	add	r7, sp, #0
    338e:	60f8      	str	r0, [r7, #12]
    3390:	607b      	str	r3, [r7, #4]
    3392:	460b      	mov	r3, r1
    3394:	817b      	strh	r3, [r7, #10]
    3396:	4613      	mov	r3, r2
    3398:	813b      	strh	r3, [r7, #8]
    339a:	68fb      	ldr	r3, [r7, #12]
    339c:	897a      	ldrh	r2, [r7, #10]
    339e:	801a      	strh	r2, [r3, #0]
    33a0:	68fb      	ldr	r3, [r7, #12]
    33a2:	893a      	ldrh	r2, [r7, #8]
    33a4:	805a      	strh	r2, [r3, #2]
    33a6:	68fb      	ldr	r3, [r7, #12]
    33a8:	687a      	ldr	r2, [r7, #4]
    33aa:	605a      	str	r2, [r3, #4]
    33ac:	bf00      	nop
    33ae:	3714      	adds	r7, #20
    33b0:	46bd      	mov	sp, r7
    33b2:	f85d 7b04 	ldr.w	r7, [sp], #4
    33b6:	4770      	bx	lr

000033b8 <arm_mat_vec_mult_f32>:
    33b8:	b480      	push	{r7}
    33ba:	b099      	sub	sp, #100	; 0x64
    33bc:	af00      	add	r7, sp, #0
    33be:	60f8      	str	r0, [r7, #12]
    33c0:	60b9      	str	r1, [r7, #8]
    33c2:	607a      	str	r2, [r7, #4]
    33c4:	68fb      	ldr	r3, [r7, #12]
    33c6:	881b      	ldrh	r3, [r3, #0]
    33c8:	62bb      	str	r3, [r7, #40]	; 0x28
    33ca:	68fb      	ldr	r3, [r7, #12]
    33cc:	885b      	ldrh	r3, [r3, #2]
    33ce:	627b      	str	r3, [r7, #36]	; 0x24
    33d0:	68fb      	ldr	r3, [r7, #12]
    33d2:	685b      	ldr	r3, [r3, #4]
    33d4:	623b      	str	r3, [r7, #32]
    33d6:	6abb      	ldr	r3, [r7, #40]	; 0x28
    33d8:	089b      	lsrs	r3, r3, #2
    33da:	f8a7 3044 	strh.w	r3, [r7, #68]	; 0x44
    33de:	2300      	movs	r3, #0
    33e0:	f8a7 3046 	strh.w	r3, [r7, #70]	; 0x46
    33e4:	687b      	ldr	r3, [r7, #4]
    33e6:	64bb      	str	r3, [r7, #72]	; 0x48
    33e8:	e09a      	b.n	3520 <arm_mat_vec_mult_f32+0x168>
    33ea:	f04f 0300 	mov.w	r3, #0
    33ee:	63fb      	str	r3, [r7, #60]	; 0x3c
    33f0:	f04f 0300 	mov.w	r3, #0
    33f4:	63bb      	str	r3, [r7, #56]	; 0x38
    33f6:	f04f 0300 	mov.w	r3, #0
    33fa:	637b      	str	r3, [r7, #52]	; 0x34
    33fc:	f04f 0300 	mov.w	r3, #0
    3400:	633b      	str	r3, [r7, #48]	; 0x30
    3402:	68bb      	ldr	r3, [r7, #8]
    3404:	64fb      	str	r3, [r7, #76]	; 0x4c
    3406:	6a7b      	ldr	r3, [r7, #36]	; 0x24
    3408:	f8a7 3042 	strh.w	r3, [r7, #66]	; 0x42
    340c:	f8b7 3046 	ldrh.w	r3, [r7, #70]	; 0x46
    3410:	009b      	lsls	r3, r3, #2
    3412:	6a3a      	ldr	r2, [r7, #32]
    3414:	4413      	add	r3, r2
    3416:	65fb      	str	r3, [r7, #92]	; 0x5c
    3418:	6a7b      	ldr	r3, [r7, #36]	; 0x24
    341a:	009b      	lsls	r3, r3, #2
    341c:	6dfa      	ldr	r2, [r7, #92]	; 0x5c
    341e:	4413      	add	r3, r2
    3420:	65bb      	str	r3, [r7, #88]	; 0x58
    3422:	6a7b      	ldr	r3, [r7, #36]	; 0x24
    3424:	009b      	lsls	r3, r3, #2
    3426:	6dba      	ldr	r2, [r7, #88]	; 0x58
    3428:	4413      	add	r3, r2
    342a:	657b      	str	r3, [r7, #84]	; 0x54
    342c:	6a7b      	ldr	r3, [r7, #36]	; 0x24
    342e:	009b      	lsls	r3, r3, #2
    3430:	6d7a      	ldr	r2, [r7, #84]	; 0x54
    3432:	4413      	add	r3, r2
    3434:	653b      	str	r3, [r7, #80]	; 0x50
    3436:	e04d      	b.n	34d4 <arm_mat_vec_mult_f32+0x11c>
    3438:	6cfb      	ldr	r3, [r7, #76]	; 0x4c
    343a:	1d1a      	adds	r2, r3, #4
    343c:	64fa      	str	r2, [r7, #76]	; 0x4c
    343e:	681b      	ldr	r3, [r3, #0]
    3440:	61fb      	str	r3, [r7, #28]
    3442:	6dfb      	ldr	r3, [r7, #92]	; 0x5c
    3444:	1d1a      	adds	r2, r3, #4
    3446:	65fa      	str	r2, [r7, #92]	; 0x5c
    3448:	681b      	ldr	r3, [r3, #0]
    344a:	617b      	str	r3, [r7, #20]
    344c:	ed97 7a05 	vldr	s14, [r7, #20]
    3450:	edd7 7a07 	vldr	s15, [r7, #28]
    3454:	ee67 7a27 	vmul.f32	s15, s14, s15
    3458:	ed97 7a0f 	vldr	s14, [r7, #60]	; 0x3c
    345c:	ee77 7a27 	vadd.f32	s15, s14, s15
    3460:	edc7 7a0f 	vstr	s15, [r7, #60]	; 0x3c
    3464:	6dbb      	ldr	r3, [r7, #88]	; 0x58
    3466:	1d1a      	adds	r2, r3, #4
    3468:	65ba      	str	r2, [r7, #88]	; 0x58
    346a:	681b      	ldr	r3, [r3, #0]
    346c:	617b      	str	r3, [r7, #20]
    346e:	ed97 7a05 	vldr	s14, [r7, #20]
    3472:	edd7 7a07 	vldr	s15, [r7, #28]
    3476:	ee67 7a27 	vmul.f32	s15, s14, s15
    347a:	ed97 7a0e 	vldr	s14, [r7, #56]	; 0x38
    347e:	ee77 7a27 	vadd.f32	s15, s14, s15
    3482:	edc7 7a0e 	vstr	s15, [r7, #56]	; 0x38
    3486:	6d7b      	ldr	r3, [r7, #84]	; 0x54
    3488:	1d1a      	adds	r2, r3, #4
    348a:	657a      	str	r2, [r7, #84]	; 0x54
    348c:	681b      	ldr	r3, [r3, #0]
    348e:	617b      	str	r3, [r7, #20]
    3490:	ed97 7a05 	vldr	s14, [r7, #20]
    3494:	edd7 7a07 	vldr	s15, [r7, #28]
    3498:	ee67 7a27 	vmul.f32	s15, s14, s15
    349c:	ed97 7a0d 	vldr	s14, [r7, #52]	; 0x34
    34a0:	ee77 7a27 	vadd.f32	s15, s14, s15
    34a4:	edc7 7a0d 	vstr	s15, [r7, #52]	; 0x34
    34a8:	6d3b      	ldr	r3, [r7, #80]	; 0x50
    34aa:	1d1a      	adds	r2, r3, #4
    34ac:	653a      	str	r2, [r7, #80]	; 0x50
    34ae:	681b      	ldr	r3, [r3, #0]
    34b0:	617b      	str	r3, [r7, #20]
    34b2:	ed97 7a05 	vldr	s14, [r7, #20]
    34b6:	edd7 7a07 	vldr	s15, [r7, #28]
    34ba:	ee67 7a27 	vmul.f32	s15, s14, s15
    34be:	ed97 7a0c 	vldr	s14, [r7, #48]	; 0x30
    34c2:	ee77 7a27 	vadd.f32	s15, s14, s15
    34c6:	edc7 7a0c 	vstr	s15, [r7, #48]	; 0x30
    34ca:	f8b7 3042 	ldrh.w	r3, [r7, #66]	; 0x42
    34ce:	3b01      	subs	r3, #1
    34d0:	f8a7 3042 	strh.w	r3, [r7, #66]	; 0x42
    34d4:	f8b7 3042 	ldrh.w	r3, [r7, #66]	; 0x42
    34d8:	2b00      	cmp	r3, #0
    34da:	d1ad      	bne.n	3438 <arm_mat_vec_mult_f32+0x80>
    34dc:	6cbb      	ldr	r3, [r7, #72]	; 0x48
    34de:	1d1a      	adds	r2, r3, #4
    34e0:	64ba      	str	r2, [r7, #72]	; 0x48
    34e2:	6bfa      	ldr	r2, [r7, #60]	; 0x3c
    34e4:	601a      	str	r2, [r3, #0]
    34e6:	6cbb      	ldr	r3, [r7, #72]	; 0x48
    34e8:	1d1a      	adds	r2, r3, #4
    34ea:	64ba      	str	r2, [r7, #72]	; 0x48
    34ec:	6bba      	ldr	r2, [r7, #56]	; 0x38
    34ee:	601a      	str	r2, [r3, #0]
    34f0:	6cbb      	ldr	r3, [r7, #72]	; 0x48
    34f2:	1d1a      	adds	r2, r3, #4
    34f4:	64ba      	str	r2, [r7, #72]	; 0x48
    34f6:	6b7a      	ldr	r2, [r7, #52]	; 0x34
    34f8:	601a      	str	r2, [r3, #0]
    34fa:	6cbb      	ldr	r3, [r7, #72]	; 0x48
    34fc:	1d1a      	adds	r2, r3, #4
    34fe:	64ba      	str	r2, [r7, #72]	; 0x48
    3500:	6b3a      	ldr	r2, [r7, #48]	; 0x30
    3502:	601a      	str	r2, [r3, #0]
    3504:	6a7b      	ldr	r3, [r7, #36]	; 0x24
    3506:	b29b      	uxth	r3, r3
    3508:	009b      	lsls	r3, r3, #2
    350a:	b29a      	uxth	r2, r3
    350c:	f8b7 3046 	ldrh.w	r3, [r7, #70]	; 0x46
    3510:	4413      	add	r3, r2
    3512:	f8a7 3046 	strh.w	r3, [r7, #70]	; 0x46
    3516:	f8b7 3044 	ldrh.w	r3, [r7, #68]	; 0x44
    351a:	3b01      	subs	r3, #1
    351c:	f8a7 3044 	strh.w	r3, [r7, #68]	; 0x44
    3520:	f8b7 3044 	ldrh.w	r3, [r7, #68]	; 0x44
    3524:	2b00      	cmp	r3, #0
    3526:	f47f af60 	bne.w	33ea <arm_mat_vec_mult_f32+0x32>
    352a:	6abb      	ldr	r3, [r7, #40]	; 0x28
    352c:	b29b      	uxth	r3, r3
    352e:	f003 0303 	and.w	r3, r3, #3
    3532:	f8a7 3044 	strh.w	r3, [r7, #68]	; 0x44
    3536:	e077      	b.n	3628 <arm_mat_vec_mult_f32+0x270>
    3538:	f04f 0300 	mov.w	r3, #0
    353c:	62fb      	str	r3, [r7, #44]	; 0x2c
    353e:	68bb      	ldr	r3, [r7, #8]
    3540:	64fb      	str	r3, [r7, #76]	; 0x4c
    3542:	f8b7 3046 	ldrh.w	r3, [r7, #70]	; 0x46
    3546:	009b      	lsls	r3, r3, #2
    3548:	6a3a      	ldr	r2, [r7, #32]
    354a:	4413      	add	r3, r2
    354c:	65fb      	str	r3, [r7, #92]	; 0x5c
    354e:	6a7b      	ldr	r3, [r7, #36]	; 0x24
    3550:	085b      	lsrs	r3, r3, #1
    3552:	f8a7 3042 	strh.w	r3, [r7, #66]	; 0x42
    3556:	e030      	b.n	35ba <arm_mat_vec_mult_f32+0x202>
    3558:	6cfb      	ldr	r3, [r7, #76]	; 0x4c
    355a:	1d1a      	adds	r2, r3, #4
    355c:	64fa      	str	r2, [r7, #76]	; 0x4c
    355e:	681b      	ldr	r3, [r3, #0]
    3560:	61fb      	str	r3, [r7, #28]
    3562:	6cfb      	ldr	r3, [r7, #76]	; 0x4c
    3564:	1d1a      	adds	r2, r3, #4
    3566:	64fa      	str	r2, [r7, #76]	; 0x4c
    3568:	681b      	ldr	r3, [r3, #0]
    356a:	61bb      	str	r3, [r7, #24]
    356c:	6dfb      	ldr	r3, [r7, #92]	; 0x5c
    356e:	1d1a      	adds	r2, r3, #4
    3570:	65fa      	str	r2, [r7, #92]	; 0x5c
    3572:	681b      	ldr	r3, [r3, #0]
    3574:	617b      	str	r3, [r7, #20]
    3576:	6dfb      	ldr	r3, [r7, #92]	; 0x5c
    3578:	1d1a      	adds	r2, r3, #4
    357a:	65fa      	str	r2, [r7, #92]	; 0x5c
    357c:	681b      	ldr	r3, [r3, #0]
    357e:	613b      	str	r3, [r7, #16]
    3580:	ed97 7a05 	vldr	s14, [r7, #20]
    3584:	edd7 7a07 	vldr	s15, [r7, #28]
    3588:	ee67 7a27 	vmul.f32	s15, s14, s15
    358c:	ed97 7a0b 	vldr	s14, [r7, #44]	; 0x2c
    3590:	ee77 7a27 	vadd.f32	s15, s14, s15
    3594:	edc7 7a0b 	vstr	s15, [r7, #44]	; 0x2c
    3598:	ed97 7a04 	vldr	s14, [r7, #16]
    359c:	edd7 7a06 	vldr	s15, [r7, #24]
    35a0:	ee67 7a27 	vmul.f32	s15, s14, s15
    35a4:	ed97 7a0b 	vldr	s14, [r7, #44]	; 0x2c
    35a8:	ee77 7a27 	vadd.f32	s15, s14, s15
    35ac:	edc7 7a0b 	vstr	s15, [r7, #44]	; 0x2c
    35b0:	f8b7 3042 	ldrh.w	r3, [r7, #66]	; 0x42
    35b4:	3b01      	subs	r3, #1
    35b6:	f8a7 3042 	strh.w	r3, [r7, #66]	; 0x42
    35ba:	f8b7 3042 	ldrh.w	r3, [r7, #66]	; 0x42
    35be:	2b00      	cmp	r3, #0
    35c0:	d1ca      	bne.n	3558 <arm_mat_vec_mult_f32+0x1a0>
    35c2:	6a7b      	ldr	r3, [r7, #36]	; 0x24
    35c4:	b29b      	uxth	r3, r3
    35c6:	f003 0301 	and.w	r3, r3, #1
    35ca:	f8a7 3042 	strh.w	r3, [r7, #66]	; 0x42
    35ce:	e016      	b.n	35fe <arm_mat_vec_mult_f32+0x246>
    35d0:	6dfb      	ldr	r3, [r7, #92]	; 0x5c
    35d2:	1d1a      	adds	r2, r3, #4
    35d4:	65fa      	str	r2, [r7, #92]	; 0x5c
    35d6:	ed93 7a00 	vldr	s14, [r3]
    35da:	6cfb      	ldr	r3, [r7, #76]	; 0x4c
    35dc:	1d1a      	adds	r2, r3, #4
    35de:	64fa      	str	r2, [r7, #76]	; 0x4c
    35e0:	edd3 7a00 	vldr	s15, [r3]
    35e4:	ee67 7a27 	vmul.f32	s15, s14, s15
    35e8:	ed97 7a0b 	vldr	s14, [r7, #44]	; 0x2c
    35ec:	ee77 7a27 	vadd.f32	s15, s14, s15
    35f0:	edc7 7a0b 	vstr	s15, [r7, #44]	; 0x2c
    35f4:	f8b7 3042 	ldrh.w	r3, [r7, #66]	; 0x42
    35f8:	3b01      	subs	r3, #1
    35fa:	f8a7 3042 	strh.w	r3, [r7, #66]	; 0x42
    35fe:	f8b7 3042 	ldrh.w	r3, [r7, #66]	; 0x42
    3602:	2b00      	cmp	r3, #0
    3604:	d1e4      	bne.n	35d0 <arm_mat_vec_mult_f32+0x218>
    3606:	6cbb      	ldr	r3, [r7, #72]	; 0x48
    3608:	1d1a      	adds	r2, r3, #4
    360a:	64ba      	str	r2, [r7, #72]	; 0x48
    360c:	6afa      	ldr	r2, [r7, #44]	; 0x2c
    360e:	601a      	str	r2, [r3, #0]
    3610:	6a7b      	ldr	r3, [r7, #36]	; 0x24
    3612:	b29a      	uxth	r2, r3
    3614:	f8b7 3046 	ldrh.w	r3, [r7, #70]	; 0x46
    3618:	4413      	add	r3, r2
    361a:	f8a7 3046 	strh.w	r3, [r7, #70]	; 0x46
    361e:	f8b7 3044 	ldrh.w	r3, [r7, #68]	; 0x44
    3622:	3b01      	subs	r3, #1
    3624:	f8a7 3044 	strh.w	r3, [r7, #68]	; 0x44
    3628:	f8b7 3044 	ldrh.w	r3, [r7, #68]	; 0x44
    362c:	2b00      	cmp	r3, #0
    362e:	d183      	bne.n	3538 <arm_mat_vec_mult_f32+0x180>
    3630:	bf00      	nop
    3632:	bf00      	nop
    3634:	3764      	adds	r7, #100	; 0x64
    3636:	46bd      	mov	sp, r7
    3638:	f85d 7b04 	ldr.w	r7, [sp], #4
    363c:	4770      	bx	lr

0000363e <arm_cmplx_mag_f32>:
    363e:	b580      	push	{r7, lr}
    3640:	b092      	sub	sp, #72	; 0x48
    3642:	af00      	add	r7, sp, #0
    3644:	60f8      	str	r0, [r7, #12]
    3646:	60b9      	str	r1, [r7, #8]
    3648:	607a      	str	r2, [r7, #4]
    364a:	687b      	ldr	r3, [r7, #4]
    364c:	089b      	lsrs	r3, r3, #2
    364e:	647b      	str	r3, [r7, #68]	; 0x44
    3650:	e0c2      	b.n	37d8 <arm_cmplx_mag_f32+0x19a>
    3652:	68fb      	ldr	r3, [r7, #12]
    3654:	1d1a      	adds	r2, r3, #4
    3656:	60fa      	str	r2, [r7, #12]
    3658:	681b      	ldr	r3, [r3, #0]
    365a:	643b      	str	r3, [r7, #64]	; 0x40
    365c:	68fb      	ldr	r3, [r7, #12]
    365e:	1d1a      	adds	r2, r3, #4
    3660:	60fa      	str	r2, [r7, #12]
    3662:	681b      	ldr	r3, [r3, #0]
    3664:	63fb      	str	r3, [r7, #60]	; 0x3c
    3666:	edd7 7a10 	vldr	s15, [r7, #64]	; 0x40
    366a:	ee27 7aa7 	vmul.f32	s14, s15, s15
    366e:	edd7 7a0f 	vldr	s15, [r7, #60]	; 0x3c
    3672:	ee67 7aa7 	vmul.f32	s15, s15, s15
    3676:	ee77 7a27 	vadd.f32	s15, s14, s15
    367a:	68bb      	ldr	r3, [r7, #8]
    367c:	1d1a      	adds	r2, r3, #4
    367e:	60ba      	str	r2, [r7, #8]
    3680:	edc7 7a08 	vstr	s15, [r7, #32]
    3684:	61fb      	str	r3, [r7, #28]
    3686:	edd7 7a08 	vldr	s15, [r7, #32]
    368a:	eef5 7ac0 	vcmpe.f32	s15, #0.0
    368e:	eef1 fa10 	vmrs	APSR_nzcv, fpscr
    3692:	db09      	blt.n	36a8 <arm_cmplx_mag_f32+0x6a>
    3694:	ed97 0a08 	vldr	s0, [r7, #32]
    3698:	f000 fa10 	bl	3abc <sqrtf>
    369c:	eef0 7a40 	vmov.f32	s15, s0
    36a0:	69fb      	ldr	r3, [r7, #28]
    36a2:	edc3 7a00 	vstr	s15, [r3]
    36a6:	e004      	b.n	36b2 <arm_cmplx_mag_f32+0x74>
    36a8:	69fb      	ldr	r3, [r7, #28]
    36aa:	f04f 0200 	mov.w	r2, #0
    36ae:	601a      	str	r2, [r3, #0]
    36b0:	bf00      	nop
    36b2:	68fb      	ldr	r3, [r7, #12]
    36b4:	1d1a      	adds	r2, r3, #4
    36b6:	60fa      	str	r2, [r7, #12]
    36b8:	681b      	ldr	r3, [r3, #0]
    36ba:	643b      	str	r3, [r7, #64]	; 0x40
    36bc:	68fb      	ldr	r3, [r7, #12]
    36be:	1d1a      	adds	r2, r3, #4
    36c0:	60fa      	str	r2, [r7, #12]
    36c2:	681b      	ldr	r3, [r3, #0]
    36c4:	63fb      	str	r3, [r7, #60]	; 0x3c
    36c6:	edd7 7a10 	vldr	s15, [r7, #64]	; 0x40
    36ca:	ee27 7aa7 	vmul.f32	s14, s15, s15
    36ce:	edd7 7a0f 	vldr	s15, [r7, #60]	; 0x3c
    36d2:	ee67 7aa7 	vmul.f32	s15, s15, s15
    36d6:	ee77 7a27 	vadd.f32	s15, s14, s15
    36da:	68bb      	ldr	r3, [r7, #8]
    36dc:	1d1a      	adds	r2, r3, #4
    36de:	60ba      	str	r2, [r7, #8]
    36e0:	edc7 7a0a 	vstr	s15, [r7, #40]	; 0x28
    36e4:	627b      	str	r3, [r7, #36]	; 0x24
    36e6:	edd7 7a0a 	vldr	s15, [r7, #40]	; 0x28
    36ea:	eef5 7ac0 	vcmpe.f32	s15, #0.0
    36ee:	eef1 fa10 	vmrs	APSR_nzcv, fpscr
    36f2:	db09      	blt.n	3708 <arm_cmplx_mag_f32+0xca>
    36f4:	ed97 0a0a 	vldr	s0, [r7, #40]	; 0x28
    36f8:	f000 f9e0 	bl	3abc <sqrtf>
    36fc:	eef0 7a40 	vmov.f32	s15, s0
    3700:	6a7b      	ldr	r3, [r7, #36]	; 0x24
    3702:	edc3 7a00 	vstr	s15, [r3]
    3706:	e004      	b.n	3712 <arm_cmplx_mag_f32+0xd4>
    3708:	6a7b      	ldr	r3, [r7, #36]	; 0x24
    370a:	f04f 0200 	mov.w	r2, #0
    370e:	601a      	str	r2, [r3, #0]
    3710:	bf00      	nop
    3712:	68fb      	ldr	r3, [r7, #12]
    3714:	1d1a      	adds	r2, r3, #4
    3716:	60fa      	str	r2, [r7, #12]
    3718:	681b      	ldr	r3, [r3, #0]
    371a:	643b      	str	r3, [r7, #64]	; 0x40
    371c:	68fb      	ldr	r3, [r7, #12]
    371e:	1d1a      	adds	r2, r3, #4
    3720:	60fa      	str	r2, [r7, #12]
    3722:	681b      	ldr	r3, [r3, #0]
    3724:	63fb      	str	r3, [r7, #60]	; 0x3c
    3726:	edd7 7a10 	vldr	s15, [r7, #64]	; 0x40
    372a:	ee27 7aa7 	vmul.f32	s14, s15, s15
    372e:	edd7 7a0f 	vldr	s15, [r7, #60]	; 0x3c
    3732:	ee67 7aa7 	vmul.f32	s15, s15, s15
    3736:	ee77 7a27 	vadd.f32	s15, s14, s15
    373a:	68bb      	ldr	r3, [r7, #8]
    373c:	1d1a      	adds	r2, r3, #4
    373e:	60ba      	str	r2, [r7, #8]
    3740:	edc7 7a0c 	vstr	s15, [r7, #48]	; 0x30
    3744:	62fb      	str	r3, [r7, #44]	; 0x2c
    3746:	edd7 7a0c 	vldr	s15, [r7, #48]	; 0x30
    374a:	eef5 7ac0 	vcmpe.f32	s15, #0.0
    374e:	eef1 fa10 	vmrs	APSR_nzcv, fpscr
    3752:	db09      	blt.n	3768 <arm_cmplx_mag_f32+0x12a>
    3754:	ed97 0a0c 	vldr	s0, [r7, #48]	; 0x30
    3758:	f000 f9b0 	bl	3abc <sqrtf>
    375c:	eef0 7a40 	vmov.f32	s15, s0
    3760:	6afb      	ldr	r3, [r7, #44]	; 0x2c
    3762:	edc3 7a00 	vstr	s15, [r3]
    3766:	e004      	b.n	3772 <arm_cmplx_mag_f32+0x134>
    3768:	6afb      	ldr	r3, [r7, #44]	; 0x2c
    376a:	f04f 0200 	mov.w	r2, #0
    376e:	601a      	str	r2, [r3, #0]
    3770:	bf00      	nop
    3772:	68fb      	ldr	r3, [r7, #12]
    3774:	1d1a      	adds	r2, r3, #4
    3776:	60fa      	str	r2, [r7, #12]
    3778:	681b      	ldr	r3, [r3, #0]
    377a:	643b      	str	r3, [r7, #64]	; 0x40
    377c:	68fb      	ldr	r3, [r7, #12]
    377e:	1d1a      	adds	r2, r3, #4
    3780:	60fa      	str	r2, [r7, #12]
    3782:	681b      	ldr	r3, [r3, #0]
    3784:	63fb      	str	r3, [r7, #60]	; 0x3c
    3786:	edd7 7a10 	vldr	s15, [r7, #64]	; 0x40
    378a:	ee27 7aa7 	vmul.f32	s14, s15, s15
    378e:	edd7 7a0f 	vldr	s15, [r7, #60]	; 0x3c
    3792:	ee67 7aa7 	vmul.f32	s15, s15, s15
    3796:	ee77 7a27 	vadd.f32	s15, s14, s15
    379a:	68bb      	ldr	r3, [r7, #8]
    379c:	1d1a      	adds	r2, r3, #4
    379e:	60ba      	str	r2, [r7, #8]
    37a0:	edc7 7a0e 	vstr	s15, [r7, #56]	; 0x38
    37a4:	637b      	str	r3, [r7, #52]	; 0x34
    37a6:	edd7 7a0e 	vldr	s15, [r7, #56]	; 0x38
    37aa:	eef5 7ac0 	vcmpe.f32	s15, #0.0
    37ae:	eef1 fa10 	vmrs	APSR_nzcv, fpscr
    37b2:	db09      	blt.n	37c8 <arm_cmplx_mag_f32+0x18a>
    37b4:	ed97 0a0e 	vldr	s0, [r7, #56]	; 0x38
    37b8:	f000 f980 	bl	3abc <sqrtf>
    37bc:	eef0 7a40 	vmov.f32	s15, s0
    37c0:	6b7b      	ldr	r3, [r7, #52]	; 0x34
    37c2:	edc3 7a00 	vstr	s15, [r3]
    37c6:	e004      	b.n	37d2 <arm_cmplx_mag_f32+0x194>
    37c8:	6b7b      	ldr	r3, [r7, #52]	; 0x34
    37ca:	f04f 0200 	mov.w	r2, #0
    37ce:	601a      	str	r2, [r3, #0]
    37d0:	bf00      	nop
    37d2:	6c7b      	ldr	r3, [r7, #68]	; 0x44
    37d4:	3b01      	subs	r3, #1
    37d6:	647b      	str	r3, [r7, #68]	; 0x44
    37d8:	6c7b      	ldr	r3, [r7, #68]	; 0x44
    37da:	2b00      	cmp	r3, #0
    37dc:	f47f af39 	bne.w	3652 <arm_cmplx_mag_f32+0x14>
    37e0:	687b      	ldr	r3, [r7, #4]
    37e2:	f003 0303 	and.w	r3, r3, #3
    37e6:	647b      	str	r3, [r7, #68]	; 0x44
    37e8:	e032      	b.n	3850 <arm_cmplx_mag_f32+0x212>
    37ea:	68fb      	ldr	r3, [r7, #12]
    37ec:	1d1a      	adds	r2, r3, #4
    37ee:	60fa      	str	r2, [r7, #12]
    37f0:	681b      	ldr	r3, [r3, #0]
    37f2:	643b      	str	r3, [r7, #64]	; 0x40
    37f4:	68fb      	ldr	r3, [r7, #12]
    37f6:	1d1a      	adds	r2, r3, #4
    37f8:	60fa      	str	r2, [r7, #12]
    37fa:	681b      	ldr	r3, [r3, #0]
    37fc:	63fb      	str	r3, [r7, #60]	; 0x3c
    37fe:	edd7 7a10 	vldr	s15, [r7, #64]	; 0x40
    3802:	ee27 7aa7 	vmul.f32	s14, s15, s15
    3806:	edd7 7a0f 	vldr	s15, [r7, #60]	; 0x3c
    380a:	ee67 7aa7 	vmul.f32	s15, s15, s15
    380e:	ee77 7a27 	vadd.f32	s15, s14, s15
    3812:	68bb      	ldr	r3, [r7, #8]
    3814:	1d1a      	adds	r2, r3, #4
    3816:	60ba      	str	r2, [r7, #8]
    3818:	edc7 7a06 	vstr	s15, [r7, #24]
    381c:	617b      	str	r3, [r7, #20]
    381e:	edd7 7a06 	vldr	s15, [r7, #24]
    3822:	eef5 7ac0 	vcmpe.f32	s15, #0.0
    3826:	eef1 fa10 	vmrs	APSR_nzcv, fpscr
    382a:	db09      	blt.n	3840 <arm_cmplx_mag_f32+0x202>
    382c:	ed97 0a06 	vldr	s0, [r7, #24]
    3830:	f000 f944 	bl	3abc <sqrtf>
    3834:	eef0 7a40 	vmov.f32	s15, s0
    3838:	697b      	ldr	r3, [r7, #20]
    383a:	edc3 7a00 	vstr	s15, [r3]
    383e:	e004      	b.n	384a <arm_cmplx_mag_f32+0x20c>
    3840:	697b      	ldr	r3, [r7, #20]
    3842:	f04f 0200 	mov.w	r2, #0
    3846:	601a      	str	r2, [r3, #0]
    3848:	bf00      	nop
    384a:	6c7b      	ldr	r3, [r7, #68]	; 0x44
    384c:	3b01      	subs	r3, #1
    384e:	647b      	str	r3, [r7, #68]	; 0x44
    3850:	6c7b      	ldr	r3, [r7, #68]	; 0x44
    3852:	2b00      	cmp	r3, #0
    3854:	d1c9      	bne.n	37ea <arm_cmplx_mag_f32+0x1ac>
    3856:	bf00      	nop
    3858:	bf00      	nop
    385a:	3748      	adds	r7, #72	; 0x48
    385c:	46bd      	mov	sp, r7
    385e:	bd80      	pop	{r7, pc}

00003860 <arm_dot_prod_f32>:
    3860:	b480      	push	{r7}
    3862:	b087      	sub	sp, #28
    3864:	af00      	add	r7, sp, #0
    3866:	60f8      	str	r0, [r7, #12]
    3868:	60b9      	str	r1, [r7, #8]
    386a:	607a      	str	r2, [r7, #4]
    386c:	603b      	str	r3, [r7, #0]
    386e:	f04f 0300 	mov.w	r3, #0
    3872:	613b      	str	r3, [r7, #16]
    3874:	687b      	ldr	r3, [r7, #4]
    3876:	089b      	lsrs	r3, r3, #2
    3878:	617b      	str	r3, [r7, #20]
    387a:	e04a      	b.n	3912 <arm_dot_prod_f32+0xb2>
    387c:	68fb      	ldr	r3, [r7, #12]
    387e:	1d1a      	adds	r2, r3, #4
    3880:	60fa      	str	r2, [r7, #12]
    3882:	ed93 7a00 	vldr	s14, [r3]
    3886:	68bb      	ldr	r3, [r7, #8]
    3888:	1d1a      	adds	r2, r3, #4
    388a:	60ba      	str	r2, [r7, #8]
    388c:	edd3 7a00 	vldr	s15, [r3]
    3890:	ee67 7a27 	vmul.f32	s15, s14, s15
    3894:	ed97 7a04 	vldr	s14, [r7, #16]
    3898:	ee77 7a27 	vadd.f32	s15, s14, s15
    389c:	edc7 7a04 	vstr	s15, [r7, #16]
    38a0:	68fb      	ldr	r3, [r7, #12]
    38a2:	1d1a      	adds	r2, r3, #4
    38a4:	60fa      	str	r2, [r7, #12]
    38a6:	ed93 7a00 	vldr	s14, [r3]
    38aa:	68bb      	ldr	r3, [r7, #8]
    38ac:	1d1a      	adds	r2, r3, #4
    38ae:	60ba      	str	r2, [r7, #8]
    38b0:	edd3 7a00 	vldr	s15, [r3]
    38b4:	ee67 7a27 	vmul.f32	s15, s14, s15
    38b8:	ed97 7a04 	vldr	s14, [r7, #16]
    38bc:	ee77 7a27 	vadd.f32	s15, s14, s15
    38c0:	edc7 7a04 	vstr	s15, [r7, #16]
    38c4:	68fb      	ldr	r3, [r7, #12]
    38c6:	1d1a      	adds	r2, r3, #4
    38c8:	60fa      	str	r2, [r7, #12]
    38ca:	ed93 7a00 	vldr	s14, [r3]
    38ce:	68bb      	ldr	r3, [r7, #8]
    38d0:	1d1a      	adds	r2, r3, #4
    38d2:	60ba      	str	r2, [r7, #8]
    38d4:	edd3 7a00 	vldr	s15, [r3]
    38d8:	ee67 7a27 	vmul.f32	s15, s14, s15
    38dc:	ed97 7a04 	vldr	s14, [r7, #16]
    38e0:	ee77 7a27 	vadd.f32	s15, s14, s15
    38e4:	edc7 7a04 	vstr	s15, [r7, #16]
    38e8:	68fb      	ldr	r3, [r7, #12]
    38ea:	1d1a      	adds	r2, r3, #4
    38ec:	60fa      	str	r2, [r7, #12]
    38ee:	ed93 7a00 	vldr	s14, [r3]
    38f2:	68bb      	ldr	r3, [r7, #8]
    38f4:	1d1a      	adds	r2, r3, #4
    38f6:	60ba      	str	r2, [r7, #8]
    38f8:	edd3 7a00 	vldr	s15, [r3]
    38fc:	ee67 7a27 	vmul.f32	s15, s14, s15
    3900:	ed97 7a04 	vldr	s14, [r7, #16]
    3904:	ee77 7a27 	vadd.f32	s15, s14, s15
    3908:	edc7 7a04 	vstr	s15, [r7, #16]
    390c:	697b      	ldr	r3, [r7, #20]
    390e:	3b01      	subs	r3, #1
    3910:	617b      	str	r3, [r7, #20]
    3912:	697b      	ldr	r3, [r7, #20]
    3914:	2b00      	cmp	r3, #0
    3916:	d1b1      	bne.n	387c <arm_dot_prod_f32+0x1c>
    3918:	687b      	ldr	r3, [r7, #4]
    391a:	f003 0303 	and.w	r3, r3, #3
    391e:	617b      	str	r3, [r7, #20]
    3920:	e014      	b.n	394c <arm_dot_prod_f32+0xec>
    3922:	68fb      	ldr	r3, [r7, #12]
    3924:	1d1a      	adds	r2, r3, #4
    3926:	60fa      	str	r2, [r7, #12]
    3928:	ed93 7a00 	vldr	s14, [r3]
    392c:	68bb      	ldr	r3, [r7, #8]
    392e:	1d1a      	adds	r2, r3, #4
    3930:	60ba      	str	r2, [r7, #8]
    3932:	edd3 7a00 	vldr	s15, [r3]
    3936:	ee67 7a27 	vmul.f32	s15, s14, s15
    393a:	ed97 7a04 	vldr	s14, [r7, #16]
    393e:	ee77 7a27 	vadd.f32	s15, s14, s15
    3942:	edc7 7a04 	vstr	s15, [r7, #16]
    3946:	697b      	ldr	r3, [r7, #20]
    3948:	3b01      	subs	r3, #1
    394a:	617b      	str	r3, [r7, #20]
    394c:	697b      	ldr	r3, [r7, #20]
    394e:	2b00      	cmp	r3, #0
    3950:	d1e7      	bne.n	3922 <arm_dot_prod_f32+0xc2>
    3952:	683b      	ldr	r3, [r7, #0]
    3954:	693a      	ldr	r2, [r7, #16]
    3956:	601a      	str	r2, [r3, #0]
    3958:	bf00      	nop
    395a:	371c      	adds	r7, #28
    395c:	46bd      	mov	sp, r7
    395e:	f85d 7b04 	ldr.w	r7, [sp], #4
    3962:	4770      	bx	lr

00003964 <arm_scale_f32>:
    3964:	b480      	push	{r7}
    3966:	b08b      	sub	sp, #44	; 0x2c
    3968:	af00      	add	r7, sp, #0
    396a:	60f8      	str	r0, [r7, #12]
    396c:	ed87 0a02 	vstr	s0, [r7, #8]
    3970:	6079      	str	r1, [r7, #4]
    3972:	603a      	str	r2, [r7, #0]
    3974:	683b      	ldr	r3, [r7, #0]
    3976:	089b      	lsrs	r3, r3, #2
    3978:	627b      	str	r3, [r7, #36]	; 0x24
    397a:	e042      	b.n	3a02 <arm_scale_f32+0x9e>
    397c:	68fb      	ldr	r3, [r7, #12]
    397e:	1d1a      	adds	r2, r3, #4
    3980:	60fa      	str	r2, [r7, #12]
    3982:	edd3 7a00 	vldr	s15, [r3]
    3986:	ed97 7a02 	vldr	s14, [r7, #8]
    398a:	ee67 7a27 	vmul.f32	s15, s14, s15
    398e:	edc7 7a08 	vstr	s15, [r7, #32]
    3992:	68fb      	ldr	r3, [r7, #12]
    3994:	1d1a      	adds	r2, r3, #4
    3996:	60fa      	str	r2, [r7, #12]
    3998:	edd3 7a00 	vldr	s15, [r3]
    399c:	ed97 7a02 	vldr	s14, [r7, #8]
    39a0:	ee67 7a27 	vmul.f32	s15, s14, s15
    39a4:	edc7 7a07 	vstr	s15, [r7, #28]
    39a8:	68fb      	ldr	r3, [r7, #12]
    39aa:	1d1a      	adds	r2, r3, #4
    39ac:	60fa      	str	r2, [r7, #12]
    39ae:	edd3 7a00 	vldr	s15, [r3]
    39b2:	ed97 7a02 	vldr	s14, [r7, #8]
    39b6:	ee67 7a27 	vmul.f32	s15, s14, s15
    39ba:	edc7 7a06 	vstr	s15, [r7, #24]
    39be:	68fb      	ldr	r3, [r7, #12]
    39c0:	1d1a      	adds	r2, r3, #4
    39c2:	60fa      	str	r2, [r7, #12]
    39c4:	edd3 7a00 	vldr	s15, [r3]
    39c8:	ed97 7a02 	vldr	s14, [r7, #8]
    39cc:	ee67 7a27 	vmul.f32	s15, s14, s15
    39d0:	edc7 7a05 	vstr	s15, [r7, #20]
    39d4:	687b      	ldr	r3, [r7, #4]
    39d6:	1d1a      	adds	r2, r3, #4
    39d8:	607a      	str	r2, [r7, #4]
    39da:	6a3a      	ldr	r2, [r7, #32]
    39dc:	601a      	str	r2, [r3, #0]
    39de:	687b      	ldr	r3, [r7, #4]
    39e0:	1d1a      	adds	r2, r3, #4
    39e2:	607a      	str	r2, [r7, #4]
    39e4:	69fa      	ldr	r2, [r7, #28]
    39e6:	601a      	str	r2, [r3, #0]
    39e8:	687b      	ldr	r3, [r7, #4]
    39ea:	1d1a      	adds	r2, r3, #4
    39ec:	607a      	str	r2, [r7, #4]
    39ee:	69ba      	ldr	r2, [r7, #24]
    39f0:	601a      	str	r2, [r3, #0]
    39f2:	687b      	ldr	r3, [r7, #4]
    39f4:	1d1a      	adds	r2, r3, #4
    39f6:	607a      	str	r2, [r7, #4]
    39f8:	697a      	ldr	r2, [r7, #20]
    39fa:	601a      	str	r2, [r3, #0]
    39fc:	6a7b      	ldr	r3, [r7, #36]	; 0x24
    39fe:	3b01      	subs	r3, #1
    3a00:	627b      	str	r3, [r7, #36]	; 0x24
    3a02:	6a7b      	ldr	r3, [r7, #36]	; 0x24
    3a04:	2b00      	cmp	r3, #0
    3a06:	d1b9      	bne.n	397c <arm_scale_f32+0x18>
    3a08:	683b      	ldr	r3, [r7, #0]
    3a0a:	f003 0303 	and.w	r3, r3, #3
    3a0e:	627b      	str	r3, [r7, #36]	; 0x24
    3a10:	e010      	b.n	3a34 <arm_scale_f32+0xd0>
    3a12:	68fb      	ldr	r3, [r7, #12]
    3a14:	1d1a      	adds	r2, r3, #4
    3a16:	60fa      	str	r2, [r7, #12]
    3a18:	ed93 7a00 	vldr	s14, [r3]
    3a1c:	687b      	ldr	r3, [r7, #4]
    3a1e:	1d1a      	adds	r2, r3, #4
    3a20:	607a      	str	r2, [r7, #4]
    3a22:	edd7 7a02 	vldr	s15, [r7, #8]
    3a26:	ee67 7a27 	vmul.f32	s15, s14, s15
    3a2a:	edc3 7a00 	vstr	s15, [r3]
    3a2e:	6a7b      	ldr	r3, [r7, #36]	; 0x24
    3a30:	3b01      	subs	r3, #1
    3a32:	627b      	str	r3, [r7, #36]	; 0x24
    3a34:	6a7b      	ldr	r3, [r7, #36]	; 0x24
    3a36:	2b00      	cmp	r3, #0
    3a38:	d1eb      	bne.n	3a12 <arm_scale_f32+0xae>
    3a3a:	bf00      	nop
    3a3c:	bf00      	nop
    3a3e:	372c      	adds	r7, #44	; 0x2c
    3a40:	46bd      	mov	sp, r7
    3a42:	f85d 7b04 	ldr.w	r7, [sp], #4
    3a46:	4770      	bx	lr

00003a48 <sqrt>:
    3a48:	b538      	push	{r3, r4, r5, lr}
    3a4a:	ed2d 8b02 	vpush	{d8}
    3a4e:	ec55 4b10 	vmov	r4, r5, d0
    3a52:	f000 f85b 	bl	3b0c <__ieee754_sqrt>
    3a56:	4b18      	ldr	r3, [pc, #96]	; (3ab8 <sqrt+0x70>)
    3a58:	eeb0 8a40 	vmov.f32	s16, s0
    3a5c:	eef0 8a60 	vmov.f32	s17, s1
    3a60:	f993 3000 	ldrsb.w	r3, [r3]
    3a64:	3301      	adds	r3, #1
    3a66:	d00d      	beq.n	3a84 <sqrt+0x3c>
    3a68:	4622      	mov	r2, r4
    3a6a:	462b      	mov	r3, r5
    3a6c:	4620      	mov	r0, r4
    3a6e:	4629      	mov	r1, r5
    3a70:	f000 fd72 	bl	4558 <__aeabi_dcmpun>
    3a74:	b930      	cbnz	r0, 3a84 <sqrt+0x3c>
    3a76:	4620      	mov	r0, r4
    3a78:	4629      	mov	r1, r5
    3a7a:	2200      	movs	r2, #0
    3a7c:	2300      	movs	r3, #0
    3a7e:	f000 fd43 	bl	4508 <__aeabi_dcmplt>
    3a82:	b930      	cbnz	r0, 3a92 <sqrt+0x4a>
    3a84:	eeb0 0a48 	vmov.f32	s0, s16
    3a88:	eef0 0a68 	vmov.f32	s1, s17
    3a8c:	ecbd 8b02 	vpop	{d8}
    3a90:	bd38      	pop	{r3, r4, r5, pc}
    3a92:	f000 fdc7 	bl	4624 <__errno>
    3a96:	2200      	movs	r2, #0
    3a98:	2300      	movs	r3, #0
    3a9a:	2121      	movs	r1, #33	; 0x21
    3a9c:	6001      	str	r1, [r0, #0]
    3a9e:	4610      	mov	r0, r2
    3aa0:	4619      	mov	r1, r3
    3aa2:	f000 fbe9 	bl	4278 <__aeabi_ddiv>
    3aa6:	ec41 0b18 	vmov	d8, r0, r1
    3aaa:	eeb0 0a48 	vmov.f32	s0, s16
    3aae:	eef0 0a68 	vmov.f32	s1, s17
    3ab2:	ecbd 8b02 	vpop	{d8}
    3ab6:	bd38      	pop	{r3, r4, r5, pc}
    3ab8:	20000004 	.word	0x20000004

00003abc <sqrtf>:
    3abc:	b508      	push	{r3, lr}
    3abe:	ed2d 8b02 	vpush	{d8}
    3ac2:	eeb0 8a40 	vmov.f32	s16, s0
    3ac6:	f000 f8ed 	bl	3ca4 <__ieee754_sqrtf>
    3aca:	4b0e      	ldr	r3, [pc, #56]	; (3b04 <sqrtf+0x48>)
    3acc:	f993 3000 	ldrsb.w	r3, [r3]
    3ad0:	3301      	adds	r3, #1
    3ad2:	d00b      	beq.n	3aec <sqrtf+0x30>
    3ad4:	eeb4 8a48 	vcmp.f32	s16, s16
    3ad8:	eef1 fa10 	vmrs	APSR_nzcv, fpscr
    3adc:	d606      	bvs.n	3aec <sqrtf+0x30>
    3ade:	eddf 8a0a 	vldr	s17, [pc, #40]	; 3b08 <sqrtf+0x4c>
    3ae2:	eeb4 8ae8 	vcmpe.f32	s16, s17
    3ae6:	eef1 fa10 	vmrs	APSR_nzcv, fpscr
    3aea:	d402      	bmi.n	3af2 <sqrtf+0x36>
    3aec:	ecbd 8b02 	vpop	{d8}
    3af0:	bd08      	pop	{r3, pc}
    3af2:	f000 fd97 	bl	4624 <__errno>
    3af6:	ee88 0aa8 	vdiv.f32	s0, s17, s17
    3afa:	ecbd 8b02 	vpop	{d8}
    3afe:	2321      	movs	r3, #33	; 0x21
    3b00:	6003      	str	r3, [r0, #0]
    3b02:	bd08      	pop	{r3, pc}
    3b04:	20000004 	.word	0x20000004
    3b08:	00000000 	.word	0x00000000

00003b0c <__ieee754_sqrt>:
    3b0c:	e92d 41f0 	stmdb	sp!, {r4, r5, r6, r7, r8, lr}
    3b10:	4963      	ldr	r1, [pc, #396]	; (3ca0 <__ieee754_sqrt+0x194>)
    3b12:	ec55 4b10 	vmov	r4, r5, d0
    3b16:	43a9      	bics	r1, r5
    3b18:	f000 809f 	beq.w	3c5a <__ieee754_sqrt+0x14e>
    3b1c:	2d00      	cmp	r5, #0
    3b1e:	462b      	mov	r3, r5
    3b20:	ee10 2a10 	vmov	r2, s0
    3b24:	dd52      	ble.n	3bcc <__ieee754_sqrt+0xc0>
    3b26:	ea5f 5e25 	movs.w	lr, r5, asr #20
    3b2a:	f000 80b1 	beq.w	3c90 <__ieee754_sqrt+0x184>
    3b2e:	f3c3 0313 	ubfx	r3, r3, #0, #20
    3b32:	f2ae 3eff 	subw	lr, lr, #1023	; 0x3ff
    3b36:	f443 1380 	orr.w	r3, r3, #1048576	; 0x100000
    3b3a:	0fd1      	lsrs	r1, r2, #31
    3b3c:	f01e 0f01 	tst.w	lr, #1
    3b40:	eb01 0343 	add.w	r3, r1, r3, lsl #1
    3b44:	ea4f 0442 	mov.w	r4, r2, lsl #1
    3b48:	d003      	beq.n	3b52 <__ieee754_sqrt+0x46>
    3b4a:	0fe4      	lsrs	r4, r4, #31
    3b4c:	eb04 0343 	add.w	r3, r4, r3, lsl #1
    3b50:	0094      	lsls	r4, r2, #2
    3b52:	f04f 0c00 	mov.w	ip, #0
    3b56:	ea4f 0e6e 	mov.w	lr, lr, asr #1
    3b5a:	4666      	mov	r6, ip
    3b5c:	2516      	movs	r5, #22
    3b5e:	f44f 1200 	mov.w	r2, #2097152	; 0x200000
    3b62:	18b1      	adds	r1, r6, r2
    3b64:	4299      	cmp	r1, r3
    3b66:	dc02      	bgt.n	3b6e <__ieee754_sqrt+0x62>
    3b68:	1a5b      	subs	r3, r3, r1
    3b6a:	188e      	adds	r6, r1, r2
    3b6c:	4494      	add	ip, r2
    3b6e:	005b      	lsls	r3, r3, #1
    3b70:	3d01      	subs	r5, #1
    3b72:	eb03 73d4 	add.w	r3, r3, r4, lsr #31
    3b76:	ea4f 0252 	mov.w	r2, r2, lsr #1
    3b7a:	ea4f 0444 	mov.w	r4, r4, lsl #1
    3b7e:	d1f0      	bne.n	3b62 <__ieee754_sqrt+0x56>
    3b80:	462f      	mov	r7, r5
    3b82:	2020      	movs	r0, #32
    3b84:	f04f 4200 	mov.w	r2, #2147483648	; 0x80000000
    3b88:	e009      	b.n	3b9e <__ieee754_sqrt+0x92>
    3b8a:	d041      	beq.n	3c10 <__ieee754_sqrt+0x104>
    3b8c:	0fe1      	lsrs	r1, r4, #31
    3b8e:	3801      	subs	r0, #1
    3b90:	ea4f 0252 	mov.w	r2, r2, lsr #1
    3b94:	eb01 0343 	add.w	r3, r1, r3, lsl #1
    3b98:	ea4f 0444 	mov.w	r4, r4, lsl #1
    3b9c:	d041      	beq.n	3c22 <__ieee754_sqrt+0x116>
    3b9e:	42b3      	cmp	r3, r6
    3ba0:	eb02 0105 	add.w	r1, r2, r5
    3ba4:	ddf1      	ble.n	3b8a <__ieee754_sqrt+0x7e>
    3ba6:	2900      	cmp	r1, #0
    3ba8:	eb01 0502 	add.w	r5, r1, r2
    3bac:	db09      	blt.n	3bc2 <__ieee754_sqrt+0xb6>
    3bae:	46b0      	mov	r8, r6
    3bb0:	1b9b      	subs	r3, r3, r6
    3bb2:	42a1      	cmp	r1, r4
    3bb4:	bf88      	it	hi
    3bb6:	f103 33ff 	addhi.w	r3, r3, #4294967295	; 0xffffffff
    3bba:	1a64      	subs	r4, r4, r1
    3bbc:	4417      	add	r7, r2
    3bbe:	4646      	mov	r6, r8
    3bc0:	e7e4      	b.n	3b8c <__ieee754_sqrt+0x80>
    3bc2:	2d00      	cmp	r5, #0
    3bc4:	dbf3      	blt.n	3bae <__ieee754_sqrt+0xa2>
    3bc6:	f106 0801 	add.w	r8, r6, #1
    3bca:	e7f1      	b.n	3bb0 <__ieee754_sqrt+0xa4>
    3bcc:	f025 4100 	bic.w	r1, r5, #2147483648	; 0x80000000
    3bd0:	4321      	orrs	r1, r4
    3bd2:	d039      	beq.n	3c48 <__ieee754_sqrt+0x13c>
    3bd4:	2d00      	cmp	r5, #0
    3bd6:	d150      	bne.n	3c7a <__ieee754_sqrt+0x16e>
    3bd8:	0ad4      	lsrs	r4, r2, #11
    3bda:	3b15      	subs	r3, #21
    3bdc:	0552      	lsls	r2, r2, #21
    3bde:	4621      	mov	r1, r4
    3be0:	2c00      	cmp	r4, #0
    3be2:	d0f9      	beq.n	3bd8 <__ieee754_sqrt+0xcc>
    3be4:	02e5      	lsls	r5, r4, #11
    3be6:	d456      	bmi.n	3c96 <__ieee754_sqrt+0x18a>
    3be8:	2000      	movs	r0, #0
    3bea:	e000      	b.n	3bee <__ieee754_sqrt+0xe2>
    3bec:	4628      	mov	r0, r5
    3bee:	0049      	lsls	r1, r1, #1
    3bf0:	02cc      	lsls	r4, r1, #11
    3bf2:	f100 0501 	add.w	r5, r0, #1
    3bf6:	d5f9      	bpl.n	3bec <__ieee754_sqrt+0xe0>
    3bf8:	460c      	mov	r4, r1
    3bfa:	4611      	mov	r1, r2
    3bfc:	40aa      	lsls	r2, r5
    3bfe:	f1c5 0520 	rsb	r5, r5, #32
    3c02:	fa21 f505 	lsr.w	r5, r1, r5
    3c06:	eba3 0e00 	sub.w	lr, r3, r0
    3c0a:	ea45 0304 	orr.w	r3, r5, r4
    3c0e:	e78e      	b.n	3b2e <__ieee754_sqrt+0x22>
    3c10:	42a1      	cmp	r1, r4
    3c12:	d8bb      	bhi.n	3b8c <__ieee754_sqrt+0x80>
    3c14:	2900      	cmp	r1, #0
    3c16:	eb01 0502 	add.w	r5, r1, r2
    3c1a:	dbd2      	blt.n	3bc2 <__ieee754_sqrt+0xb6>
    3c1c:	4698      	mov	r8, r3
    3c1e:	2300      	movs	r3, #0
    3c20:	e7cb      	b.n	3bba <__ieee754_sqrt+0xae>
    3c22:	4323      	orrs	r3, r4
    3c24:	d112      	bne.n	3c4c <__ieee754_sqrt+0x140>
    3c26:	0878      	lsrs	r0, r7, #1
    3c28:	ea4f 016c 	mov.w	r1, ip, asr #1
    3c2c:	f101 517f 	add.w	r1, r1, #1069547520	; 0x3fc00000
    3c30:	f01c 0f01 	tst.w	ip, #1
    3c34:	f501 1100 	add.w	r1, r1, #2097152	; 0x200000
    3c38:	bf18      	it	ne
    3c3a:	f040 4000 	orrne.w	r0, r0, #2147483648	; 0x80000000
    3c3e:	eb01 530e 	add.w	r3, r1, lr, lsl #20
    3c42:	4602      	mov	r2, r0
    3c44:	ec43 2b10 	vmov	d0, r2, r3
    3c48:	e8bd 81f0 	ldmia.w	sp!, {r4, r5, r6, r7, r8, pc}
    3c4c:	1c7b      	adds	r3, r7, #1
    3c4e:	bf16      	itet	ne
    3c50:	1c78      	addne	r0, r7, #1
    3c52:	f10c 0c01 	addeq.w	ip, ip, #1
    3c56:	0840      	lsrne	r0, r0, #1
    3c58:	e7e6      	b.n	3c28 <__ieee754_sqrt+0x11c>
    3c5a:	ee10 2a10 	vmov	r2, s0
    3c5e:	462b      	mov	r3, r5
    3c60:	ee10 0a10 	vmov	r0, s0
    3c64:	4629      	mov	r1, r5
    3c66:	f000 f9dd 	bl	4024 <__aeabi_dmul>
    3c6a:	4622      	mov	r2, r4
    3c6c:	462b      	mov	r3, r5
    3c6e:	f000 f823 	bl	3cb8 <__adddf3>
    3c72:	ec41 0b10 	vmov	d0, r0, r1
    3c76:	e8bd 81f0 	ldmia.w	sp!, {r4, r5, r6, r7, r8, pc}
    3c7a:	4620      	mov	r0, r4
    3c7c:	4629      	mov	r1, r5
    3c7e:	f000 f819 	bl	3cb4 <__aeabi_dsub>
    3c82:	4602      	mov	r2, r0
    3c84:	460b      	mov	r3, r1
    3c86:	f000 faf7 	bl	4278 <__aeabi_ddiv>
    3c8a:	ec41 0b10 	vmov	d0, r0, r1
    3c8e:	e7db      	b.n	3c48 <__ieee754_sqrt+0x13c>
    3c90:	4629      	mov	r1, r5
    3c92:	4673      	mov	r3, lr
    3c94:	e7a8      	b.n	3be8 <__ieee754_sqrt+0xdc>
    3c96:	4611      	mov	r1, r2
    3c98:	2520      	movs	r5, #32
    3c9a:	f04f 30ff 	mov.w	r0, #4294967295	; 0xffffffff
    3c9e:	e7b0      	b.n	3c02 <__ieee754_sqrt+0xf6>
    3ca0:	7ff00000 	.word	0x7ff00000

00003ca4 <__ieee754_sqrtf>:
    3ca4:	eeb1 0ac0 	vsqrt.f32	s0, s0
    3ca8:	4770      	bx	lr
    3caa:	bf00      	nop

00003cac <__aeabi_drsub>:
    3cac:	f081 4100 	eor.w	r1, r1, #2147483648	; 0x80000000
    3cb0:	e002      	b.n	3cb8 <__adddf3>
    3cb2:	bf00      	nop

00003cb4 <__aeabi_dsub>:
    3cb4:	f083 4300 	eor.w	r3, r3, #2147483648	; 0x80000000

00003cb8 <__adddf3>:
    3cb8:	b530      	push	{r4, r5, lr}
    3cba:	ea4f 0441 	mov.w	r4, r1, lsl #1
    3cbe:	ea4f 0543 	mov.w	r5, r3, lsl #1
    3cc2:	ea94 0f05 	teq	r4, r5
    3cc6:	bf08      	it	eq
    3cc8:	ea90 0f02 	teqeq	r0, r2
    3ccc:	bf1f      	itttt	ne
    3cce:	ea54 0c00 	orrsne.w	ip, r4, r0
    3cd2:	ea55 0c02 	orrsne.w	ip, r5, r2
    3cd6:	ea7f 5c64 	mvnsne.w	ip, r4, asr #21
    3cda:	ea7f 5c65 	mvnsne.w	ip, r5, asr #21
    3cde:	f000 80e2 	beq.w	3ea6 <__adddf3+0x1ee>
    3ce2:	ea4f 5454 	mov.w	r4, r4, lsr #21
    3ce6:	ebd4 5555 	rsbs	r5, r4, r5, lsr #21
    3cea:	bfb8      	it	lt
    3cec:	426d      	neglt	r5, r5
    3cee:	dd0c      	ble.n	3d0a <__adddf3+0x52>
    3cf0:	442c      	add	r4, r5
    3cf2:	ea80 0202 	eor.w	r2, r0, r2
    3cf6:	ea81 0303 	eor.w	r3, r1, r3
    3cfa:	ea82 0000 	eor.w	r0, r2, r0
    3cfe:	ea83 0101 	eor.w	r1, r3, r1
    3d02:	ea80 0202 	eor.w	r2, r0, r2
    3d06:	ea81 0303 	eor.w	r3, r1, r3
    3d0a:	2d36      	cmp	r5, #54	; 0x36
    3d0c:	bf88      	it	hi
    3d0e:	bd30      	pophi	{r4, r5, pc}
    3d10:	f011 4f00 	tst.w	r1, #2147483648	; 0x80000000
    3d14:	ea4f 3101 	mov.w	r1, r1, lsl #12
    3d18:	f44f 1c80 	mov.w	ip, #1048576	; 0x100000
    3d1c:	ea4c 3111 	orr.w	r1, ip, r1, lsr #12
    3d20:	d002      	beq.n	3d28 <__adddf3+0x70>
    3d22:	4240      	negs	r0, r0
    3d24:	eb61 0141 	sbc.w	r1, r1, r1, lsl #1
    3d28:	f013 4f00 	tst.w	r3, #2147483648	; 0x80000000
    3d2c:	ea4f 3303 	mov.w	r3, r3, lsl #12
    3d30:	ea4c 3313 	orr.w	r3, ip, r3, lsr #12
    3d34:	d002      	beq.n	3d3c <__adddf3+0x84>
    3d36:	4252      	negs	r2, r2
    3d38:	eb63 0343 	sbc.w	r3, r3, r3, lsl #1
    3d3c:	ea94 0f05 	teq	r4, r5
    3d40:	f000 80a7 	beq.w	3e92 <__adddf3+0x1da>
    3d44:	f1a4 0401 	sub.w	r4, r4, #1
    3d48:	f1d5 0e20 	rsbs	lr, r5, #32
    3d4c:	db0d      	blt.n	3d6a <__adddf3+0xb2>
    3d4e:	fa02 fc0e 	lsl.w	ip, r2, lr
    3d52:	fa22 f205 	lsr.w	r2, r2, r5
    3d56:	1880      	adds	r0, r0, r2
    3d58:	f141 0100 	adc.w	r1, r1, #0
    3d5c:	fa03 f20e 	lsl.w	r2, r3, lr
    3d60:	1880      	adds	r0, r0, r2
    3d62:	fa43 f305 	asr.w	r3, r3, r5
    3d66:	4159      	adcs	r1, r3
    3d68:	e00e      	b.n	3d88 <__adddf3+0xd0>
    3d6a:	f1a5 0520 	sub.w	r5, r5, #32
    3d6e:	f10e 0e20 	add.w	lr, lr, #32
    3d72:	2a01      	cmp	r2, #1
    3d74:	fa03 fc0e 	lsl.w	ip, r3, lr
    3d78:	bf28      	it	cs
    3d7a:	f04c 0c02 	orrcs.w	ip, ip, #2
    3d7e:	fa43 f305 	asr.w	r3, r3, r5
    3d82:	18c0      	adds	r0, r0, r3
    3d84:	eb51 71e3 	adcs.w	r1, r1, r3, asr #31
    3d88:	f001 4500 	and.w	r5, r1, #2147483648	; 0x80000000
    3d8c:	d507      	bpl.n	3d9e <__adddf3+0xe6>
    3d8e:	f04f 0e00 	mov.w	lr, #0
    3d92:	f1dc 0c00 	rsbs	ip, ip, #0
    3d96:	eb7e 0000 	sbcs.w	r0, lr, r0
    3d9a:	eb6e 0101 	sbc.w	r1, lr, r1
    3d9e:	f5b1 1f80 	cmp.w	r1, #1048576	; 0x100000
    3da2:	d31b      	bcc.n	3ddc <__adddf3+0x124>
    3da4:	f5b1 1f00 	cmp.w	r1, #2097152	; 0x200000
    3da8:	d30c      	bcc.n	3dc4 <__adddf3+0x10c>
    3daa:	0849      	lsrs	r1, r1, #1
    3dac:	ea5f 0030 	movs.w	r0, r0, rrx
    3db0:	ea4f 0c3c 	mov.w	ip, ip, rrx
    3db4:	f104 0401 	add.w	r4, r4, #1
    3db8:	ea4f 5244 	mov.w	r2, r4, lsl #21
    3dbc:	f512 0f80 	cmn.w	r2, #4194304	; 0x400000
    3dc0:	f080 809a 	bcs.w	3ef8 <__adddf3+0x240>
    3dc4:	f1bc 4f00 	cmp.w	ip, #2147483648	; 0x80000000
    3dc8:	bf08      	it	eq
    3dca:	ea5f 0c50 	movseq.w	ip, r0, lsr #1
    3dce:	f150 0000 	adcs.w	r0, r0, #0
    3dd2:	eb41 5104 	adc.w	r1, r1, r4, lsl #20
    3dd6:	ea41 0105 	orr.w	r1, r1, r5
    3dda:	bd30      	pop	{r4, r5, pc}
    3ddc:	ea5f 0c4c 	movs.w	ip, ip, lsl #1
    3de0:	4140      	adcs	r0, r0
    3de2:	eb41 0101 	adc.w	r1, r1, r1
    3de6:	3c01      	subs	r4, #1
    3de8:	bf28      	it	cs
    3dea:	f5b1 1f80 	cmpcs.w	r1, #1048576	; 0x100000
    3dee:	d2e9      	bcs.n	3dc4 <__adddf3+0x10c>
    3df0:	f091 0f00 	teq	r1, #0
    3df4:	bf04      	itt	eq
    3df6:	4601      	moveq	r1, r0
    3df8:	2000      	moveq	r0, #0
    3dfa:	fab1 f381 	clz	r3, r1
    3dfe:	bf08      	it	eq
    3e00:	3320      	addeq	r3, #32
    3e02:	f1a3 030b 	sub.w	r3, r3, #11
    3e06:	f1b3 0220 	subs.w	r2, r3, #32
    3e0a:	da0c      	bge.n	3e26 <__adddf3+0x16e>
    3e0c:	320c      	adds	r2, #12
    3e0e:	dd08      	ble.n	3e22 <__adddf3+0x16a>
    3e10:	f102 0c14 	add.w	ip, r2, #20
    3e14:	f1c2 020c 	rsb	r2, r2, #12
    3e18:	fa01 f00c 	lsl.w	r0, r1, ip
    3e1c:	fa21 f102 	lsr.w	r1, r1, r2
    3e20:	e00c      	b.n	3e3c <__adddf3+0x184>
    3e22:	f102 0214 	add.w	r2, r2, #20
    3e26:	bfd8      	it	le
    3e28:	f1c2 0c20 	rsble	ip, r2, #32
    3e2c:	fa01 f102 	lsl.w	r1, r1, r2
    3e30:	fa20 fc0c 	lsr.w	ip, r0, ip
    3e34:	bfdc      	itt	le
    3e36:	ea41 010c 	orrle.w	r1, r1, ip
    3e3a:	4090      	lslle	r0, r2
    3e3c:	1ae4      	subs	r4, r4, r3
    3e3e:	bfa2      	ittt	ge
    3e40:	eb01 5104 	addge.w	r1, r1, r4, lsl #20
    3e44:	4329      	orrge	r1, r5
    3e46:	bd30      	popge	{r4, r5, pc}
    3e48:	ea6f 0404 	mvn.w	r4, r4
    3e4c:	3c1f      	subs	r4, #31
    3e4e:	da1c      	bge.n	3e8a <__adddf3+0x1d2>
    3e50:	340c      	adds	r4, #12
    3e52:	dc0e      	bgt.n	3e72 <__adddf3+0x1ba>
    3e54:	f104 0414 	add.w	r4, r4, #20
    3e58:	f1c4 0220 	rsb	r2, r4, #32
    3e5c:	fa20 f004 	lsr.w	r0, r0, r4
    3e60:	fa01 f302 	lsl.w	r3, r1, r2
    3e64:	ea40 0003 	orr.w	r0, r0, r3
    3e68:	fa21 f304 	lsr.w	r3, r1, r4
    3e6c:	ea45 0103 	orr.w	r1, r5, r3
    3e70:	bd30      	pop	{r4, r5, pc}
    3e72:	f1c4 040c 	rsb	r4, r4, #12
    3e76:	f1c4 0220 	rsb	r2, r4, #32
    3e7a:	fa20 f002 	lsr.w	r0, r0, r2
    3e7e:	fa01 f304 	lsl.w	r3, r1, r4
    3e82:	ea40 0003 	orr.w	r0, r0, r3
    3e86:	4629      	mov	r1, r5
    3e88:	bd30      	pop	{r4, r5, pc}
    3e8a:	fa21 f004 	lsr.w	r0, r1, r4
    3e8e:	4629      	mov	r1, r5
    3e90:	bd30      	pop	{r4, r5, pc}
    3e92:	f094 0f00 	teq	r4, #0
    3e96:	f483 1380 	eor.w	r3, r3, #1048576	; 0x100000
    3e9a:	bf06      	itte	eq
    3e9c:	f481 1180 	eoreq.w	r1, r1, #1048576	; 0x100000
    3ea0:	3401      	addeq	r4, #1
    3ea2:	3d01      	subne	r5, #1
    3ea4:	e74e      	b.n	3d44 <__adddf3+0x8c>
    3ea6:	ea7f 5c64 	mvns.w	ip, r4, asr #21
    3eaa:	bf18      	it	ne
    3eac:	ea7f 5c65 	mvnsne.w	ip, r5, asr #21
    3eb0:	d029      	beq.n	3f06 <__adddf3+0x24e>
    3eb2:	ea94 0f05 	teq	r4, r5
    3eb6:	bf08      	it	eq
    3eb8:	ea90 0f02 	teqeq	r0, r2
    3ebc:	d005      	beq.n	3eca <__adddf3+0x212>
    3ebe:	ea54 0c00 	orrs.w	ip, r4, r0
    3ec2:	bf04      	itt	eq
    3ec4:	4619      	moveq	r1, r3
    3ec6:	4610      	moveq	r0, r2
    3ec8:	bd30      	pop	{r4, r5, pc}
    3eca:	ea91 0f03 	teq	r1, r3
    3ece:	bf1e      	ittt	ne
    3ed0:	2100      	movne	r1, #0
    3ed2:	2000      	movne	r0, #0
    3ed4:	bd30      	popne	{r4, r5, pc}
    3ed6:	ea5f 5c54 	movs.w	ip, r4, lsr #21
    3eda:	d105      	bne.n	3ee8 <__adddf3+0x230>
    3edc:	0040      	lsls	r0, r0, #1
    3ede:	4149      	adcs	r1, r1
    3ee0:	bf28      	it	cs
    3ee2:	f041 4100 	orrcs.w	r1, r1, #2147483648	; 0x80000000
    3ee6:	bd30      	pop	{r4, r5, pc}
    3ee8:	f514 0480 	adds.w	r4, r4, #4194304	; 0x400000
    3eec:	bf3c      	itt	cc
    3eee:	f501 1180 	addcc.w	r1, r1, #1048576	; 0x100000
    3ef2:	bd30      	popcc	{r4, r5, pc}
    3ef4:	f001 4500 	and.w	r5, r1, #2147483648	; 0x80000000
    3ef8:	f045 41fe 	orr.w	r1, r5, #2130706432	; 0x7f000000
    3efc:	f441 0170 	orr.w	r1, r1, #15728640	; 0xf00000
    3f00:	f04f 0000 	mov.w	r0, #0
    3f04:	bd30      	pop	{r4, r5, pc}
    3f06:	ea7f 5c64 	mvns.w	ip, r4, asr #21
    3f0a:	bf1a      	itte	ne
    3f0c:	4619      	movne	r1, r3
    3f0e:	4610      	movne	r0, r2
    3f10:	ea7f 5c65 	mvnseq.w	ip, r5, asr #21
    3f14:	bf1c      	itt	ne
    3f16:	460b      	movne	r3, r1
    3f18:	4602      	movne	r2, r0
    3f1a:	ea50 3401 	orrs.w	r4, r0, r1, lsl #12
    3f1e:	bf06      	itte	eq
    3f20:	ea52 3503 	orrseq.w	r5, r2, r3, lsl #12
    3f24:	ea91 0f03 	teqeq	r1, r3
    3f28:	f441 2100 	orrne.w	r1, r1, #524288	; 0x80000
    3f2c:	bd30      	pop	{r4, r5, pc}
    3f2e:	bf00      	nop

00003f30 <__aeabi_ui2d>:
    3f30:	f090 0f00 	teq	r0, #0
    3f34:	bf04      	itt	eq
    3f36:	2100      	moveq	r1, #0
    3f38:	4770      	bxeq	lr
    3f3a:	b530      	push	{r4, r5, lr}
    3f3c:	f44f 6480 	mov.w	r4, #1024	; 0x400
    3f40:	f104 0432 	add.w	r4, r4, #50	; 0x32
    3f44:	f04f 0500 	mov.w	r5, #0
    3f48:	f04f 0100 	mov.w	r1, #0
    3f4c:	e750      	b.n	3df0 <__adddf3+0x138>
    3f4e:	bf00      	nop

00003f50 <__aeabi_i2d>:
    3f50:	f090 0f00 	teq	r0, #0
    3f54:	bf04      	itt	eq
    3f56:	2100      	moveq	r1, #0
    3f58:	4770      	bxeq	lr
    3f5a:	b530      	push	{r4, r5, lr}
    3f5c:	f44f 6480 	mov.w	r4, #1024	; 0x400
    3f60:	f104 0432 	add.w	r4, r4, #50	; 0x32
    3f64:	f010 4500 	ands.w	r5, r0, #2147483648	; 0x80000000
    3f68:	bf48      	it	mi
    3f6a:	4240      	negmi	r0, r0
    3f6c:	f04f 0100 	mov.w	r1, #0
    3f70:	e73e      	b.n	3df0 <__adddf3+0x138>
    3f72:	bf00      	nop

00003f74 <__aeabi_f2d>:
    3f74:	0042      	lsls	r2, r0, #1
    3f76:	ea4f 01e2 	mov.w	r1, r2, asr #3
    3f7a:	ea4f 0131 	mov.w	r1, r1, rrx
    3f7e:	ea4f 7002 	mov.w	r0, r2, lsl #28
    3f82:	bf1f      	itttt	ne
    3f84:	f012 437f 	andsne.w	r3, r2, #4278190080	; 0xff000000
    3f88:	f093 4f7f 	teqne	r3, #4278190080	; 0xff000000
    3f8c:	f081 5160 	eorne.w	r1, r1, #939524096	; 0x38000000
    3f90:	4770      	bxne	lr
    3f92:	f032 427f 	bics.w	r2, r2, #4278190080	; 0xff000000
    3f96:	bf08      	it	eq
    3f98:	4770      	bxeq	lr
    3f9a:	f093 4f7f 	teq	r3, #4278190080	; 0xff000000
    3f9e:	bf04      	itt	eq
    3fa0:	f441 2100 	orreq.w	r1, r1, #524288	; 0x80000
    3fa4:	4770      	bxeq	lr
    3fa6:	b530      	push	{r4, r5, lr}
    3fa8:	f44f 7460 	mov.w	r4, #896	; 0x380
    3fac:	f001 4500 	and.w	r5, r1, #2147483648	; 0x80000000
    3fb0:	f021 4100 	bic.w	r1, r1, #2147483648	; 0x80000000
    3fb4:	e71c      	b.n	3df0 <__adddf3+0x138>
    3fb6:	bf00      	nop

00003fb8 <__aeabi_ul2d>:
    3fb8:	ea50 0201 	orrs.w	r2, r0, r1
    3fbc:	bf08      	it	eq
    3fbe:	4770      	bxeq	lr
    3fc0:	b530      	push	{r4, r5, lr}
    3fc2:	f04f 0500 	mov.w	r5, #0
    3fc6:	e00a      	b.n	3fde <__aeabi_l2d+0x16>

00003fc8 <__aeabi_l2d>:
    3fc8:	ea50 0201 	orrs.w	r2, r0, r1
    3fcc:	bf08      	it	eq
    3fce:	4770      	bxeq	lr
    3fd0:	b530      	push	{r4, r5, lr}
    3fd2:	f011 4500 	ands.w	r5, r1, #2147483648	; 0x80000000
    3fd6:	d502      	bpl.n	3fde <__aeabi_l2d+0x16>
    3fd8:	4240      	negs	r0, r0
    3fda:	eb61 0141 	sbc.w	r1, r1, r1, lsl #1
    3fde:	f44f 6480 	mov.w	r4, #1024	; 0x400
    3fe2:	f104 0432 	add.w	r4, r4, #50	; 0x32
    3fe6:	ea5f 5c91 	movs.w	ip, r1, lsr #22
    3fea:	f43f aed8 	beq.w	3d9e <__adddf3+0xe6>
    3fee:	f04f 0203 	mov.w	r2, #3
    3ff2:	ea5f 0cdc 	movs.w	ip, ip, lsr #3
    3ff6:	bf18      	it	ne
    3ff8:	3203      	addne	r2, #3
    3ffa:	ea5f 0cdc 	movs.w	ip, ip, lsr #3
    3ffe:	bf18      	it	ne
    4000:	3203      	addne	r2, #3
    4002:	eb02 02dc 	add.w	r2, r2, ip, lsr #3
    4006:	f1c2 0320 	rsb	r3, r2, #32
    400a:	fa00 fc03 	lsl.w	ip, r0, r3
    400e:	fa20 f002 	lsr.w	r0, r0, r2
    4012:	fa01 fe03 	lsl.w	lr, r1, r3
    4016:	ea40 000e 	orr.w	r0, r0, lr
    401a:	fa21 f102 	lsr.w	r1, r1, r2
    401e:	4414      	add	r4, r2
    4020:	e6bd      	b.n	3d9e <__adddf3+0xe6>
    4022:	bf00      	nop

00004024 <__aeabi_dmul>:
    4024:	b570      	push	{r4, r5, r6, lr}
    4026:	f04f 0cff 	mov.w	ip, #255	; 0xff
    402a:	f44c 6ce0 	orr.w	ip, ip, #1792	; 0x700
    402e:	ea1c 5411 	ands.w	r4, ip, r1, lsr #20
    4032:	bf1d      	ittte	ne
    4034:	ea1c 5513 	andsne.w	r5, ip, r3, lsr #20
    4038:	ea94 0f0c 	teqne	r4, ip
    403c:	ea95 0f0c 	teqne	r5, ip
    4040:	f000 f8de 	bleq	4200 <__aeabi_dmul+0x1dc>
    4044:	442c      	add	r4, r5
    4046:	ea81 0603 	eor.w	r6, r1, r3
    404a:	ea21 514c 	bic.w	r1, r1, ip, lsl #21
    404e:	ea23 534c 	bic.w	r3, r3, ip, lsl #21
    4052:	ea50 3501 	orrs.w	r5, r0, r1, lsl #12
    4056:	bf18      	it	ne
    4058:	ea52 3503 	orrsne.w	r5, r2, r3, lsl #12
    405c:	f441 1180 	orr.w	r1, r1, #1048576	; 0x100000
    4060:	f443 1380 	orr.w	r3, r3, #1048576	; 0x100000
    4064:	d038      	beq.n	40d8 <__aeabi_dmul+0xb4>
    4066:	fba0 ce02 	umull	ip, lr, r0, r2
    406a:	f04f 0500 	mov.w	r5, #0
    406e:	fbe1 e502 	umlal	lr, r5, r1, r2
    4072:	f006 4200 	and.w	r2, r6, #2147483648	; 0x80000000
    4076:	fbe0 e503 	umlal	lr, r5, r0, r3
    407a:	f04f 0600 	mov.w	r6, #0
    407e:	fbe1 5603 	umlal	r5, r6, r1, r3
    4082:	f09c 0f00 	teq	ip, #0
    4086:	bf18      	it	ne
    4088:	f04e 0e01 	orrne.w	lr, lr, #1
    408c:	f1a4 04ff 	sub.w	r4, r4, #255	; 0xff
    4090:	f5b6 7f00 	cmp.w	r6, #512	; 0x200
    4094:	f564 7440 	sbc.w	r4, r4, #768	; 0x300
    4098:	d204      	bcs.n	40a4 <__aeabi_dmul+0x80>
    409a:	ea5f 0e4e 	movs.w	lr, lr, lsl #1
    409e:	416d      	adcs	r5, r5
    40a0:	eb46 0606 	adc.w	r6, r6, r6
    40a4:	ea42 21c6 	orr.w	r1, r2, r6, lsl #11
    40a8:	ea41 5155 	orr.w	r1, r1, r5, lsr #21
    40ac:	ea4f 20c5 	mov.w	r0, r5, lsl #11
    40b0:	ea40 505e 	orr.w	r0, r0, lr, lsr #21
    40b4:	ea4f 2ece 	mov.w	lr, lr, lsl #11
    40b8:	f1b4 0cfd 	subs.w	ip, r4, #253	; 0xfd
    40bc:	bf88      	it	hi
    40be:	f5bc 6fe0 	cmphi.w	ip, #1792	; 0x700
    40c2:	d81e      	bhi.n	4102 <__aeabi_dmul+0xde>
    40c4:	f1be 4f00 	cmp.w	lr, #2147483648	; 0x80000000
    40c8:	bf08      	it	eq
    40ca:	ea5f 0e50 	movseq.w	lr, r0, lsr #1
    40ce:	f150 0000 	adcs.w	r0, r0, #0
    40d2:	eb41 5104 	adc.w	r1, r1, r4, lsl #20
    40d6:	bd70      	pop	{r4, r5, r6, pc}
    40d8:	f006 4600 	and.w	r6, r6, #2147483648	; 0x80000000
    40dc:	ea46 0101 	orr.w	r1, r6, r1
    40e0:	ea40 0002 	orr.w	r0, r0, r2
    40e4:	ea81 0103 	eor.w	r1, r1, r3
    40e8:	ebb4 045c 	subs.w	r4, r4, ip, lsr #1
    40ec:	bfc2      	ittt	gt
    40ee:	ebd4 050c 	rsbsgt	r5, r4, ip
    40f2:	ea41 5104 	orrgt.w	r1, r1, r4, lsl #20
    40f6:	bd70      	popgt	{r4, r5, r6, pc}
    40f8:	f441 1180 	orr.w	r1, r1, #1048576	; 0x100000
    40fc:	f04f 0e00 	mov.w	lr, #0
    4100:	3c01      	subs	r4, #1
    4102:	f300 80ab 	bgt.w	425c <__aeabi_dmul+0x238>
    4106:	f114 0f36 	cmn.w	r4, #54	; 0x36
    410a:	bfde      	ittt	le
    410c:	2000      	movle	r0, #0
    410e:	f001 4100 	andle.w	r1, r1, #2147483648	; 0x80000000
    4112:	bd70      	pople	{r4, r5, r6, pc}
    4114:	f1c4 0400 	rsb	r4, r4, #0
    4118:	3c20      	subs	r4, #32
    411a:	da35      	bge.n	4188 <__aeabi_dmul+0x164>
    411c:	340c      	adds	r4, #12
    411e:	dc1b      	bgt.n	4158 <__aeabi_dmul+0x134>
    4120:	f104 0414 	add.w	r4, r4, #20
    4124:	f1c4 0520 	rsb	r5, r4, #32
    4128:	fa00 f305 	lsl.w	r3, r0, r5
    412c:	fa20 f004 	lsr.w	r0, r0, r4
    4130:	fa01 f205 	lsl.w	r2, r1, r5
    4134:	ea40 0002 	orr.w	r0, r0, r2
    4138:	f001 4200 	and.w	r2, r1, #2147483648	; 0x80000000
    413c:	f021 4100 	bic.w	r1, r1, #2147483648	; 0x80000000
    4140:	eb10 70d3 	adds.w	r0, r0, r3, lsr #31
    4144:	fa21 f604 	lsr.w	r6, r1, r4
    4148:	eb42 0106 	adc.w	r1, r2, r6
    414c:	ea5e 0e43 	orrs.w	lr, lr, r3, lsl #1
    4150:	bf08      	it	eq
    4152:	ea20 70d3 	biceq.w	r0, r0, r3, lsr #31
    4156:	bd70      	pop	{r4, r5, r6, pc}
    4158:	f1c4 040c 	rsb	r4, r4, #12
    415c:	f1c4 0520 	rsb	r5, r4, #32
    4160:	fa00 f304 	lsl.w	r3, r0, r4
    4164:	fa20 f005 	lsr.w	r0, r0, r5
    4168:	fa01 f204 	lsl.w	r2, r1, r4
    416c:	ea40 0002 	orr.w	r0, r0, r2
    4170:	f001 4100 	and.w	r1, r1, #2147483648	; 0x80000000
    4174:	eb10 70d3 	adds.w	r0, r0, r3, lsr #31
    4178:	f141 0100 	adc.w	r1, r1, #0
    417c:	ea5e 0e43 	orrs.w	lr, lr, r3, lsl #1
    4180:	bf08      	it	eq
    4182:	ea20 70d3 	biceq.w	r0, r0, r3, lsr #31
    4186:	bd70      	pop	{r4, r5, r6, pc}
    4188:	f1c4 0520 	rsb	r5, r4, #32
    418c:	fa00 f205 	lsl.w	r2, r0, r5
    4190:	ea4e 0e02 	orr.w	lr, lr, r2
    4194:	fa20 f304 	lsr.w	r3, r0, r4
    4198:	fa01 f205 	lsl.w	r2, r1, r5
    419c:	ea43 0302 	orr.w	r3, r3, r2
    41a0:	fa21 f004 	lsr.w	r0, r1, r4
    41a4:	f001 4100 	and.w	r1, r1, #2147483648	; 0x80000000
    41a8:	fa21 f204 	lsr.w	r2, r1, r4
    41ac:	ea20 0002 	bic.w	r0, r0, r2
    41b0:	eb00 70d3 	add.w	r0, r0, r3, lsr #31
    41b4:	ea5e 0e43 	orrs.w	lr, lr, r3, lsl #1
    41b8:	bf08      	it	eq
    41ba:	ea20 70d3 	biceq.w	r0, r0, r3, lsr #31
    41be:	bd70      	pop	{r4, r5, r6, pc}
    41c0:	f094 0f00 	teq	r4, #0
    41c4:	d10f      	bne.n	41e6 <__aeabi_dmul+0x1c2>
    41c6:	f001 4600 	and.w	r6, r1, #2147483648	; 0x80000000
    41ca:	0040      	lsls	r0, r0, #1
    41cc:	eb41 0101 	adc.w	r1, r1, r1
    41d0:	f411 1f80 	tst.w	r1, #1048576	; 0x100000
    41d4:	bf08      	it	eq
    41d6:	3c01      	subeq	r4, #1
    41d8:	d0f7      	beq.n	41ca <__aeabi_dmul+0x1a6>
    41da:	ea41 0106 	orr.w	r1, r1, r6
    41de:	f095 0f00 	teq	r5, #0
    41e2:	bf18      	it	ne
    41e4:	4770      	bxne	lr
    41e6:	f003 4600 	and.w	r6, r3, #2147483648	; 0x80000000
    41ea:	0052      	lsls	r2, r2, #1
    41ec:	eb43 0303 	adc.w	r3, r3, r3
    41f0:	f413 1f80 	tst.w	r3, #1048576	; 0x100000
    41f4:	bf08      	it	eq
    41f6:	3d01      	subeq	r5, #1
    41f8:	d0f7      	beq.n	41ea <__aeabi_dmul+0x1c6>
    41fa:	ea43 0306 	orr.w	r3, r3, r6
    41fe:	4770      	bx	lr
    4200:	ea94 0f0c 	teq	r4, ip
    4204:	ea0c 5513 	and.w	r5, ip, r3, lsr #20
    4208:	bf18      	it	ne
    420a:	ea95 0f0c 	teqne	r5, ip
    420e:	d00c      	beq.n	422a <__aeabi_dmul+0x206>
    4210:	ea50 0641 	orrs.w	r6, r0, r1, lsl #1
    4214:	bf18      	it	ne
    4216:	ea52 0643 	orrsne.w	r6, r2, r3, lsl #1
    421a:	d1d1      	bne.n	41c0 <__aeabi_dmul+0x19c>
    421c:	ea81 0103 	eor.w	r1, r1, r3
    4220:	f001 4100 	and.w	r1, r1, #2147483648	; 0x80000000
    4224:	f04f 0000 	mov.w	r0, #0
    4228:	bd70      	pop	{r4, r5, r6, pc}
    422a:	ea50 0641 	orrs.w	r6, r0, r1, lsl #1
    422e:	bf06      	itte	eq
    4230:	4610      	moveq	r0, r2
    4232:	4619      	moveq	r1, r3
    4234:	ea52 0643 	orrsne.w	r6, r2, r3, lsl #1
    4238:	d019      	beq.n	426e <__aeabi_dmul+0x24a>
    423a:	ea94 0f0c 	teq	r4, ip
    423e:	d102      	bne.n	4246 <__aeabi_dmul+0x222>
    4240:	ea50 3601 	orrs.w	r6, r0, r1, lsl #12
    4244:	d113      	bne.n	426e <__aeabi_dmul+0x24a>
    4246:	ea95 0f0c 	teq	r5, ip
    424a:	d105      	bne.n	4258 <__aeabi_dmul+0x234>
    424c:	ea52 3603 	orrs.w	r6, r2, r3, lsl #12
    4250:	bf1c      	itt	ne
    4252:	4610      	movne	r0, r2
    4254:	4619      	movne	r1, r3
    4256:	d10a      	bne.n	426e <__aeabi_dmul+0x24a>
    4258:	ea81 0103 	eor.w	r1, r1, r3
    425c:	f001 4100 	and.w	r1, r1, #2147483648	; 0x80000000
    4260:	f041 41fe 	orr.w	r1, r1, #2130706432	; 0x7f000000
    4264:	f441 0170 	orr.w	r1, r1, #15728640	; 0xf00000
    4268:	f04f 0000 	mov.w	r0, #0
    426c:	bd70      	pop	{r4, r5, r6, pc}
    426e:	f041 41fe 	orr.w	r1, r1, #2130706432	; 0x7f000000
    4272:	f441 0178 	orr.w	r1, r1, #16252928	; 0xf80000
    4276:	bd70      	pop	{r4, r5, r6, pc}

00004278 <__aeabi_ddiv>:
    4278:	b570      	push	{r4, r5, r6, lr}
    427a:	f04f 0cff 	mov.w	ip, #255	; 0xff
    427e:	f44c 6ce0 	orr.w	ip, ip, #1792	; 0x700
    4282:	ea1c 5411 	ands.w	r4, ip, r1, lsr #20
    4286:	bf1d      	ittte	ne
    4288:	ea1c 5513 	andsne.w	r5, ip, r3, lsr #20
    428c:	ea94 0f0c 	teqne	r4, ip
    4290:	ea95 0f0c 	teqne	r5, ip
    4294:	f000 f8a7 	bleq	43e6 <__aeabi_ddiv+0x16e>
    4298:	eba4 0405 	sub.w	r4, r4, r5
    429c:	ea81 0e03 	eor.w	lr, r1, r3
    42a0:	ea52 3503 	orrs.w	r5, r2, r3, lsl #12
    42a4:	ea4f 3101 	mov.w	r1, r1, lsl #12
    42a8:	f000 8088 	beq.w	43bc <__aeabi_ddiv+0x144>
    42ac:	ea4f 3303 	mov.w	r3, r3, lsl #12
    42b0:	f04f 5580 	mov.w	r5, #268435456	; 0x10000000
    42b4:	ea45 1313 	orr.w	r3, r5, r3, lsr #4
    42b8:	ea43 6312 	orr.w	r3, r3, r2, lsr #24
    42bc:	ea4f 2202 	mov.w	r2, r2, lsl #8
    42c0:	ea45 1511 	orr.w	r5, r5, r1, lsr #4
    42c4:	ea45 6510 	orr.w	r5, r5, r0, lsr #24
    42c8:	ea4f 2600 	mov.w	r6, r0, lsl #8
    42cc:	f00e 4100 	and.w	r1, lr, #2147483648	; 0x80000000
    42d0:	429d      	cmp	r5, r3
    42d2:	bf08      	it	eq
    42d4:	4296      	cmpeq	r6, r2
    42d6:	f144 04fd 	adc.w	r4, r4, #253	; 0xfd
    42da:	f504 7440 	add.w	r4, r4, #768	; 0x300
    42de:	d202      	bcs.n	42e6 <__aeabi_ddiv+0x6e>
    42e0:	085b      	lsrs	r3, r3, #1
    42e2:	ea4f 0232 	mov.w	r2, r2, rrx
    42e6:	1ab6      	subs	r6, r6, r2
    42e8:	eb65 0503 	sbc.w	r5, r5, r3
    42ec:	085b      	lsrs	r3, r3, #1
    42ee:	ea4f 0232 	mov.w	r2, r2, rrx
    42f2:	f44f 1080 	mov.w	r0, #1048576	; 0x100000
    42f6:	f44f 2c00 	mov.w	ip, #524288	; 0x80000
    42fa:	ebb6 0e02 	subs.w	lr, r6, r2
    42fe:	eb75 0e03 	sbcs.w	lr, r5, r3
    4302:	bf22      	ittt	cs
    4304:	1ab6      	subcs	r6, r6, r2
    4306:	4675      	movcs	r5, lr
    4308:	ea40 000c 	orrcs.w	r0, r0, ip
    430c:	085b      	lsrs	r3, r3, #1
    430e:	ea4f 0232 	mov.w	r2, r2, rrx
    4312:	ebb6 0e02 	subs.w	lr, r6, r2
    4316:	eb75 0e03 	sbcs.w	lr, r5, r3
    431a:	bf22      	ittt	cs
    431c:	1ab6      	subcs	r6, r6, r2
    431e:	4675      	movcs	r5, lr
    4320:	ea40 005c 	orrcs.w	r0, r0, ip, lsr #1
    4324:	085b      	lsrs	r3, r3, #1
    4326:	ea4f 0232 	mov.w	r2, r2, rrx
    432a:	ebb6 0e02 	subs.w	lr, r6, r2
    432e:	eb75 0e03 	sbcs.w	lr, r5, r3
    4332:	bf22      	ittt	cs
    4334:	1ab6      	subcs	r6, r6, r2
    4336:	4675      	movcs	r5, lr
    4338:	ea40 009c 	orrcs.w	r0, r0, ip, lsr #2
    433c:	085b      	lsrs	r3, r3, #1
    433e:	ea4f 0232 	mov.w	r2, r2, rrx
    4342:	ebb6 0e02 	subs.w	lr, r6, r2
    4346:	eb75 0e03 	sbcs.w	lr, r5, r3
    434a:	bf22      	ittt	cs
    434c:	1ab6      	subcs	r6, r6, r2
    434e:	4675      	movcs	r5, lr
    4350:	ea40 00dc 	orrcs.w	r0, r0, ip, lsr #3
    4354:	ea55 0e06 	orrs.w	lr, r5, r6
    4358:	d018      	beq.n	438c <__aeabi_ddiv+0x114>
    435a:	ea4f 1505 	mov.w	r5, r5, lsl #4
    435e:	ea45 7516 	orr.w	r5, r5, r6, lsr #28
    4362:	ea4f 1606 	mov.w	r6, r6, lsl #4
    4366:	ea4f 03c3 	mov.w	r3, r3, lsl #3
    436a:	ea43 7352 	orr.w	r3, r3, r2, lsr #29
    436e:	ea4f 02c2 	mov.w	r2, r2, lsl #3
    4372:	ea5f 1c1c 	movs.w	ip, ip, lsr #4
    4376:	d1c0      	bne.n	42fa <__aeabi_ddiv+0x82>
    4378:	f411 1f80 	tst.w	r1, #1048576	; 0x100000
    437c:	d10b      	bne.n	4396 <__aeabi_ddiv+0x11e>
    437e:	ea41 0100 	orr.w	r1, r1, r0
    4382:	f04f 0000 	mov.w	r0, #0
    4386:	f04f 4c00 	mov.w	ip, #2147483648	; 0x80000000
    438a:	e7b6      	b.n	42fa <__aeabi_ddiv+0x82>
    438c:	f411 1f80 	tst.w	r1, #1048576	; 0x100000
    4390:	bf04      	itt	eq
    4392:	4301      	orreq	r1, r0
    4394:	2000      	moveq	r0, #0
    4396:	f1b4 0cfd 	subs.w	ip, r4, #253	; 0xfd
    439a:	bf88      	it	hi
    439c:	f5bc 6fe0 	cmphi.w	ip, #1792	; 0x700
    43a0:	f63f aeaf 	bhi.w	4102 <__aeabi_dmul+0xde>
    43a4:	ebb5 0c03 	subs.w	ip, r5, r3
    43a8:	bf04      	itt	eq
    43aa:	ebb6 0c02 	subseq.w	ip, r6, r2
    43ae:	ea5f 0c50 	movseq.w	ip, r0, lsr #1
    43b2:	f150 0000 	adcs.w	r0, r0, #0
    43b6:	eb41 5104 	adc.w	r1, r1, r4, lsl #20
    43ba:	bd70      	pop	{r4, r5, r6, pc}
    43bc:	f00e 4e00 	and.w	lr, lr, #2147483648	; 0x80000000
    43c0:	ea4e 3111 	orr.w	r1, lr, r1, lsr #12
    43c4:	eb14 045c 	adds.w	r4, r4, ip, lsr #1
    43c8:	bfc2      	ittt	gt
    43ca:	ebd4 050c 	rsbsgt	r5, r4, ip
    43ce:	ea41 5104 	orrgt.w	r1, r1, r4, lsl #20
    43d2:	bd70      	popgt	{r4, r5, r6, pc}
    43d4:	f441 1180 	orr.w	r1, r1, #1048576	; 0x100000
    43d8:	f04f 0e00 	mov.w	lr, #0
    43dc:	3c01      	subs	r4, #1
    43de:	e690      	b.n	4102 <__aeabi_dmul+0xde>
    43e0:	ea45 0e06 	orr.w	lr, r5, r6
    43e4:	e68d      	b.n	4102 <__aeabi_dmul+0xde>
    43e6:	ea0c 5513 	and.w	r5, ip, r3, lsr #20
    43ea:	ea94 0f0c 	teq	r4, ip
    43ee:	bf08      	it	eq
    43f0:	ea95 0f0c 	teqeq	r5, ip
    43f4:	f43f af3b 	beq.w	426e <__aeabi_dmul+0x24a>
    43f8:	ea94 0f0c 	teq	r4, ip
    43fc:	d10a      	bne.n	4414 <__aeabi_ddiv+0x19c>
    43fe:	ea50 3401 	orrs.w	r4, r0, r1, lsl #12
    4402:	f47f af34 	bne.w	426e <__aeabi_dmul+0x24a>
    4406:	ea95 0f0c 	teq	r5, ip
    440a:	f47f af25 	bne.w	4258 <__aeabi_dmul+0x234>
    440e:	4610      	mov	r0, r2
    4410:	4619      	mov	r1, r3
    4412:	e72c      	b.n	426e <__aeabi_dmul+0x24a>
    4414:	ea95 0f0c 	teq	r5, ip
    4418:	d106      	bne.n	4428 <__aeabi_ddiv+0x1b0>
    441a:	ea52 3503 	orrs.w	r5, r2, r3, lsl #12
    441e:	f43f aefd 	beq.w	421c <__aeabi_dmul+0x1f8>
    4422:	4610      	mov	r0, r2
    4424:	4619      	mov	r1, r3
    4426:	e722      	b.n	426e <__aeabi_dmul+0x24a>
    4428:	ea50 0641 	orrs.w	r6, r0, r1, lsl #1
    442c:	bf18      	it	ne
    442e:	ea52 0643 	orrsne.w	r6, r2, r3, lsl #1
    4432:	f47f aec5 	bne.w	41c0 <__aeabi_dmul+0x19c>
    4436:	ea50 0441 	orrs.w	r4, r0, r1, lsl #1
    443a:	f47f af0d 	bne.w	4258 <__aeabi_dmul+0x234>
    443e:	ea52 0543 	orrs.w	r5, r2, r3, lsl #1
    4442:	f47f aeeb 	bne.w	421c <__aeabi_dmul+0x1f8>
    4446:	e712      	b.n	426e <__aeabi_dmul+0x24a>

00004448 <__gedf2>:
    4448:	f04f 3cff 	mov.w	ip, #4294967295	; 0xffffffff
    444c:	e006      	b.n	445c <__cmpdf2+0x4>
    444e:	bf00      	nop

00004450 <__ledf2>:
    4450:	f04f 0c01 	mov.w	ip, #1
    4454:	e002      	b.n	445c <__cmpdf2+0x4>
    4456:	bf00      	nop

00004458 <__cmpdf2>:
    4458:	f04f 0c01 	mov.w	ip, #1
    445c:	f84d cd04 	str.w	ip, [sp, #-4]!
    4460:	ea4f 0c41 	mov.w	ip, r1, lsl #1
    4464:	ea7f 5c6c 	mvns.w	ip, ip, asr #21
    4468:	ea4f 0c43 	mov.w	ip, r3, lsl #1
    446c:	bf18      	it	ne
    446e:	ea7f 5c6c 	mvnsne.w	ip, ip, asr #21
    4472:	d01b      	beq.n	44ac <__cmpdf2+0x54>
    4474:	b001      	add	sp, #4
    4476:	ea50 0c41 	orrs.w	ip, r0, r1, lsl #1
    447a:	bf0c      	ite	eq
    447c:	ea52 0c43 	orrseq.w	ip, r2, r3, lsl #1
    4480:	ea91 0f03 	teqne	r1, r3
    4484:	bf02      	ittt	eq
    4486:	ea90 0f02 	teqeq	r0, r2
    448a:	2000      	moveq	r0, #0
    448c:	4770      	bxeq	lr
    448e:	f110 0f00 	cmn.w	r0, #0
    4492:	ea91 0f03 	teq	r1, r3
    4496:	bf58      	it	pl
    4498:	4299      	cmppl	r1, r3
    449a:	bf08      	it	eq
    449c:	4290      	cmpeq	r0, r2
    449e:	bf2c      	ite	cs
    44a0:	17d8      	asrcs	r0, r3, #31
    44a2:	ea6f 70e3 	mvncc.w	r0, r3, asr #31
    44a6:	f040 0001 	orr.w	r0, r0, #1
    44aa:	4770      	bx	lr
    44ac:	ea4f 0c41 	mov.w	ip, r1, lsl #1
    44b0:	ea7f 5c6c 	mvns.w	ip, ip, asr #21
    44b4:	d102      	bne.n	44bc <__cmpdf2+0x64>
    44b6:	ea50 3c01 	orrs.w	ip, r0, r1, lsl #12
    44ba:	d107      	bne.n	44cc <__cmpdf2+0x74>
    44bc:	ea4f 0c43 	mov.w	ip, r3, lsl #1
    44c0:	ea7f 5c6c 	mvns.w	ip, ip, asr #21
    44c4:	d1d6      	bne.n	4474 <__cmpdf2+0x1c>
    44c6:	ea52 3c03 	orrs.w	ip, r2, r3, lsl #12
    44ca:	d0d3      	beq.n	4474 <__cmpdf2+0x1c>
    44cc:	f85d 0b04 	ldr.w	r0, [sp], #4
    44d0:	4770      	bx	lr
    44d2:	bf00      	nop

000044d4 <__aeabi_cdrcmple>:
    44d4:	4684      	mov	ip, r0
    44d6:	4610      	mov	r0, r2
    44d8:	4662      	mov	r2, ip
    44da:	468c      	mov	ip, r1
    44dc:	4619      	mov	r1, r3
    44de:	4663      	mov	r3, ip
    44e0:	e000      	b.n	44e4 <__aeabi_cdcmpeq>
    44e2:	bf00      	nop

000044e4 <__aeabi_cdcmpeq>:
    44e4:	b501      	push	{r0, lr}
    44e6:	f7ff ffb7 	bl	4458 <__cmpdf2>
    44ea:	2800      	cmp	r0, #0
    44ec:	bf48      	it	mi
    44ee:	f110 0f00 	cmnmi.w	r0, #0
    44f2:	bd01      	pop	{r0, pc}

000044f4 <__aeabi_dcmpeq>:
    44f4:	f84d ed08 	str.w	lr, [sp, #-8]!
    44f8:	f7ff fff4 	bl	44e4 <__aeabi_cdcmpeq>
    44fc:	bf0c      	ite	eq
    44fe:	2001      	moveq	r0, #1
    4500:	2000      	movne	r0, #0
    4502:	f85d fb08 	ldr.w	pc, [sp], #8
    4506:	bf00      	nop

00004508 <__aeabi_dcmplt>:
    4508:	f84d ed08 	str.w	lr, [sp, #-8]!
    450c:	f7ff ffea 	bl	44e4 <__aeabi_cdcmpeq>
    4510:	bf34      	ite	cc
    4512:	2001      	movcc	r0, #1
    4514:	2000      	movcs	r0, #0
    4516:	f85d fb08 	ldr.w	pc, [sp], #8
    451a:	bf00      	nop

0000451c <__aeabi_dcmple>:
    451c:	f84d ed08 	str.w	lr, [sp, #-8]!
    4520:	f7ff ffe0 	bl	44e4 <__aeabi_cdcmpeq>
    4524:	bf94      	ite	ls
    4526:	2001      	movls	r0, #1
    4528:	2000      	movhi	r0, #0
    452a:	f85d fb08 	ldr.w	pc, [sp], #8
    452e:	bf00      	nop

00004530 <__aeabi_dcmpge>:
    4530:	f84d ed08 	str.w	lr, [sp, #-8]!
    4534:	f7ff ffce 	bl	44d4 <__aeabi_cdrcmple>
    4538:	bf94      	ite	ls
    453a:	2001      	movls	r0, #1
    453c:	2000      	movhi	r0, #0
    453e:	f85d fb08 	ldr.w	pc, [sp], #8
    4542:	bf00      	nop

00004544 <__aeabi_dcmpgt>:
    4544:	f84d ed08 	str.w	lr, [sp, #-8]!
    4548:	f7ff ffc4 	bl	44d4 <__aeabi_cdrcmple>
    454c:	bf34      	ite	cc
    454e:	2001      	movcc	r0, #1
    4550:	2000      	movcs	r0, #0
    4552:	f85d fb08 	ldr.w	pc, [sp], #8
    4556:	bf00      	nop

00004558 <__aeabi_dcmpun>:
    4558:	ea4f 0c41 	mov.w	ip, r1, lsl #1
    455c:	ea7f 5c6c 	mvns.w	ip, ip, asr #21
    4560:	d102      	bne.n	4568 <__aeabi_dcmpun+0x10>
    4562:	ea50 3c01 	orrs.w	ip, r0, r1, lsl #12
    4566:	d10a      	bne.n	457e <__aeabi_dcmpun+0x26>
    4568:	ea4f 0c43 	mov.w	ip, r3, lsl #1
    456c:	ea7f 5c6c 	mvns.w	ip, ip, asr #21
    4570:	d102      	bne.n	4578 <__aeabi_dcmpun+0x20>
    4572:	ea52 3c03 	orrs.w	ip, r2, r3, lsl #12
    4576:	d102      	bne.n	457e <__aeabi_dcmpun+0x26>
    4578:	f04f 0000 	mov.w	r0, #0
    457c:	4770      	bx	lr
    457e:	f04f 0001 	mov.w	r0, #1
    4582:	4770      	bx	lr

00004584 <__aeabi_d2f>:
    4584:	ea4f 0241 	mov.w	r2, r1, lsl #1
    4588:	f1b2 43e0 	subs.w	r3, r2, #1879048192	; 0x70000000
    458c:	bf24      	itt	cs
    458e:	f5b3 1c00 	subscs.w	ip, r3, #2097152	; 0x200000
    4592:	f1dc 5cfe 	rsbscs	ip, ip, #532676608	; 0x1fc00000
    4596:	d90d      	bls.n	45b4 <__aeabi_d2f+0x30>
    4598:	f001 4c00 	and.w	ip, r1, #2147483648	; 0x80000000
    459c:	ea4f 02c0 	mov.w	r2, r0, lsl #3
    45a0:	ea4c 7050 	orr.w	r0, ip, r0, lsr #29
    45a4:	f1b2 4f00 	cmp.w	r2, #2147483648	; 0x80000000
    45a8:	eb40 0083 	adc.w	r0, r0, r3, lsl #2
    45ac:	bf08      	it	eq
    45ae:	f020 0001 	biceq.w	r0, r0, #1
    45b2:	4770      	bx	lr
    45b4:	f011 4f80 	tst.w	r1, #1073741824	; 0x40000000
    45b8:	d121      	bne.n	45fe <__aeabi_d2f+0x7a>
    45ba:	f113 7238 	adds.w	r2, r3, #48234496	; 0x2e00000
    45be:	bfbc      	itt	lt
    45c0:	f001 4000 	andlt.w	r0, r1, #2147483648	; 0x80000000
    45c4:	4770      	bxlt	lr
    45c6:	f441 1180 	orr.w	r1, r1, #1048576	; 0x100000
    45ca:	ea4f 5252 	mov.w	r2, r2, lsr #21
    45ce:	f1c2 0218 	rsb	r2, r2, #24
    45d2:	f1c2 0c20 	rsb	ip, r2, #32
    45d6:	fa10 f30c 	lsls.w	r3, r0, ip
    45da:	fa20 f002 	lsr.w	r0, r0, r2
    45de:	bf18      	it	ne
    45e0:	f040 0001 	orrne.w	r0, r0, #1
    45e4:	ea4f 23c1 	mov.w	r3, r1, lsl #11
    45e8:	ea4f 23d3 	mov.w	r3, r3, lsr #11
    45ec:	fa03 fc0c 	lsl.w	ip, r3, ip
    45f0:	ea40 000c 	orr.w	r0, r0, ip
    45f4:	fa23 f302 	lsr.w	r3, r3, r2
    45f8:	ea4f 0343 	mov.w	r3, r3, lsl #1
    45fc:	e7cc      	b.n	4598 <__aeabi_d2f+0x14>
    45fe:	ea7f 5362 	mvns.w	r3, r2, asr #21
    4602:	d107      	bne.n	4614 <__aeabi_d2f+0x90>
    4604:	ea50 3301 	orrs.w	r3, r0, r1, lsl #12
    4608:	bf1e      	ittt	ne
    460a:	f04f 40fe 	movne.w	r0, #2130706432	; 0x7f000000
    460e:	f440 0040 	orrne.w	r0, r0, #12582912	; 0xc00000
    4612:	4770      	bxne	lr
    4614:	f001 4000 	and.w	r0, r1, #2147483648	; 0x80000000
    4618:	f040 40fe 	orr.w	r0, r0, #2130706432	; 0x7f000000
    461c:	f440 0000 	orr.w	r0, r0, #8388608	; 0x800000
    4620:	4770      	bx	lr
    4622:	bf00      	nop

00004624 <__errno>:
    4624:	4b01      	ldr	r3, [pc, #4]	; (462c <__errno+0x8>)
    4626:	6818      	ldr	r0, [r3, #0]
    4628:	4770      	bx	lr
    462a:	bf00      	nop
    462c:	20000008 	.word	0x20000008

00004630 <twiddleCoef_16>:
    4630:	3f800000 00000000 3f6c835e 3ec3ef15     ...?....^.l?...>
    4640:	3f3504f3 3f3504f3 3ec3ef15 3f6c835e     ..5?..5?...>^.l?
    4650:	00000000 3f800000 bec3ef15 3f6c835e     .......?....^.l?
    4660:	bf3504f3 3f3504f3 bf6c835e 3ec3ef15     ..5...5?^.l....>
    4670:	bf800000 00000000 bf6c835e bec3ef15     ........^.l.....
    4680:	bf3504f3 bf3504f3 bec3ef15 bf6c835e     ..5...5.....^.l.
    4690:	80000000 bf800000 3ec3ef15 bf6c835e     ...........>^.l.
    46a0:	3f3504f3 bf3504f3 3f6c835e bec3ef15     ..5?..5.^.l?....

000046b0 <twiddleCoef_32>:
    46b0:	3f800000 00000000 3f7b14be 3e47c5c2     ...?......{?..G>
    46c0:	3f6c835e 3ec3ef15 3f54db31 3f0e39da     ^.l?...>1.T?.9.?
    46d0:	3f3504f3 3f3504f3 3f0e39da 3f54db31     ..5?..5?.9.?1.T?
    46e0:	3ec3ef15 3f6c835e 3e47c5c2 3f7b14be     ...>^.l?..G>..{?
    46f0:	00000000 3f800000 be47c5c2 3f7b14be     .......?..G...{?
    4700:	bec3ef15 3f6c835e bf0e39da 3f54db31     ....^.l?.9..1.T?
    4710:	bf3504f3 3f3504f3 bf54db31 3f0e39da     ..5...5?1.T..9.?
    4720:	bf6c835e 3ec3ef15 bf7b14be 3e47c5c2     ^.l....>..{...G>
    4730:	bf800000 00000000 bf7b14be be47c5c2     ..........{...G.
    4740:	bf6c835e bec3ef15 bf54db31 bf0e39da     ^.l.....1.T..9..
    4750:	bf3504f3 bf3504f3 bf0e39da bf54db31     ..5...5..9..1.T.
    4760:	bec3ef15 bf6c835e be47c5c2 bf7b14be     ....^.l...G...{.
    4770:	80000000 bf800000 3e47c5c2 bf7b14be     ..........G>..{.
    4780:	3ec3ef15 bf6c835e 3f0e39da bf54db31     ...>^.l..9.?1.T.
    4790:	3f3504f3 bf3504f3 3f54db31 bf0e39da     ..5?..5.1.T?.9..
    47a0:	3f6c835e bec3ef15 3f7b14be be47c5c2     ^.l?......{?..G.

000047b0 <twiddleCoef_64>:
    47b0:	3f800000 00000000 3f7ec46d 3dc8bd36     ...?....m.~?6..=
    47c0:	3f7b14be 3e47c5c2 3f74fa0b 3e94a031     ..{?..G>..t?1..>
    47d0:	3f6c835e 3ec3ef15 3f61c598 3ef15aea     ^.l?...>..a?.Z.>
    47e0:	3f54db31 3f0e39da 3f45e403 3f226799     1.T?.9.?..E?.g"?
    47f0:	3f3504f3 3f3504f3 3f226799 3f45e403     ..5?..5?.g"?..E?
    4800:	3f0e39da 3f54db31 3ef15aea 3f61c598     .9.?1.T?.Z.>..a?
    4810:	3ec3ef15 3f6c835e 3e94a031 3f74fa0b     ...>^.l?1..>..t?
    4820:	3e47c5c2 3f7b14be 3dc8bd36 3f7ec46d     ..G>..{?6..=m.~?
    4830:	00000000 3f800000 bdc8bd36 3f7ec46d     .......?6...m.~?
    4840:	be47c5c2 3f7b14be be94a031 3f74fa0b     ..G...{?1.....t?
    4850:	bec3ef15 3f6c835e bef15aea 3f61c598     ....^.l?.Z....a?
    4860:	bf0e39da 3f54db31 bf226799 3f45e403     .9..1.T?.g"...E?
    4870:	bf3504f3 3f3504f3 bf45e403 3f226799     ..5...5?..E..g"?
    4880:	bf54db31 3f0e39da bf61c598 3ef15aea     1.T..9.?..a..Z.>
    4890:	bf6c835e 3ec3ef15 bf74fa0b 3e94a031     ^.l....>..t.1..>
    48a0:	bf7b14be 3e47c5c2 bf7ec46d 3dc8bd36     ..{...G>m.~.6..=
    48b0:	bf800000 00000000 bf7ec46d bdc8bd36     ........m.~.6...
    48c0:	bf7b14be be47c5c2 bf74fa0b be94a031     ..{...G...t.1...
    48d0:	bf6c835e bec3ef15 bf61c598 bef15aea     ^.l.......a..Z..
    48e0:	bf54db31 bf0e39da bf45e403 bf226799     1.T..9....E..g".
    48f0:	bf3504f3 bf3504f3 bf226799 bf45e403     ..5...5..g"...E.
    4900:	bf0e39da bf54db31 bef15aea bf61c598     .9..1.T..Z....a.
    4910:	bec3ef15 bf6c835e be94a031 bf74fa0b     ....^.l.1.....t.
    4920:	be47c5c2 bf7b14be bdc8bd36 bf7ec46d     ..G...{.6...m.~.
    4930:	80000000 bf800000 3dc8bd36 bf7ec46d     ........6..=m.~.
    4940:	3e47c5c2 bf7b14be 3e94a031 bf74fa0b     ..G>..{.1..>..t.
    4950:	3ec3ef15 bf6c835e 3ef15aea bf61c598     ...>^.l..Z.>..a.
    4960:	3f0e39da bf54db31 3f226799 bf45e403     .9.?1.T..g"?..E.
    4970:	3f3504f3 bf3504f3 3f45e403 bf226799     ..5?..5...E?.g".
    4980:	3f54db31 bf0e39da 3f61c598 bef15aea     1.T?.9....a?.Z..
    4990:	3f6c835e bec3ef15 3f74fa0b be94a031     ^.l?......t?1...
    49a0:	3f7b14be be47c5c2 3f7ec46d bdc8bd36     ..{?..G.m.~?6...

000049b0 <twiddleCoef_128>:
    49b0:	3f800000 00000000 3f7fb10f 3d48fb2f     ...?.......?/.H=
    49c0:	3f7ec46d 3dc8bd36 3f7d3aac 3e164083     m.~?6..=.:}?.@.>
    49d0:	3f7b14be 3e47c5c2 3f7853f8 3e78cfcc     ..{?..G>.Sx?..x>
    49e0:	3f74fa0b 3e94a031 3f710908 3eac7cd4     ..t?1..>..q?.|.>
    49f0:	3f6c835e 3ec3ef15 3f676bd8 3edae880     ^.l?...>.kg?...>
    4a00:	3f61c598 3ef15aea 3f5b941a 3f039c3d     ..a?.Z.>..[?=..?
    4a10:	3f54db31 3f0e39da 3f4d9f02 3f187fc0     1.T?.9.?..M?...?
    4a20:	3f45e403 3f226799 3f3daef9 3f2beb4a     ..E?.g"?..=?J.+?
    4a30:	3f3504f3 3f3504f3 3f2beb4a 3f3daef9     ..5?..5?J.+?..=?
    4a40:	3f226799 3f45e403 3f187fc0 3f4d9f02     .g"?..E?...?..M?
    4a50:	3f0e39da 3f54db31 3f039c3d 3f5b941a     .9.?1.T?=..?..[?
    4a60:	3ef15aea 3f61c598 3edae880 3f676bd8     .Z.>..a?...>.kg?
    4a70:	3ec3ef15 3f6c835e 3eac7cd4 3f710908     ...>^.l?.|.>..q?
    4a80:	3e94a031 3f74fa0b 3e78cfcc 3f7853f8     1..>..t?..x>.Sx?
    4a90:	3e47c5c2 3f7b14be 3e164083 3f7d3aac     ..G>..{?.@.>.:}?
    4aa0:	3dc8bd36 3f7ec46d 3d48fb2f 3f7fb10f     6..=m.~?/.H=...?
    4ab0:	00000000 3f800000 bd48fb2f 3f7fb10f     .......?/.H....?
    4ac0:	bdc8bd36 3f7ec46d be164083 3f7d3aac     6...m.~?.@...:}?
    4ad0:	be47c5c2 3f7b14be be78cfcc 3f7853f8     ..G...{?..x..Sx?
    4ae0:	be94a031 3f74fa0b beac7cd4 3f710908     1.....t?.|....q?
    4af0:	bec3ef15 3f6c835e bedae880 3f676bd8     ....^.l?.....kg?
    4b00:	bef15aea 3f61c598 bf039c3d 3f5b941a     .Z....a?=.....[?
    4b10:	bf0e39da 3f54db31 bf187fc0 3f4d9f02     .9..1.T?......M?
    4b20:	bf226799 3f45e403 bf2beb4a 3f3daef9     .g"...E?J.+...=?
    4b30:	bf3504f3 3f3504f3 bf3daef9 3f2beb4a     ..5...5?..=.J.+?
    4b40:	bf45e403 3f226799 bf4d9f02 3f187fc0     ..E..g"?..M....?
    4b50:	bf54db31 3f0e39da bf5b941a 3f039c3d     1.T..9.?..[.=..?
    4b60:	bf61c598 3ef15aea bf676bd8 3edae880     ..a..Z.>.kg....>
    4b70:	bf6c835e 3ec3ef15 bf710908 3eac7cd4     ^.l....>..q..|.>
    4b80:	bf74fa0b 3e94a031 bf7853f8 3e78cfcc     ..t.1..>.Sx...x>
    4b90:	bf7b14be 3e47c5c2 bf7d3aac 3e164083     ..{...G>.:}..@.>
    4ba0:	bf7ec46d 3dc8bd36 bf7fb10f 3d48fb2f     m.~.6..=..../.H=
    4bb0:	bf800000 00000000 bf7fb10f bd48fb2f     ............/.H.
    4bc0:	bf7ec46d bdc8bd36 bf7d3aac be164083     m.~.6....:}..@..
    4bd0:	bf7b14be be47c5c2 bf7853f8 be78cfcc     ..{...G..Sx...x.
    4be0:	bf74fa0b be94a031 bf710908 beac7cd4     ..t.1.....q..|..
    4bf0:	bf6c835e bec3ef15 bf676bd8 bedae880     ^.l......kg.....
    4c00:	bf61c598 bef15aea bf5b941a bf039c3d     ..a..Z....[.=...
    4c10:	bf54db31 bf0e39da bf4d9f02 bf187fc0     1.T..9....M.....
    4c20:	bf45e403 bf226799 bf3daef9 bf2beb4a     ..E..g"...=.J.+.
    4c30:	bf3504f3 bf3504f3 bf2beb4a bf3daef9     ..5...5.J.+...=.
    4c40:	bf226799 bf45e403 bf187fc0 bf4d9f02     .g"...E.......M.
    4c50:	bf0e39da bf54db31 bf039c3d bf5b941a     .9..1.T.=.....[.
    4c60:	bef15aea bf61c598 bedae880 bf676bd8     .Z....a......kg.
    4c70:	bec3ef15 bf6c835e beac7cd4 bf710908     ....^.l..|....q.
    4c80:	be94a031 bf74fa0b be78cfcc bf7853f8     1.....t...x..Sx.
    4c90:	be47c5c2 bf7b14be be164083 bf7d3aac     ..G...{..@...:}.
    4ca0:	bdc8bd36 bf7ec46d bd48fb2f bf7fb10f     6...m.~./.H.....
    4cb0:	80000000 bf800000 3d48fb2f bf7fb10f     ......../.H=....
    4cc0:	3dc8bd36 bf7ec46d 3e164083 bf7d3aac     6..=m.~..@.>.:}.
    4cd0:	3e47c5c2 bf7b14be 3e78cfcc bf7853f8     ..G>..{...x>.Sx.
    4ce0:	3e94a031 bf74fa0b 3eac7cd4 bf710908     1..>..t..|.>..q.
    4cf0:	3ec3ef15 bf6c835e 3edae880 bf676bd8     ...>^.l....>.kg.
    4d00:	3ef15aea bf61c598 3f039c3d bf5b941a     .Z.>..a.=..?..[.
    4d10:	3f0e39da bf54db31 3f187fc0 bf4d9f02     .9.?1.T....?..M.
    4d20:	3f226799 bf45e403 3f2beb4a bf3daef9     .g"?..E.J.+?..=.
    4d30:	3f3504f3 bf3504f3 3f3daef9 bf2beb4a     ..5?..5...=?J.+.
    4d40:	3f45e403 bf226799 3f4d9f02 bf187fc0     ..E?.g"...M?....
    4d50:	3f54db31 bf0e39da 3f5b941a bf039c3d     1.T?.9....[?=...
    4d60:	3f61c598 bef15aea 3f676bd8 bedae880     ..a?.Z...kg?....
    4d70:	3f6c835e bec3ef15 3f710908 beac7cd4     ^.l?......q?.|..
    4d80:	3f74fa0b be94a031 3f7853f8 be78cfcc     ..t?1....Sx?..x.
    4d90:	3f7b14be be47c5c2 3f7d3aac be164083     ..{?..G..:}?.@..
    4da0:	3f7ec46d bdc8bd36 3f7fb10f bd48fb2f     m.~?6......?/.H.

00004db0 <twiddleCoef_256>:
    4db0:	3f800000 00000000 3f7fec43 3cc90ab0     ...?....C..?...<
    4dc0:	3f7fb10f 3d48fb2f 3f7f4e6d 3d96a905     ...?/.H=mN.?...=
    4dd0:	3f7ec46d 3dc8bd36 3f7e1324 3dfab273     m.~?6..=$.~?s..=
    4de0:	3f7d3aac 3e164083 3f7c3b28 3e2f10a2     .:}?.@.>(;|?../>
    4df0:	3f7b14be 3e47c5c2 3f79c79d 3e605c13     ..{?..G>..y?.\`>
    4e00:	3f7853f8 3e78cfcc 3f76ba07 3e888e93     .Sx?..x>..v?...>
    4e10:	3f74fa0b 3e94a031 3f731447 3ea09ae5     ..t?1..>G.s?...>
    4e20:	3f710908 3eac7cd4 3f6ed89e 3eb8442a     ..q?.|.>..n?*D.>
    4e30:	3f6c835e 3ec3ef15 3f6a09a7 3ecf7bca     ^.l?...>..j?.{.>
    4e40:	3f676bd8 3edae880 3f64aa59 3ee63375     .kg?...>Y.d?u3.>
    4e50:	3f61c598 3ef15aea 3f5ebe05 3efc5d27     ..a?.Z.>..^?'].>
    4e60:	3f5b941a 3f039c3d 3f584853 3f08f59b     ..[?=..?SHX?...?
    4e70:	3f54db31 3f0e39da 3f514d3d 3f13682a     1.T?.9.?=MQ?*h.?
    4e80:	3f4d9f02 3f187fc0 3f49d112 3f1d7fd1     ..M?...?..I?...?
    4e90:	3f45e403 3f226799 3f41d870 3f273656     ..E?.g"?p.A?V6'?
    4ea0:	3f3daef9 3f2beb4a 3f396842 3f3085bb     ..=?J.+?Bh9?..0?
    4eb0:	3f3504f3 3f3504f3 3f3085bb 3f396842     ..5?..5?..0?Bh9?
    4ec0:	3f2beb4a 3f3daef9 3f273656 3f41d870     J.+?..=?V6'?p.A?
    4ed0:	3f226799 3f45e403 3f1d7fd1 3f49d112     .g"?..E?...?..I?
    4ee0:	3f187fc0 3f4d9f02 3f13682a 3f514d3d     ...?..M?*h.?=MQ?
    4ef0:	3f0e39da 3f54db31 3f08f59b 3f584853     .9.?1.T?...?SHX?
    4f00:	3f039c3d 3f5b941a 3efc5d27 3f5ebe05     =..?..[?'].>..^?
    4f10:	3ef15aea 3f61c598 3ee63375 3f64aa59     .Z.>..a?u3.>Y.d?
    4f20:	3edae880 3f676bd8 3ecf7bca 3f6a09a7     ...>.kg?.{.>..j?
    4f30:	3ec3ef15 3f6c835e 3eb8442a 3f6ed89e     ...>^.l?*D.>..n?
    4f40:	3eac7cd4 3f710908 3ea09ae5 3f731447     .|.>..q?...>G.s?
    4f50:	3e94a031 3f74fa0b 3e888e93 3f76ba07     1..>..t?...>..v?
    4f60:	3e78cfcc 3f7853f8 3e605c13 3f79c79d     ..x>.Sx?.\`>..y?
    4f70:	3e47c5c2 3f7b14be 3e2f10a2 3f7c3b28     ..G>..{?../>(;|?
    4f80:	3e164083 3f7d3aac 3dfab273 3f7e1324     .@.>.:}?s..=$.~?
    4f90:	3dc8bd36 3f7ec46d 3d96a905 3f7f4e6d     6..=m.~?...=mN.?
    4fa0:	3d48fb2f 3f7fb10f 3cc90ab0 3f7fec43     /.H=...?...<C..?
    4fb0:	00000000 3f800000 bcc90ab0 3f7fec43     .......?....C..?
    4fc0:	bd48fb2f 3f7fb10f bd96a905 3f7f4e6d     /.H....?....mN.?
    4fd0:	bdc8bd36 3f7ec46d bdfab273 3f7e1324     6...m.~?s...$.~?
    4fe0:	be164083 3f7d3aac be2f10a2 3f7c3b28     .@...:}?../.(;|?
    4ff0:	be47c5c2 3f7b14be be605c13 3f79c79d     ..G...{?.\`...y?
    5000:	be78cfcc 3f7853f8 be888e93 3f76ba07     ..x..Sx?......v?
    5010:	be94a031 3f74fa0b bea09ae5 3f731447     1.....t?....G.s?
    5020:	beac7cd4 3f710908 beb8442a 3f6ed89e     .|....q?*D....n?
    5030:	bec3ef15 3f6c835e becf7bca 3f6a09a7     ....^.l?.{....j?
    5040:	bedae880 3f676bd8 bee63375 3f64aa59     .....kg?u3..Y.d?
    5050:	bef15aea 3f61c598 befc5d27 3f5ebe05     .Z....a?']....^?
    5060:	bf039c3d 3f5b941a bf08f59b 3f584853     =.....[?....SHX?
    5070:	bf0e39da 3f54db31 bf13682a 3f514d3d     .9..1.T?*h..=MQ?
    5080:	bf187fc0 3f4d9f02 bf1d7fd1 3f49d112     ......M?......I?
    5090:	bf226799 3f45e403 bf273656 3f41d870     .g"...E?V6'.p.A?
    50a0:	bf2beb4a 3f3daef9 bf3085bb 3f396842     J.+...=?..0.Bh9?
    50b0:	bf3504f3 3f3504f3 bf396842 3f3085bb     ..5...5?Bh9...0?
    50c0:	bf3daef9 3f2beb4a bf41d870 3f273656     ..=.J.+?p.A.V6'?
    50d0:	bf45e403 3f226799 bf49d112 3f1d7fd1     ..E..g"?..I....?
    50e0:	bf4d9f02 3f187fc0 bf514d3d 3f13682a     ..M....?=MQ.*h.?
    50f0:	bf54db31 3f0e39da bf584853 3f08f59b     1.T..9.?SHX....?
    5100:	bf5b941a 3f039c3d bf5ebe05 3efc5d27     ..[.=..?..^.'].>
    5110:	bf61c598 3ef15aea bf64aa59 3ee63375     ..a..Z.>Y.d.u3.>
    5120:	bf676bd8 3edae880 bf6a09a7 3ecf7bca     .kg....>..j..{.>
    5130:	bf6c835e 3ec3ef15 bf6ed89e 3eb8442a     ^.l....>..n.*D.>
    5140:	bf710908 3eac7cd4 bf731447 3ea09ae5     ..q..|.>G.s....>
    5150:	bf74fa0b 3e94a031 bf76ba07 3e888e93     ..t.1..>..v....>
    5160:	bf7853f8 3e78cfcc bf79c79d 3e605c13     .Sx...x>..y..\`>
    5170:	bf7b14be 3e47c5c2 bf7c3b28 3e2f10a2     ..{...G>(;|.../>
    5180:	bf7d3aac 3e164083 bf7e1324 3dfab273     .:}..@.>$.~.s..=
    5190:	bf7ec46d 3dc8bd36 bf7f4e6d 3d96a905     m.~.6..=mN.....=
    51a0:	bf7fb10f 3d48fb2f bf7fec43 3cc90ab0     ..../.H=C......<
    51b0:	bf800000 00000000 bf7fec43 bcc90ab0     ........C.......
    51c0:	bf7fb10f bd48fb2f bf7f4e6d bd96a905     ..../.H.mN......
    51d0:	bf7ec46d bdc8bd36 bf7e1324 bdfab273     m.~.6...$.~.s...
    51e0:	bf7d3aac be164083 bf7c3b28 be2f10a2     .:}..@..(;|.../.
    51f0:	bf7b14be be47c5c2 bf79c79d be605c13     ..{...G...y..\`.
    5200:	bf7853f8 be78cfcc bf76ba07 be888e93     .Sx...x...v.....
    5210:	bf74fa0b be94a031 bf731447 bea09ae5     ..t.1...G.s.....
    5220:	bf710908 beac7cd4 bf6ed89e beb8442a     ..q..|....n.*D..
    5230:	bf6c835e bec3ef15 bf6a09a7 becf7bca     ^.l.......j..{..
    5240:	bf676bd8 bedae880 bf64aa59 bee63375     .kg.....Y.d.u3..
    5250:	bf61c598 bef15aea bf5ebe05 befc5d27     ..a..Z....^.']..
    5260:	bf5b941a bf039c3d bf584853 bf08f59b     ..[.=...SHX.....
    5270:	bf54db31 bf0e39da bf514d3d bf13682a     1.T..9..=MQ.*h..
    5280:	bf4d9f02 bf187fc0 bf49d112 bf1d7fd1     ..M.......I.....
    5290:	bf45e403 bf226799 bf41d870 bf273656     ..E..g".p.A.V6'.
    52a0:	bf3daef9 bf2beb4a bf396842 bf3085bb     ..=.J.+.Bh9...0.
    52b0:	bf3504f3 bf3504f3 bf3085bb bf396842     ..5...5...0.Bh9.
    52c0:	bf2beb4a bf3daef9 bf273656 bf41d870     J.+...=.V6'.p.A.
    52d0:	bf226799 bf45e403 bf1d7fd1 bf49d112     .g"...E.......I.
    52e0:	bf187fc0 bf4d9f02 bf13682a bf514d3d     ......M.*h..=MQ.
    52f0:	bf0e39da bf54db31 bf08f59b bf584853     .9..1.T.....SHX.
    5300:	bf039c3d bf5b941a befc5d27 bf5ebe05     =.....[.']....^.
    5310:	bef15aea bf61c598 bee63375 bf64aa59     .Z....a.u3..Y.d.
    5320:	bedae880 bf676bd8 becf7bca bf6a09a7     .....kg..{....j.
    5330:	bec3ef15 bf6c835e beb8442a bf6ed89e     ....^.l.*D....n.
    5340:	beac7cd4 bf710908 bea09ae5 bf731447     .|....q.....G.s.
    5350:	be94a031 bf74fa0b be888e93 bf76ba07     1.....t.......v.
    5360:	be78cfcc bf7853f8 be605c13 bf79c79d     ..x..Sx..\`...y.
    5370:	be47c5c2 bf7b14be be2f10a2 bf7c3b28     ..G...{.../.(;|.
    5380:	be164083 bf7d3aac bdfab273 bf7e1324     .@...:}.s...$.~.
    5390:	bdc8bd36 bf7ec46d bd96a905 bf7f4e6d     6...m.~.....mN..
    53a0:	bd48fb2f bf7fb10f bcc90ab0 bf7fec43     /.H.........C...
    53b0:	80000000 bf800000 3cc90ab0 bf7fec43     ...........<C...
    53c0:	3d48fb2f bf7fb10f 3d96a905 bf7f4e6d     /.H=.......=mN..
    53d0:	3dc8bd36 bf7ec46d 3dfab273 bf7e1324     6..=m.~.s..=$.~.
    53e0:	3e164083 bf7d3aac 3e2f10a2 bf7c3b28     .@.>.:}.../>(;|.
    53f0:	3e47c5c2 bf7b14be 3e605c13 bf79c79d     ..G>..{..\`>..y.
    5400:	3e78cfcc bf7853f8 3e888e93 bf76ba07     ..x>.Sx....>..v.
    5410:	3e94a031 bf74fa0b 3ea09ae5 bf731447     1..>..t....>G.s.
    5420:	3eac7cd4 bf710908 3eb8442a bf6ed89e     .|.>..q.*D.>..n.
    5430:	3ec3ef15 bf6c835e 3ecf7bca bf6a09a7     ...>^.l..{.>..j.
    5440:	3edae880 bf676bd8 3ee63375 bf64aa59     ...>.kg.u3.>Y.d.
    5450:	3ef15aea bf61c598 3efc5d27 bf5ebe05     .Z.>..a.'].>..^.
    5460:	3f039c3d bf5b941a 3f08f59b bf584853     =..?..[....?SHX.
    5470:	3f0e39da bf54db31 3f13682a bf514d3d     .9.?1.T.*h.?=MQ.
    5480:	3f187fc0 bf4d9f02 3f1d7fd1 bf49d112     ...?..M....?..I.
    5490:	3f226799 bf45e403 3f273656 bf41d870     .g"?..E.V6'?p.A.
    54a0:	3f2beb4a bf3daef9 3f3085bb bf396842     J.+?..=...0?Bh9.
    54b0:	3f3504f3 bf3504f3 3f396842 bf3085bb     ..5?..5.Bh9?..0.
    54c0:	3f3daef9 bf2beb4a 3f41d870 bf273656     ..=?J.+.p.A?V6'.
    54d0:	3f45e403 bf226799 3f49d112 bf1d7fd1     ..E?.g"...I?....
    54e0:	3f4d9f02 bf187fc0 3f514d3d bf13682a     ..M?....=MQ?*h..
    54f0:	3f54db31 bf0e39da 3f584853 bf08f59b     1.T?.9..SHX?....
    5500:	3f5b941a bf039c3d 3f5ebe05 befc5d27     ..[?=.....^?']..
    5510:	3f61c598 bef15aea 3f64aa59 bee63375     ..a?.Z..Y.d?u3..
    5520:	3f676bd8 bedae880 3f6a09a7 becf7bca     .kg?......j?.{..
    5530:	3f6c835e bec3ef15 3f6ed89e beb8442a     ^.l?......n?*D..
    5540:	3f710908 beac7cd4 3f731447 bea09ae5     ..q?.|..G.s?....
    5550:	3f74fa0b be94a031 3f76ba07 be888e93     ..t?1.....v?....
    5560:	3f7853f8 be78cfcc 3f79c79d be605c13     .Sx?..x...y?.\`.
    5570:	3f7b14be be47c5c2 3f7c3b28 be2f10a2     ..{?..G.(;|?../.
    5580:	3f7d3aac be164083 3f7e1324 bdfab273     .:}?.@..$.~?s...
    5590:	3f7ec46d bdc8bd36 3f7f4e6d bd96a905     m.~?6...mN.?....
    55a0:	3f7fb10f bd48fb2f 3f7fec43 bcc90ab0     ...?/.H.C..?....

000055b0 <twiddleCoef_512>:
    55b0:	3f800000 00000000 3f7ffb11 3c490e90     ...?.......?..I<
    55c0:	3f7fec43 3cc90ab0 3f7fd398 3d16c32c     C..?...<...?,..=
    55d0:	3f7fb10f 3d48fb2f 3f7f84ab 3d7b2b74     ...?/.H=...?t+{=
    55e0:	3f7f4e6d 3d96a905 3f7f0e58 3dafb680     mN.?...=X..?...=
    55f0:	3f7ec46d 3dc8bd36 3f7e70b0 3de1bc2e     m.~?6..=.p~?...=
    5600:	3f7e1324 3dfab273 3f7dabcc 3e09cf86     $.~?s..=..}?...>
    5610:	3f7d3aac 3e164083 3f7cbfc9 3e22abb6     .:}?.@.>..|?..">
    5620:	3f7c3b28 3e2f10a2 3f7baccd 3e3b6ecf     (;|?../>..{?.n;>
    5630:	3f7b14be 3e47c5c2 3f7a7302 3e541501     ..{?..G>.sz?..T>
    5640:	3f79c79d 3e605c13 3f791298 3e6c9a7f     ..y?.\`>..y?..l>
    5650:	3f7853f8 3e78cfcc 3f778bc5 3e827dc0     .Sx?..x>..w?.}.>
    5660:	3f76ba07 3e888e93 3f75dec6 3e8e9a22     ..v?...>..u?"..>
    5670:	3f74fa0b 3e94a031 3f740bdd 3e9aa086     ..t?1..>..t?...>
    5680:	3f731447 3ea09ae5 3f721352 3ea68f12     G.s?...>R.r?...>
    5690:	3f710908 3eac7cd4 3f6ff573 3eb263ef     ..q?.|.>s.o?.c.>
    56a0:	3f6ed89e 3eb8442a 3f6db293 3ebe1d4a     ..n?*D.>..m?J..>
    56b0:	3f6c835e 3ec3ef15 3f6b4b0c 3ec9b953     ^.l?...>.Kk?S..>
    56c0:	3f6a09a7 3ecf7bca 3f68bf3c 3ed53641     ..j?.{.><.h?A6.>
    56d0:	3f676bd8 3edae880 3f660f88 3ee0924f     .kg?...>..f?O..>
    56e0:	3f64aa59 3ee63375 3f633c5a 3eebcbbb     Y.d?u3.>Z<c?...>
    56f0:	3f61c598 3ef15aea 3f604621 3ef6e0cb     ..a?.Z.>!F`?...>
    5700:	3f5ebe05 3efc5d27 3f5d2d53 3f00e7e4     ..^?'].>S-]?...?
    5710:	3f5b941a 3f039c3d 3f59f26a 3f064b82     ..[?=..?j.Y?.K.?
    5720:	3f584853 3f08f59b 3f5695e5 3f0b9a6b     SHX?...?..V?k..?
    5730:	3f54db31 3f0e39da 3f531849 3f10d3cd     1.T?.9.?I.S?...?
    5740:	3f514d3d 3f13682a 3f4f7a1f 3f15f6d9     =MQ?*h.?.zO?...?
    5750:	3f4d9f02 3f187fc0 3f4bbbf8 3f1b02c6     ..M?...?..K?...?
    5760:	3f49d112 3f1d7fd1 3f47de65 3f1ff6cb     ..I?...?e.G?...?
    5770:	3f45e403 3f226799 3f43e200 3f24d225     ..E?.g"?..C?%.$?
    5780:	3f41d870 3f273656 3f3fc767 3f299415     p.A?V6'?g.??..)?
    5790:	3f3daef9 3f2beb4a 3f3b8f3b 3f2e3bde     ..=?J.+?;.;?.;.?
    57a0:	3f396842 3f3085bb 3f373a23 3f32c8c9     Bh9?..0?#:7?..2?
    57b0:	3f3504f3 3f3504f3 3f32c8c9 3f373a23     ..5?..5?..2?#:7?
    57c0:	3f3085bb 3f396842 3f2e3bde 3f3b8f3b     ..0?Bh9?.;.?;.;?
    57d0:	3f2beb4a 3f3daef9 3f299415 3f3fc767     J.+?..=?..)?g.??
    57e0:	3f273656 3f41d870 3f24d225 3f43e200     V6'?p.A?%.$?..C?
    57f0:	3f226799 3f45e403 3f1ff6cb 3f47de65     .g"?..E?...?e.G?
    5800:	3f1d7fd1 3f49d112 3f1b02c6 3f4bbbf8     ...?..I?...?..K?
    5810:	3f187fc0 3f4d9f02 3f15f6d9 3f4f7a1f     ...?..M?...?.zO?
    5820:	3f13682a 3f514d3d 3f10d3cd 3f531849     *h.?=MQ?...?I.S?
    5830:	3f0e39da 3f54db31 3f0b9a6b 3f5695e5     .9.?1.T?k..?..V?
    5840:	3f08f59b 3f584853 3f064b82 3f59f26a     ...?SHX?.K.?j.Y?
    5850:	3f039c3d 3f5b941a 3f00e7e4 3f5d2d53     =..?..[?...?S-]?
    5860:	3efc5d27 3f5ebe05 3ef6e0cb 3f604621     '].>..^?...>!F`?
    5870:	3ef15aea 3f61c598 3eebcbbb 3f633c5a     .Z.>..a?...>Z<c?
    5880:	3ee63375 3f64aa59 3ee0924f 3f660f88     u3.>Y.d?O..>..f?
    5890:	3edae880 3f676bd8 3ed53641 3f68bf3c     ...>.kg?A6.><.h?
    58a0:	3ecf7bca 3f6a09a7 3ec9b953 3f6b4b0c     .{.>..j?S..>.Kk?
    58b0:	3ec3ef15 3f6c835e 3ebe1d4a 3f6db293     ...>^.l?J..>..m?
    58c0:	3eb8442a 3f6ed89e 3eb263ef 3f6ff573     *D.>..n?.c.>s.o?
    58d0:	3eac7cd4 3f710908 3ea68f12 3f721352     .|.>..q?...>R.r?
    58e0:	3ea09ae5 3f731447 3e9aa086 3f740bdd     ...>G.s?...>..t?
    58f0:	3e94a031 3f74fa0b 3e8e9a22 3f75dec6     1..>..t?"..>..u?
    5900:	3e888e93 3f76ba07 3e827dc0 3f778bc5     ...>..v?.}.>..w?
    5910:	3e78cfcc 3f7853f8 3e6c9a7f 3f791298     ..x>.Sx?..l>..y?
    5920:	3e605c13 3f79c79d 3e541501 3f7a7302     .\`>..y?..T>.sz?
    5930:	3e47c5c2 3f7b14be 3e3b6ecf 3f7baccd     ..G>..{?.n;>..{?
    5940:	3e2f10a2 3f7c3b28 3e22abb6 3f7cbfc9     ../>(;|?..">..|?
    5950:	3e164083 3f7d3aac 3e09cf86 3f7dabcc     .@.>.:}?...>..}?
    5960:	3dfab273 3f7e1324 3de1bc2e 3f7e70b0     s..=$.~?...=.p~?
    5970:	3dc8bd36 3f7ec46d 3dafb680 3f7f0e58     6..=m.~?...=X..?
    5980:	3d96a905 3f7f4e6d 3d7b2b74 3f7f84ab     ...=mN.?t+{=...?
    5990:	3d48fb2f 3f7fb10f 3d16c32c 3f7fd398     /.H=...?,..=...?
    59a0:	3cc90ab0 3f7fec43 3c490e90 3f7ffb11     ...<C..?..I<...?
    59b0:	00000000 3f800000 bc490e90 3f7ffb11     .......?..I....?
    59c0:	bcc90ab0 3f7fec43 bd16c32c 3f7fd398     ....C..?,......?
    59d0:	bd48fb2f 3f7fb10f bd7b2b74 3f7f84ab     /.H....?t+{....?
    59e0:	bd96a905 3f7f4e6d bdafb680 3f7f0e58     ....mN.?....X..?
    59f0:	bdc8bd36 3f7ec46d bde1bc2e 3f7e70b0     6...m.~?.....p~?
    5a00:	bdfab273 3f7e1324 be09cf86 3f7dabcc     s...$.~?......}?
    5a10:	be164083 3f7d3aac be22abb6 3f7cbfc9     .@...:}?.."...|?
    5a20:	be2f10a2 3f7c3b28 be3b6ecf 3f7baccd     ../.(;|?.n;...{?
    5a30:	be47c5c2 3f7b14be be541501 3f7a7302     ..G...{?..T..sz?
    5a40:	be605c13 3f79c79d be6c9a7f 3f791298     .\`...y?..l...y?
    5a50:	be78cfcc 3f7853f8 be827dc0 3f778bc5     ..x..Sx?.}....w?
    5a60:	be888e93 3f76ba07 be8e9a22 3f75dec6     ......v?".....u?
    5a70:	be94a031 3f74fa0b be9aa086 3f740bdd     1.....t?......t?
    5a80:	bea09ae5 3f731447 bea68f12 3f721352     ....G.s?....R.r?
    5a90:	beac7cd4 3f710908 beb263ef 3f6ff573     .|....q?.c..s.o?
    5aa0:	beb8442a 3f6ed89e bebe1d4a 3f6db293     *D....n?J.....m?
    5ab0:	bec3ef15 3f6c835e bec9b953 3f6b4b0c     ....^.l?S....Kk?
    5ac0:	becf7bca 3f6a09a7 bed53641 3f68bf3c     .{....j?A6..<.h?
    5ad0:	bedae880 3f676bd8 bee0924f 3f660f88     .....kg?O.....f?
    5ae0:	bee63375 3f64aa59 beebcbbb 3f633c5a     u3..Y.d?....Z<c?
    5af0:	bef15aea 3f61c598 bef6e0cb 3f604621     .Z....a?....!F`?
    5b00:	befc5d27 3f5ebe05 bf00e7e4 3f5d2d53     ']....^?....S-]?
    5b10:	bf039c3d 3f5b941a bf064b82 3f59f26a     =.....[?.K..j.Y?
    5b20:	bf08f59b 3f584853 bf0b9a6b 3f5695e5     ....SHX?k.....V?
    5b30:	bf0e39da 3f54db31 bf10d3cd 3f531849     .9..1.T?....I.S?
    5b40:	bf13682a 3f514d3d bf15f6d9 3f4f7a1f     *h..=MQ?.....zO?
    5b50:	bf187fc0 3f4d9f02 bf1b02c6 3f4bbbf8     ......M?......K?
    5b60:	bf1d7fd1 3f49d112 bf1ff6cb 3f47de65     ......I?....e.G?
    5b70:	bf226799 3f45e403 bf24d225 3f43e200     .g"...E?%.$...C?
    5b80:	bf273656 3f41d870 bf299415 3f3fc767     V6'.p.A?..).g.??
    5b90:	bf2beb4a 3f3daef9 bf2e3bde 3f3b8f3b     J.+...=?.;..;.;?
    5ba0:	bf3085bb 3f396842 bf32c8c9 3f373a23     ..0.Bh9?..2.#:7?
    5bb0:	bf3504f3 3f3504f3 bf373a23 3f32c8c9     ..5...5?#:7...2?
    5bc0:	bf396842 3f3085bb bf3b8f3b 3f2e3bde     Bh9...0?;.;..;.?
    5bd0:	bf3daef9 3f2beb4a bf3fc767 3f299415     ..=.J.+?g.?...)?
    5be0:	bf41d870 3f273656 bf43e200 3f24d225     p.A.V6'?..C.%.$?
    5bf0:	bf45e403 3f226799 bf47de65 3f1ff6cb     ..E..g"?e.G....?
    5c00:	bf49d112 3f1d7fd1 bf4bbbf8 3f1b02c6     ..I....?..K....?
    5c10:	bf4d9f02 3f187fc0 bf4f7a1f 3f15f6d9     ..M....?.zO....?
    5c20:	bf514d3d 3f13682a bf531849 3f10d3cd     =MQ.*h.?I.S....?
    5c30:	bf54db31 3f0e39da bf5695e5 3f0b9a6b     1.T..9.?..V.k..?
    5c40:	bf584853 3f08f59b bf59f26a 3f064b82     SHX....?j.Y..K.?
    5c50:	bf5b941a 3f039c3d bf5d2d53 3f00e7e4     ..[.=..?S-]....?
    5c60:	bf5ebe05 3efc5d27 bf604621 3ef6e0cb     ..^.'].>!F`....>
    5c70:	bf61c598 3ef15aea bf633c5a 3eebcbbb     ..a..Z.>Z<c....>
    5c80:	bf64aa59 3ee63375 bf660f88 3ee0924f     Y.d.u3.>..f.O..>
    5c90:	bf676bd8 3edae880 bf68bf3c 3ed53641     .kg....><.h.A6.>
    5ca0:	bf6a09a7 3ecf7bca bf6b4b0c 3ec9b953     ..j..{.>.Kk.S..>
    5cb0:	bf6c835e 3ec3ef15 bf6db293 3ebe1d4a     ^.l....>..m.J..>
    5cc0:	bf6ed89e 3eb8442a bf6ff573 3eb263ef     ..n.*D.>s.o..c.>
    5cd0:	bf710908 3eac7cd4 bf721352 3ea68f12     ..q..|.>R.r....>
    5ce0:	bf731447 3ea09ae5 bf740bdd 3e9aa086     G.s....>..t....>
    5cf0:	bf74fa0b 3e94a031 bf75dec6 3e8e9a22     ..t.1..>..u."..>
    5d00:	bf76ba07 3e888e93 bf778bc5 3e827dc0     ..v....>..w..}.>
    5d10:	bf7853f8 3e78cfcc bf791298 3e6c9a7f     .Sx...x>..y...l>
    5d20:	bf79c79d 3e605c13 bf7a7302 3e541501     ..y..\`>.sz...T>
    5d30:	bf7b14be 3e47c5c2 bf7baccd 3e3b6ecf     ..{...G>..{..n;>
    5d40:	bf7c3b28 3e2f10a2 bf7cbfc9 3e22abb6     (;|.../>..|...">
    5d50:	bf7d3aac 3e164083 bf7dabcc 3e09cf86     .:}..@.>..}....>
    5d60:	bf7e1324 3dfab273 bf7e70b0 3de1bc2e     $.~.s..=.p~....=
    5d70:	bf7ec46d 3dc8bd36 bf7f0e58 3dafb680     m.~.6..=X......=
    5d80:	bf7f4e6d 3d96a905 bf7f84ab 3d7b2b74     mN.....=....t+{=
    5d90:	bf7fb10f 3d48fb2f bf7fd398 3d16c32c     ..../.H=....,..=
    5da0:	bf7fec43 3cc90ab0 bf7ffb11 3c490e90     C......<......I<
    5db0:	bf800000 00000000 bf7ffb11 bc490e90     ..............I.
    5dc0:	bf7fec43 bcc90ab0 bf7fd398 bd16c32c     C...........,...
    5dd0:	bf7fb10f bd48fb2f bf7f84ab bd7b2b74     ..../.H.....t+{.
    5de0:	bf7f4e6d bd96a905 bf7f0e58 bdafb680     mN......X.......
    5df0:	bf7ec46d bdc8bd36 bf7e70b0 bde1bc2e     m.~.6....p~.....
    5e00:	bf7e1324 bdfab273 bf7dabcc be09cf86     $.~.s.....}.....
    5e10:	bf7d3aac be164083 bf7cbfc9 be22abb6     .:}..@....|...".
    5e20:	bf7c3b28 be2f10a2 bf7baccd be3b6ecf     (;|.../...{..n;.
    5e30:	bf7b14be be47c5c2 bf7a7302 be541501     ..{...G..sz...T.
    5e40:	bf79c79d be605c13 bf791298 be6c9a7f     ..y..\`...y...l.
    5e50:	bf7853f8 be78cfcc bf778bc5 be827dc0     .Sx...x...w..}..
    5e60:	bf76ba07 be888e93 bf75dec6 be8e9a22     ..v.......u."...
    5e70:	bf74fa0b be94a031 bf740bdd be9aa086     ..t.1.....t.....
    5e80:	bf731447 bea09ae5 bf721352 bea68f12     G.s.....R.r.....
    5e90:	bf710908 beac7cd4 bf6ff573 beb263ef     ..q..|..s.o..c..
    5ea0:	bf6ed89e beb8442a bf6db293 bebe1d4a     ..n.*D....m.J...
    5eb0:	bf6c835e bec3ef15 bf6b4b0c bec9b953     ^.l......Kk.S...
    5ec0:	bf6a09a7 becf7bca bf68bf3c bed53641     ..j..{..<.h.A6..
    5ed0:	bf676bd8 bedae880 bf660f88 bee0924f     .kg.......f.O...
    5ee0:	bf64aa59 bee63375 bf633c5a beebcbbb     Y.d.u3..Z<c.....
    5ef0:	bf61c598 bef15aea bf604621 bef6e0cb     ..a..Z..!F`.....
    5f00:	bf5ebe05 befc5d27 bf5d2d53 bf00e7e4     ..^.']..S-].....
    5f10:	bf5b941a bf039c3d bf59f26a bf064b82     ..[.=...j.Y..K..
    5f20:	bf584853 bf08f59b bf5695e5 bf0b9a6b     SHX.......V.k...
    5f30:	bf54db31 bf0e39da bf531849 bf10d3cd     1.T..9..I.S.....
    5f40:	bf514d3d bf13682a bf4f7a1f bf15f6d9     =MQ.*h...zO.....
    5f50:	bf4d9f02 bf187fc0 bf4bbbf8 bf1b02c6     ..M.......K.....
    5f60:	bf49d112 bf1d7fd1 bf47de65 bf1ff6cb     ..I.....e.G.....
    5f70:	bf45e403 bf226799 bf43e200 bf24d225     ..E..g"...C.%.$.
    5f80:	bf41d870 bf273656 bf3fc767 bf299415     p.A.V6'.g.?...).
    5f90:	bf3daef9 bf2beb4a bf3b8f3b bf2e3bde     ..=.J.+.;.;..;..
    5fa0:	bf396842 bf3085bb bf373a23 bf32c8c9     Bh9...0.#:7...2.
    5fb0:	bf3504f3 bf3504f3 bf32c8c9 bf373a23     ..5...5...2.#:7.
    5fc0:	bf3085bb bf396842 bf2e3bde bf3b8f3b     ..0.Bh9..;..;.;.
    5fd0:	bf2beb4a bf3daef9 bf299415 bf3fc767     J.+...=...).g.?.
    5fe0:	bf273656 bf41d870 bf24d225 bf43e200     V6'.p.A.%.$...C.
    5ff0:	bf226799 bf45e403 bf1ff6cb bf47de65     .g"...E.....e.G.
    6000:	bf1d7fd1 bf49d112 bf1b02c6 bf4bbbf8     ......I.......K.
    6010:	bf187fc0 bf4d9f02 bf15f6d9 bf4f7a1f     ......M......zO.
    6020:	bf13682a bf514d3d bf10d3cd bf531849     *h..=MQ.....I.S.
    6030:	bf0e39da bf54db31 bf0b9a6b bf5695e5     .9..1.T.k.....V.
    6040:	bf08f59b bf584853 bf064b82 bf59f26a     ....SHX..K..j.Y.
    6050:	bf039c3d bf5b941a bf00e7e4 bf5d2d53     =.....[.....S-].
    6060:	befc5d27 bf5ebe05 bef6e0cb bf604621     ']....^.....!F`.
    6070:	bef15aea bf61c598 beebcbbb bf633c5a     .Z....a.....Z<c.
    6080:	bee63375 bf64aa59 bee0924f bf660f88     u3..Y.d.O.....f.
    6090:	bedae880 bf676bd8 bed53641 bf68bf3c     .....kg.A6..<.h.
    60a0:	becf7bca bf6a09a7 bec9b953 bf6b4b0c     .{....j.S....Kk.
    60b0:	bec3ef15 bf6c835e bebe1d4a bf6db293     ....^.l.J.....m.
    60c0:	beb8442a bf6ed89e beb263ef bf6ff573     *D....n..c..s.o.
    60d0:	beac7cd4 bf710908 bea68f12 bf721352     .|....q.....R.r.
    60e0:	bea09ae5 bf731447 be9aa086 bf740bdd     ....G.s.......t.
    60f0:	be94a031 bf74fa0b be8e9a22 bf75dec6     1.....t.".....u.
    6100:	be888e93 bf76ba07 be827dc0 bf778bc5     ......v..}....w.
    6110:	be78cfcc bf7853f8 be6c9a7f bf791298     ..x..Sx...l...y.
    6120:	be605c13 bf79c79d be541501 bf7a7302     .\`...y...T..sz.
    6130:	be47c5c2 bf7b14be be3b6ecf bf7baccd     ..G...{..n;...{.
    6140:	be2f10a2 bf7c3b28 be22abb6 bf7cbfc9     ../.(;|..."...|.
    6150:	be164083 bf7d3aac be09cf86 bf7dabcc     .@...:}.......}.
    6160:	bdfab273 bf7e1324 bde1bc2e bf7e70b0     s...$.~......p~.
    6170:	bdc8bd36 bf7ec46d bdafb680 bf7f0e58     6...m.~.....X...
    6180:	bd96a905 bf7f4e6d bd7b2b74 bf7f84ab     ....mN..t+{.....
    6190:	bd48fb2f bf7fb10f bd16c32c bf7fd398     /.H.....,.......
    61a0:	bcc90ab0 bf7fec43 bc490e90 bf7ffb11     ....C.....I.....
    61b0:	80000000 bf800000 3c490e90 bf7ffb11     ..........I<....
    61c0:	3cc90ab0 bf7fec43 3d16c32c bf7fd398     ...<C...,..=....
    61d0:	3d48fb2f bf7fb10f 3d7b2b74 bf7f84ab     /.H=....t+{=....
    61e0:	3d96a905 bf7f4e6d 3dafb680 bf7f0e58     ...=mN.....=X...
    61f0:	3dc8bd36 bf7ec46d 3de1bc2e bf7e70b0     6..=m.~....=.p~.
    6200:	3dfab273 bf7e1324 3e09cf86 bf7dabcc     s..=$.~....>..}.
    6210:	3e164083 bf7d3aac 3e22abb6 bf7cbfc9     .@.>.:}...">..|.
    6220:	3e2f10a2 bf7c3b28 3e3b6ecf bf7baccd     ../>(;|..n;>..{.
    6230:	3e47c5c2 bf7b14be 3e541501 bf7a7302     ..G>..{...T>.sz.
    6240:	3e605c13 bf79c79d 3e6c9a7f bf791298     .\`>..y...l>..y.
    6250:	3e78cfcc bf7853f8 3e827dc0 bf778bc5     ..x>.Sx..}.>..w.
    6260:	3e888e93 bf76ba07 3e8e9a22 bf75dec6     ...>..v."..>..u.
    6270:	3e94a031 bf74fa0b 3e9aa086 bf740bdd     1..>..t....>..t.
    6280:	3ea09ae5 bf731447 3ea68f12 bf721352     ...>G.s....>R.r.
    6290:	3eac7cd4 bf710908 3eb263ef bf6ff573     .|.>..q..c.>s.o.
    62a0:	3eb8442a bf6ed89e 3ebe1d4a bf6db293     *D.>..n.J..>..m.
    62b0:	3ec3ef15 bf6c835e 3ec9b953 bf6b4b0c     ...>^.l.S..>.Kk.
    62c0:	3ecf7bca bf6a09a7 3ed53641 bf68bf3c     .{.>..j.A6.><.h.
    62d0:	3edae880 bf676bd8 3ee0924f bf660f88     ...>.kg.O..>..f.
    62e0:	3ee63375 bf64aa59 3eebcbbb bf633c5a     u3.>Y.d....>Z<c.
    62f0:	3ef15aea bf61c598 3ef6e0cb bf604621     .Z.>..a....>!F`.
    6300:	3efc5d27 bf5ebe05 3f00e7e4 bf5d2d53     '].>..^....?S-].
    6310:	3f039c3d bf5b941a 3f064b82 bf59f26a     =..?..[..K.?j.Y.
    6320:	3f08f59b bf584853 3f0b9a6b bf5695e5     ...?SHX.k..?..V.
    6330:	3f0e39da bf54db31 3f10d3cd bf531849     .9.?1.T....?I.S.
    6340:	3f13682a bf514d3d 3f15f6d9 bf4f7a1f     *h.?=MQ....?.zO.
    6350:	3f187fc0 bf4d9f02 3f1b02c6 bf4bbbf8     ...?..M....?..K.
    6360:	3f1d7fd1 bf49d112 3f1ff6cb bf47de65     ...?..I....?e.G.
    6370:	3f226799 bf45e403 3f24d225 bf43e200     .g"?..E.%.$?..C.
    6380:	3f273656 bf41d870 3f299415 bf3fc767     V6'?p.A...)?g.?.
    6390:	3f2beb4a bf3daef9 3f2e3bde bf3b8f3b     J.+?..=..;.?;.;.
    63a0:	3f3085bb bf396842 3f32c8c9 bf373a23     ..0?Bh9...2?#:7.
    63b0:	3f3504f3 bf3504f3 3f373a23 bf32c8c9     ..5?..5.#:7?..2.
    63c0:	3f396842 bf3085bb 3f3b8f3b bf2e3bde     Bh9?..0.;.;?.;..
    63d0:	3f3daef9 bf2beb4a 3f3fc767 bf299415     ..=?J.+.g.??..).
    63e0:	3f41d870 bf273656 3f43e200 bf24d225     p.A?V6'...C?%.$.
    63f0:	3f45e403 bf226799 3f47de65 bf1ff6cb     ..E?.g".e.G?....
    6400:	3f49d112 bf1d7fd1 3f4bbbf8 bf1b02c6     ..I?......K?....
    6410:	3f4d9f02 bf187fc0 3f4f7a1f bf15f6d9     ..M?.....zO?....
    6420:	3f514d3d bf13682a 3f531849 bf10d3cd     =MQ?*h..I.S?....
    6430:	3f54db31 bf0e39da 3f5695e5 bf0b9a6b     1.T?.9....V?k...
    6440:	3f584853 bf08f59b 3f59f26a bf064b82     SHX?....j.Y?.K..
    6450:	3f5b941a bf039c3d 3f5d2d53 bf00e7e4     ..[?=...S-]?....
    6460:	3f5ebe05 befc5d27 3f604621 bef6e0cb     ..^?']..!F`?....
    6470:	3f61c598 bef15aea 3f633c5a beebcbbb     ..a?.Z..Z<c?....
    6480:	3f64aa59 bee63375 3f660f88 bee0924f     Y.d?u3....f?O...
    6490:	3f676bd8 bedae880 3f68bf3c bed53641     .kg?....<.h?A6..
    64a0:	3f6a09a7 becf7bca 3f6b4b0c bec9b953     ..j?.{...Kk?S...
    64b0:	3f6c835e bec3ef15 3f6db293 bebe1d4a     ^.l?......m?J...
    64c0:	3f6ed89e beb8442a 3f6ff573 beb263ef     ..n?*D..s.o?.c..
    64d0:	3f710908 beac7cd4 3f721352 bea68f12     ..q?.|..R.r?....
    64e0:	3f731447 bea09ae5 3f740bdd be9aa086     G.s?......t?....
    64f0:	3f74fa0b be94a031 3f75dec6 be8e9a22     ..t?1.....u?"...
    6500:	3f76ba07 be888e93 3f778bc5 be827dc0     ..v?......w?.}..
    6510:	3f7853f8 be78cfcc 3f791298 be6c9a7f     .Sx?..x...y?..l.
    6520:	3f79c79d be605c13 3f7a7302 be541501     ..y?.\`..sz?..T.
    6530:	3f7b14be be47c5c2 3f7baccd be3b6ecf     ..{?..G...{?.n;.
    6540:	3f7c3b28 be2f10a2 3f7cbfc9 be22abb6     (;|?../...|?..".
    6550:	3f7d3aac be164083 3f7dabcc be09cf86     .:}?.@....}?....
    6560:	3f7e1324 bdfab273 3f7e70b0 bde1bc2e     $.~?s....p~?....
    6570:	3f7ec46d bdc8bd36 3f7f0e58 bdafb680     m.~?6...X..?....
    6580:	3f7f4e6d bd96a905 3f7f84ab bd7b2b74     mN.?.......?t+{.
    6590:	3f7fb10f bd48fb2f 3f7fd398 bd16c32c     ...?/.H....?,...
    65a0:	3f7fec43 bcc90ab0 3f7ffb11 bc490e90     C..?.......?..I.

000065b0 <twiddleCoef_1024>:
    65b0:	3f800000 00000000 3f7ffec4 3bc90f89     ...?.......?...;
    65c0:	3f7ffb11 3c490e90 3f7ff4e6 3c96c9b6     ...?..I<...?...<
    65d0:	3f7fec43 3cc90ab0 3f7fe129 3cfb49b9     C..?...<)..?.I.<
    65e0:	3f7fd398 3d16c32c 3f7fc38f 3d2fe007     ...?,..=...?../=
    65f0:	3f7fb10f 3d48fb2f 3f7f9c18 3d621468     ...?/.H=...?h.b=
    6600:	3f7f84ab 3d7b2b74 3f7f6ac7 3d8a200a     ...?t+{=.j.?. .=
    6610:	3f7f4e6d 3d96a905 3f7f2f9d 3da3308c     mN.?...=./.?.0.=
    6620:	3f7f0e58 3dafb680 3f7eea9d 3dbc3ac3     X..?...=..~?.:.=
    6630:	3f7ec46d 3dc8bd36 3f7e9bc9 3dd53db9     m.~?6..=..~?.=.=
    6640:	3f7e70b0 3de1bc2e 3f7e4323 3dee3876     .p~?...=#C~?v8.=
    6650:	3f7e1324 3dfab273 3f7de0b1 3e039502     $.~?s..=..}?...>
    6660:	3f7dabcc 3e09cf86 3f7d7474 3e1008b7     ..}?...>tt}?...>
    6670:	3f7d3aac 3e164083 3f7cfe73 3e1c76de     .:}?.@.>s.|?.v.>
    6680:	3f7cbfc9 3e22abb6 3f7c7eb0 3e28defc     ..|?..">.~|?..(>
    6690:	3f7c3b28 3e2f10a2 3f7bf531 3e354098     (;|?../>1.{?.@5>
    66a0:	3f7baccd 3e3b6ecf 3f7b61fc 3e419b37     ..{?.n;>.a{?7.A>
    66b0:	3f7b14be 3e47c5c2 3f7ac516 3e4dee60     ..{?..G>..z?`.M>
    66c0:	3f7a7302 3e541501 3f7a1e84 3e5a3997     .sz?..T>..z?.9Z>
    66d0:	3f79c79d 3e605c13 3f796e4e 3e667c66     ..y?.\`>Nny?f|f>
    66e0:	3f791298 3e6c9a7f 3f78b47b 3e72b651     ..y?..l>{.x?Q.r>
    66f0:	3f7853f8 3e78cfcc 3f77f110 3e7ee6e1     .Sx?..x>..w?..~>
    6700:	3f778bc5 3e827dc0 3f772417 3e8586ce     ..w?.}.>.$w?...>
    6710:	3f76ba07 3e888e93 3f764d97 3e8b9507     ..v?...>.Mv?...>
    6720:	3f75dec6 3e8e9a22 3f756d97 3e919ddd     ..u?"..>.mu?...>
    6730:	3f74fa0b 3e94a031 3f748422 3e97a117     ..t?1..>".t?...>
    6740:	3f740bdd 3e9aa086 3f73913f 3e9d9e78     ..t?...>?.s?x..>
    6750:	3f731447 3ea09ae5 3f7294f8 3ea395c5     G.s?...>..r?...>
    6760:	3f721352 3ea68f12 3f718f57 3ea986c4     R.r?...>W.q?...>
    6770:	3f710908 3eac7cd4 3f708066 3eaf713a     ..q?.|.>f.p?:q.>
    6780:	3f6ff573 3eb263ef 3f6f6830 3eb554ec     s.o?.c.>0ho?.T.>
    6790:	3f6ed89e 3eb8442a 3f6e46be 3ebb31a0     ..n?*D.>.Fn?.1.>
    67a0:	3f6db293 3ebe1d4a 3f6d1c1d 3ec1071e     ..m?J..>..m?...>
    67b0:	3f6c835e 3ec3ef15 3f6be858 3ec6d529     ^.l?...>X.k?)..>
    67c0:	3f6b4b0c 3ec9b953 3f6aab7b 3ecc9b8b     .Kk?S..>{.j?...>
    67d0:	3f6a09a7 3ecf7bca 3f696591 3ed25a09     ..j?.{.>.ei?.Z.>
    67e0:	3f68bf3c 3ed53641 3f6816a8 3ed8106b     <.h?A6.>..h?k..>
    67f0:	3f676bd8 3edae880 3f66becc 3eddbe79     .kg?...>..f?y..>
    6800:	3f660f88 3ee0924f 3f655e0b 3ee363fa     ..f?O..>.^e?.c.>
    6810:	3f64aa59 3ee63375 3f63f473 3ee900b7     Y.d?u3.>s.c?...>
    6820:	3f633c5a 3eebcbbb 3f628210 3eee9479     Z<c?...>..b?y..>
    6830:	3f61c598 3ef15aea 3f6106f2 3ef41f07     ..a?.Z.>..a?...>
    6840:	3f604621 3ef6e0cb 3f5f8327 3ef9a02d     !F`?...>'._?-..>
    6850:	3f5ebe05 3efc5d27 3f5df6be 3eff17b2     ..^?'].>..]?...>
    6860:	3f5d2d53 3f00e7e4 3f5c61c7 3f0242b1     S-]?...?.a\?.B.?
    6870:	3f5b941a 3f039c3d 3f5ac450 3f04f484     ..[?=..?P.Z?...?
    6880:	3f59f26a 3f064b82 3f591e6a 3f07a136     j.Y?.K.?j.Y?6..?
    6890:	3f584853 3f08f59b 3f577026 3f0a48ad     SHX?...?&pW?.H.?
    68a0:	3f5695e5 3f0b9a6b 3f55b993 3f0cead0     ..V?k..?..U?...?
    68b0:	3f54db31 3f0e39da 3f53fac3 3f0f8784     1.T?.9.?..S?...?
    68c0:	3f531849 3f10d3cd 3f5233c6 3f121eb0     I.S?...?.3R?...?
    68d0:	3f514d3d 3f13682a 3f5064af 3f14b039     =MQ?*h.?.dP?9..?
    68e0:	3f4f7a1f 3f15f6d9 3f4e8d90 3f173c07     .zO?...?..N?.<.?
    68f0:	3f4d9f02 3f187fc0 3f4cae79 3f19c200     ..M?...?y.L?...?
    6900:	3f4bbbf8 3f1b02c6 3f4ac77f 3f1c420c     ..K?...?..J?.B.?
    6910:	3f49d112 3f1d7fd1 3f48d8b3 3f1ebc12     ..I?...?..H?...?
    6920:	3f47de65 3f1ff6cb 3f46e22a 3f212ff9     e.G?...?*.F?./!?
    6930:	3f45e403 3f226799 3f44e3f5 3f239da9     ..E?.g"?..D?..#?
    6940:	3f43e200 3f24d225 3f42de29 3f26050a     ..C?%.$?).B?..&?
    6950:	3f41d870 3f273656 3f40d0da 3f286605     p.A?V6'?..@?.f(?
    6960:	3f3fc767 3f299415 3f3ebc1b 3f2ac082     g.??..)?..>?..*?
    6970:	3f3daef9 3f2beb4a 3f3ca003 3f2d1469     ..=?J.+?..<?i.-?
    6980:	3f3b8f3b 3f2e3bde 3f3a7ca4 3f2f61a5     ;.;?.;.?.|:?.a/?
    6990:	3f396842 3f3085bb 3f385216 3f31a81d     Bh9?..0?.R8?..1?
    69a0:	3f373a23 3f32c8c9 3f36206c 3f33e7bc     #:7?..2?l 6?..3?
    69b0:	3f3504f3 3f3504f3 3f33e7bc 3f36206c     ..5?..5?..3?l 6?
    69c0:	3f32c8c9 3f373a23 3f31a81d 3f385216     ..2?#:7?..1?.R8?
    69d0:	3f3085bb 3f396842 3f2f61a5 3f3a7ca4     ..0?Bh9?.a/?.|:?
    69e0:	3f2e3bde 3f3b8f3b 3f2d1469 3f3ca003     .;.?;.;?i.-?..<?
    69f0:	3f2beb4a 3f3daef9 3f2ac082 3f3ebc1b     J.+?..=?..*?..>?
    6a00:	3f299415 3f3fc767 3f286605 3f40d0da     ..)?g.??.f(?..@?
    6a10:	3f273656 3f41d870 3f26050a 3f42de29     V6'?p.A?..&?).B?
    6a20:	3f24d225 3f43e200 3f239da9 3f44e3f5     %.$?..C?..#?..D?
    6a30:	3f226799 3f45e403 3f212ff9 3f46e22a     .g"?..E?./!?*.F?
    6a40:	3f1ff6cb 3f47de65 3f1ebc12 3f48d8b3     ...?e.G?...?..H?
    6a50:	3f1d7fd1 3f49d112 3f1c420c 3f4ac77f     ...?..I?.B.?..J?
    6a60:	3f1b02c6 3f4bbbf8 3f19c200 3f4cae79     ...?..K?...?y.L?
    6a70:	3f187fc0 3f4d9f02 3f173c07 3f4e8d90     ...?..M?.<.?..N?
    6a80:	3f15f6d9 3f4f7a1f 3f14b039 3f5064af     ...?.zO?9..?.dP?
    6a90:	3f13682a 3f514d3d 3f121eb0 3f5233c6     *h.?=MQ?...?.3R?
    6aa0:	3f10d3cd 3f531849 3f0f8784 3f53fac3     ...?I.S?...?..S?
    6ab0:	3f0e39da 3f54db31 3f0cead0 3f55b993     .9.?1.T?...?..U?
    6ac0:	3f0b9a6b 3f5695e5 3f0a48ad 3f577026     k..?..V?.H.?&pW?
    6ad0:	3f08f59b 3f584853 3f07a136 3f591e6a     ...?SHX?6..?j.Y?
    6ae0:	3f064b82 3f59f26a 3f04f484 3f5ac450     .K.?j.Y?...?P.Z?
    6af0:	3f039c3d 3f5b941a 3f0242b1 3f5c61c7     =..?..[?.B.?.a\?
    6b00:	3f00e7e4 3f5d2d53 3eff17b2 3f5df6be     ...?S-]?...>..]?
    6b10:	3efc5d27 3f5ebe05 3ef9a02d 3f5f8327     '].>..^?-..>'._?
    6b20:	3ef6e0cb 3f604621 3ef41f07 3f6106f2     ...>!F`?...>..a?
    6b30:	3ef15aea 3f61c598 3eee9479 3f628210     .Z.>..a?y..>..b?
    6b40:	3eebcbbb 3f633c5a 3ee900b7 3f63f473     ...>Z<c?...>s.c?
    6b50:	3ee63375 3f64aa59 3ee363fa 3f655e0b     u3.>Y.d?.c.>.^e?
    6b60:	3ee0924f 3f660f88 3eddbe79 3f66becc     O..>..f?y..>..f?
    6b70:	3edae880 3f676bd8 3ed8106b 3f6816a8     ...>.kg?k..>..h?
    6b80:	3ed53641 3f68bf3c 3ed25a09 3f696591     A6.><.h?.Z.>.ei?
    6b90:	3ecf7bca 3f6a09a7 3ecc9b8b 3f6aab7b     .{.>..j?...>{.j?
    6ba0:	3ec9b953 3f6b4b0c 3ec6d529 3f6be858     S..>.Kk?)..>X.k?
    6bb0:	3ec3ef15 3f6c835e 3ec1071e 3f6d1c1d     ...>^.l?...>..m?
    6bc0:	3ebe1d4a 3f6db293 3ebb31a0 3f6e46be     J..>..m?.1.>.Fn?
    6bd0:	3eb8442a 3f6ed89e 3eb554ec 3f6f6830     *D.>..n?.T.>0ho?
    6be0:	3eb263ef 3f6ff573 3eaf713a 3f708066     .c.>s.o?:q.>f.p?
    6bf0:	3eac7cd4 3f710908 3ea986c4 3f718f57     .|.>..q?...>W.q?
    6c00:	3ea68f12 3f721352 3ea395c5 3f7294f8     ...>R.r?...>..r?
    6c10:	3ea09ae5 3f731447 3e9d9e78 3f73913f     ...>G.s?x..>?.s?
    6c20:	3e9aa086 3f740bdd 3e97a117 3f748422     ...>..t?...>".t?
    6c30:	3e94a031 3f74fa0b 3e919ddd 3f756d97     1..>..t?...>.mu?
    6c40:	3e8e9a22 3f75dec6 3e8b9507 3f764d97     "..>..u?...>.Mv?
    6c50:	3e888e93 3f76ba07 3e8586ce 3f772417     ...>..v?...>.$w?
    6c60:	3e827dc0 3f778bc5 3e7ee6e1 3f77f110     .}.>..w?..~>..w?
    6c70:	3e78cfcc 3f7853f8 3e72b651 3f78b47b     ..x>.Sx?Q.r>{.x?
    6c80:	3e6c9a7f 3f791298 3e667c66 3f796e4e     ..l>..y?f|f>Nny?
    6c90:	3e605c13 3f79c79d 3e5a3997 3f7a1e84     .\`>..y?.9Z>..z?
    6ca0:	3e541501 3f7a7302 3e4dee60 3f7ac516     ..T>.sz?`.M>..z?
    6cb0:	3e47c5c2 3f7b14be 3e419b37 3f7b61fc     ..G>..{?7.A>.a{?
    6cc0:	3e3b6ecf 3f7baccd 3e354098 3f7bf531     .n;>..{?.@5>1.{?
    6cd0:	3e2f10a2 3f7c3b28 3e28defc 3f7c7eb0     ../>(;|?..(>.~|?
    6ce0:	3e22abb6 3f7cbfc9 3e1c76de 3f7cfe73     ..">..|?.v.>s.|?
    6cf0:	3e164083 3f7d3aac 3e1008b7 3f7d7474     .@.>.:}?...>tt}?
    6d00:	3e09cf86 3f7dabcc 3e039502 3f7de0b1     ...>..}?...>..}?
    6d10:	3dfab273 3f7e1324 3dee3876 3f7e4323     s..=$.~?v8.=#C~?
    6d20:	3de1bc2e 3f7e70b0 3dd53db9 3f7e9bc9     ...=.p~?.=.=..~?
    6d30:	3dc8bd36 3f7ec46d 3dbc3ac3 3f7eea9d     6..=m.~?.:.=..~?
    6d40:	3dafb680 3f7f0e58 3da3308c 3f7f2f9d     ...=X..?.0.=./.?
    6d50:	3d96a905 3f7f4e6d 3d8a200a 3f7f6ac7     ...=mN.?. .=.j.?
    6d60:	3d7b2b74 3f7f84ab 3d621468 3f7f9c18     t+{=...?h.b=...?
    6d70:	3d48fb2f 3f7fb10f 3d2fe007 3f7fc38f     /.H=...?../=...?
    6d80:	3d16c32c 3f7fd398 3cfb49b9 3f7fe129     ,..=...?.I.<)..?
    6d90:	3cc90ab0 3f7fec43 3c96c9b6 3f7ff4e6     ...<C..?...<...?
    6da0:	3c490e90 3f7ffb11 3bc90f89 3f7ffec4     ..I<...?...;...?
    6db0:	00000000 3f800000 bbc90f89 3f7ffec4     .......?.......?
    6dc0:	bc490e90 3f7ffb11 bc96c9b6 3f7ff4e6     ..I....?.......?
    6dd0:	bcc90ab0 3f7fec43 bcfb49b9 3f7fe129     ....C..?.I..)..?
    6de0:	bd16c32c 3f7fd398 bd2fe007 3f7fc38f     ,......?../....?
    6df0:	bd48fb2f 3f7fb10f bd621468 3f7f9c18     /.H....?h.b....?
    6e00:	bd7b2b74 3f7f84ab bd8a200a 3f7f6ac7     t+{....?. ...j.?
    6e10:	bd96a905 3f7f4e6d bda3308c 3f7f2f9d     ....mN.?.0.../.?
    6e20:	bdafb680 3f7f0e58 bdbc3ac3 3f7eea9d     ....X..?.:....~?
    6e30:	bdc8bd36 3f7ec46d bdd53db9 3f7e9bc9     6...m.~?.=....~?
    6e40:	bde1bc2e 3f7e70b0 bdee3876 3f7e4323     .....p~?v8..#C~?
    6e50:	bdfab273 3f7e1324 be039502 3f7de0b1     s...$.~?......}?
    6e60:	be09cf86 3f7dabcc be1008b7 3f7d7474     ......}?....tt}?
    6e70:	be164083 3f7d3aac be1c76de 3f7cfe73     .@...:}?.v..s.|?
    6e80:	be22abb6 3f7cbfc9 be28defc 3f7c7eb0     .."...|?..(..~|?
    6e90:	be2f10a2 3f7c3b28 be354098 3f7bf531     ../.(;|?.@5.1.{?
    6ea0:	be3b6ecf 3f7baccd be419b37 3f7b61fc     .n;...{?7.A..a{?
    6eb0:	be47c5c2 3f7b14be be4dee60 3f7ac516     ..G...{?`.M...z?
    6ec0:	be541501 3f7a7302 be5a3997 3f7a1e84     ..T..sz?.9Z...z?
    6ed0:	be605c13 3f79c79d be667c66 3f796e4e     .\`...y?f|f.Nny?
    6ee0:	be6c9a7f 3f791298 be72b651 3f78b47b     ..l...y?Q.r.{.x?
    6ef0:	be78cfcc 3f7853f8 be7ee6e1 3f77f110     ..x..Sx?..~...w?
    6f00:	be827dc0 3f778bc5 be8586ce 3f772417     .}....w?.....$w?
    6f10:	be888e93 3f76ba07 be8b9507 3f764d97     ......v?.....Mv?
    6f20:	be8e9a22 3f75dec6 be919ddd 3f756d97     ".....u?.....mu?
    6f30:	be94a031 3f74fa0b be97a117 3f748422     1.....t?....".t?
    6f40:	be9aa086 3f740bdd be9d9e78 3f73913f     ......t?x...?.s?
    6f50:	bea09ae5 3f731447 bea395c5 3f7294f8     ....G.s?......r?
    6f60:	bea68f12 3f721352 bea986c4 3f718f57     ....R.r?....W.q?
    6f70:	beac7cd4 3f710908 beaf713a 3f708066     .|....q?:q..f.p?
    6f80:	beb263ef 3f6ff573 beb554ec 3f6f6830     .c..s.o?.T..0ho?
    6f90:	beb8442a 3f6ed89e bebb31a0 3f6e46be     *D....n?.1...Fn?
    6fa0:	bebe1d4a 3f6db293 bec1071e 3f6d1c1d     J.....m?......m?
    6fb0:	bec3ef15 3f6c835e bec6d529 3f6be858     ....^.l?)...X.k?
    6fc0:	bec9b953 3f6b4b0c becc9b8b 3f6aab7b     S....Kk?....{.j?
    6fd0:	becf7bca 3f6a09a7 bed25a09 3f696591     .{....j?.Z...ei?
    6fe0:	bed53641 3f68bf3c bed8106b 3f6816a8     A6..<.h?k.....h?
    6ff0:	bedae880 3f676bd8 beddbe79 3f66becc     .....kg?y.....f?
    7000:	bee0924f 3f660f88 bee363fa 3f655e0b     O.....f?.c...^e?
    7010:	bee63375 3f64aa59 bee900b7 3f63f473     u3..Y.d?....s.c?
    7020:	beebcbbb 3f633c5a beee9479 3f628210     ....Z<c?y.....b?
    7030:	bef15aea 3f61c598 bef41f07 3f6106f2     .Z....a?......a?
    7040:	bef6e0cb 3f604621 bef9a02d 3f5f8327     ....!F`?-...'._?
    7050:	befc5d27 3f5ebe05 beff17b2 3f5df6be     ']....^?......]?
    7060:	bf00e7e4 3f5d2d53 bf0242b1 3f5c61c7     ....S-]?.B...a\?
    7070:	bf039c3d 3f5b941a bf04f484 3f5ac450     =.....[?....P.Z?
    7080:	bf064b82 3f59f26a bf07a136 3f591e6a     .K..j.Y?6...j.Y?
    7090:	bf08f59b 3f584853 bf0a48ad 3f577026     ....SHX?.H..&pW?
    70a0:	bf0b9a6b 3f5695e5 bf0cead0 3f55b993     k.....V?......U?
    70b0:	bf0e39da 3f54db31 bf0f8784 3f53fac3     .9..1.T?......S?
    70c0:	bf10d3cd 3f531849 bf121eb0 3f5233c6     ....I.S?.....3R?
    70d0:	bf13682a 3f514d3d bf14b039 3f5064af     *h..=MQ?9....dP?
    70e0:	bf15f6d9 3f4f7a1f bf173c07 3f4e8d90     .....zO?.<....N?
    70f0:	bf187fc0 3f4d9f02 bf19c200 3f4cae79     ......M?....y.L?
    7100:	bf1b02c6 3f4bbbf8 bf1c420c 3f4ac77f     ......K?.B....J?
    7110:	bf1d7fd1 3f49d112 bf1ebc12 3f48d8b3     ......I?......H?
    7120:	bf1ff6cb 3f47de65 bf212ff9 3f46e22a     ....e.G?./!.*.F?
    7130:	bf226799 3f45e403 bf239da9 3f44e3f5     .g"...E?..#...D?
    7140:	bf24d225 3f43e200 bf26050a 3f42de29     %.$...C?..&.).B?
    7150:	bf273656 3f41d870 bf286605 3f40d0da     V6'.p.A?.f(...@?
    7160:	bf299415 3f3fc767 bf2ac082 3f3ebc1b     ..).g.??..*...>?
    7170:	bf2beb4a 3f3daef9 bf2d1469 3f3ca003     J.+...=?i.-...<?
    7180:	bf2e3bde 3f3b8f3b bf2f61a5 3f3a7ca4     .;..;.;?.a/..|:?
    7190:	bf3085bb 3f396842 bf31a81d 3f385216     ..0.Bh9?..1..R8?
    71a0:	bf32c8c9 3f373a23 bf33e7bc 3f36206c     ..2.#:7?..3.l 6?
    71b0:	bf3504f3 3f3504f3 bf36206c 3f33e7bc     ..5...5?l 6...3?
    71c0:	bf373a23 3f32c8c9 bf385216 3f31a81d     #:7...2?.R8...1?
    71d0:	bf396842 3f3085bb bf3a7ca4 3f2f61a5     Bh9...0?.|:..a/?
    71e0:	bf3b8f3b 3f2e3bde bf3ca003 3f2d1469     ;.;..;.?..<.i.-?
    71f0:	bf3daef9 3f2beb4a bf3ebc1b 3f2ac082     ..=.J.+?..>...*?
    7200:	bf3fc767 3f299415 bf40d0da 3f286605     g.?...)?..@..f(?
    7210:	bf41d870 3f273656 bf42de29 3f26050a     p.A.V6'?).B...&?
    7220:	bf43e200 3f24d225 bf44e3f5 3f239da9     ..C.%.$?..D...#?
    7230:	bf45e403 3f226799 bf46e22a 3f212ff9     ..E..g"?*.F../!?
    7240:	bf47de65 3f1ff6cb bf48d8b3 3f1ebc12     e.G....?..H....?
    7250:	bf49d112 3f1d7fd1 bf4ac77f 3f1c420c     ..I....?..J..B.?
    7260:	bf4bbbf8 3f1b02c6 bf4cae79 3f19c200     ..K....?y.L....?
    7270:	bf4d9f02 3f187fc0 bf4e8d90 3f173c07     ..M....?..N..<.?
    7280:	bf4f7a1f 3f15f6d9 bf5064af 3f14b039     .zO....?.dP.9..?
    7290:	bf514d3d 3f13682a bf5233c6 3f121eb0     =MQ.*h.?.3R....?
    72a0:	bf531849 3f10d3cd bf53fac3 3f0f8784     I.S....?..S....?
    72b0:	bf54db31 3f0e39da bf55b993 3f0cead0     1.T..9.?..U....?
    72c0:	bf5695e5 3f0b9a6b bf577026 3f0a48ad     ..V.k..?&pW..H.?
    72d0:	bf584853 3f08f59b bf591e6a 3f07a136     SHX....?j.Y.6..?
    72e0:	bf59f26a 3f064b82 bf5ac450 3f04f484     j.Y..K.?P.Z....?
    72f0:	bf5b941a 3f039c3d bf5c61c7 3f0242b1     ..[.=..?.a\..B.?
    7300:	bf5d2d53 3f00e7e4 bf5df6be 3eff17b2     S-]....?..]....>
    7310:	bf5ebe05 3efc5d27 bf5f8327 3ef9a02d     ..^.'].>'._.-..>
    7320:	bf604621 3ef6e0cb bf6106f2 3ef41f07     !F`....>..a....>
    7330:	bf61c598 3ef15aea bf628210 3eee9479     ..a..Z.>..b.y..>
    7340:	bf633c5a 3eebcbbb bf63f473 3ee900b7     Z<c....>s.c....>
    7350:	bf64aa59 3ee63375 bf655e0b 3ee363fa     Y.d.u3.>.^e..c.>
    7360:	bf660f88 3ee0924f bf66becc 3eddbe79     ..f.O..>..f.y..>
    7370:	bf676bd8 3edae880 bf6816a8 3ed8106b     .kg....>..h.k..>
    7380:	bf68bf3c 3ed53641 bf696591 3ed25a09     <.h.A6.>.ei..Z.>
    7390:	bf6a09a7 3ecf7bca bf6aab7b 3ecc9b8b     ..j..{.>{.j....>
    73a0:	bf6b4b0c 3ec9b953 bf6be858 3ec6d529     .Kk.S..>X.k.)..>
    73b0:	bf6c835e 3ec3ef15 bf6d1c1d 3ec1071e     ^.l....>..m....>
    73c0:	bf6db293 3ebe1d4a bf6e46be 3ebb31a0     ..m.J..>.Fn..1.>
    73d0:	bf6ed89e 3eb8442a bf6f6830 3eb554ec     ..n.*D.>0ho..T.>
    73e0:	bf6ff573 3eb263ef bf708066 3eaf713a     s.o..c.>f.p.:q.>
    73f0:	bf710908 3eac7cd4 bf718f57 3ea986c4     ..q..|.>W.q....>
    7400:	bf721352 3ea68f12 bf7294f8 3ea395c5     R.r....>..r....>
    7410:	bf731447 3ea09ae5 bf73913f 3e9d9e78     G.s....>?.s.x..>
    7420:	bf740bdd 3e9aa086 bf748422 3e97a117     ..t....>".t....>
    7430:	bf74fa0b 3e94a031 bf756d97 3e919ddd     ..t.1..>.mu....>
    7440:	bf75dec6 3e8e9a22 bf764d97 3e8b9507     ..u."..>.Mv....>
    7450:	bf76ba07 3e888e93 bf772417 3e8586ce     ..v....>.$w....>
    7460:	bf778bc5 3e827dc0 bf77f110 3e7ee6e1     ..w..}.>..w...~>
    7470:	bf7853f8 3e78cfcc bf78b47b 3e72b651     .Sx...x>{.x.Q.r>
    7480:	bf791298 3e6c9a7f bf796e4e 3e667c66     ..y...l>Nny.f|f>
    7490:	bf79c79d 3e605c13 bf7a1e84 3e5a3997     ..y..\`>..z..9Z>
    74a0:	bf7a7302 3e541501 bf7ac516 3e4dee60     .sz...T>..z.`.M>
    74b0:	bf7b14be 3e47c5c2 bf7b61fc 3e419b37     ..{...G>.a{.7.A>
    74c0:	bf7baccd 3e3b6ecf bf7bf531 3e354098     ..{..n;>1.{..@5>
    74d0:	bf7c3b28 3e2f10a2 bf7c7eb0 3e28defc     (;|.../>.~|...(>
    74e0:	bf7cbfc9 3e22abb6 bf7cfe73 3e1c76de     ..|...">s.|..v.>
    74f0:	bf7d3aac 3e164083 bf7d7474 3e1008b7     .:}..@.>tt}....>
    7500:	bf7dabcc 3e09cf86 bf7de0b1 3e039502     ..}....>..}....>
    7510:	bf7e1324 3dfab273 bf7e4323 3dee3876     $.~.s..=#C~.v8.=
    7520:	bf7e70b0 3de1bc2e bf7e9bc9 3dd53db9     .p~....=..~..=.=
    7530:	bf7ec46d 3dc8bd36 bf7eea9d 3dbc3ac3     m.~.6..=..~..:.=
    7540:	bf7f0e58 3dafb680 bf7f2f9d 3da3308c     X......=./...0.=
    7550:	bf7f4e6d 3d96a905 bf7f6ac7 3d8a200a     mN.....=.j... .=
    7560:	bf7f84ab 3d7b2b74 bf7f9c18 3d621468     ....t+{=....h.b=
    7570:	bf7fb10f 3d48fb2f bf7fc38f 3d2fe007     ..../.H=....../=
    7580:	bf7fd398 3d16c32c bf7fe129 3cfb49b9     ....,..=)....I.<
    7590:	bf7fec43 3cc90ab0 bf7ff4e6 3c96c9b6     C......<.......<
    75a0:	bf7ffb11 3c490e90 bf7ffec4 3bc90f89     ......I<.......;
    75b0:	bf800000 00000000 bf7ffec4 bbc90f89     ................
    75c0:	bf7ffb11 bc490e90 bf7ff4e6 bc96c9b6     ......I.........
    75d0:	bf7fec43 bcc90ab0 bf7fe129 bcfb49b9     C.......)....I..
    75e0:	bf7fd398 bd16c32c bf7fc38f bd2fe007     ....,........./.
    75f0:	bf7fb10f bd48fb2f bf7f9c18 bd621468     ..../.H.....h.b.
    7600:	bf7f84ab bd7b2b74 bf7f6ac7 bd8a200a     ....t+{..j... ..
    7610:	bf7f4e6d bd96a905 bf7f2f9d bda3308c     mN......./...0..
    7620:	bf7f0e58 bdafb680 bf7eea9d bdbc3ac3     X.........~..:..
    7630:	bf7ec46d bdc8bd36 bf7e9bc9 bdd53db9     m.~.6.....~..=..
    7640:	bf7e70b0 bde1bc2e bf7e4323 bdee3876     .p~.....#C~.v8..
    7650:	bf7e1324 bdfab273 bf7de0b1 be039502     $.~.s.....}.....
    7660:	bf7dabcc be09cf86 bf7d7474 be1008b7     ..}.....tt}.....
    7670:	bf7d3aac be164083 bf7cfe73 be1c76de     .:}..@..s.|..v..
    7680:	bf7cbfc9 be22abb6 bf7c7eb0 be28defc     ..|..."..~|...(.
    7690:	bf7c3b28 be2f10a2 bf7bf531 be354098     (;|.../.1.{..@5.
    76a0:	bf7baccd be3b6ecf bf7b61fc be419b37     ..{..n;..a{.7.A.
    76b0:	bf7b14be be47c5c2 bf7ac516 be4dee60     ..{...G...z.`.M.
    76c0:	bf7a7302 be541501 bf7a1e84 be5a3997     .sz...T...z..9Z.
    76d0:	bf79c79d be605c13 bf796e4e be667c66     ..y..\`.Nny.f|f.
    76e0:	bf791298 be6c9a7f bf78b47b be72b651     ..y...l.{.x.Q.r.
    76f0:	bf7853f8 be78cfcc bf77f110 be7ee6e1     .Sx...x...w...~.
    7700:	bf778bc5 be827dc0 bf772417 be8586ce     ..w..}...$w.....
    7710:	bf76ba07 be888e93 bf764d97 be8b9507     ..v......Mv.....
    7720:	bf75dec6 be8e9a22 bf756d97 be919ddd     ..u."....mu.....
    7730:	bf74fa0b be94a031 bf748422 be97a117     ..t.1...".t.....
    7740:	bf740bdd be9aa086 bf73913f be9d9e78     ..t.....?.s.x...
    7750:	bf731447 bea09ae5 bf7294f8 bea395c5     G.s.......r.....
    7760:	bf721352 bea68f12 bf718f57 bea986c4     R.r.....W.q.....
    7770:	bf710908 beac7cd4 bf708066 beaf713a     ..q..|..f.p.:q..
    7780:	bf6ff573 beb263ef bf6f6830 beb554ec     s.o..c..0ho..T..
    7790:	bf6ed89e beb8442a bf6e46be bebb31a0     ..n.*D...Fn..1..
    77a0:	bf6db293 bebe1d4a bf6d1c1d bec1071e     ..m.J.....m.....
    77b0:	bf6c835e bec3ef15 bf6be858 bec6d529     ^.l.....X.k.)...
    77c0:	bf6b4b0c bec9b953 bf6aab7b becc9b8b     .Kk.S...{.j.....
    77d0:	bf6a09a7 becf7bca bf696591 bed25a09     ..j..{...ei..Z..
    77e0:	bf68bf3c bed53641 bf6816a8 bed8106b     <.h.A6....h.k...
    77f0:	bf676bd8 bedae880 bf66becc beddbe79     .kg.......f.y...
    7800:	bf660f88 bee0924f bf655e0b bee363fa     ..f.O....^e..c..
    7810:	bf64aa59 bee63375 bf63f473 bee900b7     Y.d.u3..s.c.....
    7820:	bf633c5a beebcbbb bf628210 beee9479     Z<c.......b.y...
    7830:	bf61c598 bef15aea bf6106f2 bef41f07     ..a..Z....a.....
    7840:	bf604621 bef6e0cb bf5f8327 bef9a02d     !F`.....'._.-...
    7850:	bf5ebe05 befc5d27 bf5df6be beff17b2     ..^.']....].....
    7860:	bf5d2d53 bf00e7e4 bf5c61c7 bf0242b1     S-]......a\..B..
    7870:	bf5b941a bf039c3d bf5ac450 bf04f484     ..[.=...P.Z.....
    7880:	bf59f26a bf064b82 bf591e6a bf07a136     j.Y..K..j.Y.6...
    7890:	bf584853 bf08f59b bf577026 bf0a48ad     SHX.....&pW..H..
    78a0:	bf5695e5 bf0b9a6b bf55b993 bf0cead0     ..V.k.....U.....
    78b0:	bf54db31 bf0e39da bf53fac3 bf0f8784     1.T..9....S.....
    78c0:	bf531849 bf10d3cd bf5233c6 bf121eb0     I.S......3R.....
    78d0:	bf514d3d bf13682a bf5064af bf14b039     =MQ.*h...dP.9...
    78e0:	bf4f7a1f bf15f6d9 bf4e8d90 bf173c07     .zO.......N..<..
    78f0:	bf4d9f02 bf187fc0 bf4cae79 bf19c200     ..M.....y.L.....
    7900:	bf4bbbf8 bf1b02c6 bf4ac77f bf1c420c     ..K.......J..B..
    7910:	bf49d112 bf1d7fd1 bf48d8b3 bf1ebc12     ..I.......H.....
    7920:	bf47de65 bf1ff6cb bf46e22a bf212ff9     e.G.....*.F../!.
    7930:	bf45e403 bf226799 bf44e3f5 bf239da9     ..E..g"...D...#.
    7940:	bf43e200 bf24d225 bf42de29 bf26050a     ..C.%.$.).B...&.
    7950:	bf41d870 bf273656 bf40d0da bf286605     p.A.V6'...@..f(.
    7960:	bf3fc767 bf299415 bf3ebc1b bf2ac082     g.?...)...>...*.
    7970:	bf3daef9 bf2beb4a bf3ca003 bf2d1469     ..=.J.+...<.i.-.
    7980:	bf3b8f3b bf2e3bde bf3a7ca4 bf2f61a5     ;.;..;...|:..a/.
    7990:	bf396842 bf3085bb bf385216 bf31a81d     Bh9...0..R8...1.
    79a0:	bf373a23 bf32c8c9 bf36206c bf33e7bc     #:7...2.l 6...3.
    79b0:	bf3504f3 bf3504f3 bf33e7bc bf36206c     ..5...5...3.l 6.
    79c0:	bf32c8c9 bf373a23 bf31a81d bf385216     ..2.#:7...1..R8.
    79d0:	bf3085bb bf396842 bf2f61a5 bf3a7ca4     ..0.Bh9..a/..|:.
    79e0:	bf2e3bde bf3b8f3b bf2d1469 bf3ca003     .;..;.;.i.-...<.
    79f0:	bf2beb4a bf3daef9 bf2ac082 bf3ebc1b     J.+...=...*...>.
    7a00:	bf299415 bf3fc767 bf286605 bf40d0da     ..).g.?..f(...@.
    7a10:	bf273656 bf41d870 bf26050a bf42de29     V6'.p.A...&.).B.
    7a20:	bf24d225 bf43e200 bf239da9 bf44e3f5     %.$...C...#...D.
    7a30:	bf226799 bf45e403 bf212ff9 bf46e22a     .g"...E../!.*.F.
    7a40:	bf1ff6cb bf47de65 bf1ebc12 bf48d8b3     ....e.G.......H.
    7a50:	bf1d7fd1 bf49d112 bf1c420c bf4ac77f     ......I..B....J.
    7a60:	bf1b02c6 bf4bbbf8 bf19c200 bf4cae79     ......K.....y.L.
    7a70:	bf187fc0 bf4d9f02 bf173c07 bf4e8d90     ......M..<....N.
    7a80:	bf15f6d9 bf4f7a1f bf14b039 bf5064af     .....zO.9....dP.
    7a90:	bf13682a bf514d3d bf121eb0 bf5233c6     *h..=MQ......3R.
    7aa0:	bf10d3cd bf531849 bf0f8784 bf53fac3     ....I.S.......S.
    7ab0:	bf0e39da bf54db31 bf0cead0 bf55b993     .9..1.T.......U.
    7ac0:	bf0b9a6b bf5695e5 bf0a48ad bf577026     k.....V..H..&pW.
    7ad0:	bf08f59b bf584853 bf07a136 bf591e6a     ....SHX.6...j.Y.
    7ae0:	bf064b82 bf59f26a bf04f484 bf5ac450     .K..j.Y.....P.Z.
    7af0:	bf039c3d bf5b941a bf0242b1 bf5c61c7     =.....[..B...a\.
    7b00:	bf00e7e4 bf5d2d53 beff17b2 bf5df6be     ....S-].......].
    7b10:	befc5d27 bf5ebe05 bef9a02d bf5f8327     ']....^.-...'._.
    7b20:	bef6e0cb bf604621 bef41f07 bf6106f2     ....!F`.......a.
    7b30:	bef15aea bf61c598 beee9479 bf628210     .Z....a.y.....b.
    7b40:	beebcbbb bf633c5a bee900b7 bf63f473     ....Z<c.....s.c.
    7b50:	bee63375 bf64aa59 bee363fa bf655e0b     u3..Y.d..c...^e.
    7b60:	bee0924f bf660f88 beddbe79 bf66becc     O.....f.y.....f.
    7b70:	bedae880 bf676bd8 bed8106b bf6816a8     .....kg.k.....h.
    7b80:	bed53641 bf68bf3c bed25a09 bf696591     A6..<.h..Z...ei.
    7b90:	becf7bca bf6a09a7 becc9b8b bf6aab7b     .{....j.....{.j.
    7ba0:	bec9b953 bf6b4b0c bec6d529 bf6be858     S....Kk.)...X.k.
    7bb0:	bec3ef15 bf6c835e bec1071e bf6d1c1d     ....^.l.......m.
    7bc0:	bebe1d4a bf6db293 bebb31a0 bf6e46be     J.....m..1...Fn.
    7bd0:	beb8442a bf6ed89e beb554ec bf6f6830     *D....n..T..0ho.
    7be0:	beb263ef bf6ff573 beaf713a bf708066     .c..s.o.:q..f.p.
    7bf0:	beac7cd4 bf710908 bea986c4 bf718f57     .|....q.....W.q.
    7c00:	bea68f12 bf721352 bea395c5 bf7294f8     ....R.r.......r.
    7c10:	bea09ae5 bf731447 be9d9e78 bf73913f     ....G.s.x...?.s.
    7c20:	be9aa086 bf740bdd be97a117 bf748422     ......t.....".t.
    7c30:	be94a031 bf74fa0b be919ddd bf756d97     1.....t......mu.
    7c40:	be8e9a22 bf75dec6 be8b9507 bf764d97     ".....u......Mv.
    7c50:	be888e93 bf76ba07 be8586ce bf772417     ......v......$w.
    7c60:	be827dc0 bf778bc5 be7ee6e1 bf77f110     .}....w...~...w.
    7c70:	be78cfcc bf7853f8 be72b651 bf78b47b     ..x..Sx.Q.r.{.x.
    7c80:	be6c9a7f bf791298 be667c66 bf796e4e     ..l...y.f|f.Nny.
    7c90:	be605c13 bf79c79d be5a3997 bf7a1e84     .\`...y..9Z...z.
    7ca0:	be541501 bf7a7302 be4dee60 bf7ac516     ..T..sz.`.M...z.
    7cb0:	be47c5c2 bf7b14be be419b37 bf7b61fc     ..G...{.7.A..a{.
    7cc0:	be3b6ecf bf7baccd be354098 bf7bf531     .n;...{..@5.1.{.
    7cd0:	be2f10a2 bf7c3b28 be28defc bf7c7eb0     ../.(;|...(..~|.
    7ce0:	be22abb6 bf7cbfc9 be1c76de bf7cfe73     .."...|..v..s.|.
    7cf0:	be164083 bf7d3aac be1008b7 bf7d7474     .@...:}.....tt}.
    7d00:	be09cf86 bf7dabcc be039502 bf7de0b1     ......}.......}.
    7d10:	bdfab273 bf7e1324 bdee3876 bf7e4323     s...$.~.v8..#C~.
    7d20:	bde1bc2e bf7e70b0 bdd53db9 bf7e9bc9     .....p~..=....~.
    7d30:	bdc8bd36 bf7ec46d bdbc3ac3 bf7eea9d     6...m.~..:....~.
    7d40:	bdafb680 bf7f0e58 bda3308c bf7f2f9d     ....X....0.../..
    7d50:	bd96a905 bf7f4e6d bd8a200a bf7f6ac7     ....mN... ...j..
    7d60:	bd7b2b74 bf7f84ab bd621468 bf7f9c18     t+{.....h.b.....
    7d70:	bd48fb2f bf7fb10f bd2fe007 bf7fc38f     /.H......./.....
    7d80:	bd16c32c bf7fd398 bcfb49b9 bf7fe129     ,........I..)...
    7d90:	bcc90ab0 bf7fec43 bc96c9b6 bf7ff4e6     ....C...........
    7da0:	bc490e90 bf7ffb11 bbc90f89 bf7ffec4     ..I.............
    7db0:	80000000 bf800000 3bc90f89 bf7ffec4     ...........;....
    7dc0:	3c490e90 bf7ffb11 3c96c9b6 bf7ff4e6     ..I<.......<....
    7dd0:	3cc90ab0 bf7fec43 3cfb49b9 bf7fe129     ...<C....I.<)...
    7de0:	3d16c32c bf7fd398 3d2fe007 bf7fc38f     ,..=....../=....
    7df0:	3d48fb2f bf7fb10f 3d621468 bf7f9c18     /.H=....h.b=....
    7e00:	3d7b2b74 bf7f84ab 3d8a200a bf7f6ac7     t+{=..... .=.j..
    7e10:	3d96a905 bf7f4e6d 3da3308c bf7f2f9d     ...=mN...0.=./..
    7e20:	3dafb680 bf7f0e58 3dbc3ac3 bf7eea9d     ...=X....:.=..~.
    7e30:	3dc8bd36 bf7ec46d 3dd53db9 bf7e9bc9     6..=m.~..=.=..~.
    7e40:	3de1bc2e bf7e70b0 3dee3876 bf7e4323     ...=.p~.v8.=#C~.
    7e50:	3dfab273 bf7e1324 3e039502 bf7de0b1     s..=$.~....>..}.
    7e60:	3e09cf86 bf7dabcc 3e1008b7 bf7d7474     ...>..}....>tt}.
    7e70:	3e164083 bf7d3aac 3e1c76de bf7cfe73     .@.>.:}..v.>s.|.
    7e80:	3e22abb6 bf7cbfc9 3e28defc bf7c7eb0     ..">..|...(>.~|.
    7e90:	3e2f10a2 bf7c3b28 3e354098 bf7bf531     ../>(;|..@5>1.{.
    7ea0:	3e3b6ecf bf7baccd 3e419b37 bf7b61fc     .n;>..{.7.A>.a{.
    7eb0:	3e47c5c2 bf7b14be 3e4dee60 bf7ac516     ..G>..{.`.M>..z.
    7ec0:	3e541501 bf7a7302 3e5a3997 bf7a1e84     ..T>.sz..9Z>..z.
    7ed0:	3e605c13 bf79c79d 3e667c66 bf796e4e     .\`>..y.f|f>Nny.
    7ee0:	3e6c9a7f bf791298 3e72b651 bf78b47b     ..l>..y.Q.r>{.x.
    7ef0:	3e78cfcc bf7853f8 3e7ee6e1 bf77f110     ..x>.Sx...~>..w.
    7f00:	3e827dc0 bf778bc5 3e8586ce bf772417     .}.>..w....>.$w.
    7f10:	3e888e93 bf76ba07 3e8b9507 bf764d97     ...>..v....>.Mv.
    7f20:	3e8e9a22 bf75dec6 3e919ddd bf756d97     "..>..u....>.mu.
    7f30:	3e94a031 bf74fa0b 3e97a117 bf748422     1..>..t....>".t.
    7f40:	3e9aa086 bf740bdd 3e9d9e78 bf73913f     ...>..t.x..>?.s.
    7f50:	3ea09ae5 bf731447 3ea395c5 bf7294f8     ...>G.s....>..r.
    7f60:	3ea68f12 bf721352 3ea986c4 bf718f57     ...>R.r....>W.q.
    7f70:	3eac7cd4 bf710908 3eaf713a bf708066     .|.>..q.:q.>f.p.
    7f80:	3eb263ef bf6ff573 3eb554ec bf6f6830     .c.>s.o..T.>0ho.
    7f90:	3eb8442a bf6ed89e 3ebb31a0 bf6e46be     *D.>..n..1.>.Fn.
    7fa0:	3ebe1d4a bf6db293 3ec1071e bf6d1c1d     J..>..m....>..m.
    7fb0:	3ec3ef15 bf6c835e 3ec6d529 bf6be858     ...>^.l.)..>X.k.
    7fc0:	3ec9b953 bf6b4b0c 3ecc9b8b bf6aab7b     S..>.Kk....>{.j.
    7fd0:	3ecf7bca bf6a09a7 3ed25a09 bf696591     .{.>..j..Z.>.ei.
    7fe0:	3ed53641 bf68bf3c 3ed8106b bf6816a8     A6.><.h.k..>..h.
    7ff0:	3edae880 bf676bd8 3eddbe79 bf66becc     ...>.kg.y..>..f.
    8000:	3ee0924f bf660f88 3ee363fa bf655e0b     O..>..f..c.>.^e.
    8010:	3ee63375 bf64aa59 3ee900b7 bf63f473     u3.>Y.d....>s.c.
    8020:	3eebcbbb bf633c5a 3eee9479 bf628210     ...>Z<c.y..>..b.
    8030:	3ef15aea bf61c598 3ef41f07 bf6106f2     .Z.>..a....>..a.
    8040:	3ef6e0cb bf604621 3ef9a02d bf5f8327     ...>!F`.-..>'._.
    8050:	3efc5d27 bf5ebe05 3eff17b2 bf5df6be     '].>..^....>..].
    8060:	3f00e7e4 bf5d2d53 3f0242b1 bf5c61c7     ...?S-]..B.?.a\.
    8070:	3f039c3d bf5b941a 3f04f484 bf5ac450     =..?..[....?P.Z.
    8080:	3f064b82 bf59f26a 3f07a136 bf591e6a     .K.?j.Y.6..?j.Y.
    8090:	3f08f59b bf584853 3f0a48ad bf577026     ...?SHX..H.?&pW.
    80a0:	3f0b9a6b bf5695e5 3f0cead0 bf55b993     k..?..V....?..U.
    80b0:	3f0e39da bf54db31 3f0f8784 bf53fac3     .9.?1.T....?..S.
    80c0:	3f10d3cd bf531849 3f121eb0 bf5233c6     ...?I.S....?.3R.
    80d0:	3f13682a bf514d3d 3f14b039 bf5064af     *h.?=MQ.9..?.dP.
    80e0:	3f15f6d9 bf4f7a1f 3f173c07 bf4e8d90     ...?.zO..<.?..N.
    80f0:	3f187fc0 bf4d9f02 3f19c200 bf4cae79     ...?..M....?y.L.
    8100:	3f1b02c6 bf4bbbf8 3f1c420c bf4ac77f     ...?..K..B.?..J.
    8110:	3f1d7fd1 bf49d112 3f1ebc12 bf48d8b3     ...?..I....?..H.
    8120:	3f1ff6cb bf47de65 3f212ff9 bf46e22a     ...?e.G../!?*.F.
    8130:	3f226799 bf45e403 3f239da9 bf44e3f5     .g"?..E...#?..D.
    8140:	3f24d225 bf43e200 3f26050a bf42de29     %.$?..C...&?).B.
    8150:	3f273656 bf41d870 3f286605 bf40d0da     V6'?p.A..f(?..@.
    8160:	3f299415 bf3fc767 3f2ac082 bf3ebc1b     ..)?g.?...*?..>.
    8170:	3f2beb4a bf3daef9 3f2d1469 bf3ca003     J.+?..=.i.-?..<.
    8180:	3f2e3bde bf3b8f3b 3f2f61a5 bf3a7ca4     .;.?;.;..a/?.|:.
    8190:	3f3085bb bf396842 3f31a81d bf385216     ..0?Bh9...1?.R8.
    81a0:	3f32c8c9 bf373a23 3f33e7bc bf36206c     ..2?#:7...3?l 6.
    81b0:	3f3504f3 bf3504f3 3f36206c bf33e7bc     ..5?..5.l 6?..3.
    81c0:	3f373a23 bf32c8c9 3f385216 bf31a81d     #:7?..2..R8?..1.
    81d0:	3f396842 bf3085bb 3f3a7ca4 bf2f61a5     Bh9?..0..|:?.a/.
    81e0:	3f3b8f3b bf2e3bde 3f3ca003 bf2d1469     ;.;?.;....<?i.-.
    81f0:	3f3daef9 bf2beb4a 3f3ebc1b bf2ac082     ..=?J.+...>?..*.
    8200:	3f3fc767 bf299415 3f40d0da bf286605     g.??..)...@?.f(.
    8210:	3f41d870 bf273656 3f42de29 bf26050a     p.A?V6'.).B?..&.
    8220:	3f43e200 bf24d225 3f44e3f5 bf239da9     ..C?%.$...D?..#.
    8230:	3f45e403 bf226799 3f46e22a bf212ff9     ..E?.g".*.F?./!.
    8240:	3f47de65 bf1ff6cb 3f48d8b3 bf1ebc12     e.G?......H?....
    8250:	3f49d112 bf1d7fd1 3f4ac77f bf1c420c     ..I?......J?.B..
    8260:	3f4bbbf8 bf1b02c6 3f4cae79 bf19c200     ..K?....y.L?....
    8270:	3f4d9f02 bf187fc0 3f4e8d90 bf173c07     ..M?......N?.<..
    8280:	3f4f7a1f bf15f6d9 3f5064af bf14b039     .zO?.....dP?9...
    8290:	3f514d3d bf13682a 3f5233c6 bf121eb0     =MQ?*h...3R?....
    82a0:	3f531849 bf10d3cd 3f53fac3 bf0f8784     I.S?......S?....
    82b0:	3f54db31 bf0e39da 3f55b993 bf0cead0     1.T?.9....U?....
    82c0:	3f5695e5 bf0b9a6b 3f577026 bf0a48ad     ..V?k...&pW?.H..
    82d0:	3f584853 bf08f59b 3f591e6a bf07a136     SHX?....j.Y?6...
    82e0:	3f59f26a bf064b82 3f5ac450 bf04f484     j.Y?.K..P.Z?....
    82f0:	3f5b941a bf039c3d 3f5c61c7 bf0242b1     ..[?=....a\?.B..
    8300:	3f5d2d53 bf00e7e4 3f5df6be beff17b2     S-]?......]?....
    8310:	3f5ebe05 befc5d27 3f5f8327 bef9a02d     ..^?']..'._?-...
    8320:	3f604621 bef6e0cb 3f6106f2 bef41f07     !F`?......a?....
    8330:	3f61c598 bef15aea 3f628210 beee9479     ..a?.Z....b?y...
    8340:	3f633c5a beebcbbb 3f63f473 bee900b7     Z<c?....s.c?....
    8350:	3f64aa59 bee63375 3f655e0b bee363fa     Y.d?u3...^e?.c..
    8360:	3f660f88 bee0924f 3f66becc beddbe79     ..f?O.....f?y...
    8370:	3f676bd8 bedae880 3f6816a8 bed8106b     .kg?......h?k...
    8380:	3f68bf3c bed53641 3f696591 bed25a09     <.h?A6...ei?.Z..
    8390:	3f6a09a7 becf7bca 3f6aab7b becc9b8b     ..j?.{..{.j?....
    83a0:	3f6b4b0c bec9b953 3f6be858 bec6d529     .Kk?S...X.k?)...
    83b0:	3f6c835e bec3ef15 3f6d1c1d bec1071e     ^.l?......m?....
    83c0:	3f6db293 bebe1d4a 3f6e46be bebb31a0     ..m?J....Fn?.1..
    83d0:	3f6ed89e beb8442a 3f6f6830 beb554ec     ..n?*D..0ho?.T..
    83e0:	3f6ff573 beb263ef 3f708066 beaf713a     s.o?.c..f.p?:q..
    83f0:	3f710908 beac7cd4 3f718f57 bea986c4     ..q?.|..W.q?....
    8400:	3f721352 bea68f12 3f7294f8 bea395c5     R.r?......r?....
    8410:	3f731447 bea09ae5 3f73913f be9d9e78     G.s?....?.s?x...
    8420:	3f740bdd be9aa086 3f748422 be97a117     ..t?....".t?....
    8430:	3f74fa0b be94a031 3f756d97 be919ddd     ..t?1....mu?....
    8440:	3f75dec6 be8e9a22 3f764d97 be8b9507     ..u?"....Mv?....
    8450:	3f76ba07 be888e93 3f772417 be8586ce     ..v?.....$w?....
    8460:	3f778bc5 be827dc0 3f77f110 be7ee6e1     ..w?.}....w?..~.
    8470:	3f7853f8 be78cfcc 3f78b47b be72b651     .Sx?..x.{.x?Q.r.
    8480:	3f791298 be6c9a7f 3f796e4e be667c66     ..y?..l.Nny?f|f.
    8490:	3f79c79d be605c13 3f7a1e84 be5a3997     ..y?.\`...z?.9Z.
    84a0:	3f7a7302 be541501 3f7ac516 be4dee60     .sz?..T...z?`.M.
    84b0:	3f7b14be be47c5c2 3f7b61fc be419b37     ..{?..G..a{?7.A.
    84c0:	3f7baccd be3b6ecf 3f7bf531 be354098     ..{?.n;.1.{?.@5.
    84d0:	3f7c3b28 be2f10a2 3f7c7eb0 be28defc     (;|?../..~|?..(.
    84e0:	3f7cbfc9 be22abb6 3f7cfe73 be1c76de     ..|?..".s.|?.v..
    84f0:	3f7d3aac be164083 3f7d7474 be1008b7     .:}?.@..tt}?....
    8500:	3f7dabcc be09cf86 3f7de0b1 be039502     ..}?......}?....
    8510:	3f7e1324 bdfab273 3f7e4323 bdee3876     $.~?s...#C~?v8..
    8520:	3f7e70b0 bde1bc2e 3f7e9bc9 bdd53db9     .p~?......~?.=..
    8530:	3f7ec46d bdc8bd36 3f7eea9d bdbc3ac3     m.~?6.....~?.:..
    8540:	3f7f0e58 bdafb680 3f7f2f9d bda3308c     X..?...../.?.0..
    8550:	3f7f4e6d bd96a905 3f7f6ac7 bd8a200a     mN.?.....j.?. ..
    8560:	3f7f84ab bd7b2b74 3f7f9c18 bd621468     ...?t+{....?h.b.
    8570:	3f7fb10f bd48fb2f 3f7fc38f bd2fe007     ...?/.H....?../.
    8580:	3f7fd398 bd16c32c 3f7fe129 bcfb49b9     ...?,...)..?.I..
    8590:	3f7fec43 bcc90ab0 3f7ff4e6 bc96c9b6     C..?.......?....
    85a0:	3f7ffb11 bc490e90 3f7ffec4 bbc90f89     ...?..I....?....

000085b0 <twiddleCoef_2048>:
    85b0:	3f800000 00000000 3f7fffb1 3b490fc7     ...?.......?..I;
    85c0:	3f7ffec4 3bc90f89 3f7ffd39 3c16cb59     ...?...;9..?Y..<
    85d0:	3f7ffb11 3c490e90 3f7ff84a 3c7b514b     ...?..I<J..?KQ{<
    85e0:	3f7ff4e6 3c96c9b6 3f7ff0e3 3cafea69     ...?...<...?i..<
    85f0:	3f7fec43 3cc90ab0 3f7fe705 3ce22a7b     C..?...<...?{*.<
    8600:	3f7fe129 3cfb49b9 3f7fdaaf 3d0a342f     )..?.I.<...?/4.=
    8610:	3f7fd398 3d16c32c 3f7fcbe2 3d2351cc     ...?,..=...?.Q#=
    8620:	3f7fc38f 3d2fe007 3f7fba9e 3d3c6dd5     ...?../=...?.m<=
    8630:	3f7fb10f 3d48fb2f 3f7fa6e3 3d55880e     ...?/.H=...?..U=
    8640:	3f7f9c18 3d621468 3f7f90b1 3d6ea038     ...?h.b=...?8.n=
    8650:	3f7f84ab 3d7b2b74 3f7f7808 3d83db0a     ...?t+{=.x.?...=
    8660:	3f7f6ac7 3d8a200a 3f7f5ce9 3d9064b4     .j.?. .=.\.?.d.=
    8670:	3f7f4e6d 3d96a905 3f7f3f54 3d9cecf9     mN.?...=T?.?...=
    8680:	3f7f2f9d 3da3308c 3f7f1f49 3da973ba     ./.?.0.=I..?.s.=
    8690:	3f7f0e58 3dafb680 3f7efcc9 3db5f8da     X..?...=..~?...=
    86a0:	3f7eea9d 3dbc3ac3 3f7ed7d4 3dc27c39     ..~?.:.=..~?9|.=
    86b0:	3f7ec46d 3dc8bd36 3f7eb069 3dcefdb7     m.~?6..=i.~?...=
    86c0:	3f7e9bc9 3dd53db9 3f7e868b 3ddb7d37     ..~?.=.=..~?7}.=
    86d0:	3f7e70b0 3de1bc2e 3f7e5a38 3de7fa9a     .p~?...=8Z~?...=
    86e0:	3f7e4323 3dee3876 3f7e2b72 3df475c0     #C~?v8.=r+~?.u.=
    86f0:	3f7e1324 3dfab273 3f7dfa38 3e007745     $.~?s..=8.}?Ew.>
    8700:	3f7de0b1 3e039502 3f7dc68c 3e06b26e     ..}?...>..}?n..>
    8710:	3f7dabcc 3e09cf86 3f7d906e 3e0cec4a     ..}?...>n.}?J..>
    8720:	3f7d7474 3e1008b7 3f7d57de 3e1324ca     tt}?...>.W}?.$.>
    8730:	3f7d3aac 3e164083 3f7d1cdd 3e195be0     .:}?.@.>..}?.[.>
    8740:	3f7cfe73 3e1c76de 3f7cdf6c 3e1f917b     s.|?.v.>l.|?{..>
    8750:	3f7cbfc9 3e22abb6 3f7c9f8a 3e25c58c     ..|?..">..|?..%>
    8760:	3f7c7eb0 3e28defc 3f7c5d3a 3e2bf804     .~|?..(>:]|?..+>
    8770:	3f7c3b28 3e2f10a2 3f7c187a 3e3228d4     (;|?../>z.|?.(2>
    8780:	3f7bf531 3e354098 3f7bd14d 3e3857ec     1.{?.@5>M.{?.W8>
    8790:	3f7baccd 3e3b6ecf 3f7b87b2 3e3e853e     ..{?.n;>..{?>.>>
    87a0:	3f7b61fc 3e419b37 3f7b3bab 3e44b0b9     .a{?7.A>.;{?..D>
    87b0:	3f7b14be 3e47c5c2 3f7aed37 3e4ada4f     ..{?..G>7.z?O.J>
    87c0:	3f7ac516 3e4dee60 3f7a9c59 3e5101f1     ..z?`.M>Y.z?..Q>
    87d0:	3f7a7302 3e541501 3f7a4910 3e57278f     .sz?..T>.Iz?.'W>
    87e0:	3f7a1e84 3e5a3997 3f79f35e 3e5d4b1a     ..z?.9Z>^.y?.K]>
    87f0:	3f79c79d 3e605c13 3f799b43 3e636c83     ..y?.\`>C.y?.lc>
    8800:	3f796e4e 3e667c66 3f7940c0 3e698bba     Nny?f|f>.@y?..i>
    8810:	3f791298 3e6c9a7f 3f78e3d6 3e6fa8b2     ..y?..l>..x?..o>
    8820:	3f78b47b 3e72b651 3f788486 3e75c35a     {.x?Q.r>..x?Z.u>
    8830:	3f7853f8 3e78cfcc 3f7822d1 3e7bdba4     .Sx?..x>."x?..{>
    8840:	3f77f110 3e7ee6e1 3f77beb7 3e80f8c0     ..w?..~>..w?...>
    8850:	3f778bc5 3e827dc0 3f77583a 3e840270     ..w?.}.>:Xw?p..>
    8860:	3f772417 3e8586ce 3f76ef5b 3e870ada     .$w?...>[.v?...>
    8870:	3f76ba07 3e888e93 3f76841b 3e8a11f8     ..v?...>..v?...>
    8880:	3f764d97 3e8b9507 3f76167a 3e8d17c0     .Mv?...>z.v?...>
    8890:	3f75dec6 3e8e9a22 3f75a67b 3e901c2c     ..u?"..>{.u?,..>
    88a0:	3f756d97 3e919ddd 3f75341d 3e931f35     .mu?...>.4u?5..>
    88b0:	3f74fa0b 3e94a031 3f74bf62 3e9620d2     ..t?1..>b.t?. .>
    88c0:	3f748422 3e97a117 3f74484b 3e9920fe     ".t?...>KHt?. .>
    88d0:	3f740bdd 3e9aa086 3f73ced9 3e9c1faf     ..t?...>..s?...>
    88e0:	3f73913f 3e9d9e78 3f73530e 3e9f1cdf     ?.s?x..>.Ss?...>
    88f0:	3f731447 3ea09ae5 3f72d4eb 3ea21887     G.s?...>..r?...>
    8900:	3f7294f8 3ea395c5 3f725470 3ea5129f     ..r?...>pTr?...>
    8910:	3f721352 3ea68f12 3f71d19f 3ea80b1f     R.r?...>..q?...>
    8920:	3f718f57 3ea986c4 3f714c7a 3eab0201     W.q?...>zLq?...>
    8930:	3f710908 3eac7cd4 3f70c502 3eadf73c     ..q?.|.>..p?<..>
    8940:	3f708066 3eaf713a 3f703b37 3eb0eacb     f.p?:q.>7;p?...>
    8950:	3f6ff573 3eb263ef 3f6faf1b 3eb3dca5     s.o?.c.>..o?...>
    8960:	3f6f6830 3eb554ec 3f6f20b0 3eb6ccc3     0ho?.T.>. o?...>
    8970:	3f6ed89e 3eb8442a 3f6e8ff8 3eb9bb1e     ..n?*D.>..n?...>
    8980:	3f6e46be 3ebb31a0 3f6dfcf2 3ebca7af     .Fn?.1.>..m?...>
    8990:	3f6db293 3ebe1d4a 3f6d67a1 3ebf926f     ..m?J..>.gm?o..>
    89a0:	3f6d1c1d 3ec1071e 3f6cd007 3ec27b55     ..m?...>..l?U{.>
    89b0:	3f6c835e 3ec3ef15 3f6c3624 3ec5625c     ^.l?...>$6l?\b.>
    89c0:	3f6be858 3ec6d529 3f6b99fb 3ec8477c     X.k?)..>..k?|G.>
    89d0:	3f6b4b0c 3ec9b953 3f6afb8c 3ecb2aae     .Kk?S..>..j?.*.>
    89e0:	3f6aab7b 3ecc9b8b 3f6a5ad9 3ece0bea     {.j?...>.Zj?...>
    89f0:	3f6a09a7 3ecf7bca 3f69b7e4 3ed0eb2a     ..j?.{.>..i?*..>
    8a00:	3f696591 3ed25a09 3f6912ae 3ed3c867     .ei?.Z.>..i?g..>
    8a10:	3f68bf3c 3ed53641 3f686b39 3ed6a399     <.h?A6.>9kh?...>
    8a20:	3f6816a8 3ed8106b 3f67c187 3ed97cb9     ..h?k..>..g?.|.>
    8a30:	3f676bd8 3edae880 3f671599 3edc53c1     .kg?...>..g?.S.>
    8a40:	3f66becc 3eddbe79 3f666771 3edf28a9     ..f?y..>qgf?.(.>
    8a50:	3f660f88 3ee0924f 3f65b710 3ee1fb6a     ..f?O..>..e?j..>
    8a60:	3f655e0b 3ee363fa 3f650479 3ee4cbfe     .^e?.c.>y.e?...>
    8a70:	3f64aa59 3ee63375 3f644fac 3ee79a5d     Y.d?u3.>.Od?]..>
    8a80:	3f63f473 3ee900b7 3f6398ac 3eea6681     s.c?...>..c?.f.>
    8a90:	3f633c5a 3eebcbbb 3f62df7b 3eed3063     Z<c?...>{.b?c0.>
    8aa0:	3f628210 3eee9479 3f62241a 3eeff7fb     ..b?y..>.$b?...>
    8ab0:	3f61c598 3ef15aea 3f61668a 3ef2bd43     ..a?.Z.>.fa?C..>
    8ac0:	3f6106f2 3ef41f07 3f60a6cf 3ef58035     ..a?...>..`?5..>
    8ad0:	3f604621 3ef6e0cb 3f5fe4e9 3ef840c8     !F`?...>.._?.@.>
    8ae0:	3f5f8327 3ef9a02d 3f5f20db 3efafef7     '._?-..>. _?...>
    8af0:	3f5ebe05 3efc5d27 3f5e5aa6 3efdbabb     ..^?'].>.Z^?...>
    8b00:	3f5df6be 3eff17b2 3f5d924d 3f003a06     ..]?...>M.]?.:.?
    8b10:	3f5d2d53 3f00e7e4 3f5cc7d1 3f019573     S-]?...?..\?s..?
    8b20:	3f5c61c7 3f0242b1 3f5bfb34 3f02ef9f     .a\?.B.?4.[?...?
    8b30:	3f5b941a 3f039c3d 3f5b2c79 3f044889     ..[?=..?y,[?.H.?
    8b40:	3f5ac450 3f04f484 3f5a5ba0 3f05a02c     P.Z?...?.[Z?,..?
    8b50:	3f59f26a 3f064b82 3f5988ad 3f06f686     j.Y?.K.?..Y?...?
    8b60:	3f591e6a 3f07a136 3f58b3a1 3f084b92     j.Y?6..?..X?.K.?
    8b70:	3f584853 3f08f59b 3f57dc7f 3f099f4e     SHX?...?..W?N..?
    8b80:	3f577026 3f0a48ad 3f570348 3f0af1b7     &pW?.H.?H.W?...?
    8b90:	3f5695e5 3f0b9a6b 3f5627fe 3f0c42c9     ..V?k..?.'V?.B.?
    8ba0:	3f55b993 3f0cead0 3f554aa4 3f0d9281     ..U?...?.JU?...?
    8bb0:	3f54db31 3f0e39da 3f546b3b 3f0ee0db     1.T?.9.?;kT?...?
    8bc0:	3f53fac3 3f0f8784 3f5389c7 3f102dd5     ..S?...?..S?.-.?
    8bd0:	3f531849 3f10d3cd 3f52a649 3f11796b     I.S?...?I.R?ky.?
    8be0:	3f5233c6 3f121eb0 3f51c0c2 3f12c39a     .3R?...?..Q?...?
    8bf0:	3f514d3d 3f13682a 3f50d937 3f140c5f     =MQ?*h.?7.P?_..?
    8c00:	3f5064af 3f14b039 3f4fefa8 3f1553b7     .dP?9..?..O?.S.?
    8c10:	3f4f7a1f 3f15f6d9 3f4f0417 3f16999f     .zO?...?..O?...?
    8c20:	3f4e8d90 3f173c07 3f4e1689 3f17de12     ..N?.<.?..N?...?
    8c30:	3f4d9f02 3f187fc0 3f4d26fd 3f19210f     ..M?...?.&M?.!.?
    8c40:	3f4cae79 3f19c200 3f4c3578 3f1a6293     y.L?...?x5L?.b.?
    8c50:	3f4bbbf8 3f1b02c6 3f4b41fa 3f1ba299     ..K?...?.AK?...?
    8c60:	3f4ac77f 3f1c420c 3f4a4c87 3f1ce11f     ..J?.B.?.LJ?...?
    8c70:	3f49d112 3f1d7fd1 3f495521 3f1e1e22     ..I?...?!UI?"..?
    8c80:	3f48d8b3 3f1ebc12 3f485bca 3f1f599f     ..H?...?.[H?.Y.?
    8c90:	3f47de65 3f1ff6cb 3f476085 3f209393     e.G?...?.`G?.. ?
    8ca0:	3f46e22a 3f212ff9 3f466354 3f21cbfb     *.F?./!?TcF?..!?
    8cb0:	3f45e403 3f226799 3f456439 3f2302d3     ..E?.g"?9dE?..#?
    8cc0:	3f44e3f5 3f239da9 3f446337 3f24381a     ..D?..#?7cD?.8$?
    8cd0:	3f43e200 3f24d225 3f436051 3f256bcb     ..C?%.$?Q`C?.k%?
    8ce0:	3f42de29 3f26050a 3f425b89 3f269de3     ).B?..&?.[B?..&?
    8cf0:	3f41d870 3f273656 3f4154e1 3f27ce61     p.A?V6'?.TA?a.'?
    8d00:	3f40d0da 3f286605 3f404c5c 3f28fd41     ..@?.f(?\L@?A.(?
    8d10:	3f3fc767 3f299415 3f3f41fc 3f2a2a80     g.??..)?.A??.**?
    8d20:	3f3ebc1b 3f2ac082 3f3e35c5 3f2b561b     ..>?..*?.5>?.V+?
    8d30:	3f3daef9 3f2beb4a 3f3d27b8 3f2c800f     ..=?J.+?.'=?..,?
    8d40:	3f3ca003 3f2d1469 3f3c17d9 3f2da859     ..<?i.-?..<?Y.-?
    8d50:	3f3b8f3b 3f2e3bde 3f3b0629 3f2ecef7     ;.;?.;.?).;?...?
    8d60:	3f3a7ca4 3f2f61a5 3f39f2ac 3f2ff3e6     .|:?.a/?..9?../?
    8d70:	3f396842 3f3085bb 3f38dd65 3f311722     Bh9?..0?e.8?".1?
    8d80:	3f385216 3f31a81d 3f37c655 3f3238aa     .R8?..1?U.7?.82?
    8d90:	3f373a23 3f32c8c9 3f36ad7f 3f33587a     #:7?..2?..6?zX3?
    8da0:	3f36206c 3f33e7bc 3f3592e7 3f34768f     l 6?..3?..5?.v4?
    8db0:	3f3504f3 3f3504f3 3f34768f 3f3592e7     ..5?..5?.v4?..5?
    8dc0:	3f33e7bc 3f36206c 3f33587a 3f36ad7f     ..3?l 6?zX3?..6?
    8dd0:	3f32c8c9 3f373a23 3f3238aa 3f37c655     ..2?#:7?.82?U.7?
    8de0:	3f31a81d 3f385216 3f311722 3f38dd65     ..1?.R8?".1?e.8?
    8df0:	3f3085bb 3f396842 3f2ff3e6 3f39f2ac     ..0?Bh9?../?..9?
    8e00:	3f2f61a5 3f3a7ca4 3f2ecef7 3f3b0629     .a/?.|:?...?).;?
    8e10:	3f2e3bde 3f3b8f3b 3f2da859 3f3c17d9     .;.?;.;?Y.-?..<?
    8e20:	3f2d1469 3f3ca003 3f2c800f 3f3d27b8     i.-?..<?..,?.'=?
    8e30:	3f2beb4a 3f3daef9 3f2b561b 3f3e35c5     J.+?..=?.V+?.5>?
    8e40:	3f2ac082 3f3ebc1b 3f2a2a80 3f3f41fc     ..*?..>?.**?.A??
    8e50:	3f299415 3f3fc767 3f28fd41 3f404c5c     ..)?g.??A.(?\L@?
    8e60:	3f286605 3f40d0da 3f27ce61 3f4154e1     .f(?..@?a.'?.TA?
    8e70:	3f273656 3f41d870 3f269de3 3f425b89     V6'?p.A?..&?.[B?
    8e80:	3f26050a 3f42de29 3f256bcb 3f436051     ..&?).B?.k%?Q`C?
    8e90:	3f24d225 3f43e200 3f24381a 3f446337     %.$?..C?.8$?7cD?
    8ea0:	3f239da9 3f44e3f5 3f2302d3 3f456439     ..#?..D?..#?9dE?
    8eb0:	3f226799 3f45e403 3f21cbfb 3f466354     .g"?..E?..!?TcF?
    8ec0:	3f212ff9 3f46e22a 3f209393 3f476085     ./!?*.F?.. ?.`G?
    8ed0:	3f1ff6cb 3f47de65 3f1f599f 3f485bca     ...?e.G?.Y.?.[H?
    8ee0:	3f1ebc12 3f48d8b3 3f1e1e22 3f495521     ...?..H?"..?!UI?
    8ef0:	3f1d7fd1 3f49d112 3f1ce11f 3f4a4c87     ...?..I?...?.LJ?
    8f00:	3f1c420c 3f4ac77f 3f1ba299 3f4b41fa     .B.?..J?...?.AK?
    8f10:	3f1b02c6 3f4bbbf8 3f1a6293 3f4c3578     ...?..K?.b.?x5L?
    8f20:	3f19c200 3f4cae79 3f19210f 3f4d26fd     ...?y.L?.!.?.&M?
    8f30:	3f187fc0 3f4d9f02 3f17de12 3f4e1689     ...?..M?...?..N?
    8f40:	3f173c07 3f4e8d90 3f16999f 3f4f0417     .<.?..N?...?..O?
    8f50:	3f15f6d9 3f4f7a1f 3f1553b7 3f4fefa8     ...?.zO?.S.?..O?
    8f60:	3f14b039 3f5064af 3f140c5f 3f50d937     9..?.dP?_..?7.P?
    8f70:	3f13682a 3f514d3d 3f12c39a 3f51c0c2     *h.?=MQ?...?..Q?
    8f80:	3f121eb0 3f5233c6 3f11796b 3f52a649     ...?.3R?ky.?I.R?
    8f90:	3f10d3cd 3f531849 3f102dd5 3f5389c7     ...?I.S?.-.?..S?
    8fa0:	3f0f8784 3f53fac3 3f0ee0db 3f546b3b     ...?..S?...?;kT?
    8fb0:	3f0e39da 3f54db31 3f0d9281 3f554aa4     .9.?1.T?...?.JU?
    8fc0:	3f0cead0 3f55b993 3f0c42c9 3f5627fe     ...?..U?.B.?.'V?
    8fd0:	3f0b9a6b 3f5695e5 3f0af1b7 3f570348     k..?..V?...?H.W?
    8fe0:	3f0a48ad 3f577026 3f099f4e 3f57dc7f     .H.?&pW?N..?..W?
    8ff0:	3f08f59b 3f584853 3f084b92 3f58b3a1     ...?SHX?.K.?..X?
    9000:	3f07a136 3f591e6a 3f06f686 3f5988ad     6..?j.Y?...?..Y?
    9010:	3f064b82 3f59f26a 3f05a02c 3f5a5ba0     .K.?j.Y?,..?.[Z?
    9020:	3f04f484 3f5ac450 3f044889 3f5b2c79     ...?P.Z?.H.?y,[?
    9030:	3f039c3d 3f5b941a 3f02ef9f 3f5bfb34     =..?..[?...?4.[?
    9040:	3f0242b1 3f5c61c7 3f019573 3f5cc7d1     .B.?.a\?s..?..\?
    9050:	3f00e7e4 3f5d2d53 3f003a06 3f5d924d     ...?S-]?.:.?M.]?
    9060:	3eff17b2 3f5df6be 3efdbabb 3f5e5aa6     ...>..]?...>.Z^?
    9070:	3efc5d27 3f5ebe05 3efafef7 3f5f20db     '].>..^?...>. _?
    9080:	3ef9a02d 3f5f8327 3ef840c8 3f5fe4e9     -..>'._?.@.>.._?
    9090:	3ef6e0cb 3f604621 3ef58035 3f60a6cf     ...>!F`?5..>..`?
    90a0:	3ef41f07 3f6106f2 3ef2bd43 3f61668a     ...>..a?C..>.fa?
    90b0:	3ef15aea 3f61c598 3eeff7fb 3f62241a     .Z.>..a?...>.$b?
    90c0:	3eee9479 3f628210 3eed3063 3f62df7b     y..>..b?c0.>{.b?
    90d0:	3eebcbbb 3f633c5a 3eea6681 3f6398ac     ...>Z<c?.f.>..c?
    90e0:	3ee900b7 3f63f473 3ee79a5d 3f644fac     ...>s.c?]..>.Od?
    90f0:	3ee63375 3f64aa59 3ee4cbfe 3f650479     u3.>Y.d?...>y.e?
    9100:	3ee363fa 3f655e0b 3ee1fb6a 3f65b710     .c.>.^e?j..>..e?
    9110:	3ee0924f 3f660f88 3edf28a9 3f666771     O..>..f?.(.>qgf?
    9120:	3eddbe79 3f66becc 3edc53c1 3f671599     y..>..f?.S.>..g?
    9130:	3edae880 3f676bd8 3ed97cb9 3f67c187     ...>.kg?.|.>..g?
    9140:	3ed8106b 3f6816a8 3ed6a399 3f686b39     k..>..h?...>9kh?
    9150:	3ed53641 3f68bf3c 3ed3c867 3f6912ae     A6.><.h?g..>..i?
    9160:	3ed25a09 3f696591 3ed0eb2a 3f69b7e4     .Z.>.ei?*..>..i?
    9170:	3ecf7bca 3f6a09a7 3ece0bea 3f6a5ad9     .{.>..j?...>.Zj?
    9180:	3ecc9b8b 3f6aab7b 3ecb2aae 3f6afb8c     ...>{.j?.*.>..j?
    9190:	3ec9b953 3f6b4b0c 3ec8477c 3f6b99fb     S..>.Kk?|G.>..k?
    91a0:	3ec6d529 3f6be858 3ec5625c 3f6c3624     )..>X.k?\b.>$6l?
    91b0:	3ec3ef15 3f6c835e 3ec27b55 3f6cd007     ...>^.l?U{.>..l?
    91c0:	3ec1071e 3f6d1c1d 3ebf926f 3f6d67a1     ...>..m?o..>.gm?
    91d0:	3ebe1d4a 3f6db293 3ebca7af 3f6dfcf2     J..>..m?...>..m?
    91e0:	3ebb31a0 3f6e46be 3eb9bb1e 3f6e8ff8     .1.>.Fn?...>..n?
    91f0:	3eb8442a 3f6ed89e 3eb6ccc3 3f6f20b0     *D.>..n?...>. o?
    9200:	3eb554ec 3f6f6830 3eb3dca5 3f6faf1b     .T.>0ho?...>..o?
    9210:	3eb263ef 3f6ff573 3eb0eacb 3f703b37     .c.>s.o?...>7;p?
    9220:	3eaf713a 3f708066 3eadf73c 3f70c502     :q.>f.p?<..>..p?
    9230:	3eac7cd4 3f710908 3eab0201 3f714c7a     .|.>..q?...>zLq?
    9240:	3ea986c4 3f718f57 3ea80b1f 3f71d19f     ...>W.q?...>..q?
    9250:	3ea68f12 3f721352 3ea5129f 3f725470     ...>R.r?...>pTr?
    9260:	3ea395c5 3f7294f8 3ea21887 3f72d4eb     ...>..r?...>..r?
    9270:	3ea09ae5 3f731447 3e9f1cdf 3f73530e     ...>G.s?...>.Ss?
    9280:	3e9d9e78 3f73913f 3e9c1faf 3f73ced9     x..>?.s?...>..s?
    9290:	3e9aa086 3f740bdd 3e9920fe 3f74484b     ...>..t?. .>KHt?
    92a0:	3e97a117 3f748422 3e9620d2 3f74bf62     ...>".t?. .>b.t?
    92b0:	3e94a031 3f74fa0b 3e931f35 3f75341d     1..>..t?5..>.4u?
    92c0:	3e919ddd 3f756d97 3e901c2c 3f75a67b     ...>.mu?,..>{.u?
    92d0:	3e8e9a22 3f75dec6 3e8d17c0 3f76167a     "..>..u?...>z.v?
    92e0:	3e8b9507 3f764d97 3e8a11f8 3f76841b     ...>.Mv?...>..v?
    92f0:	3e888e93 3f76ba07 3e870ada 3f76ef5b     ...>..v?...>[.v?
    9300:	3e8586ce 3f772417 3e840270 3f77583a     ...>.$w?p..>:Xw?
    9310:	3e827dc0 3f778bc5 3e80f8c0 3f77beb7     .}.>..w?...>..w?
    9320:	3e7ee6e1 3f77f110 3e7bdba4 3f7822d1     ..~>..w?..{>."x?
    9330:	3e78cfcc 3f7853f8 3e75c35a 3f788486     ..x>.Sx?Z.u>..x?
    9340:	3e72b651 3f78b47b 3e6fa8b2 3f78e3d6     Q.r>{.x?..o>..x?
    9350:	3e6c9a7f 3f791298 3e698bba 3f7940c0     ..l>..y?..i>.@y?
    9360:	3e667c66 3f796e4e 3e636c83 3f799b43     f|f>Nny?.lc>C.y?
    9370:	3e605c13 3f79c79d 3e5d4b1a 3f79f35e     .\`>..y?.K]>^.y?
    9380:	3e5a3997 3f7a1e84 3e57278f 3f7a4910     .9Z>..z?.'W>.Iz?
    9390:	3e541501 3f7a7302 3e5101f1 3f7a9c59     ..T>.sz?..Q>Y.z?
    93a0:	3e4dee60 3f7ac516 3e4ada4f 3f7aed37     `.M>..z?O.J>7.z?
    93b0:	3e47c5c2 3f7b14be 3e44b0b9 3f7b3bab     ..G>..{?..D>.;{?
    93c0:	3e419b37 3f7b61fc 3e3e853e 3f7b87b2     7.A>.a{?>.>>..{?
    93d0:	3e3b6ecf 3f7baccd 3e3857ec 3f7bd14d     .n;>..{?.W8>M.{?
    93e0:	3e354098 3f7bf531 3e3228d4 3f7c187a     .@5>1.{?.(2>z.|?
    93f0:	3e2f10a2 3f7c3b28 3e2bf804 3f7c5d3a     ../>(;|?..+>:]|?
    9400:	3e28defc 3f7c7eb0 3e25c58c 3f7c9f8a     ..(>.~|?..%>..|?
    9410:	3e22abb6 3f7cbfc9 3e1f917b 3f7cdf6c     ..">..|?{..>l.|?
    9420:	3e1c76de 3f7cfe73 3e195be0 3f7d1cdd     .v.>s.|?.[.>..}?
    9430:	3e164083 3f7d3aac 3e1324ca 3f7d57de     .@.>.:}?.$.>.W}?
    9440:	3e1008b7 3f7d7474 3e0cec4a 3f7d906e     ...>tt}?J..>n.}?
    9450:	3e09cf86 3f7dabcc 3e06b26e 3f7dc68c     ...>..}?n..>..}?
    9460:	3e039502 3f7de0b1 3e007745 3f7dfa38     ...>..}?Ew.>8.}?
    9470:	3dfab273 3f7e1324 3df475c0 3f7e2b72     s..=$.~?.u.=r+~?
    9480:	3dee3876 3f7e4323 3de7fa9a 3f7e5a38     v8.=#C~?...=8Z~?
    9490:	3de1bc2e 3f7e70b0 3ddb7d37 3f7e868b     ...=.p~?7}.=..~?
    94a0:	3dd53db9 3f7e9bc9 3dcefdb7 3f7eb069     .=.=..~?...=i.~?
    94b0:	3dc8bd36 3f7ec46d 3dc27c39 3f7ed7d4     6..=m.~?9|.=..~?
    94c0:	3dbc3ac3 3f7eea9d 3db5f8da 3f7efcc9     .:.=..~?...=..~?
    94d0:	3dafb680 3f7f0e58 3da973ba 3f7f1f49     ...=X..?.s.=I..?
    94e0:	3da3308c 3f7f2f9d 3d9cecf9 3f7f3f54     .0.=./.?...=T?.?
    94f0:	3d96a905 3f7f4e6d 3d9064b4 3f7f5ce9     ...=mN.?.d.=.\.?
    9500:	3d8a200a 3f7f6ac7 3d83db0a 3f7f7808     . .=.j.?...=.x.?
    9510:	3d7b2b74 3f7f84ab 3d6ea038 3f7f90b1     t+{=...?8.n=...?
    9520:	3d621468 3f7f9c18 3d55880e 3f7fa6e3     h.b=...?..U=...?
    9530:	3d48fb2f 3f7fb10f 3d3c6dd5 3f7fba9e     /.H=...?.m<=...?
    9540:	3d2fe007 3f7fc38f 3d2351cc 3f7fcbe2     ../=...?.Q#=...?
    9550:	3d16c32c 3f7fd398 3d0a342f 3f7fdaaf     ,..=...?/4.=...?
    9560:	3cfb49b9 3f7fe129 3ce22a7b 3f7fe705     .I.<)..?{*.<...?
    9570:	3cc90ab0 3f7fec43 3cafea69 3f7ff0e3     ...<C..?i..<...?
    9580:	3c96c9b6 3f7ff4e6 3c7b514b 3f7ff84a     ...<...?KQ{<J..?
    9590:	3c490e90 3f7ffb11 3c16cb59 3f7ffd39     ..I<...?Y..<9..?
    95a0:	3bc90f89 3f7ffec4 3b490fc7 3f7fffb1     ...;...?..I;...?
    95b0:	00000000 3f800000 bb490fc7 3f7fffb1     .......?..I....?
    95c0:	bbc90f89 3f7ffec4 bc16cb59 3f7ffd39     .......?Y...9..?
    95d0:	bc490e90 3f7ffb11 bc7b514b 3f7ff84a     ..I....?KQ{.J..?
    95e0:	bc96c9b6 3f7ff4e6 bcafea69 3f7ff0e3     .......?i......?
    95f0:	bcc90ab0 3f7fec43 bce22a7b 3f7fe705     ....C..?{*.....?
    9600:	bcfb49b9 3f7fe129 bd0a342f 3f7fdaaf     .I..)..?/4.....?
    9610:	bd16c32c 3f7fd398 bd2351cc 3f7fcbe2     ,......?.Q#....?
    9620:	bd2fe007 3f7fc38f bd3c6dd5 3f7fba9e     ../....?.m<....?
    9630:	bd48fb2f 3f7fb10f bd55880e 3f7fa6e3     /.H....?..U....?
    9640:	bd621468 3f7f9c18 bd6ea038 3f7f90b1     h.b....?8.n....?
    9650:	bd7b2b74 3f7f84ab bd83db0a 3f7f7808     t+{....?.....x.?
    9660:	bd8a200a 3f7f6ac7 bd9064b4 3f7f5ce9     . ...j.?.d...\.?
    9670:	bd96a905 3f7f4e6d bd9cecf9 3f7f3f54     ....mN.?....T?.?
    9680:	bda3308c 3f7f2f9d bda973ba 3f7f1f49     .0.../.?.s..I..?
    9690:	bdafb680 3f7f0e58 bdb5f8da 3f7efcc9     ....X..?......~?
    96a0:	bdbc3ac3 3f7eea9d bdc27c39 3f7ed7d4     .:....~?9|....~?
    96b0:	bdc8bd36 3f7ec46d bdcefdb7 3f7eb069     6...m.~?....i.~?
    96c0:	bdd53db9 3f7e9bc9 bddb7d37 3f7e868b     .=....~?7}....~?
    96d0:	bde1bc2e 3f7e70b0 bde7fa9a 3f7e5a38     .....p~?....8Z~?
    96e0:	bdee3876 3f7e4323 bdf475c0 3f7e2b72     v8..#C~?.u..r+~?
    96f0:	bdfab273 3f7e1324 be007745 3f7dfa38     s...$.~?Ew..8.}?
    9700:	be039502 3f7de0b1 be06b26e 3f7dc68c     ......}?n.....}?
    9710:	be09cf86 3f7dabcc be0cec4a 3f7d906e     ......}?J...n.}?
    9720:	be1008b7 3f7d7474 be1324ca 3f7d57de     ....tt}?.$...W}?
    9730:	be164083 3f7d3aac be195be0 3f7d1cdd     .@...:}?.[....}?
    9740:	be1c76de 3f7cfe73 be1f917b 3f7cdf6c     .v..s.|?{...l.|?
    9750:	be22abb6 3f7cbfc9 be25c58c 3f7c9f8a     .."...|?..%...|?
    9760:	be28defc 3f7c7eb0 be2bf804 3f7c5d3a     ..(..~|?..+.:]|?
    9770:	be2f10a2 3f7c3b28 be3228d4 3f7c187a     ../.(;|?.(2.z.|?
    9780:	be354098 3f7bf531 be3857ec 3f7bd14d     .@5.1.{?.W8.M.{?
    9790:	be3b6ecf 3f7baccd be3e853e 3f7b87b2     .n;...{?>.>...{?
    97a0:	be419b37 3f7b61fc be44b0b9 3f7b3bab     7.A..a{?..D..;{?
    97b0:	be47c5c2 3f7b14be be4ada4f 3f7aed37     ..G...{?O.J.7.z?
    97c0:	be4dee60 3f7ac516 be5101f1 3f7a9c59     `.M...z?..Q.Y.z?
    97d0:	be541501 3f7a7302 be57278f 3f7a4910     ..T..sz?.'W..Iz?
    97e0:	be5a3997 3f7a1e84 be5d4b1a 3f79f35e     .9Z...z?.K].^.y?
    97f0:	be605c13 3f79c79d be636c83 3f799b43     .\`...y?.lc.C.y?
    9800:	be667c66 3f796e4e be698bba 3f7940c0     f|f.Nny?..i..@y?
    9810:	be6c9a7f 3f791298 be6fa8b2 3f78e3d6     ..l...y?..o...x?
    9820:	be72b651 3f78b47b be75c35a 3f788486     Q.r.{.x?Z.u...x?
    9830:	be78cfcc 3f7853f8 be7bdba4 3f7822d1     ..x..Sx?..{.."x?
    9840:	be7ee6e1 3f77f110 be80f8c0 3f77beb7     ..~...w?......w?
    9850:	be827dc0 3f778bc5 be840270 3f77583a     .}....w?p...:Xw?
    9860:	be8586ce 3f772417 be870ada 3f76ef5b     .....$w?....[.v?
    9870:	be888e93 3f76ba07 be8a11f8 3f76841b     ......v?......v?
    9880:	be8b9507 3f764d97 be8d17c0 3f76167a     .....Mv?....z.v?
    9890:	be8e9a22 3f75dec6 be901c2c 3f75a67b     ".....u?,...{.u?
    98a0:	be919ddd 3f756d97 be931f35 3f75341d     .....mu?5....4u?
    98b0:	be94a031 3f74fa0b be9620d2 3f74bf62     1.....t?. ..b.t?
    98c0:	be97a117 3f748422 be9920fe 3f74484b     ....".t?. ..KHt?
    98d0:	be9aa086 3f740bdd be9c1faf 3f73ced9     ......t?......s?
    98e0:	be9d9e78 3f73913f be9f1cdf 3f73530e     x...?.s?.....Ss?
    98f0:	bea09ae5 3f731447 bea21887 3f72d4eb     ....G.s?......r?
    9900:	bea395c5 3f7294f8 bea5129f 3f725470     ......r?....pTr?
    9910:	bea68f12 3f721352 bea80b1f 3f71d19f     ....R.r?......q?
    9920:	bea986c4 3f718f57 beab0201 3f714c7a     ....W.q?....zLq?
    9930:	beac7cd4 3f710908 beadf73c 3f70c502     .|....q?<.....p?
    9940:	beaf713a 3f708066 beb0eacb 3f703b37     :q..f.p?....7;p?
    9950:	beb263ef 3f6ff573 beb3dca5 3f6faf1b     .c..s.o?......o?
    9960:	beb554ec 3f6f6830 beb6ccc3 3f6f20b0     .T..0ho?..... o?
    9970:	beb8442a 3f6ed89e beb9bb1e 3f6e8ff8     *D....n?......n?
    9980:	bebb31a0 3f6e46be bebca7af 3f6dfcf2     .1...Fn?......m?
    9990:	bebe1d4a 3f6db293 bebf926f 3f6d67a1     J.....m?o....gm?
    99a0:	bec1071e 3f6d1c1d bec27b55 3f6cd007     ......m?U{....l?
    99b0:	bec3ef15 3f6c835e bec5625c 3f6c3624     ....^.l?\b..$6l?
    99c0:	bec6d529 3f6be858 bec8477c 3f6b99fb     )...X.k?|G....k?
    99d0:	bec9b953 3f6b4b0c becb2aae 3f6afb8c     S....Kk?.*....j?
    99e0:	becc9b8b 3f6aab7b bece0bea 3f6a5ad9     ....{.j?.....Zj?
    99f0:	becf7bca 3f6a09a7 bed0eb2a 3f69b7e4     .{....j?*.....i?
    9a00:	bed25a09 3f696591 bed3c867 3f6912ae     .Z...ei?g.....i?
    9a10:	bed53641 3f68bf3c bed6a399 3f686b39     A6..<.h?....9kh?
    9a20:	bed8106b 3f6816a8 bed97cb9 3f67c187     k.....h?.|....g?
    9a30:	bedae880 3f676bd8 bedc53c1 3f671599     .....kg?.S....g?
    9a40:	beddbe79 3f66becc bedf28a9 3f666771     y.....f?.(..qgf?
    9a50:	bee0924f 3f660f88 bee1fb6a 3f65b710     O.....f?j.....e?
    9a60:	bee363fa 3f655e0b bee4cbfe 3f650479     .c...^e?....y.e?
    9a70:	bee63375 3f64aa59 bee79a5d 3f644fac     u3..Y.d?]....Od?
    9a80:	bee900b7 3f63f473 beea6681 3f6398ac     ....s.c?.f....c?
    9a90:	beebcbbb 3f633c5a beed3063 3f62df7b     ....Z<c?c0..{.b?
    9aa0:	beee9479 3f628210 beeff7fb 3f62241a     y.....b?.....$b?
    9ab0:	bef15aea 3f61c598 bef2bd43 3f61668a     .Z....a?C....fa?
    9ac0:	bef41f07 3f6106f2 bef58035 3f60a6cf     ......a?5.....`?
    9ad0:	bef6e0cb 3f604621 bef840c8 3f5fe4e9     ....!F`?.@...._?
    9ae0:	bef9a02d 3f5f8327 befafef7 3f5f20db     -...'._?..... _?
    9af0:	befc5d27 3f5ebe05 befdbabb 3f5e5aa6     ']....^?.....Z^?
    9b00:	beff17b2 3f5df6be bf003a06 3f5d924d     ......]?.:..M.]?
    9b10:	bf00e7e4 3f5d2d53 bf019573 3f5cc7d1     ....S-]?s.....\?
    9b20:	bf0242b1 3f5c61c7 bf02ef9f 3f5bfb34     .B...a\?....4.[?
    9b30:	bf039c3d 3f5b941a bf044889 3f5b2c79     =.....[?.H..y,[?
    9b40:	bf04f484 3f5ac450 bf05a02c 3f5a5ba0     ....P.Z?,....[Z?
    9b50:	bf064b82 3f59f26a bf06f686 3f5988ad     .K..j.Y?......Y?
    9b60:	bf07a136 3f591e6a bf084b92 3f58b3a1     6...j.Y?.K....X?
    9b70:	bf08f59b 3f584853 bf099f4e 3f57dc7f     ....SHX?N.....W?
    9b80:	bf0a48ad 3f577026 bf0af1b7 3f570348     .H..&pW?....H.W?
    9b90:	bf0b9a6b 3f5695e5 bf0c42c9 3f5627fe     k.....V?.B...'V?
    9ba0:	bf0cead0 3f55b993 bf0d9281 3f554aa4     ......U?.....JU?
    9bb0:	bf0e39da 3f54db31 bf0ee0db 3f546b3b     .9..1.T?....;kT?
    9bc0:	bf0f8784 3f53fac3 bf102dd5 3f5389c7     ......S?.-....S?
    9bd0:	bf10d3cd 3f531849 bf11796b 3f52a649     ....I.S?ky..I.R?
    9be0:	bf121eb0 3f5233c6 bf12c39a 3f51c0c2     .....3R?......Q?
    9bf0:	bf13682a 3f514d3d bf140c5f 3f50d937     *h..=MQ?_...7.P?
    9c00:	bf14b039 3f5064af bf1553b7 3f4fefa8     9....dP?.S....O?
    9c10:	bf15f6d9 3f4f7a1f bf16999f 3f4f0417     .....zO?......O?
    9c20:	bf173c07 3f4e8d90 bf17de12 3f4e1689     .<....N?......N?
    9c30:	bf187fc0 3f4d9f02 bf19210f 3f4d26fd     ......M?.!...&M?
    9c40:	bf19c200 3f4cae79 bf1a6293 3f4c3578     ....y.L?.b..x5L?
    9c50:	bf1b02c6 3f4bbbf8 bf1ba299 3f4b41fa     ......K?.....AK?
    9c60:	bf1c420c 3f4ac77f bf1ce11f 3f4a4c87     .B....J?.....LJ?
    9c70:	bf1d7fd1 3f49d112 bf1e1e22 3f495521     ......I?"...!UI?
    9c80:	bf1ebc12 3f48d8b3 bf1f599f 3f485bca     ......H?.Y...[H?
    9c90:	bf1ff6cb 3f47de65 bf209393 3f476085     ....e.G?.. ..`G?
    9ca0:	bf212ff9 3f46e22a bf21cbfb 3f466354     ./!.*.F?..!.TcF?
    9cb0:	bf226799 3f45e403 bf2302d3 3f456439     .g"...E?..#.9dE?
    9cc0:	bf239da9 3f44e3f5 bf24381a 3f446337     ..#...D?.8$.7cD?
    9cd0:	bf24d225 3f43e200 bf256bcb 3f436051     %.$...C?.k%.Q`C?
    9ce0:	bf26050a 3f42de29 bf269de3 3f425b89     ..&.).B?..&..[B?
    9cf0:	bf273656 3f41d870 bf27ce61 3f4154e1     V6'.p.A?a.'..TA?
    9d00:	bf286605 3f40d0da bf28fd41 3f404c5c     .f(...@?A.(.\L@?
    9d10:	bf299415 3f3fc767 bf2a2a80 3f3f41fc     ..).g.??.**..A??
    9d20:	bf2ac082 3f3ebc1b bf2b561b 3f3e35c5     ..*...>?.V+..5>?
    9d30:	bf2beb4a 3f3daef9 bf2c800f 3f3d27b8     J.+...=?..,..'=?
    9d40:	bf2d1469 3f3ca003 bf2da859 3f3c17d9     i.-...<?Y.-...<?
    9d50:	bf2e3bde 3f3b8f3b bf2ecef7 3f3b0629     .;..;.;?....).;?
    9d60:	bf2f61a5 3f3a7ca4 bf2ff3e6 3f39f2ac     .a/..|:?../...9?
    9d70:	bf3085bb 3f396842 bf311722 3f38dd65     ..0.Bh9?".1.e.8?
    9d80:	bf31a81d 3f385216 bf3238aa 3f37c655     ..1..R8?.82.U.7?
    9d90:	bf32c8c9 3f373a23 bf33587a 3f36ad7f     ..2.#:7?zX3...6?
    9da0:	bf33e7bc 3f36206c bf34768f 3f3592e7     ..3.l 6?.v4...5?
    9db0:	bf3504f3 3f3504f3 bf3592e7 3f34768f     ..5...5?..5..v4?
    9dc0:	bf36206c 3f33e7bc bf36ad7f 3f33587a     l 6...3?..6.zX3?
    9dd0:	bf373a23 3f32c8c9 bf37c655 3f3238aa     #:7...2?U.7..82?
    9de0:	bf385216 3f31a81d bf38dd65 3f311722     .R8...1?e.8.".1?
    9df0:	bf396842 3f3085bb bf39f2ac 3f2ff3e6     Bh9...0?..9.../?
    9e00:	bf3a7ca4 3f2f61a5 bf3b0629 3f2ecef7     .|:..a/?).;....?
    9e10:	bf3b8f3b 3f2e3bde bf3c17d9 3f2da859     ;.;..;.?..<.Y.-?
    9e20:	bf3ca003 3f2d1469 bf3d27b8 3f2c800f     ..<.i.-?.'=...,?
    9e30:	bf3daef9 3f2beb4a bf3e35c5 3f2b561b     ..=.J.+?.5>..V+?
    9e40:	bf3ebc1b 3f2ac082 bf3f41fc 3f2a2a80     ..>...*?.A?..**?
    9e50:	bf3fc767 3f299415 bf404c5c 3f28fd41     g.?...)?\L@.A.(?
    9e60:	bf40d0da 3f286605 bf4154e1 3f27ce61     ..@..f(?.TA.a.'?
    9e70:	bf41d870 3f273656 bf425b89 3f269de3     p.A.V6'?.[B...&?
    9e80:	bf42de29 3f26050a bf436051 3f256bcb     ).B...&?Q`C..k%?
    9e90:	bf43e200 3f24d225 bf446337 3f24381a     ..C.%.$?7cD..8$?
    9ea0:	bf44e3f5 3f239da9 bf456439 3f2302d3     ..D...#?9dE...#?
    9eb0:	bf45e403 3f226799 bf466354 3f21cbfb     ..E..g"?TcF...!?
    9ec0:	bf46e22a 3f212ff9 bf476085 3f209393     *.F../!?.`G... ?
    9ed0:	bf47de65 3f1ff6cb bf485bca 3f1f599f     e.G....?.[H..Y.?
    9ee0:	bf48d8b3 3f1ebc12 bf495521 3f1e1e22     ..H....?!UI."..?
    9ef0:	bf49d112 3f1d7fd1 bf4a4c87 3f1ce11f     ..I....?.LJ....?
    9f00:	bf4ac77f 3f1c420c bf4b41fa 3f1ba299     ..J..B.?.AK....?
    9f10:	bf4bbbf8 3f1b02c6 bf4c3578 3f1a6293     ..K....?x5L..b.?
    9f20:	bf4cae79 3f19c200 bf4d26fd 3f19210f     y.L....?.&M..!.?
    9f30:	bf4d9f02 3f187fc0 bf4e1689 3f17de12     ..M....?..N....?
    9f40:	bf4e8d90 3f173c07 bf4f0417 3f16999f     ..N..<.?..O....?
    9f50:	bf4f7a1f 3f15f6d9 bf4fefa8 3f1553b7     .zO....?..O..S.?
    9f60:	bf5064af 3f14b039 bf50d937 3f140c5f     .dP.9..?7.P._..?
    9f70:	bf514d3d 3f13682a bf51c0c2 3f12c39a     =MQ.*h.?..Q....?
    9f80:	bf5233c6 3f121eb0 bf52a649 3f11796b     .3R....?I.R.ky.?
    9f90:	bf531849 3f10d3cd bf5389c7 3f102dd5     I.S....?..S..-.?
    9fa0:	bf53fac3 3f0f8784 bf546b3b 3f0ee0db     ..S....?;kT....?
    9fb0:	bf54db31 3f0e39da bf554aa4 3f0d9281     1.T..9.?.JU....?
    9fc0:	bf55b993 3f0cead0 bf5627fe 3f0c42c9     ..U....?.'V..B.?
    9fd0:	bf5695e5 3f0b9a6b bf570348 3f0af1b7     ..V.k..?H.W....?
    9fe0:	bf577026 3f0a48ad bf57dc7f 3f099f4e     &pW..H.?..W.N..?
    9ff0:	bf584853 3f08f59b bf58b3a1 3f084b92     SHX....?..X..K.?
    a000:	bf591e6a 3f07a136 bf5988ad 3f06f686     j.Y.6..?..Y....?
    a010:	bf59f26a 3f064b82 bf5a5ba0 3f05a02c     j.Y..K.?.[Z.,..?
    a020:	bf5ac450 3f04f484 bf5b2c79 3f044889     P.Z....?y,[..H.?
    a030:	bf5b941a 3f039c3d bf5bfb34 3f02ef9f     ..[.=..?4.[....?
    a040:	bf5c61c7 3f0242b1 bf5cc7d1 3f019573     .a\..B.?..\.s..?
    a050:	bf5d2d53 3f00e7e4 bf5d924d 3f003a06     S-]....?M.]..:.?
    a060:	bf5df6be 3eff17b2 bf5e5aa6 3efdbabb     ..]....>.Z^....>
    a070:	bf5ebe05 3efc5d27 bf5f20db 3efafef7     ..^.'].>. _....>
    a080:	bf5f8327 3ef9a02d bf5fe4e9 3ef840c8     '._.-..>.._..@.>
    a090:	bf604621 3ef6e0cb bf60a6cf 3ef58035     !F`....>..`.5..>
    a0a0:	bf6106f2 3ef41f07 bf61668a 3ef2bd43     ..a....>.fa.C..>
    a0b0:	bf61c598 3ef15aea bf62241a 3eeff7fb     ..a..Z.>.$b....>
    a0c0:	bf628210 3eee9479 bf62df7b 3eed3063     ..b.y..>{.b.c0.>
    a0d0:	bf633c5a 3eebcbbb bf6398ac 3eea6681     Z<c....>..c..f.>
    a0e0:	bf63f473 3ee900b7 bf644fac 3ee79a5d     s.c....>.Od.]..>
    a0f0:	bf64aa59 3ee63375 bf650479 3ee4cbfe     Y.d.u3.>y.e....>
    a100:	bf655e0b 3ee363fa bf65b710 3ee1fb6a     .^e..c.>..e.j..>
    a110:	bf660f88 3ee0924f bf666771 3edf28a9     ..f.O..>qgf..(.>
    a120:	bf66becc 3eddbe79 bf671599 3edc53c1     ..f.y..>..g..S.>
    a130:	bf676bd8 3edae880 bf67c187 3ed97cb9     .kg....>..g..|.>
    a140:	bf6816a8 3ed8106b bf686b39 3ed6a399     ..h.k..>9kh....>
    a150:	bf68bf3c 3ed53641 bf6912ae 3ed3c867     <.h.A6.>..i.g..>
    a160:	bf696591 3ed25a09 bf69b7e4 3ed0eb2a     .ei..Z.>..i.*..>
    a170:	bf6a09a7 3ecf7bca bf6a5ad9 3ece0bea     ..j..{.>.Zj....>
    a180:	bf6aab7b 3ecc9b8b bf6afb8c 3ecb2aae     {.j....>..j..*.>
    a190:	bf6b4b0c 3ec9b953 bf6b99fb 3ec8477c     .Kk.S..>..k.|G.>
    a1a0:	bf6be858 3ec6d529 bf6c3624 3ec5625c     X.k.)..>$6l.\b.>
    a1b0:	bf6c835e 3ec3ef15 bf6cd007 3ec27b55     ^.l....>..l.U{.>
    a1c0:	bf6d1c1d 3ec1071e bf6d67a1 3ebf926f     ..m....>.gm.o..>
    a1d0:	bf6db293 3ebe1d4a bf6dfcf2 3ebca7af     ..m.J..>..m....>
    a1e0:	bf6e46be 3ebb31a0 bf6e8ff8 3eb9bb1e     .Fn..1.>..n....>
    a1f0:	bf6ed89e 3eb8442a bf6f20b0 3eb6ccc3     ..n.*D.>. o....>
    a200:	bf6f6830 3eb554ec bf6faf1b 3eb3dca5     0ho..T.>..o....>
    a210:	bf6ff573 3eb263ef bf703b37 3eb0eacb     s.o..c.>7;p....>
    a220:	bf708066 3eaf713a bf70c502 3eadf73c     f.p.:q.>..p.<..>
    a230:	bf710908 3eac7cd4 bf714c7a 3eab0201     ..q..|.>zLq....>
    a240:	bf718f57 3ea986c4 bf71d19f 3ea80b1f     W.q....>..q....>
    a250:	bf721352 3ea68f12 bf725470 3ea5129f     R.r....>pTr....>
    a260:	bf7294f8 3ea395c5 bf72d4eb 3ea21887     ..r....>..r....>
    a270:	bf731447 3ea09ae5 bf73530e 3e9f1cdf     G.s....>.Ss....>
    a280:	bf73913f 3e9d9e78 bf73ced9 3e9c1faf     ?.s.x..>..s....>
    a290:	bf740bdd 3e9aa086 bf74484b 3e9920fe     ..t....>KHt.. .>
    a2a0:	bf748422 3e97a117 bf74bf62 3e9620d2     ".t....>b.t.. .>
    a2b0:	bf74fa0b 3e94a031 bf75341d 3e931f35     ..t.1..>.4u.5..>
    a2c0:	bf756d97 3e919ddd bf75a67b 3e901c2c     .mu....>{.u.,..>
    a2d0:	bf75dec6 3e8e9a22 bf76167a 3e8d17c0     ..u."..>z.v....>
    a2e0:	bf764d97 3e8b9507 bf76841b 3e8a11f8     .Mv....>..v....>
    a2f0:	bf76ba07 3e888e93 bf76ef5b 3e870ada     ..v....>[.v....>
    a300:	bf772417 3e8586ce bf77583a 3e840270     .$w....>:Xw.p..>
    a310:	bf778bc5 3e827dc0 bf77beb7 3e80f8c0     ..w..}.>..w....>
    a320:	bf77f110 3e7ee6e1 bf7822d1 3e7bdba4     ..w...~>."x...{>
    a330:	bf7853f8 3e78cfcc bf788486 3e75c35a     .Sx...x>..x.Z.u>
    a340:	bf78b47b 3e72b651 bf78e3d6 3e6fa8b2     {.x.Q.r>..x...o>
    a350:	bf791298 3e6c9a7f bf7940c0 3e698bba     ..y...l>.@y...i>
    a360:	bf796e4e 3e667c66 bf799b43 3e636c83     Nny.f|f>C.y..lc>
    a370:	bf79c79d 3e605c13 bf79f35e 3e5d4b1a     ..y..\`>^.y..K]>
    a380:	bf7a1e84 3e5a3997 bf7a4910 3e57278f     ..z..9Z>.Iz..'W>
    a390:	bf7a7302 3e541501 bf7a9c59 3e5101f1     .sz...T>Y.z...Q>
    a3a0:	bf7ac516 3e4dee60 bf7aed37 3e4ada4f     ..z.`.M>7.z.O.J>
    a3b0:	bf7b14be 3e47c5c2 bf7b3bab 3e44b0b9     ..{...G>.;{...D>
    a3c0:	bf7b61fc 3e419b37 bf7b87b2 3e3e853e     .a{.7.A>..{.>.>>
    a3d0:	bf7baccd 3e3b6ecf bf7bd14d 3e3857ec     ..{..n;>M.{..W8>
    a3e0:	bf7bf531 3e354098 bf7c187a 3e3228d4     1.{..@5>z.|..(2>
    a3f0:	bf7c3b28 3e2f10a2 bf7c5d3a 3e2bf804     (;|.../>:]|...+>
    a400:	bf7c7eb0 3e28defc bf7c9f8a 3e25c58c     .~|...(>..|...%>
    a410:	bf7cbfc9 3e22abb6 bf7cdf6c 3e1f917b     ..|...">l.|.{..>
    a420:	bf7cfe73 3e1c76de bf7d1cdd 3e195be0     s.|..v.>..}..[.>
    a430:	bf7d3aac 3e164083 bf7d57de 3e1324ca     .:}..@.>.W}..$.>
    a440:	bf7d7474 3e1008b7 bf7d906e 3e0cec4a     tt}....>n.}.J..>
    a450:	bf7dabcc 3e09cf86 bf7dc68c 3e06b26e     ..}....>..}.n..>
    a460:	bf7de0b1 3e039502 bf7dfa38 3e007745     ..}....>8.}.Ew.>
    a470:	bf7e1324 3dfab273 bf7e2b72 3df475c0     $.~.s..=r+~..u.=
    a480:	bf7e4323 3dee3876 bf7e5a38 3de7fa9a     #C~.v8.=8Z~....=
    a490:	bf7e70b0 3de1bc2e bf7e868b 3ddb7d37     .p~....=..~.7}.=
    a4a0:	bf7e9bc9 3dd53db9 bf7eb069 3dcefdb7     ..~..=.=i.~....=
    a4b0:	bf7ec46d 3dc8bd36 bf7ed7d4 3dc27c39     m.~.6..=..~.9|.=
    a4c0:	bf7eea9d 3dbc3ac3 bf7efcc9 3db5f8da     ..~..:.=..~....=
    a4d0:	bf7f0e58 3dafb680 bf7f1f49 3da973ba     X......=I....s.=
    a4e0:	bf7f2f9d 3da3308c bf7f3f54 3d9cecf9     ./...0.=T?.....=
    a4f0:	bf7f4e6d 3d96a905 bf7f5ce9 3d9064b4     mN.....=.\...d.=
    a500:	bf7f6ac7 3d8a200a bf7f7808 3d83db0a     .j... .=.x.....=
    a510:	bf7f84ab 3d7b2b74 bf7f90b1 3d6ea038     ....t+{=....8.n=
    a520:	bf7f9c18 3d621468 bf7fa6e3 3d55880e     ....h.b=......U=
    a530:	bf7fb10f 3d48fb2f bf7fba9e 3d3c6dd5     ..../.H=.....m<=
    a540:	bf7fc38f 3d2fe007 bf7fcbe2 3d2351cc     ....../=.....Q#=
    a550:	bf7fd398 3d16c32c bf7fdaaf 3d0a342f     ....,..=..../4.=
    a560:	bf7fe129 3cfb49b9 bf7fe705 3ce22a7b     )....I.<....{*.<
    a570:	bf7fec43 3cc90ab0 bf7ff0e3 3cafea69     C......<....i..<
    a580:	bf7ff4e6 3c96c9b6 bf7ff84a 3c7b514b     .......<J...KQ{<
    a590:	bf7ffb11 3c490e90 bf7ffd39 3c16cb59     ......I<9...Y..<
    a5a0:	bf7ffec4 3bc90f89 bf7fffb1 3b490fc7     .......;......I;
    a5b0:	bf800000 00000000 bf7fffb1 bb490fc7     ..............I.
    a5c0:	bf7ffec4 bbc90f89 bf7ffd39 bc16cb59     ........9...Y...
    a5d0:	bf7ffb11 bc490e90 bf7ff84a bc7b514b     ......I.J...KQ{.
    a5e0:	bf7ff4e6 bc96c9b6 bf7ff0e3 bcafea69     ............i...
    a5f0:	bf7fec43 bcc90ab0 bf7fe705 bce22a7b     C...........{*..
    a600:	bf7fe129 bcfb49b9 bf7fdaaf bd0a342f     )....I....../4..
    a610:	bf7fd398 bd16c32c bf7fcbe2 bd2351cc     ....,........Q#.
    a620:	bf7fc38f bd2fe007 bf7fba9e bd3c6dd5     ....../......m<.
    a630:	bf7fb10f bd48fb2f bf7fa6e3 bd55880e     ..../.H.......U.
    a640:	bf7f9c18 bd621468 bf7f90b1 bd6ea038     ....h.b.....8.n.
    a650:	bf7f84ab bd7b2b74 bf7f7808 bd83db0a     ....t+{..x......
    a660:	bf7f6ac7 bd8a200a bf7f5ce9 bd9064b4     .j... ...\...d..
    a670:	bf7f4e6d bd96a905 bf7f3f54 bd9cecf9     mN......T?......
    a680:	bf7f2f9d bda3308c bf7f1f49 bda973ba     ./...0..I....s..
    a690:	bf7f0e58 bdafb680 bf7efcc9 bdb5f8da     X.........~.....
    a6a0:	bf7eea9d bdbc3ac3 bf7ed7d4 bdc27c39     ..~..:....~.9|..
    a6b0:	bf7ec46d bdc8bd36 bf7eb069 bdcefdb7     m.~.6...i.~.....
    a6c0:	bf7e9bc9 bdd53db9 bf7e868b bddb7d37     ..~..=....~.7}..
    a6d0:	bf7e70b0 bde1bc2e bf7e5a38 bde7fa9a     .p~.....8Z~.....
    a6e0:	bf7e4323 bdee3876 bf7e2b72 bdf475c0     #C~.v8..r+~..u..
    a6f0:	bf7e1324 bdfab273 bf7dfa38 be007745     $.~.s...8.}.Ew..
    a700:	bf7de0b1 be039502 bf7dc68c be06b26e     ..}.......}.n...
    a710:	bf7dabcc be09cf86 bf7d906e be0cec4a     ..}.....n.}.J...
    a720:	bf7d7474 be1008b7 bf7d57de be1324ca     tt}......W}..$..
    a730:	bf7d3aac be164083 bf7d1cdd be195be0     .:}..@....}..[..
    a740:	bf7cfe73 be1c76de bf7cdf6c be1f917b     s.|..v..l.|.{...
    a750:	bf7cbfc9 be22abb6 bf7c9f8a be25c58c     ..|..."...|...%.
    a760:	bf7c7eb0 be28defc bf7c5d3a be2bf804     .~|...(.:]|...+.
    a770:	bf7c3b28 be2f10a2 bf7c187a be3228d4     (;|.../.z.|..(2.
    a780:	bf7bf531 be354098 bf7bd14d be3857ec     1.{..@5.M.{..W8.
    a790:	bf7baccd be3b6ecf bf7b87b2 be3e853e     ..{..n;...{.>.>.
    a7a0:	bf7b61fc be419b37 bf7b3bab be44b0b9     .a{.7.A..;{...D.
    a7b0:	bf7b14be be47c5c2 bf7aed37 be4ada4f     ..{...G.7.z.O.J.
    a7c0:	bf7ac516 be4dee60 bf7a9c59 be5101f1     ..z.`.M.Y.z...Q.
    a7d0:	bf7a7302 be541501 bf7a4910 be57278f     .sz...T..Iz..'W.
    a7e0:	bf7a1e84 be5a3997 bf79f35e be5d4b1a     ..z..9Z.^.y..K].
    a7f0:	bf79c79d be605c13 bf799b43 be636c83     ..y..\`.C.y..lc.
    a800:	bf796e4e be667c66 bf7940c0 be698bba     Nny.f|f..@y...i.
    a810:	bf791298 be6c9a7f bf78e3d6 be6fa8b2     ..y...l...x...o.
    a820:	bf78b47b be72b651 bf788486 be75c35a     {.x.Q.r...x.Z.u.
    a830:	bf7853f8 be78cfcc bf7822d1 be7bdba4     .Sx...x.."x...{.
    a840:	bf77f110 be7ee6e1 bf77beb7 be80f8c0     ..w...~...w.....
    a850:	bf778bc5 be827dc0 bf77583a be840270     ..w..}..:Xw.p...
    a860:	bf772417 be8586ce bf76ef5b be870ada     .$w.....[.v.....
    a870:	bf76ba07 be888e93 bf76841b be8a11f8     ..v.......v.....
    a880:	bf764d97 be8b9507 bf76167a be8d17c0     .Mv.....z.v.....
    a890:	bf75dec6 be8e9a22 bf75a67b be901c2c     ..u."...{.u.,...
    a8a0:	bf756d97 be919ddd bf75341d be931f35     .mu......4u.5...
    a8b0:	bf74fa0b be94a031 bf74bf62 be9620d2     ..t.1...b.t.. ..
    a8c0:	bf748422 be97a117 bf74484b be9920fe     ".t.....KHt.. ..
    a8d0:	bf740bdd be9aa086 bf73ced9 be9c1faf     ..t.......s.....
    a8e0:	bf73913f be9d9e78 bf73530e be9f1cdf     ?.s.x....Ss.....
    a8f0:	bf731447 bea09ae5 bf72d4eb bea21887     G.s.......r.....
    a900:	bf7294f8 bea395c5 bf725470 bea5129f     ..r.....pTr.....
    a910:	bf721352 bea68f12 bf71d19f bea80b1f     R.r.......q.....
    a920:	bf718f57 bea986c4 bf714c7a beab0201     W.q.....zLq.....
    a930:	bf710908 beac7cd4 bf70c502 beadf73c     ..q..|....p.<...
    a940:	bf708066 beaf713a bf703b37 beb0eacb     f.p.:q..7;p.....
    a950:	bf6ff573 beb263ef bf6faf1b beb3dca5     s.o..c....o.....
    a960:	bf6f6830 beb554ec bf6f20b0 beb6ccc3     0ho..T... o.....
    a970:	bf6ed89e beb8442a bf6e8ff8 beb9bb1e     ..n.*D....n.....
    a980:	bf6e46be bebb31a0 bf6dfcf2 bebca7af     .Fn..1....m.....
    a990:	bf6db293 bebe1d4a bf6d67a1 bebf926f     ..m.J....gm.o...
    a9a0:	bf6d1c1d bec1071e bf6cd007 bec27b55     ..m.......l.U{..
    a9b0:	bf6c835e bec3ef15 bf6c3624 bec5625c     ^.l.....$6l.\b..
    a9c0:	bf6be858 bec6d529 bf6b99fb bec8477c     X.k.).....k.|G..
    a9d0:	bf6b4b0c bec9b953 bf6afb8c becb2aae     .Kk.S.....j..*..
    a9e0:	bf6aab7b becc9b8b bf6a5ad9 bece0bea     {.j......Zj.....
    a9f0:	bf6a09a7 becf7bca bf69b7e4 bed0eb2a     ..j..{....i.*...
    aa00:	bf696591 bed25a09 bf6912ae bed3c867     .ei..Z....i.g...
    aa10:	bf68bf3c bed53641 bf686b39 bed6a399     <.h.A6..9kh.....
    aa20:	bf6816a8 bed8106b bf67c187 bed97cb9     ..h.k.....g..|..
    aa30:	bf676bd8 bedae880 bf671599 bedc53c1     .kg.......g..S..
    aa40:	bf66becc beddbe79 bf666771 bedf28a9     ..f.y...qgf..(..
    aa50:	bf660f88 bee0924f bf65b710 bee1fb6a     ..f.O.....e.j...
    aa60:	bf655e0b bee363fa bf650479 bee4cbfe     .^e..c..y.e.....
    aa70:	bf64aa59 bee63375 bf644fac bee79a5d     Y.d.u3...Od.]...
    aa80:	bf63f473 bee900b7 bf6398ac beea6681     s.c.......c..f..
    aa90:	bf633c5a beebcbbb bf62df7b beed3063     Z<c.....{.b.c0..
    aaa0:	bf628210 beee9479 bf62241a beeff7fb     ..b.y....$b.....
    aab0:	bf61c598 bef15aea bf61668a bef2bd43     ..a..Z...fa.C...
    aac0:	bf6106f2 bef41f07 bf60a6cf bef58035     ..a.......`.5...
    aad0:	bf604621 bef6e0cb bf5fe4e9 bef840c8     !F`......._..@..
    aae0:	bf5f8327 bef9a02d bf5f20db befafef7     '._.-.... _.....
    aaf0:	bf5ebe05 befc5d27 bf5e5aa6 befdbabb     ..^.']...Z^.....
    ab00:	bf5df6be beff17b2 bf5d924d bf003a06     ..].....M.]..:..
    ab10:	bf5d2d53 bf00e7e4 bf5cc7d1 bf019573     S-].......\.s...
    ab20:	bf5c61c7 bf0242b1 bf5bfb34 bf02ef9f     .a\..B..4.[.....
    ab30:	bf5b941a bf039c3d bf5b2c79 bf044889     ..[.=...y,[..H..
    ab40:	bf5ac450 bf04f484 bf5a5ba0 bf05a02c     P.Z......[Z.,...
    ab50:	bf59f26a bf064b82 bf5988ad bf06f686     j.Y..K....Y.....
    ab60:	bf591e6a bf07a136 bf58b3a1 bf084b92     j.Y.6.....X..K..
    ab70:	bf584853 bf08f59b bf57dc7f bf099f4e     SHX.......W.N...
    ab80:	bf577026 bf0a48ad bf570348 bf0af1b7     &pW..H..H.W.....
    ab90:	bf5695e5 bf0b9a6b bf5627fe bf0c42c9     ..V.k....'V..B..
    aba0:	bf55b993 bf0cead0 bf554aa4 bf0d9281     ..U......JU.....
    abb0:	bf54db31 bf0e39da bf546b3b bf0ee0db     1.T..9..;kT.....
    abc0:	bf53fac3 bf0f8784 bf5389c7 bf102dd5     ..S.......S..-..
    abd0:	bf531849 bf10d3cd bf52a649 bf11796b     I.S.....I.R.ky..
    abe0:	bf5233c6 bf121eb0 bf51c0c2 bf12c39a     .3R.......Q.....
    abf0:	bf514d3d bf13682a bf50d937 bf140c5f     =MQ.*h..7.P._...
    ac00:	bf5064af bf14b039 bf4fefa8 bf1553b7     .dP.9.....O..S..
    ac10:	bf4f7a1f bf15f6d9 bf4f0417 bf16999f     .zO.......O.....
    ac20:	bf4e8d90 bf173c07 bf4e1689 bf17de12     ..N..<....N.....
    ac30:	bf4d9f02 bf187fc0 bf4d26fd bf19210f     ..M......&M..!..
    ac40:	bf4cae79 bf19c200 bf4c3578 bf1a6293     y.L.....x5L..b..
    ac50:	bf4bbbf8 bf1b02c6 bf4b41fa bf1ba299     ..K......AK.....
    ac60:	bf4ac77f bf1c420c bf4a4c87 bf1ce11f     ..J..B...LJ.....
    ac70:	bf49d112 bf1d7fd1 bf495521 bf1e1e22     ..I.....!UI."...
    ac80:	bf48d8b3 bf1ebc12 bf485bca bf1f599f     ..H......[H..Y..
    ac90:	bf47de65 bf1ff6cb bf476085 bf209393     e.G......`G... .
    aca0:	bf46e22a bf212ff9 bf466354 bf21cbfb     *.F../!.TcF...!.
    acb0:	bf45e403 bf226799 bf456439 bf2302d3     ..E..g".9dE...#.
    acc0:	bf44e3f5 bf239da9 bf446337 bf24381a     ..D...#.7cD..8$.
    acd0:	bf43e200 bf24d225 bf436051 bf256bcb     ..C.%.$.Q`C..k%.
    ace0:	bf42de29 bf26050a bf425b89 bf269de3     ).B...&..[B...&.
    acf0:	bf41d870 bf273656 bf4154e1 bf27ce61     p.A.V6'..TA.a.'.
    ad00:	bf40d0da bf286605 bf404c5c bf28fd41     ..@..f(.\L@.A.(.
    ad10:	bf3fc767 bf299415 bf3f41fc bf2a2a80     g.?...)..A?..**.
    ad20:	bf3ebc1b bf2ac082 bf3e35c5 bf2b561b     ..>...*..5>..V+.
    ad30:	bf3daef9 bf2beb4a bf3d27b8 bf2c800f     ..=.J.+..'=...,.
    ad40:	bf3ca003 bf2d1469 bf3c17d9 bf2da859     ..<.i.-...<.Y.-.
    ad50:	bf3b8f3b bf2e3bde bf3b0629 bf2ecef7     ;.;..;..).;.....
    ad60:	bf3a7ca4 bf2f61a5 bf39f2ac bf2ff3e6     .|:..a/...9.../.
    ad70:	bf396842 bf3085bb bf38dd65 bf311722     Bh9...0.e.8.".1.
    ad80:	bf385216 bf31a81d bf37c655 bf3238aa     .R8...1.U.7..82.
    ad90:	bf373a23 bf32c8c9 bf36ad7f bf33587a     #:7...2...6.zX3.
    ada0:	bf36206c bf33e7bc bf3592e7 bf34768f     l 6...3...5..v4.
    adb0:	bf3504f3 bf3504f3 bf34768f bf3592e7     ..5...5..v4...5.
    adc0:	bf33e7bc bf36206c bf33587a bf36ad7f     ..3.l 6.zX3...6.
    add0:	bf32c8c9 bf373a23 bf3238aa bf37c655     ..2.#:7..82.U.7.
    ade0:	bf31a81d bf385216 bf311722 bf38dd65     ..1..R8.".1.e.8.
    adf0:	bf3085bb bf396842 bf2ff3e6 bf39f2ac     ..0.Bh9.../...9.
    ae00:	bf2f61a5 bf3a7ca4 bf2ecef7 bf3b0629     .a/..|:.....).;.
    ae10:	bf2e3bde bf3b8f3b bf2da859 bf3c17d9     .;..;.;.Y.-...<.
    ae20:	bf2d1469 bf3ca003 bf2c800f bf3d27b8     i.-...<...,..'=.
    ae30:	bf2beb4a bf3daef9 bf2b561b bf3e35c5     J.+...=..V+..5>.
    ae40:	bf2ac082 bf3ebc1b bf2a2a80 bf3f41fc     ..*...>..**..A?.
    ae50:	bf299415 bf3fc767 bf28fd41 bf404c5c     ..).g.?.A.(.\L@.
    ae60:	bf286605 bf40d0da bf27ce61 bf4154e1     .f(...@.a.'..TA.
    ae70:	bf273656 bf41d870 bf269de3 bf425b89     V6'.p.A...&..[B.
    ae80:	bf26050a bf42de29 bf256bcb bf436051     ..&.).B..k%.Q`C.
    ae90:	bf24d225 bf43e200 bf24381a bf446337     %.$...C..8$.7cD.
    aea0:	bf239da9 bf44e3f5 bf2302d3 bf456439     ..#...D...#.9dE.
    aeb0:	bf226799 bf45e403 bf21cbfb bf466354     .g"...E...!.TcF.
    aec0:	bf212ff9 bf46e22a bf209393 bf476085     ./!.*.F... ..`G.
    aed0:	bf1ff6cb bf47de65 bf1f599f bf485bca     ....e.G..Y...[H.
    aee0:	bf1ebc12 bf48d8b3 bf1e1e22 bf495521     ......H."...!UI.
    aef0:	bf1d7fd1 bf49d112 bf1ce11f bf4a4c87     ......I......LJ.
    af00:	bf1c420c bf4ac77f bf1ba299 bf4b41fa     .B....J......AK.
    af10:	bf1b02c6 bf4bbbf8 bf1a6293 bf4c3578     ......K..b..x5L.
    af20:	bf19c200 bf4cae79 bf19210f bf4d26fd     ....y.L..!...&M.
    af30:	bf187fc0 bf4d9f02 bf17de12 bf4e1689     ......M.......N.
    af40:	bf173c07 bf4e8d90 bf16999f bf4f0417     .<....N.......O.
    af50:	bf15f6d9 bf4f7a1f bf1553b7 bf4fefa8     .....zO..S....O.
    af60:	bf14b039 bf5064af bf140c5f bf50d937     9....dP._...7.P.
    af70:	bf13682a bf514d3d bf12c39a bf51c0c2     *h..=MQ.......Q.
    af80:	bf121eb0 bf5233c6 bf11796b bf52a649     .....3R.ky..I.R.
    af90:	bf10d3cd bf531849 bf102dd5 bf5389c7     ....I.S..-....S.
    afa0:	bf0f8784 bf53fac3 bf0ee0db bf546b3b     ......S.....;kT.
    afb0:	bf0e39da bf54db31 bf0d9281 bf554aa4     .9..1.T......JU.
    afc0:	bf0cead0 bf55b993 bf0c42c9 bf5627fe     ......U..B...'V.
    afd0:	bf0b9a6b bf5695e5 bf0af1b7 bf570348     k.....V.....H.W.
    afe0:	bf0a48ad bf577026 bf099f4e bf57dc7f     .H..&pW.N.....W.
    aff0:	bf08f59b bf584853 bf084b92 bf58b3a1     ....SHX..K....X.
    b000:	bf07a136 bf591e6a bf06f686 bf5988ad     6...j.Y.......Y.
    b010:	bf064b82 bf59f26a bf05a02c bf5a5ba0     .K..j.Y.,....[Z.
    b020:	bf04f484 bf5ac450 bf044889 bf5b2c79     ....P.Z..H..y,[.
    b030:	bf039c3d bf5b941a bf02ef9f bf5bfb34     =.....[.....4.[.
    b040:	bf0242b1 bf5c61c7 bf019573 bf5cc7d1     .B...a\.s.....\.
    b050:	bf00e7e4 bf5d2d53 bf003a06 bf5d924d     ....S-]..:..M.].
    b060:	beff17b2 bf5df6be befdbabb bf5e5aa6     ......]......Z^.
    b070:	befc5d27 bf5ebe05 befafef7 bf5f20db     ']....^...... _.
    b080:	bef9a02d bf5f8327 bef840c8 bf5fe4e9     -...'._..@...._.
    b090:	bef6e0cb bf604621 bef58035 bf60a6cf     ....!F`.5.....`.
    b0a0:	bef41f07 bf6106f2 bef2bd43 bf61668a     ......a.C....fa.
    b0b0:	bef15aea bf61c598 beeff7fb bf62241a     .Z....a......$b.
    b0c0:	beee9479 bf628210 beed3063 bf62df7b     y.....b.c0..{.b.
    b0d0:	beebcbbb bf633c5a beea6681 bf6398ac     ....Z<c..f....c.
    b0e0:	bee900b7 bf63f473 bee79a5d bf644fac     ....s.c.]....Od.
    b0f0:	bee63375 bf64aa59 bee4cbfe bf650479     u3..Y.d.....y.e.
    b100:	bee363fa bf655e0b bee1fb6a bf65b710     .c...^e.j.....e.
    b110:	bee0924f bf660f88 bedf28a9 bf666771     O.....f..(..qgf.
    b120:	beddbe79 bf66becc bedc53c1 bf671599     y.....f..S....g.
    b130:	bedae880 bf676bd8 bed97cb9 bf67c187     .....kg..|....g.
    b140:	bed8106b bf6816a8 bed6a399 bf686b39     k.....h.....9kh.
    b150:	bed53641 bf68bf3c bed3c867 bf6912ae     A6..<.h.g.....i.
    b160:	bed25a09 bf696591 bed0eb2a bf69b7e4     .Z...ei.*.....i.
    b170:	becf7bca bf6a09a7 bece0bea bf6a5ad9     .{....j......Zj.
    b180:	becc9b8b bf6aab7b becb2aae bf6afb8c     ....{.j..*....j.
    b190:	bec9b953 bf6b4b0c bec8477c bf6b99fb     S....Kk.|G....k.
    b1a0:	bec6d529 bf6be858 bec5625c bf6c3624     )...X.k.\b..$6l.
    b1b0:	bec3ef15 bf6c835e bec27b55 bf6cd007     ....^.l.U{....l.
    b1c0:	bec1071e bf6d1c1d bebf926f bf6d67a1     ......m.o....gm.
    b1d0:	bebe1d4a bf6db293 bebca7af bf6dfcf2     J.....m.......m.
    b1e0:	bebb31a0 bf6e46be beb9bb1e bf6e8ff8     .1...Fn.......n.
    b1f0:	beb8442a bf6ed89e beb6ccc3 bf6f20b0     *D....n...... o.
    b200:	beb554ec bf6f6830 beb3dca5 bf6faf1b     .T..0ho.......o.
    b210:	beb263ef bf6ff573 beb0eacb bf703b37     .c..s.o.....7;p.
    b220:	beaf713a bf708066 beadf73c bf70c502     :q..f.p.<.....p.
    b230:	beac7cd4 bf710908 beab0201 bf714c7a     .|....q.....zLq.
    b240:	bea986c4 bf718f57 bea80b1f bf71d19f     ....W.q.......q.
    b250:	bea68f12 bf721352 bea5129f bf725470     ....R.r.....pTr.
    b260:	bea395c5 bf7294f8 bea21887 bf72d4eb     ......r.......r.
    b270:	bea09ae5 bf731447 be9f1cdf bf73530e     ....G.s......Ss.
    b280:	be9d9e78 bf73913f be9c1faf bf73ced9     x...?.s.......s.
    b290:	be9aa086 bf740bdd be9920fe bf74484b     ......t.. ..KHt.
    b2a0:	be97a117 bf748422 be9620d2 bf74bf62     ....".t.. ..b.t.
    b2b0:	be94a031 bf74fa0b be931f35 bf75341d     1.....t.5....4u.
    b2c0:	be919ddd bf756d97 be901c2c bf75a67b     .....mu.,...{.u.
    b2d0:	be8e9a22 bf75dec6 be8d17c0 bf76167a     ".....u.....z.v.
    b2e0:	be8b9507 bf764d97 be8a11f8 bf76841b     .....Mv.......v.
    b2f0:	be888e93 bf76ba07 be870ada bf76ef5b     ......v.....[.v.
    b300:	be8586ce bf772417 be840270 bf77583a     .....$w.p...:Xw.
    b310:	be827dc0 bf778bc5 be80f8c0 bf77beb7     .}....w.......w.
    b320:	be7ee6e1 bf77f110 be7bdba4 bf7822d1     ..~...w...{.."x.
    b330:	be78cfcc bf7853f8 be75c35a bf788486     ..x..Sx.Z.u...x.
    b340:	be72b651 bf78b47b be6fa8b2 bf78e3d6     Q.r.{.x...o...x.
    b350:	be6c9a7f bf791298 be698bba bf7940c0     ..l...y...i..@y.
    b360:	be667c66 bf796e4e be636c83 bf799b43     f|f.Nny..lc.C.y.
    b370:	be605c13 bf79c79d be5d4b1a bf79f35e     .\`...y..K].^.y.
    b380:	be5a3997 bf7a1e84 be57278f bf7a4910     .9Z...z..'W..Iz.
    b390:	be541501 bf7a7302 be5101f1 bf7a9c59     ..T..sz...Q.Y.z.
    b3a0:	be4dee60 bf7ac516 be4ada4f bf7aed37     `.M...z.O.J.7.z.
    b3b0:	be47c5c2 bf7b14be be44b0b9 bf7b3bab     ..G...{...D..;{.
    b3c0:	be419b37 bf7b61fc be3e853e bf7b87b2     7.A..a{.>.>...{.
    b3d0:	be3b6ecf bf7baccd be3857ec bf7bd14d     .n;...{..W8.M.{.
    b3e0:	be354098 bf7bf531 be3228d4 bf7c187a     .@5.1.{..(2.z.|.
    b3f0:	be2f10a2 bf7c3b28 be2bf804 bf7c5d3a     ../.(;|...+.:]|.
    b400:	be28defc bf7c7eb0 be25c58c bf7c9f8a     ..(..~|...%...|.
    b410:	be22abb6 bf7cbfc9 be1f917b bf7cdf6c     .."...|.{...l.|.
    b420:	be1c76de bf7cfe73 be195be0 bf7d1cdd     .v..s.|..[....}.
    b430:	be164083 bf7d3aac be1324ca bf7d57de     .@...:}..$...W}.
    b440:	be1008b7 bf7d7474 be0cec4a bf7d906e     ....tt}.J...n.}.
    b450:	be09cf86 bf7dabcc be06b26e bf7dc68c     ......}.n.....}.
    b460:	be039502 bf7de0b1 be007745 bf7dfa38     ......}.Ew..8.}.
    b470:	bdfab273 bf7e1324 bdf475c0 bf7e2b72     s...$.~..u..r+~.
    b480:	bdee3876 bf7e4323 bde7fa9a bf7e5a38     v8..#C~.....8Z~.
    b490:	bde1bc2e bf7e70b0 bddb7d37 bf7e868b     .....p~.7}....~.
    b4a0:	bdd53db9 bf7e9bc9 bdcefdb7 bf7eb069     .=....~.....i.~.
    b4b0:	bdc8bd36 bf7ec46d bdc27c39 bf7ed7d4     6...m.~.9|....~.
    b4c0:	bdbc3ac3 bf7eea9d bdb5f8da bf7efcc9     .:....~.......~.
    b4d0:	bdafb680 bf7f0e58 bda973ba bf7f1f49     ....X....s..I...
    b4e0:	bda3308c bf7f2f9d bd9cecf9 bf7f3f54     .0.../......T?..
    b4f0:	bd96a905 bf7f4e6d bd9064b4 bf7f5ce9     ....mN...d...\..
    b500:	bd8a200a bf7f6ac7 bd83db0a bf7f7808     . ...j.......x..
    b510:	bd7b2b74 bf7f84ab bd6ea038 bf7f90b1     t+{.....8.n.....
    b520:	bd621468 bf7f9c18 bd55880e bf7fa6e3     h.b.......U.....
    b530:	bd48fb2f bf7fb10f bd3c6dd5 bf7fba9e     /.H......m<.....
    b540:	bd2fe007 bf7fc38f bd2351cc bf7fcbe2     ../......Q#.....
    b550:	bd16c32c bf7fd398 bd0a342f bf7fdaaf     ,......./4......
    b560:	bcfb49b9 bf7fe129 bce22a7b bf7fe705     .I..)...{*......
    b570:	bcc90ab0 bf7fec43 bcafea69 bf7ff0e3     ....C...i.......
    b580:	bc96c9b6 bf7ff4e6 bc7b514b bf7ff84a     ........KQ{.J...
    b590:	bc490e90 bf7ffb11 bc16cb59 bf7ffd39     ..I.....Y...9...
    b5a0:	bbc90f89 bf7ffec4 bb490fc7 bf7fffb1     ..........I.....
    b5b0:	80000000 bf800000 3b490fc7 bf7fffb1     ..........I;....
    b5c0:	3bc90f89 bf7ffec4 3c16cb59 bf7ffd39     ...;....Y..<9...
    b5d0:	3c490e90 bf7ffb11 3c7b514b bf7ff84a     ..I<....KQ{<J...
    b5e0:	3c96c9b6 bf7ff4e6 3cafea69 bf7ff0e3     ...<....i..<....
    b5f0:	3cc90ab0 bf7fec43 3ce22a7b bf7fe705     ...<C...{*.<....
    b600:	3cfb49b9 bf7fe129 3d0a342f bf7fdaaf     .I.<).../4.=....
    b610:	3d16c32c bf7fd398 3d2351cc bf7fcbe2     ,..=.....Q#=....
    b620:	3d2fe007 bf7fc38f 3d3c6dd5 bf7fba9e     ../=.....m<=....
    b630:	3d48fb2f bf7fb10f 3d55880e bf7fa6e3     /.H=......U=....
    b640:	3d621468 bf7f9c18 3d6ea038 bf7f90b1     h.b=....8.n=....
    b650:	3d7b2b74 bf7f84ab 3d83db0a bf7f7808     t+{=.......=.x..
    b660:	3d8a200a bf7f6ac7 3d9064b4 bf7f5ce9     . .=.j...d.=.\..
    b670:	3d96a905 bf7f4e6d 3d9cecf9 bf7f3f54     ...=mN.....=T?..
    b680:	3da3308c bf7f2f9d 3da973ba bf7f1f49     .0.=./...s.=I...
    b690:	3dafb680 bf7f0e58 3db5f8da bf7efcc9     ...=X......=..~.
    b6a0:	3dbc3ac3 bf7eea9d 3dc27c39 bf7ed7d4     .:.=..~.9|.=..~.
    b6b0:	3dc8bd36 bf7ec46d 3dcefdb7 bf7eb069     6..=m.~....=i.~.
    b6c0:	3dd53db9 bf7e9bc9 3ddb7d37 bf7e868b     .=.=..~.7}.=..~.
    b6d0:	3de1bc2e bf7e70b0 3de7fa9a bf7e5a38     ...=.p~....=8Z~.
    b6e0:	3dee3876 bf7e4323 3df475c0 bf7e2b72     v8.=#C~..u.=r+~.
    b6f0:	3dfab273 bf7e1324 3e007745 bf7dfa38     s..=$.~.Ew.>8.}.
    b700:	3e039502 bf7de0b1 3e06b26e bf7dc68c     ...>..}.n..>..}.
    b710:	3e09cf86 bf7dabcc 3e0cec4a bf7d906e     ...>..}.J..>n.}.
    b720:	3e1008b7 bf7d7474 3e1324ca bf7d57de     ...>tt}..$.>.W}.
    b730:	3e164083 bf7d3aac 3e195be0 bf7d1cdd     .@.>.:}..[.>..}.
    b740:	3e1c76de bf7cfe73 3e1f917b bf7cdf6c     .v.>s.|.{..>l.|.
    b750:	3e22abb6 bf7cbfc9 3e25c58c bf7c9f8a     ..">..|...%>..|.
    b760:	3e28defc bf7c7eb0 3e2bf804 bf7c5d3a     ..(>.~|...+>:]|.
    b770:	3e2f10a2 bf7c3b28 3e3228d4 bf7c187a     ../>(;|..(2>z.|.
    b780:	3e354098 bf7bf531 3e3857ec bf7bd14d     .@5>1.{..W8>M.{.
    b790:	3e3b6ecf bf7baccd 3e3e853e bf7b87b2     .n;>..{.>.>>..{.
    b7a0:	3e419b37 bf7b61fc 3e44b0b9 bf7b3bab     7.A>.a{...D>.;{.
    b7b0:	3e47c5c2 bf7b14be 3e4ada4f bf7aed37     ..G>..{.O.J>7.z.
    b7c0:	3e4dee60 bf7ac516 3e5101f1 bf7a9c59     `.M>..z...Q>Y.z.
    b7d0:	3e541501 bf7a7302 3e57278f bf7a4910     ..T>.sz..'W>.Iz.
    b7e0:	3e5a3997 bf7a1e84 3e5d4b1a bf79f35e     .9Z>..z..K]>^.y.
    b7f0:	3e605c13 bf79c79d 3e636c83 bf799b43     .\`>..y..lc>C.y.
    b800:	3e667c66 bf796e4e 3e698bba bf7940c0     f|f>Nny...i>.@y.
    b810:	3e6c9a7f bf791298 3e6fa8b2 bf78e3d6     ..l>..y...o>..x.
    b820:	3e72b651 bf78b47b 3e75c35a bf788486     Q.r>{.x.Z.u>..x.
    b830:	3e78cfcc bf7853f8 3e7bdba4 bf7822d1     ..x>.Sx...{>."x.
    b840:	3e7ee6e1 bf77f110 3e80f8c0 bf77beb7     ..~>..w....>..w.
    b850:	3e827dc0 bf778bc5 3e840270 bf77583a     .}.>..w.p..>:Xw.
    b860:	3e8586ce bf772417 3e870ada bf76ef5b     ...>.$w....>[.v.
    b870:	3e888e93 bf76ba07 3e8a11f8 bf76841b     ...>..v....>..v.
    b880:	3e8b9507 bf764d97 3e8d17c0 bf76167a     ...>.Mv....>z.v.
    b890:	3e8e9a22 bf75dec6 3e901c2c bf75a67b     "..>..u.,..>{.u.
    b8a0:	3e919ddd bf756d97 3e931f35 bf75341d     ...>.mu.5..>.4u.
    b8b0:	3e94a031 bf74fa0b 3e9620d2 bf74bf62     1..>..t.. .>b.t.
    b8c0:	3e97a117 bf748422 3e9920fe bf74484b     ...>".t.. .>KHt.
    b8d0:	3e9aa086 bf740bdd 3e9c1faf bf73ced9     ...>..t....>..s.
    b8e0:	3e9d9e78 bf73913f 3e9f1cdf bf73530e     x..>?.s....>.Ss.
    b8f0:	3ea09ae5 bf731447 3ea21887 bf72d4eb     ...>G.s....>..r.
    b900:	3ea395c5 bf7294f8 3ea5129f bf725470     ...>..r....>pTr.
    b910:	3ea68f12 bf721352 3ea80b1f bf71d19f     ...>R.r....>..q.
    b920:	3ea986c4 bf718f57 3eab0201 bf714c7a     ...>W.q....>zLq.
    b930:	3eac7cd4 bf710908 3eadf73c bf70c502     .|.>..q.<..>..p.
    b940:	3eaf713a bf708066 3eb0eacb bf703b37     :q.>f.p....>7;p.
    b950:	3eb263ef bf6ff573 3eb3dca5 bf6faf1b     .c.>s.o....>..o.
    b960:	3eb554ec bf6f6830 3eb6ccc3 bf6f20b0     .T.>0ho....>. o.
    b970:	3eb8442a bf6ed89e 3eb9bb1e bf6e8ff8     *D.>..n....>..n.
    b980:	3ebb31a0 bf6e46be 3ebca7af bf6dfcf2     .1.>.Fn....>..m.
    b990:	3ebe1d4a bf6db293 3ebf926f bf6d67a1     J..>..m.o..>.gm.
    b9a0:	3ec1071e bf6d1c1d 3ec27b55 bf6cd007     ...>..m.U{.>..l.
    b9b0:	3ec3ef15 bf6c835e 3ec5625c bf6c3624     ...>^.l.\b.>$6l.
    b9c0:	3ec6d529 bf6be858 3ec8477c bf6b99fb     )..>X.k.|G.>..k.
    b9d0:	3ec9b953 bf6b4b0c 3ecb2aae bf6afb8c     S..>.Kk..*.>..j.
    b9e0:	3ecc9b8b bf6aab7b 3ece0bea bf6a5ad9     ...>{.j....>.Zj.
    b9f0:	3ecf7bca bf6a09a7 3ed0eb2a bf69b7e4     .{.>..j.*..>..i.
    ba00:	3ed25a09 bf696591 3ed3c867 bf6912ae     .Z.>.ei.g..>..i.
    ba10:	3ed53641 bf68bf3c 3ed6a399 bf686b39     A6.><.h....>9kh.
    ba20:	3ed8106b bf6816a8 3ed97cb9 bf67c187     k..>..h..|.>..g.
    ba30:	3edae880 bf676bd8 3edc53c1 bf671599     ...>.kg..S.>..g.
    ba40:	3eddbe79 bf66becc 3edf28a9 bf666771     y..>..f..(.>qgf.
    ba50:	3ee0924f bf660f88 3ee1fb6a bf65b710     O..>..f.j..>..e.
    ba60:	3ee363fa bf655e0b 3ee4cbfe bf650479     .c.>.^e....>y.e.
    ba70:	3ee63375 bf64aa59 3ee79a5d bf644fac     u3.>Y.d.]..>.Od.
    ba80:	3ee900b7 bf63f473 3eea6681 bf6398ac     ...>s.c..f.>..c.
    ba90:	3eebcbbb bf633c5a 3eed3063 bf62df7b     ...>Z<c.c0.>{.b.
    baa0:	3eee9479 bf628210 3eeff7fb bf62241a     y..>..b....>.$b.
    bab0:	3ef15aea bf61c598 3ef2bd43 bf61668a     .Z.>..a.C..>.fa.
    bac0:	3ef41f07 bf6106f2 3ef58035 bf60a6cf     ...>..a.5..>..`.
    bad0:	3ef6e0cb bf604621 3ef840c8 bf5fe4e9     ...>!F`..@.>.._.
    bae0:	3ef9a02d bf5f8327 3efafef7 bf5f20db     -..>'._....>. _.
    baf0:	3efc5d27 bf5ebe05 3efdbabb bf5e5aa6     '].>..^....>.Z^.
    bb00:	3eff17b2 bf5df6be 3f003a06 bf5d924d     ...>..]..:.?M.].
    bb10:	3f00e7e4 bf5d2d53 3f019573 bf5cc7d1     ...?S-].s..?..\.
    bb20:	3f0242b1 bf5c61c7 3f02ef9f bf5bfb34     .B.?.a\....?4.[.
    bb30:	3f039c3d bf5b941a 3f044889 bf5b2c79     =..?..[..H.?y,[.
    bb40:	3f04f484 bf5ac450 3f05a02c bf5a5ba0     ...?P.Z.,..?.[Z.
    bb50:	3f064b82 bf59f26a 3f06f686 bf5988ad     .K.?j.Y....?..Y.
    bb60:	3f07a136 bf591e6a 3f084b92 bf58b3a1     6..?j.Y..K.?..X.
    bb70:	3f08f59b bf584853 3f099f4e bf57dc7f     ...?SHX.N..?..W.
    bb80:	3f0a48ad bf577026 3f0af1b7 bf570348     .H.?&pW....?H.W.
    bb90:	3f0b9a6b bf5695e5 3f0c42c9 bf5627fe     k..?..V..B.?.'V.
    bba0:	3f0cead0 bf55b993 3f0d9281 bf554aa4     ...?..U....?.JU.
    bbb0:	3f0e39da bf54db31 3f0ee0db bf546b3b     .9.?1.T....?;kT.
    bbc0:	3f0f8784 bf53fac3 3f102dd5 bf5389c7     ...?..S..-.?..S.
    bbd0:	3f10d3cd bf531849 3f11796b bf52a649     ...?I.S.ky.?I.R.
    bbe0:	3f121eb0 bf5233c6 3f12c39a bf51c0c2     ...?.3R....?..Q.
    bbf0:	3f13682a bf514d3d 3f140c5f bf50d937     *h.?=MQ._..?7.P.
    bc00:	3f14b039 bf5064af 3f1553b7 bf4fefa8     9..?.dP..S.?..O.
    bc10:	3f15f6d9 bf4f7a1f 3f16999f bf4f0417     ...?.zO....?..O.
    bc20:	3f173c07 bf4e8d90 3f17de12 bf4e1689     .<.?..N....?..N.
    bc30:	3f187fc0 bf4d9f02 3f19210f bf4d26fd     ...?..M..!.?.&M.
    bc40:	3f19c200 bf4cae79 3f1a6293 bf4c3578     ...?y.L..b.?x5L.
    bc50:	3f1b02c6 bf4bbbf8 3f1ba299 bf4b41fa     ...?..K....?.AK.
    bc60:	3f1c420c bf4ac77f 3f1ce11f bf4a4c87     .B.?..J....?.LJ.
    bc70:	3f1d7fd1 bf49d112 3f1e1e22 bf495521     ...?..I."..?!UI.
    bc80:	3f1ebc12 bf48d8b3 3f1f599f bf485bca     ...?..H..Y.?.[H.
    bc90:	3f1ff6cb bf47de65 3f209393 bf476085     ...?e.G... ?.`G.
    bca0:	3f212ff9 bf46e22a 3f21cbfb bf466354     ./!?*.F...!?TcF.
    bcb0:	3f226799 bf45e403 3f2302d3 bf456439     .g"?..E...#?9dE.
    bcc0:	3f239da9 bf44e3f5 3f24381a bf446337     ..#?..D..8$?7cD.
    bcd0:	3f24d225 bf43e200 3f256bcb bf436051     %.$?..C..k%?Q`C.
    bce0:	3f26050a bf42de29 3f269de3 bf425b89     ..&?).B...&?.[B.
    bcf0:	3f273656 bf41d870 3f27ce61 bf4154e1     V6'?p.A.a.'?.TA.
    bd00:	3f286605 bf40d0da 3f28fd41 bf404c5c     .f(?..@.A.(?\L@.
    bd10:	3f299415 bf3fc767 3f2a2a80 bf3f41fc     ..)?g.?..**?.A?.
    bd20:	3f2ac082 bf3ebc1b 3f2b561b bf3e35c5     ..*?..>..V+?.5>.
    bd30:	3f2beb4a bf3daef9 3f2c800f bf3d27b8     J.+?..=...,?.'=.
    bd40:	3f2d1469 bf3ca003 3f2da859 bf3c17d9     i.-?..<.Y.-?..<.
    bd50:	3f2e3bde bf3b8f3b 3f2ecef7 bf3b0629     .;.?;.;....?).;.
    bd60:	3f2f61a5 bf3a7ca4 3f2ff3e6 bf39f2ac     .a/?.|:.../?..9.
    bd70:	3f3085bb bf396842 3f311722 bf38dd65     ..0?Bh9.".1?e.8.
    bd80:	3f31a81d bf385216 3f3238aa bf37c655     ..1?.R8..82?U.7.
    bd90:	3f32c8c9 bf373a23 3f33587a bf36ad7f     ..2?#:7.zX3?..6.
    bda0:	3f33e7bc bf36206c 3f34768f bf3592e7     ..3?l 6..v4?..5.
    bdb0:	3f3504f3 bf3504f3 3f3592e7 bf34768f     ..5?..5...5?.v4.
    bdc0:	3f36206c bf33e7bc 3f36ad7f bf33587a     l 6?..3...6?zX3.
    bdd0:	3f373a23 bf32c8c9 3f37c655 bf3238aa     #:7?..2.U.7?.82.
    bde0:	3f385216 bf31a81d 3f38dd65 bf311722     .R8?..1.e.8?".1.
    bdf0:	3f396842 bf3085bb 3f39f2ac bf2ff3e6     Bh9?..0...9?../.
    be00:	3f3a7ca4 bf2f61a5 3f3b0629 bf2ecef7     .|:?.a/.).;?....
    be10:	3f3b8f3b bf2e3bde 3f3c17d9 bf2da859     ;.;?.;....<?Y.-.
    be20:	3f3ca003 bf2d1469 3f3d27b8 bf2c800f     ..<?i.-..'=?..,.
    be30:	3f3daef9 bf2beb4a 3f3e35c5 bf2b561b     ..=?J.+..5>?.V+.
    be40:	3f3ebc1b bf2ac082 3f3f41fc bf2a2a80     ..>?..*..A??.**.
    be50:	3f3fc767 bf299415 3f404c5c bf28fd41     g.??..).\L@?A.(.
    be60:	3f40d0da bf286605 3f4154e1 bf27ce61     ..@?.f(..TA?a.'.
    be70:	3f41d870 bf273656 3f425b89 bf269de3     p.A?V6'..[B?..&.
    be80:	3f42de29 bf26050a 3f436051 bf256bcb     ).B?..&.Q`C?.k%.
    be90:	3f43e200 bf24d225 3f446337 bf24381a     ..C?%.$.7cD?.8$.
    bea0:	3f44e3f5 bf239da9 3f456439 bf2302d3     ..D?..#.9dE?..#.
    beb0:	3f45e403 bf226799 3f466354 bf21cbfb     ..E?.g".TcF?..!.
    bec0:	3f46e22a bf212ff9 3f476085 bf209393     *.F?./!..`G?.. .
    bed0:	3f47de65 bf1ff6cb 3f485bca bf1f599f     e.G?.....[H?.Y..
    bee0:	3f48d8b3 bf1ebc12 3f495521 bf1e1e22     ..H?....!UI?"...
    bef0:	3f49d112 bf1d7fd1 3f4a4c87 bf1ce11f     ..I?.....LJ?....
    bf00:	3f4ac77f bf1c420c 3f4b41fa bf1ba299     ..J?.B...AK?....
    bf10:	3f4bbbf8 bf1b02c6 3f4c3578 bf1a6293     ..K?....x5L?.b..
    bf20:	3f4cae79 bf19c200 3f4d26fd bf19210f     y.L?.....&M?.!..
    bf30:	3f4d9f02 bf187fc0 3f4e1689 bf17de12     ..M?......N?....
    bf40:	3f4e8d90 bf173c07 3f4f0417 bf16999f     ..N?.<....O?....
    bf50:	3f4f7a1f bf15f6d9 3f4fefa8 bf1553b7     .zO?......O?.S..
    bf60:	3f5064af bf14b039 3f50d937 bf140c5f     .dP?9...7.P?_...
    bf70:	3f514d3d bf13682a 3f51c0c2 bf12c39a     =MQ?*h....Q?....
    bf80:	3f5233c6 bf121eb0 3f52a649 bf11796b     .3R?....I.R?ky..
    bf90:	3f531849 bf10d3cd 3f5389c7 bf102dd5     I.S?......S?.-..
    bfa0:	3f53fac3 bf0f8784 3f546b3b bf0ee0db     ..S?....;kT?....
    bfb0:	3f54db31 bf0e39da 3f554aa4 bf0d9281     1.T?.9...JU?....
    bfc0:	3f55b993 bf0cead0 3f5627fe bf0c42c9     ..U?.....'V?.B..
    bfd0:	3f5695e5 bf0b9a6b 3f570348 bf0af1b7     ..V?k...H.W?....
    bfe0:	3f577026 bf0a48ad 3f57dc7f bf099f4e     &pW?.H....W?N...
    bff0:	3f584853 bf08f59b 3f58b3a1 bf084b92     SHX?......X?.K..
    c000:	3f591e6a bf07a136 3f5988ad bf06f686     j.Y?6.....Y?....
    c010:	3f59f26a bf064b82 3f5a5ba0 bf05a02c     j.Y?.K...[Z?,...
    c020:	3f5ac450 bf04f484 3f5b2c79 bf044889     P.Z?....y,[?.H..
    c030:	3f5b941a bf039c3d 3f5bfb34 bf02ef9f     ..[?=...4.[?....
    c040:	3f5c61c7 bf0242b1 3f5cc7d1 bf019573     .a\?.B....\?s...
    c050:	3f5d2d53 bf00e7e4 3f5d924d bf003a06     S-]?....M.]?.:..
    c060:	3f5df6be beff17b2 3f5e5aa6 befdbabb     ..]?.....Z^?....
    c070:	3f5ebe05 befc5d27 3f5f20db befafef7     ..^?']... _?....
    c080:	3f5f8327 bef9a02d 3f5fe4e9 bef840c8     '._?-....._?.@..
    c090:	3f604621 bef6e0cb 3f60a6cf bef58035     !F`?......`?5...
    c0a0:	3f6106f2 bef41f07 3f61668a bef2bd43     ..a?.....fa?C...
    c0b0:	3f61c598 bef15aea 3f62241a beeff7fb     ..a?.Z...$b?....
    c0c0:	3f628210 beee9479 3f62df7b beed3063     ..b?y...{.b?c0..
    c0d0:	3f633c5a beebcbbb 3f6398ac beea6681     Z<c?......c?.f..
    c0e0:	3f63f473 bee900b7 3f644fac bee79a5d     s.c?.....Od?]...
    c0f0:	3f64aa59 bee63375 3f650479 bee4cbfe     Y.d?u3..y.e?....
    c100:	3f655e0b bee363fa 3f65b710 bee1fb6a     .^e?.c....e?j...
    c110:	3f660f88 bee0924f 3f666771 bedf28a9     ..f?O...qgf?.(..
    c120:	3f66becc beddbe79 3f671599 bedc53c1     ..f?y.....g?.S..
    c130:	3f676bd8 bedae880 3f67c187 bed97cb9     .kg?......g?.|..
    c140:	3f6816a8 bed8106b 3f686b39 bed6a399     ..h?k...9kh?....
    c150:	3f68bf3c bed53641 3f6912ae bed3c867     <.h?A6....i?g...
    c160:	3f696591 bed25a09 3f69b7e4 bed0eb2a     .ei?.Z....i?*...
    c170:	3f6a09a7 becf7bca 3f6a5ad9 bece0bea     ..j?.{...Zj?....
    c180:	3f6aab7b becc9b8b 3f6afb8c becb2aae     {.j?......j?.*..
    c190:	3f6b4b0c bec9b953 3f6b99fb bec8477c     .Kk?S.....k?|G..
    c1a0:	3f6be858 bec6d529 3f6c3624 bec5625c     X.k?)...$6l?\b..
    c1b0:	3f6c835e bec3ef15 3f6cd007 bec27b55     ^.l?......l?U{..
    c1c0:	3f6d1c1d bec1071e 3f6d67a1 bebf926f     ..m?.....gm?o...
    c1d0:	3f6db293 bebe1d4a 3f6dfcf2 bebca7af     ..m?J.....m?....
    c1e0:	3f6e46be bebb31a0 3f6e8ff8 beb9bb1e     .Fn?.1....n?....
    c1f0:	3f6ed89e beb8442a 3f6f20b0 beb6ccc3     ..n?*D... o?....
    c200:	3f6f6830 beb554ec 3f6faf1b beb3dca5     0ho?.T....o?....
    c210:	3f6ff573 beb263ef 3f703b37 beb0eacb     s.o?.c..7;p?....
    c220:	3f708066 beaf713a 3f70c502 beadf73c     f.p?:q....p?<...
    c230:	3f710908 beac7cd4 3f714c7a beab0201     ..q?.|..zLq?....
    c240:	3f718f57 bea986c4 3f71d19f bea80b1f     W.q?......q?....
    c250:	3f721352 bea68f12 3f725470 bea5129f     R.r?....pTr?....
    c260:	3f7294f8 bea395c5 3f72d4eb bea21887     ..r?......r?....
    c270:	3f731447 bea09ae5 3f73530e be9f1cdf     G.s?.....Ss?....
    c280:	3f73913f be9d9e78 3f73ced9 be9c1faf     ?.s?x.....s?....
    c290:	3f740bdd be9aa086 3f74484b be9920fe     ..t?....KHt?. ..
    c2a0:	3f748422 be97a117 3f74bf62 be9620d2     ".t?....b.t?. ..
    c2b0:	3f74fa0b be94a031 3f75341d be931f35     ..t?1....4u?5...
    c2c0:	3f756d97 be919ddd 3f75a67b be901c2c     .mu?....{.u?,...
    c2d0:	3f75dec6 be8e9a22 3f76167a be8d17c0     ..u?"...z.v?....
    c2e0:	3f764d97 be8b9507 3f76841b be8a11f8     .Mv?......v?....
    c2f0:	3f76ba07 be888e93 3f76ef5b be870ada     ..v?....[.v?....
    c300:	3f772417 be8586ce 3f77583a be840270     .$w?....:Xw?p...
    c310:	3f778bc5 be827dc0 3f77beb7 be80f8c0     ..w?.}....w?....
    c320:	3f77f110 be7ee6e1 3f7822d1 be7bdba4     ..w?..~.."x?..{.
    c330:	3f7853f8 be78cfcc 3f788486 be75c35a     .Sx?..x...x?Z.u.
    c340:	3f78b47b be72b651 3f78e3d6 be6fa8b2     {.x?Q.r...x?..o.
    c350:	3f791298 be6c9a7f 3f7940c0 be698bba     ..y?..l..@y?..i.
    c360:	3f796e4e be667c66 3f799b43 be636c83     Nny?f|f.C.y?.lc.
    c370:	3f79c79d be605c13 3f79f35e be5d4b1a     ..y?.\`.^.y?.K].
    c380:	3f7a1e84 be5a3997 3f7a4910 be57278f     ..z?.9Z..Iz?.'W.
    c390:	3f7a7302 be541501 3f7a9c59 be5101f1     .sz?..T.Y.z?..Q.
    c3a0:	3f7ac516 be4dee60 3f7aed37 be4ada4f     ..z?`.M.7.z?O.J.
    c3b0:	3f7b14be be47c5c2 3f7b3bab be44b0b9     ..{?..G..;{?..D.
    c3c0:	3f7b61fc be419b37 3f7b87b2 be3e853e     .a{?7.A...{?>.>.
    c3d0:	3f7baccd be3b6ecf 3f7bd14d be3857ec     ..{?.n;.M.{?.W8.
    c3e0:	3f7bf531 be354098 3f7c187a be3228d4     1.{?.@5.z.|?.(2.
    c3f0:	3f7c3b28 be2f10a2 3f7c5d3a be2bf804     (;|?../.:]|?..+.
    c400:	3f7c7eb0 be28defc 3f7c9f8a be25c58c     .~|?..(...|?..%.
    c410:	3f7cbfc9 be22abb6 3f7cdf6c be1f917b     ..|?..".l.|?{...
    c420:	3f7cfe73 be1c76de 3f7d1cdd be195be0     s.|?.v....}?.[..
    c430:	3f7d3aac be164083 3f7d57de be1324ca     .:}?.@...W}?.$..
    c440:	3f7d7474 be1008b7 3f7d906e be0cec4a     tt}?....n.}?J...
    c450:	3f7dabcc be09cf86 3f7dc68c be06b26e     ..}?......}?n...
    c460:	3f7de0b1 be039502 3f7dfa38 be007745     ..}?....8.}?Ew..
    c470:	3f7e1324 bdfab273 3f7e2b72 bdf475c0     $.~?s...r+~?.u..
    c480:	3f7e4323 bdee3876 3f7e5a38 bde7fa9a     #C~?v8..8Z~?....
    c490:	3f7e70b0 bde1bc2e 3f7e868b bddb7d37     .p~?......~?7}..
    c4a0:	3f7e9bc9 bdd53db9 3f7eb069 bdcefdb7     ..~?.=..i.~?....
    c4b0:	3f7ec46d bdc8bd36 3f7ed7d4 bdc27c39     m.~?6.....~?9|..
    c4c0:	3f7eea9d bdbc3ac3 3f7efcc9 bdb5f8da     ..~?.:....~?....
    c4d0:	3f7f0e58 bdafb680 3f7f1f49 bda973ba     X..?....I..?.s..
    c4e0:	3f7f2f9d bda3308c 3f7f3f54 bd9cecf9     ./.?.0..T?.?....
    c4f0:	3f7f4e6d bd96a905 3f7f5ce9 bd9064b4     mN.?.....\.?.d..
    c500:	3f7f6ac7 bd8a200a 3f7f7808 bd83db0a     .j.?. ...x.?....
    c510:	3f7f84ab bd7b2b74 3f7f90b1 bd6ea038     ...?t+{....?8.n.
    c520:	3f7f9c18 bd621468 3f7fa6e3 bd55880e     ...?h.b....?..U.
    c530:	3f7fb10f bd48fb2f 3f7fba9e bd3c6dd5     ...?/.H....?.m<.
    c540:	3f7fc38f bd2fe007 3f7fcbe2 bd2351cc     ...?../....?.Q#.
    c550:	3f7fd398 bd16c32c 3f7fdaaf bd0a342f     ...?,......?/4..
    c560:	3f7fe129 bcfb49b9 3f7fe705 bce22a7b     )..?.I.....?{*..
    c570:	3f7fec43 bcc90ab0 3f7ff0e3 bcafea69     C..?.......?i...
    c580:	3f7ff4e6 bc96c9b6 3f7ff84a bc7b514b     ...?....J..?KQ{.
    c590:	3f7ffb11 bc490e90 3f7ffd39 bc16cb59     ...?..I.9..?Y...
    c5a0:	3f7ffec4 bbc90f89 3f7fffb1 bb490fc7     ...?.......?..I.

0000c5b0 <twiddleCoef_4096>:
    c5b0:	3f800000 00000000 3f7fffec 3ac90fd4     ...?.......?...:
    c5c0:	3f7fffb1 3b490fc7 3f7fff4e 3b96cbc1     ...?..I;N..?...;
    c5d0:	3f7ffec4 3bc90f89 3f7ffe13 3bfb5330     ...?...;...?0S.;
    c5e0:	3f7ffd39 3c16cb59 3f7ffc39 3c2fed02     9..?Y..<9..?../<
    c5f0:	3f7ffb11 3c490e90 3f7ff9c1 3c623000     ...?..I<...?.0b<
    c600:	3f7ff84a 3c7b514b 3f7ff6ac 3c8a3938     J..?KQ{<...?89.<
    c610:	3f7ff4e6 3c96c9b6 3f7ff2f8 3ca35a1c     ...?...<...?.Z.<
    c620:	3f7ff0e3 3cafea69 3f7feea7 3cbc7a9b     ...?i..<...?.z.<
    c630:	3f7fec43 3cc90ab0 3f7fe9b8 3cd59aa6     C..?...<...?...<
    c640:	3f7fe705 3ce22a7b 3f7fe42b 3ceeba2d     ...?{*.<+..?-..<
    c650:	3f7fe129 3cfb49b9 3f7fde00 3d03ec90     )..?.I.<...?...=
    c660:	3f7fdaaf 3d0a342f 3f7fd737 3d107bb8     ...?/4.=7..?.{.=
    c670:	3f7fd398 3d16c32c 3f7fcfd1 3d1d0a88     ...?,..=...?...=
    c680:	3f7fcbe2 3d2351cc 3f7fc7cc 3d2998f6     ...?.Q#=...?..)=
    c690:	3f7fc38f 3d2fe007 3f7fbf2a 3d3626fc     ...?../=*..?.&6=
    c6a0:	3f7fba9e 3d3c6dd5 3f7fb5ea 3d42b491     ...?.m<=...?..B=
    c6b0:	3f7fb10f 3d48fb2f 3f7fac0d 3d4f41af     ...?/.H=...?.AO=
    c6c0:	3f7fa6e3 3d55880e 3f7fa191 3d5bce4c     ...?..U=...?L.[=
    c6d0:	3f7f9c18 3d621468 3f7f9678 3d685a62     ...?h.b=x..?bZh=
    c6e0:	3f7f90b1 3d6ea038 3f7f8ac2 3d74e5e9     ...?8.n=...?..t=
    c6f0:	3f7f84ab 3d7b2b74 3f7f7e6d 3d80b86c     ...?t+{=m~.?l..=
    c700:	3f7f7808 3d83db0a 3f7f717b 3d86fd94     .x.?...={q.?...=
    c710:	3f7f6ac7 3d8a200a 3f7f63ec 3d8d426a     .j.?. .=.c.?jB.=
    c720:	3f7f5ce9 3d9064b4 3f7f55bf 3d9386e7     .\.?.d.=.U.?...=
    c730:	3f7f4e6d 3d96a905 3f7f46f4 3d99cb0a     mN.?...=.F.?...=
    c740:	3f7f3f54 3d9cecf9 3f7f378d 3da00ecf     T?.?...=.7.?...=
    c750:	3f7f2f9d 3da3308c 3f7f2787 3da65230     ./.?.0.=.'.?0R.=
    c760:	3f7f1f49 3da973ba 3f7f16e4 3dac952b     I..?.s.=...?+..=
    c770:	3f7f0e58 3dafb680 3f7f05a4 3db2d7bb     X..?...=...?...=
    c780:	3f7efcc9 3db5f8da 3f7ef3c7 3db919dd     ..~?...=..~?...=
    c790:	3f7eea9d 3dbc3ac3 3f7ee14c 3dbf5b8d     ..~?.:.=L.~?.[.=
    c7a0:	3f7ed7d4 3dc27c39 3f7ece34 3dc59cc6     ..~?9|.=4.~?...=
    c7b0:	3f7ec46d 3dc8bd36 3f7eba7f 3dcbdd86     m.~?6..=..~?...=
    c7c0:	3f7eb069 3dcefdb7 3f7ea62d 3dd21dc8     i.~?...=-.~?...=
    c7d0:	3f7e9bc9 3dd53db9 3f7e913d 3dd85d89     ..~?.=.==.~?.].=
    c7e0:	3f7e868b 3ddb7d37 3f7e7bb1 3dde9cc4     ..~?7}.=.{~?...=
    c7f0:	3f7e70b0 3de1bc2e 3f7e6588 3de4db76     .p~?...=.e~?v..=
    c800:	3f7e5a38 3de7fa9a 3f7e4ec1 3deb199a     8Z~?...=.N~?...=
    c810:	3f7e4323 3dee3876 3f7e375e 3df1572e     #C~?v8.=^7~?.W.=
    c820:	3f7e2b72 3df475c0 3f7e1f5e 3df7942c     r+~?.u.=^.~?,..=
    c830:	3f7e1324 3dfab273 3f7e06c2 3dfdd092     $.~?s..=..~?...=
    c840:	3f7dfa38 3e007745 3f7ded88 3e02062e     8.}?Ew.>..}?...>
    c850:	3f7de0b1 3e039502 3f7dd3b2 3e0523c2     ..}?...>..}?.#.>
    c860:	3f7dc68c 3e06b26e 3f7db940 3e084105     ..}?n..>@.}?.A.>
    c870:	3f7dabcc 3e09cf86 3f7d9e30 3e0b5df3     ..}?...>0.}?.].>
    c880:	3f7d906e 3e0cec4a 3f7d8285 3e0e7a8b     n.}?J..>..}?.z.>
    c890:	3f7d7474 3e1008b7 3f7d663d 3e1196cc     tt}?...>=f}?...>
    c8a0:	3f7d57de 3e1324ca 3f7d4959 3e14b2b2     .W}?.$.>YI}?...>
    c8b0:	3f7d3aac 3e164083 3f7d2bd8 3e17ce3d     .:}?.@.>.+}?=..>
    c8c0:	3f7d1cdd 3e195be0 3f7d0dbc 3e1ae96b     ..}?.[.>..}?k..>
    c8d0:	3f7cfe73 3e1c76de 3f7cef03 3e1e0438     s.|?.v.>..|?8..>
    c8e0:	3f7cdf6c 3e1f917b 3f7ccfae 3e211ea5     l.|?{..>..|?..!>
    c8f0:	3f7cbfc9 3e22abb6 3f7cafbd 3e2438ad     ..|?..">..|?.8$>
    c900:	3f7c9f8a 3e25c58c 3f7c8f31 3e275251     ..|?..%>1.|?QR'>
    c910:	3f7c7eb0 3e28defc 3f7c6e08 3e2a6b8d     .~|?..(>.n|?.k*>
    c920:	3f7c5d3a 3e2bf804 3f7c4c44 3e2d8461     :]|?..+>DL|?a.->
    c930:	3f7c3b28 3e2f10a2 3f7c29e5 3e309cc9     (;|?../>.)|?..0>
    c940:	3f7c187a 3e3228d4 3f7c06e9 3e33b4c4     z.|?.(2>..|?..3>
    c950:	3f7bf531 3e354098 3f7be353 3e36cc50     1.{?.@5>S.{?P.6>
    c960:	3f7bd14d 3e3857ec 3f7bbf20 3e39e36c     M.{?.W8> .{?l.9>
    c970:	3f7baccd 3e3b6ecf 3f7b9a53 3e3cfa15     ..{?.n;>S.{?..<>
    c980:	3f7b87b2 3e3e853e 3f7b74ea 3e401049     ..{?>.>>.t{?I.@>
    c990:	3f7b61fc 3e419b37 3f7b4ee7 3e432607     .a{?7.A>.N{?.&C>
    c9a0:	3f7b3bab 3e44b0b9 3f7b2848 3e463b4d     .;{?..D>H({?M;F>
    c9b0:	3f7b14be 3e47c5c2 3f7b010e 3e495018     ..{?..G>..{?.PI>
    c9c0:	3f7aed37 3e4ada4f 3f7ad93a 3e4c6467     7.z?O.J>:.z?gdL>
    c9d0:	3f7ac516 3e4dee60 3f7ab0cb 3e4f7838     ..z?`.M>..z?8xO>
    c9e0:	3f7a9c59 3e5101f1 3f7a87c1 3e528b89     Y.z?..Q>..z?..R>
    c9f0:	3f7a7302 3e541501 3f7a5e1c 3e559e58     .sz?..T>.^z?X.U>
    ca00:	3f7a4910 3e57278f 3f7a33dd 3e58b0a4     .Iz?.'W>.3z?..X>
    ca10:	3f7a1e84 3e5a3997 3f7a0904 3e5bc26a     ..z?.9Z>..z?j.[>
    ca20:	3f79f35e 3e5d4b1a 3f79dd91 3e5ed3a8     ^.y?.K]>..y?..^>
    ca30:	3f79c79d 3e605c13 3f79b183 3e61e45c     ..y?.\`>..y?\.a>
    ca40:	3f799b43 3e636c83 3f7984dc 3e64f486     C.y?.lc>..y?..d>
    ca50:	3f796e4e 3e667c66 3f79579a 3e680422     Nny?f|f>.Wy?".h>
    ca60:	3f7940c0 3e698bba 3f7929bf 3e6b132f     .@y?..i>.)y?/.k>
    ca70:	3f791298 3e6c9a7f 3f78fb4a 3e6e21ab     ..y?..l>J.x?.!n>
    ca80:	3f78e3d6 3e6fa8b2 3f78cc3b 3e712f94     ..x?..o>;.x?./q>
    ca90:	3f78b47b 3e72b651 3f789c93 3e743ce8     {.x?Q.r>..x?.<t>
    caa0:	3f788486 3e75c35a 3f786c52 3e7749a6     ..x?Z.u>Rlx?.Iw>
    cab0:	3f7853f8 3e78cfcc 3f783b77 3e7a55cb     .Sx?..x>w;x?.Uz>
    cac0:	3f7822d1 3e7bdba4 3f780a04 3e7d6156     ."x?..{>..x?Va}>
    cad0:	3f77f110 3e7ee6e1 3f77d7f7 3e803622     ..w?..~>..w?"6.>
    cae0:	3f77beb7 3e80f8c0 3f77a551 3e81bb4a     ..w?...>Q.w?J..>
    caf0:	3f778bc5 3e827dc0 3f777213 3e834022     ..w?.}.>.rw?"@.>
    cb00:	3f77583a 3e840270 3f773e3c 3e84c4aa     :Xw?p..><>w?...>
    cb10:	3f772417 3e8586ce 3f7709cc 3e8648df     .$w?...>..w?.H.>
    cb20:	3f76ef5b 3e870ada 3f76d4c4 3e87ccc1     [.v?...>..v?...>
    cb30:	3f76ba07 3e888e93 3f769f24 3e895050     ..v?...>$.v?PP.>
    cb40:	3f76841b 3e8a11f8 3f7668ec 3e8ad38a     ..v?...>.hv?...>
    cb50:	3f764d97 3e8b9507 3f76321b 3e8c566e     .Mv?...>.2v?nV.>
    cb60:	3f76167a 3e8d17c0 3f75fab3 3e8dd8fc     z.v?...>..u?...>
    cb70:	3f75dec6 3e8e9a22 3f75c2b3 3e8f5b32     ..u?"..>..u?2[.>
    cb80:	3f75a67b 3e901c2c 3f758a1c 3e90dd10     {.u?,..>..u?...>
    cb90:	3f756d97 3e919ddd 3f7550ed 3e925e94     .mu?...>.Pu?.^.>
    cba0:	3f75341d 3e931f35 3f751727 3e93dfbf     .4u?5..>'.u?...>
    cbb0:	3f74fa0b 3e94a031 3f74dcc9 3e95608d     ..t?1..>..t?.`.>
    cbc0:	3f74bf62 3e9620d2 3f74a1d5 3e96e100     b.t?. .>..t?...>
    cbd0:	3f748422 3e97a117 3f746649 3e986116     ".t?...>Ift?.a.>
    cbe0:	3f74484b 3e9920fe 3f742a27 3e99e0ce     KHt?. .>'*t?...>
    cbf0:	3f740bdd 3e9aa086 3f73ed6e 3e9b6027     ..t?...>n.s?'`.>
    cc00:	3f73ced9 3e9c1faf 3f73b01f 3e9cdf20     ..s?...>..s? ..>
    cc10:	3f73913f 3e9d9e78 3f737239 3e9e5db8     ?.s?x..>9rs?.].>
    cc20:	3f73530e 3e9f1cdf 3f7333be 3e9fdbee     .Ss?...>.3s?...>
    cc30:	3f731447 3ea09ae5 3f72f4ac 3ea159c2     G.s?...>..r?.Y.>
    cc40:	3f72d4eb 3ea21887 3f72b504 3ea2d733     ..r?...>..r?3..>
    cc50:	3f7294f8 3ea395c5 3f7274c7 3ea4543f     ..r?...>.tr??T.>
    cc60:	3f725470 3ea5129f 3f7233f4 3ea5d0e5     pTr?...>.3r?...>
    cc70:	3f721352 3ea68f12 3f71f28c 3ea74d25     R.r?...>..q?%M.>
    cc80:	3f71d19f 3ea80b1f 3f71b08e 3ea8c8fe     ..q?...>..q?...>
    cc90:	3f718f57 3ea986c4 3f716dfb 3eaa446f     W.q?...>.mq?oD.>
    cca0:	3f714c7a 3eab0201 3f712ad4 3eabbf77     zLq?...>.*q?w..>
    ccb0:	3f710908 3eac7cd4 3f70e717 3ead3a15     ..q?.|.>..p?.:.>
    ccc0:	3f70c502 3eadf73c 3f70a2c6 3eaeb449     ..p?<..>..p?I..>
    ccd0:	3f708066 3eaf713a 3f705de1 3eb02e10     f.p?:q.>.]p?...>
    cce0:	3f703b37 3eb0eacb 3f701867 3eb1a76b     7;p?...>g.p?k..>
    ccf0:	3f6ff573 3eb263ef 3f6fd25a 3eb32058     s.o?.c.>Z.o?X .>
    cd00:	3f6faf1b 3eb3dca5 3f6f8bb8 3eb498d6     ..o?...>..o?...>
    cd10:	3f6f6830 3eb554ec 3f6f4483 3eb610e6     0ho?.T.>.Do?...>
    cd20:	3f6f20b0 3eb6ccc3 3f6efcba 3eb78884     . o?...>..n?...>
    cd30:	3f6ed89e 3eb8442a 3f6eb45d 3eb8ffb2     ..n?*D.>].n?...>
    cd40:	3f6e8ff8 3eb9bb1e 3f6e6b6d 3eba766e     ..n?...>mkn?nv.>
    cd50:	3f6e46be 3ebb31a0 3f6e21eb 3ebbecb6     .Fn?.1.>.!n?...>
    cd60:	3f6dfcf2 3ebca7af 3f6dd7d5 3ebd628b     ..m?...>..m?.b.>
    cd70:	3f6db293 3ebe1d4a 3f6d8d2d 3ebed7eb     ..m?J..>-.m?...>
    cd80:	3f6d67a1 3ebf926f 3f6d41f2 3ec04cd5     .gm?o..>.Am?.L.>
    cd90:	3f6d1c1d 3ec1071e 3f6cf624 3ec1c148     ..m?...>$.l?H..>
    cda0:	3f6cd007 3ec27b55 3f6ca9c5 3ec33544     ..l?U{.>..l?D5.>
    cdb0:	3f6c835e 3ec3ef15 3f6c5cd4 3ec4a8c8     ^.l?...>.\l?...>
    cdc0:	3f6c3624 3ec5625c 3f6c0f50 3ec61bd2     $6l?\b.>P.l?...>
    cdd0:	3f6be858 3ec6d529 3f6bc13b 3ec78e62     X.k?)..>;.k?b..>
    cde0:	3f6b99fb 3ec8477c 3f6b7295 3ec90077     ..k?|G.>.rk?w..>
    cdf0:	3f6b4b0c 3ec9b953 3f6b235e 3eca7210     .Kk?S..>^#k?.r.>
    ce00:	3f6afb8c 3ecb2aae 3f6ad395 3ecbe32c     ..j?.*.>..j?,..>
    ce10:	3f6aab7b 3ecc9b8b 3f6a833c 3ecd53ca     {.j?...><.j?.S.>
    ce20:	3f6a5ad9 3ece0bea 3f6a3252 3ecec3ea     .Zj?...>R2j?...>
    ce30:	3f6a09a7 3ecf7bca 3f69e0d7 3ed0338a     ..j?.{.>..i?.3.>
    ce40:	3f69b7e4 3ed0eb2a 3f698ecc 3ed1a2aa     ..i?*..>..i?...>
    ce50:	3f696591 3ed25a09 3f693c32 3ed31148     .ei?.Z.>2<i?H..>
    ce60:	3f6912ae 3ed3c867 3f68e907 3ed47f64     ..i?g..>..h?d..>
    ce70:	3f68bf3c 3ed53641 3f68954c 3ed5ecfd     <.h?A6.>L.h?...>
    ce80:	3f686b39 3ed6a399 3f684103 3ed75a13     9kh?...>.Ah?.Z.>
    ce90:	3f6816a8 3ed8106b 3f67ec2a 3ed8c6a3     ..h?k..>*.g?...>
    cea0:	3f67c187 3ed97cb9 3f6796c1 3eda32ad     ..g?.|.>..g?.2.>
    ceb0:	3f676bd8 3edae880 3f6740ca 3edb9e31     .kg?...>.@g?1..>
    cec0:	3f671599 3edc53c1 3f66ea45 3edd092e     ..g?.S.>E.f?...>
    ced0:	3f66becc 3eddbe79 3f669330 3ede73a2     ..f?y..>0.f?.s.>
    cee0:	3f666771 3edf28a9 3f663b8e 3edfdd8d     qgf?.(.>.;f?...>
    cef0:	3f660f88 3ee0924f 3f65e35e 3ee146ee     ..f?O..>^.e?.F.>
    cf00:	3f65b710 3ee1fb6a 3f658aa0 3ee2afc4     ..e?j..>..e?...>
    cf10:	3f655e0b 3ee363fa 3f653154 3ee4180e     .^e?.c.>T1e?...>
    cf20:	3f650479 3ee4cbfe 3f64d77b 3ee57fcb     y.e?...>{.d?...>
    cf30:	3f64aa59 3ee63375 3f647d14 3ee6e6fb     Y.d?u3.>.}d?...>
    cf40:	3f644fac 3ee79a5d 3f642221 3ee84d9c     .Od?]..>!"d?.M.>
    cf50:	3f63f473 3ee900b7 3f63c6a1 3ee9b3ae     s.c?...>..c?...>
    cf60:	3f6398ac 3eea6681 3f636a95 3eeb1930     ..c?.f.>.jc?0..>
    cf70:	3f633c5a 3eebcbbb 3f630dfc 3eec7e21     Z<c?...>..c?!~.>
    cf80:	3f62df7b 3eed3063 3f62b0d7 3eede280     {.b?c0.>..b?...>
    cf90:	3f628210 3eee9479 3f625326 3eef464c     ..b?y..>&Sb?LF.>
    cfa0:	3f62241a 3eeff7fb 3f61f4ea 3ef0a985     .$b?...>..a?...>
    cfb0:	3f61c598 3ef15aea 3f619622 3ef20c29     ..a?.Z.>".a?)..>
    cfc0:	3f61668a 3ef2bd43 3f6136d0 3ef36e38     .fa?C..>.6a?8n.>
    cfd0:	3f6106f2 3ef41f07 3f60d6f2 3ef4cfb1     ..a?...>..`?...>
    cfe0:	3f60a6cf 3ef58035 3f607689 3ef63093     ..`?5..>.v`?.0.>
    cff0:	3f604621 3ef6e0cb 3f601596 3ef790dc     !F`?...>..`?...>
    d000:	3f5fe4e9 3ef840c8 3f5fb419 3ef8f08e     .._?.@.>.._?...>
    d010:	3f5f8327 3ef9a02d 3f5f5212 3efa4fa5     '._?-..>.R_?.O.>
    d020:	3f5f20db 3efafef7 3f5eef81 3efbae22     . _?...>..^?"..>
    d030:	3f5ebe05 3efc5d27 3f5e8c67 3efd0c04     ..^?'].>g.^?...>
    d040:	3f5e5aa6 3efdbabb 3f5e28c3 3efe694a     .Z^?...>.(^?Ji.>
    d050:	3f5df6be 3eff17b2 3f5dc497 3effc5f3     ..]?...>..]?...>
    d060:	3f5d924d 3f003a06 3f5d5fe1 3f0090ff     M.]?.:.?._]?...?
    d070:	3f5d2d53 3f00e7e4 3f5cfaa3 3f013eb5     S-]?...?..\?.>.?
    d080:	3f5cc7d1 3f019573 3f5c94dd 3f01ec1c     ..\?s..?..\?...?
    d090:	3f5c61c7 3f0242b1 3f5c2e8e 3f029932     .a\?.B.?..\?2..?
    d0a0:	3f5bfb34 3f02ef9f 3f5bc7b8 3f0345f8     4.[?...?..[?.E.?
    d0b0:	3f5b941a 3f039c3d 3f5b605a 3f03f26d     ..[?=..?Z`[?m..?
    d0c0:	3f5b2c79 3f044889 3f5af875 3f049e91     y,[?.H.?u.Z?...?
    d0d0:	3f5ac450 3f04f484 3f5a9009 3f054a62     P.Z?...?..Z?bJ.?
    d0e0:	3f5a5ba0 3f05a02c 3f5a2716 3f05f5e2     .[Z?,..?.'Z?...?
    d0f0:	3f59f26a 3f064b82 3f59bd9c 3f06a10e     j.Y?.K.?..Y?...?
    d100:	3f5988ad 3f06f686 3f59539c 3f074be8     ..Y?...?.SY?.K.?
    d110:	3f591e6a 3f07a136 3f58e917 3f07f66f     j.Y?6..?..X?o..?
    d120:	3f58b3a1 3f084b92 3f587e0b 3f08a0a1     ..X?.K.?.~X?...?
    d130:	3f584853 3f08f59b 3f581279 3f094a7f     SHX?...?y.X?.J.?
    d140:	3f57dc7f 3f099f4e 3f57a663 3f09f409     ..W?N..?c.W?...?
    d150:	3f577026 3f0a48ad 3f5739c7 3f0a9d3d     &pW?.H.?.9W?=..?
    d160:	3f570348 3f0af1b7 3f56cca7 3f0b461c     H.W?...?..V?.F.?
    d170:	3f5695e5 3f0b9a6b 3f565f02 3f0beea5     ..V?k..?._V?...?
    d180:	3f5627fe 3f0c42c9 3f55f0d9 3f0c96d7     .'V?.B.?..U?...?
    d190:	3f55b993 3f0cead0 3f55822c 3f0d3eb3     ..U?...?,.U?.>.?
    d1a0:	3f554aa4 3f0d9281 3f5512fb 3f0de638     .JU?...?..U?8..?
    d1b0:	3f54db31 3f0e39da 3f54a347 3f0e8d65     1.T?.9.?G.T?e..?
    d1c0:	3f546b3b 3f0ee0db 3f54330f 3f0f343b     ;kT?...?.3T?;4.?
    d1d0:	3f53fac3 3f0f8784 3f53c255 3f0fdab8     ..S?...?U.S?...?
    d1e0:	3f5389c7 3f102dd5 3f535118 3f1080dc     ..S?.-.?.QS?...?
    d1f0:	3f531849 3f10d3cd 3f52df59 3f1126a7     I.S?...?Y.R?.&.?
    d200:	3f52a649 3f11796b 3f526d18 3f11cc19     I.R?ky.?.mR?...?
    d210:	3f5233c6 3f121eb0 3f51fa54 3f127130     .3R?...?T.Q?0q.?
    d220:	3f51c0c2 3f12c39a 3f518710 3f1315ee     ..Q?...?..Q?...?
    d230:	3f514d3d 3f13682a 3f51134a 3f13ba50     =MQ?*h.?J.Q?P..?
    d240:	3f50d937 3f140c5f 3f509f03 3f145e58     7.P?_..?..P?X^.?
    d250:	3f5064af 3f14b039 3f502a3b 3f150204     .dP?9..?;*P?...?
    d260:	3f4fefa8 3f1553b7 3f4fb4f4 3f15a554     ..O?.S.?..O?T..?
    d270:	3f4f7a1f 3f15f6d9 3f4f3f2b 3f164847     .zO?...?+?O?GH.?
    d280:	3f4f0417 3f16999f 3f4ec8e4 3f16eadf     ..O?...?..N?...?
    d290:	3f4e8d90 3f173c07 3f4e521c 3f178d18     ..N?.<.?.RN?...?
    d2a0:	3f4e1689 3f17de12 3f4ddad5 3f182ef5     ..N?...?..M?...?
    d2b0:	3f4d9f02 3f187fc0 3f4d6310 3f18d073     ..M?...?.cM?s..?
    d2c0:	3f4d26fd 3f19210f 3f4ceacb 3f197194     .&M?.!.?..L?.q.?
    d2d0:	3f4cae79 3f19c200 3f4c7208 3f1a1255     y.L?...?.rL?U..?
    d2e0:	3f4c3578 3f1a6293 3f4bf8c7 3f1ab2b8     x5L?.b.?..K?...?
    d2f0:	3f4bbbf8 3f1b02c6 3f4b7f09 3f1b52bb     ..K?...?..K?.R.?
    d300:	3f4b41fa 3f1ba299 3f4b04cc 3f1bf25f     .AK?...?..K?_..?
    d310:	3f4ac77f 3f1c420c 3f4a8a13 3f1c91a2     ..J?.B.?..J?...?
    d320:	3f4a4c87 3f1ce11f 3f4a0edc 3f1d3084     .LJ?...?..J?.0.?
    d330:	3f49d112 3f1d7fd1 3f499329 3f1dcf06     ..I?...?).I?...?
    d340:	3f495521 3f1e1e22 3f4916fa 3f1e6d26     !UI?"..?..I?&m.?
    d350:	3f48d8b3 3f1ebc12 3f489a4e 3f1f0ae5     ..H?...?N.H?...?
    d360:	3f485bca 3f1f599f 3f481d27 3f1fa841     .[H?.Y.?'.H?A..?
    d370:	3f47de65 3f1ff6cb 3f479f84 3f20453b     e.G?...?..G?;E ?
    d380:	3f476085 3f209393 3f472167 3f20e1d2     .`G?.. ?g!G?.. ?
    d390:	3f46e22a 3f212ff9 3f46a2ce 3f217e06     *.F?./!?..F?.~!?
    d3a0:	3f466354 3f21cbfb 3f4623bb 3f2219d7     TcF?..!?.#F?.."?
    d3b0:	3f45e403 3f226799 3f45a42d 3f22b543     ..E?.g"?-.E?C."?
    d3c0:	3f456439 3f2302d3 3f452426 3f23504b     9dE?..#?&$E?KP#?
    d3d0:	3f44e3f5 3f239da9 3f44a3a5 3f23eaee     ..D?..#?..D?..#?
    d3e0:	3f446337 3f24381a 3f4422ab 3f24852c     7cD?.8$?."D?,.$?
    d3f0:	3f43e200 3f24d225 3f43a138 3f251f04     ..C?%.$?8.C?..%?
    d400:	3f436051 3f256bcb 3f431f4c 3f25b877     Q`C?.k%?L.C?w.%?
    d410:	3f42de29 3f26050a 3f429ce8 3f265184     ).B?..&?..B?.Q&?
    d420:	3f425b89 3f269de3 3f421a0b 3f26ea2a     .[B?..&?..B?*.&?
    d430:	3f41d870 3f273656 3f4196b7 3f278268     p.A?V6'?..A?h.'?
    d440:	3f4154e1 3f27ce61 3f4112ec 3f281a40     .TA?a.'?..A?@.(?
    d450:	3f40d0da 3f286605 3f408ea9 3f28b1b0     ..@?.f(?..@?..(?
    d460:	3f404c5c 3f28fd41 3f4009f0 3f2948b8     \L@?A.(?..@?.H)?
    d470:	3f3fc767 3f299415 3f3f84c0 3f29df57     g.??..)?..??W.)?
    d480:	3f3f41fc 3f2a2a80 3f3eff1b 3f2a758e     .A??.**?..>?.u*?
    d490:	3f3ebc1b 3f2ac082 3f3e78ff 3f2b0b5b     ..>?..*?.x>?[.+?
    d4a0:	3f3e35c5 3f2b561b 3f3df26e 3f2ba0bf     .5>?.V+?n.=?..+?
    d4b0:	3f3daef9 3f2beb4a 3f3d6b67 3f2c35b9     ..=?J.+?gk=?.5,?
    d4c0:	3f3d27b8 3f2c800f 3f3ce3ec 3f2cca49     .'=?..,?..<?I.,?
    d4d0:	3f3ca003 3f2d1469 3f3c5bfc 3f2d5e6f     ..<?i.-?.[<?o^-?
    d4e0:	3f3c17d9 3f2da859 3f3bd398 3f2df229     ..<?Y.-?..;?).-?
    d4f0:	3f3b8f3b 3f2e3bde 3f3b4ac1 3f2e8578     ;.;?.;.?.J;?x..?
    d500:	3f3b0629 3f2ecef7 3f3ac175 3f2f185b     ).;?...?u.:?[./?
    d510:	3f3a7ca4 3f2f61a5 3f3a37b7 3f2faad3     .|:?.a/?.7:?../?
    d520:	3f39f2ac 3f2ff3e6 3f39ad85 3f303cde     ..9?../?..9?.<0?
    d530:	3f396842 3f3085bb 3f3922e1 3f30ce7c     Bh9?..0?."9?|.0?
    d540:	3f38dd65 3f311722 3f3897cb 3f315fad     e.8?".1?..8?._1?
    d550:	3f385216 3f31a81d 3f380c43 3f31f071     .R8?..1?C.8?q.1?
    d560:	3f37c655 3f3238aa 3f37804a 3f3280c7     U.7?.82?J.7?..2?
    d570:	3f373a23 3f32c8c9 3f36f3df 3f3310af     #:7?..2?..6?..3?
    d580:	3f36ad7f 3f33587a 3f366704 3f33a029     ..6?zX3?.g6?).3?
    d590:	3f36206c 3f33e7bc 3f35d9b8 3f342f34     l 6?..3?..5?4/4?
    d5a0:	3f3592e7 3f34768f 3f354bfb 3f34bdcf     ..5?.v4?.K5?..4?
    d5b0:	3f3504f3 3f3504f3 3f34bdcf 3f354bfb     ..5?..5?..4?.K5?
    d5c0:	3f34768f 3f3592e7 3f342f34 3f35d9b8     .v4?..5?4/4?..5?
    d5d0:	3f33e7bc 3f36206c 3f33a029 3f366704     ..3?l 6?).3?.g6?
    d5e0:	3f33587a 3f36ad7f 3f3310af 3f36f3df     zX3?..6?..3?..6?
    d5f0:	3f32c8c9 3f373a23 3f3280c7 3f37804a     ..2?#:7?..2?J.7?
    d600:	3f3238aa 3f37c655 3f31f071 3f380c43     .82?U.7?q.1?C.8?
    d610:	3f31a81d 3f385216 3f315fad 3f3897cb     ..1?.R8?._1?..8?
    d620:	3f311722 3f38dd65 3f30ce7c 3f3922e1     ".1?e.8?|.0?."9?
    d630:	3f3085bb 3f396842 3f303cde 3f39ad85     ..0?Bh9?.<0?..9?
    d640:	3f2ff3e6 3f39f2ac 3f2faad3 3f3a37b7     ../?..9?../?.7:?
    d650:	3f2f61a5 3f3a7ca4 3f2f185b 3f3ac175     .a/?.|:?[./?u.:?
    d660:	3f2ecef7 3f3b0629 3f2e8578 3f3b4ac1     ...?).;?x..?.J;?
    d670:	3f2e3bde 3f3b8f3b 3f2df229 3f3bd398     .;.?;.;?).-?..;?
    d680:	3f2da859 3f3c17d9 3f2d5e6f 3f3c5bfc     Y.-?..<?o^-?.[<?
    d690:	3f2d1469 3f3ca003 3f2cca49 3f3ce3ec     i.-?..<?I.,?..<?
    d6a0:	3f2c800f 3f3d27b8 3f2c35b9 3f3d6b67     ..,?.'=?.5,?gk=?
    d6b0:	3f2beb4a 3f3daef9 3f2ba0bf 3f3df26e     J.+?..=?..+?n.=?
    d6c0:	3f2b561b 3f3e35c5 3f2b0b5b 3f3e78ff     .V+?.5>?[.+?.x>?
    d6d0:	3f2ac082 3f3ebc1b 3f2a758e 3f3eff1b     ..*?..>?.u*?..>?
    d6e0:	3f2a2a80 3f3f41fc 3f29df57 3f3f84c0     .**?.A??W.)?..??
    d6f0:	3f299415 3f3fc767 3f2948b8 3f4009f0     ..)?g.??.H)?..@?
    d700:	3f28fd41 3f404c5c 3f28b1b0 3f408ea9     A.(?\L@?..(?..@?
    d710:	3f286605 3f40d0da 3f281a40 3f4112ec     .f(?..@?@.(?..A?
    d720:	3f27ce61 3f4154e1 3f278268 3f4196b7     a.'?.TA?h.'?..A?
    d730:	3f273656 3f41d870 3f26ea2a 3f421a0b     V6'?p.A?*.&?..B?
    d740:	3f269de3 3f425b89 3f265184 3f429ce8     ..&?.[B?.Q&?..B?
    d750:	3f26050a 3f42de29 3f25b877 3f431f4c     ..&?).B?w.%?L.C?
    d760:	3f256bcb 3f436051 3f251f04 3f43a138     .k%?Q`C?..%?8.C?
    d770:	3f24d225 3f43e200 3f24852c 3f4422ab     %.$?..C?,.$?."D?
    d780:	3f24381a 3f446337 3f23eaee 3f44a3a5     .8$?7cD?..#?..D?
    d790:	3f239da9 3f44e3f5 3f23504b 3f452426     ..#?..D?KP#?&$E?
    d7a0:	3f2302d3 3f456439 3f22b543 3f45a42d     ..#?9dE?C."?-.E?
    d7b0:	3f226799 3f45e403 3f2219d7 3f4623bb     .g"?..E?.."?.#F?
    d7c0:	3f21cbfb 3f466354 3f217e06 3f46a2ce     ..!?TcF?.~!?..F?
    d7d0:	3f212ff9 3f46e22a 3f20e1d2 3f472167     ./!?*.F?.. ?g!G?
    d7e0:	3f209393 3f476085 3f20453b 3f479f84     .. ?.`G?;E ?..G?
    d7f0:	3f1ff6cb 3f47de65 3f1fa841 3f481d27     ...?e.G?A..?'.H?
    d800:	3f1f599f 3f485bca 3f1f0ae5 3f489a4e     .Y.?.[H?...?N.H?
    d810:	3f1ebc12 3f48d8b3 3f1e6d26 3f4916fa     ...?..H?&m.?..I?
    d820:	3f1e1e22 3f495521 3f1dcf06 3f499329     "..?!UI?...?).I?
    d830:	3f1d7fd1 3f49d112 3f1d3084 3f4a0edc     ...?..I?.0.?..J?
    d840:	3f1ce11f 3f4a4c87 3f1c91a2 3f4a8a13     ...?.LJ?...?..J?
    d850:	3f1c420c 3f4ac77f 3f1bf25f 3f4b04cc     .B.?..J?_..?..K?
    d860:	3f1ba299 3f4b41fa 3f1b52bb 3f4b7f09     ...?.AK?.R.?..K?
    d870:	3f1b02c6 3f4bbbf8 3f1ab2b8 3f4bf8c7     ...?..K?...?..K?
    d880:	3f1a6293 3f4c3578 3f1a1255 3f4c7208     .b.?x5L?U..?.rL?
    d890:	3f19c200 3f4cae79 3f197194 3f4ceacb     ...?y.L?.q.?..L?
    d8a0:	3f19210f 3f4d26fd 3f18d073 3f4d6310     .!.?.&M?s..?.cM?
    d8b0:	3f187fc0 3f4d9f02 3f182ef5 3f4ddad5     ...?..M?...?..M?
    d8c0:	3f17de12 3f4e1689 3f178d18 3f4e521c     ...?..N?...?.RN?
    d8d0:	3f173c07 3f4e8d90 3f16eadf 3f4ec8e4     .<.?..N?...?..N?
    d8e0:	3f16999f 3f4f0417 3f164847 3f4f3f2b     ...?..O?GH.?+?O?
    d8f0:	3f15f6d9 3f4f7a1f 3f15a554 3f4fb4f4     ...?.zO?T..?..O?
    d900:	3f1553b7 3f4fefa8 3f150204 3f502a3b     .S.?..O?...?;*P?
    d910:	3f14b039 3f5064af 3f145e58 3f509f03     9..?.dP?X^.?..P?
    d920:	3f140c5f 3f50d937 3f13ba50 3f51134a     _..?7.P?P..?J.Q?
    d930:	3f13682a 3f514d3d 3f1315ee 3f518710     *h.?=MQ?...?..Q?
    d940:	3f12c39a 3f51c0c2 3f127130 3f51fa54     ...?..Q?0q.?T.Q?
    d950:	3f121eb0 3f5233c6 3f11cc19 3f526d18     ...?.3R?...?.mR?
    d960:	3f11796b 3f52a649 3f1126a7 3f52df59     ky.?I.R?.&.?Y.R?
    d970:	3f10d3cd 3f531849 3f1080dc 3f535118     ...?I.S?...?.QS?
    d980:	3f102dd5 3f5389c7 3f0fdab8 3f53c255     .-.?..S?...?U.S?
    d990:	3f0f8784 3f53fac3 3f0f343b 3f54330f     ...?..S?;4.?.3T?
    d9a0:	3f0ee0db 3f546b3b 3f0e8d65 3f54a347     ...?;kT?e..?G.T?
    d9b0:	3f0e39da 3f54db31 3f0de638 3f5512fb     .9.?1.T?8..?..U?
    d9c0:	3f0d9281 3f554aa4 3f0d3eb3 3f55822c     ...?.JU?.>.?,.U?
    d9d0:	3f0cead0 3f55b993 3f0c96d7 3f55f0d9     ...?..U?...?..U?
    d9e0:	3f0c42c9 3f5627fe 3f0beea5 3f565f02     .B.?.'V?...?._V?
    d9f0:	3f0b9a6b 3f5695e5 3f0b461c 3f56cca7     k..?..V?.F.?..V?
    da00:	3f0af1b7 3f570348 3f0a9d3d 3f5739c7     ...?H.W?=..?.9W?
    da10:	3f0a48ad 3f577026 3f09f409 3f57a663     .H.?&pW?...?c.W?
    da20:	3f099f4e 3f57dc7f 3f094a7f 3f581279     N..?..W?.J.?y.X?
    da30:	3f08f59b 3f584853 3f08a0a1 3f587e0b     ...?SHX?...?.~X?
    da40:	3f084b92 3f58b3a1 3f07f66f 3f58e917     .K.?..X?o..?..X?
    da50:	3f07a136 3f591e6a 3f074be8 3f59539c     6..?j.Y?.K.?.SY?
    da60:	3f06f686 3f5988ad 3f06a10e 3f59bd9c     ...?..Y?...?..Y?
    da70:	3f064b82 3f59f26a 3f05f5e2 3f5a2716     .K.?j.Y?...?.'Z?
    da80:	3f05a02c 3f5a5ba0 3f054a62 3f5a9009     ,..?.[Z?bJ.?..Z?
    da90:	3f04f484 3f5ac450 3f049e91 3f5af875     ...?P.Z?...?u.Z?
    daa0:	3f044889 3f5b2c79 3f03f26d 3f5b605a     .H.?y,[?m..?Z`[?
    dab0:	3f039c3d 3f5b941a 3f0345f8 3f5bc7b8     =..?..[?.E.?..[?
    dac0:	3f02ef9f 3f5bfb34 3f029932 3f5c2e8e     ...?4.[?2..?..\?
    dad0:	3f0242b1 3f5c61c7 3f01ec1c 3f5c94dd     .B.?.a\?...?..\?
    dae0:	3f019573 3f5cc7d1 3f013eb5 3f5cfaa3     s..?..\?.>.?..\?
    daf0:	3f00e7e4 3f5d2d53 3f0090ff 3f5d5fe1     ...?S-]?...?._]?
    db00:	3f003a06 3f5d924d 3effc5f3 3f5dc497     .:.?M.]?...>..]?
    db10:	3eff17b2 3f5df6be 3efe694a 3f5e28c3     ...>..]?Ji.>.(^?
    db20:	3efdbabb 3f5e5aa6 3efd0c04 3f5e8c67     ...>.Z^?...>g.^?
    db30:	3efc5d27 3f5ebe05 3efbae22 3f5eef81     '].>..^?"..>..^?
    db40:	3efafef7 3f5f20db 3efa4fa5 3f5f5212     ...>. _?.O.>.R_?
    db50:	3ef9a02d 3f5f8327 3ef8f08e 3f5fb419     -..>'._?...>.._?
    db60:	3ef840c8 3f5fe4e9 3ef790dc 3f601596     .@.>.._?...>..`?
    db70:	3ef6e0cb 3f604621 3ef63093 3f607689     ...>!F`?.0.>.v`?
    db80:	3ef58035 3f60a6cf 3ef4cfb1 3f60d6f2     5..>..`?...>..`?
    db90:	3ef41f07 3f6106f2 3ef36e38 3f6136d0     ...>..a?8n.>.6a?
    dba0:	3ef2bd43 3f61668a 3ef20c29 3f619622     C..>.fa?)..>".a?
    dbb0:	3ef15aea 3f61c598 3ef0a985 3f61f4ea     .Z.>..a?...>..a?
    dbc0:	3eeff7fb 3f62241a 3eef464c 3f625326     ...>.$b?LF.>&Sb?
    dbd0:	3eee9479 3f628210 3eede280 3f62b0d7     y..>..b?...>..b?
    dbe0:	3eed3063 3f62df7b 3eec7e21 3f630dfc     c0.>{.b?!~.>..c?
    dbf0:	3eebcbbb 3f633c5a 3eeb1930 3f636a95     ...>Z<c?0..>.jc?
    dc00:	3eea6681 3f6398ac 3ee9b3ae 3f63c6a1     .f.>..c?...>..c?
    dc10:	3ee900b7 3f63f473 3ee84d9c 3f642221     ...>s.c?.M.>!"d?
    dc20:	3ee79a5d 3f644fac 3ee6e6fb 3f647d14     ]..>.Od?...>.}d?
    dc30:	3ee63375 3f64aa59 3ee57fcb 3f64d77b     u3.>Y.d?...>{.d?
    dc40:	3ee4cbfe 3f650479 3ee4180e 3f653154     ...>y.e?...>T1e?
    dc50:	3ee363fa 3f655e0b 3ee2afc4 3f658aa0     .c.>.^e?...>..e?
    dc60:	3ee1fb6a 3f65b710 3ee146ee 3f65e35e     j..>..e?.F.>^.e?
    dc70:	3ee0924f 3f660f88 3edfdd8d 3f663b8e     O..>..f?...>.;f?
    dc80:	3edf28a9 3f666771 3ede73a2 3f669330     .(.>qgf?.s.>0.f?
    dc90:	3eddbe79 3f66becc 3edd092e 3f66ea45     y..>..f?...>E.f?
    dca0:	3edc53c1 3f671599 3edb9e31 3f6740ca     .S.>..g?1..>.@g?
    dcb0:	3edae880 3f676bd8 3eda32ad 3f6796c1     ...>.kg?.2.>..g?
    dcc0:	3ed97cb9 3f67c187 3ed8c6a3 3f67ec2a     .|.>..g?...>*.g?
    dcd0:	3ed8106b 3f6816a8 3ed75a13 3f684103     k..>..h?.Z.>.Ah?
    dce0:	3ed6a399 3f686b39 3ed5ecfd 3f68954c     ...>9kh?...>L.h?
    dcf0:	3ed53641 3f68bf3c 3ed47f64 3f68e907     A6.><.h?d..>..h?
    dd00:	3ed3c867 3f6912ae 3ed31148 3f693c32     g..>..i?H..>2<i?
    dd10:	3ed25a09 3f696591 3ed1a2aa 3f698ecc     .Z.>.ei?...>..i?
    dd20:	3ed0eb2a 3f69b7e4 3ed0338a 3f69e0d7     *..>..i?.3.>..i?
    dd30:	3ecf7bca 3f6a09a7 3ecec3ea 3f6a3252     .{.>..j?...>R2j?
    dd40:	3ece0bea 3f6a5ad9 3ecd53ca 3f6a833c     ...>.Zj?.S.><.j?
    dd50:	3ecc9b8b 3f6aab7b 3ecbe32c 3f6ad395     ...>{.j?,..>..j?
    dd60:	3ecb2aae 3f6afb8c 3eca7210 3f6b235e     .*.>..j?.r.>^#k?
    dd70:	3ec9b953 3f6b4b0c 3ec90077 3f6b7295     S..>.Kk?w..>.rk?
    dd80:	3ec8477c 3f6b99fb 3ec78e62 3f6bc13b     |G.>..k?b..>;.k?
    dd90:	3ec6d529 3f6be858 3ec61bd2 3f6c0f50     )..>X.k?...>P.l?
    dda0:	3ec5625c 3f6c3624 3ec4a8c8 3f6c5cd4     \b.>$6l?...>.\l?
    ddb0:	3ec3ef15 3f6c835e 3ec33544 3f6ca9c5     ...>^.l?D5.>..l?
    ddc0:	3ec27b55 3f6cd007 3ec1c148 3f6cf624     U{.>..l?H..>$.l?
    ddd0:	3ec1071e 3f6d1c1d 3ec04cd5 3f6d41f2     ...>..m?.L.>.Am?
    dde0:	3ebf926f 3f6d67a1 3ebed7eb 3f6d8d2d     o..>.gm?...>-.m?
    ddf0:	3ebe1d4a 3f6db293 3ebd628b 3f6dd7d5     J..>..m?.b.>..m?
    de00:	3ebca7af 3f6dfcf2 3ebbecb6 3f6e21eb     ...>..m?...>.!n?
    de10:	3ebb31a0 3f6e46be 3eba766e 3f6e6b6d     .1.>.Fn?nv.>mkn?
    de20:	3eb9bb1e 3f6e8ff8 3eb8ffb2 3f6eb45d     ...>..n?...>].n?
    de30:	3eb8442a 3f6ed89e 3eb78884 3f6efcba     *D.>..n?...>..n?
    de40:	3eb6ccc3 3f6f20b0 3eb610e6 3f6f4483     ...>. o?...>.Do?
    de50:	3eb554ec 3f6f6830 3eb498d6 3f6f8bb8     .T.>0ho?...>..o?
    de60:	3eb3dca5 3f6faf1b 3eb32058 3f6fd25a     ...>..o?X .>Z.o?
    de70:	3eb263ef 3f6ff573 3eb1a76b 3f701867     .c.>s.o?k..>g.p?
    de80:	3eb0eacb 3f703b37 3eb02e10 3f705de1     ...>7;p?...>.]p?
    de90:	3eaf713a 3f708066 3eaeb449 3f70a2c6     :q.>f.p?I..>..p?
    dea0:	3eadf73c 3f70c502 3ead3a15 3f70e717     <..>..p?.:.>..p?
    deb0:	3eac7cd4 3f710908 3eabbf77 3f712ad4     .|.>..q?w..>.*q?
    dec0:	3eab0201 3f714c7a 3eaa446f 3f716dfb     ...>zLq?oD.>.mq?
    ded0:	3ea986c4 3f718f57 3ea8c8fe 3f71b08e     ...>W.q?...>..q?
    dee0:	3ea80b1f 3f71d19f 3ea74d25 3f71f28c     ...>..q?%M.>..q?
    def0:	3ea68f12 3f721352 3ea5d0e5 3f7233f4     ...>R.r?...>.3r?
    df00:	3ea5129f 3f725470 3ea4543f 3f7274c7     ...>pTr??T.>.tr?
    df10:	3ea395c5 3f7294f8 3ea2d733 3f72b504     ...>..r?3..>..r?
    df20:	3ea21887 3f72d4eb 3ea159c2 3f72f4ac     ...>..r?.Y.>..r?
    df30:	3ea09ae5 3f731447 3e9fdbee 3f7333be     ...>G.s?...>.3s?
    df40:	3e9f1cdf 3f73530e 3e9e5db8 3f737239     ...>.Ss?.].>9rs?
    df50:	3e9d9e78 3f73913f 3e9cdf20 3f73b01f     x..>?.s? ..>..s?
    df60:	3e9c1faf 3f73ced9 3e9b6027 3f73ed6e     ...>..s?'`.>n.s?
    df70:	3e9aa086 3f740bdd 3e99e0ce 3f742a27     ...>..t?...>'*t?
    df80:	3e9920fe 3f74484b 3e986116 3f746649     . .>KHt?.a.>Ift?
    df90:	3e97a117 3f748422 3e96e100 3f74a1d5     ...>".t?...>..t?
    dfa0:	3e9620d2 3f74bf62 3e95608d 3f74dcc9     . .>b.t?.`.>..t?
    dfb0:	3e94a031 3f74fa0b 3e93dfbf 3f751727     1..>..t?...>'.u?
    dfc0:	3e931f35 3f75341d 3e925e94 3f7550ed     5..>.4u?.^.>.Pu?
    dfd0:	3e919ddd 3f756d97 3e90dd10 3f758a1c     ...>.mu?...>..u?
    dfe0:	3e901c2c 3f75a67b 3e8f5b32 3f75c2b3     ,..>{.u?2[.>..u?
    dff0:	3e8e9a22 3f75dec6 3e8dd8fc 3f75fab3     "..>..u?...>..u?
    e000:	3e8d17c0 3f76167a 3e8c566e 3f76321b     ...>z.v?nV.>.2v?
    e010:	3e8b9507 3f764d97 3e8ad38a 3f7668ec     ...>.Mv?...>.hv?
    e020:	3e8a11f8 3f76841b 3e895050 3f769f24     ...>..v?PP.>$.v?
    e030:	3e888e93 3f76ba07 3e87ccc1 3f76d4c4     ...>..v?...>..v?
    e040:	3e870ada 3f76ef5b 3e8648df 3f7709cc     ...>[.v?.H.>..w?
    e050:	3e8586ce 3f772417 3e84c4aa 3f773e3c     ...>.$w?...><>w?
    e060:	3e840270 3f77583a 3e834022 3f777213     p..>:Xw?"@.>.rw?
    e070:	3e827dc0 3f778bc5 3e81bb4a 3f77a551     .}.>..w?J..>Q.w?
    e080:	3e80f8c0 3f77beb7 3e803622 3f77d7f7     ...>..w?"6.>..w?
    e090:	3e7ee6e1 3f77f110 3e7d6156 3f780a04     ..~>..w?Va}>..x?
    e0a0:	3e7bdba4 3f7822d1 3e7a55cb 3f783b77     ..{>."x?.Uz>w;x?
    e0b0:	3e78cfcc 3f7853f8 3e7749a6 3f786c52     ..x>.Sx?.Iw>Rlx?
    e0c0:	3e75c35a 3f788486 3e743ce8 3f789c93     Z.u>..x?.<t>..x?
    e0d0:	3e72b651 3f78b47b 3e712f94 3f78cc3b     Q.r>{.x?./q>;.x?
    e0e0:	3e6fa8b2 3f78e3d6 3e6e21ab 3f78fb4a     ..o>..x?.!n>J.x?
    e0f0:	3e6c9a7f 3f791298 3e6b132f 3f7929bf     ..l>..y?/.k>.)y?
    e100:	3e698bba 3f7940c0 3e680422 3f79579a     ..i>.@y?".h>.Wy?
    e110:	3e667c66 3f796e4e 3e64f486 3f7984dc     f|f>Nny?..d>..y?
    e120:	3e636c83 3f799b43 3e61e45c 3f79b183     .lc>C.y?\.a>..y?
    e130:	3e605c13 3f79c79d 3e5ed3a8 3f79dd91     .\`>..y?..^>..y?
    e140:	3e5d4b1a 3f79f35e 3e5bc26a 3f7a0904     .K]>^.y?j.[>..z?
    e150:	3e5a3997 3f7a1e84 3e58b0a4 3f7a33dd     .9Z>..z?..X>.3z?
    e160:	3e57278f 3f7a4910 3e559e58 3f7a5e1c     .'W>.Iz?X.U>.^z?
    e170:	3e541501 3f7a7302 3e528b89 3f7a87c1     ..T>.sz?..R>..z?
    e180:	3e5101f1 3f7a9c59 3e4f7838 3f7ab0cb     ..Q>Y.z?8xO>..z?
    e190:	3e4dee60 3f7ac516 3e4c6467 3f7ad93a     `.M>..z?gdL>:.z?
    e1a0:	3e4ada4f 3f7aed37 3e495018 3f7b010e     O.J>7.z?.PI>..{?
    e1b0:	3e47c5c2 3f7b14be 3e463b4d 3f7b2848     ..G>..{?M;F>H({?
    e1c0:	3e44b0b9 3f7b3bab 3e432607 3f7b4ee7     ..D>.;{?.&C>.N{?
    e1d0:	3e419b37 3f7b61fc 3e401049 3f7b74ea     7.A>.a{?I.@>.t{?
    e1e0:	3e3e853e 3f7b87b2 3e3cfa15 3f7b9a53     >.>>..{?..<>S.{?
    e1f0:	3e3b6ecf 3f7baccd 3e39e36c 3f7bbf20     .n;>..{?l.9> .{?
    e200:	3e3857ec 3f7bd14d 3e36cc50 3f7be353     .W8>M.{?P.6>S.{?
    e210:	3e354098 3f7bf531 3e33b4c4 3f7c06e9     .@5>1.{?..3>..|?
    e220:	3e3228d4 3f7c187a 3e309cc9 3f7c29e5     .(2>z.|?..0>.)|?
    e230:	3e2f10a2 3f7c3b28 3e2d8461 3f7c4c44     ../>(;|?a.->DL|?
    e240:	3e2bf804 3f7c5d3a 3e2a6b8d 3f7c6e08     ..+>:]|?.k*>.n|?
    e250:	3e28defc 3f7c7eb0 3e275251 3f7c8f31     ..(>.~|?QR'>1.|?
    e260:	3e25c58c 3f7c9f8a 3e2438ad 3f7cafbd     ..%>..|?.8$>..|?
    e270:	3e22abb6 3f7cbfc9 3e211ea5 3f7ccfae     ..">..|?..!>..|?
    e280:	3e1f917b 3f7cdf6c 3e1e0438 3f7cef03     {..>l.|?8..>..|?
    e290:	3e1c76de 3f7cfe73 3e1ae96b 3f7d0dbc     .v.>s.|?k..>..}?
    e2a0:	3e195be0 3f7d1cdd 3e17ce3d 3f7d2bd8     .[.>..}?=..>.+}?
    e2b0:	3e164083 3f7d3aac 3e14b2b2 3f7d4959     .@.>.:}?...>YI}?
    e2c0:	3e1324ca 3f7d57de 3e1196cc 3f7d663d     .$.>.W}?...>=f}?
    e2d0:	3e1008b7 3f7d7474 3e0e7a8b 3f7d8285     ...>tt}?.z.>..}?
    e2e0:	3e0cec4a 3f7d906e 3e0b5df3 3f7d9e30     J..>n.}?.].>0.}?
    e2f0:	3e09cf86 3f7dabcc 3e084105 3f7db940     ...>..}?.A.>@.}?
    e300:	3e06b26e 3f7dc68c 3e0523c2 3f7dd3b2     n..>..}?.#.>..}?
    e310:	3e039502 3f7de0b1 3e02062e 3f7ded88     ...>..}?...>..}?
    e320:	3e007745 3f7dfa38 3dfdd092 3f7e06c2     Ew.>8.}?...=..~?
    e330:	3dfab273 3f7e1324 3df7942c 3f7e1f5e     s..=$.~?,..=^.~?
    e340:	3df475c0 3f7e2b72 3df1572e 3f7e375e     .u.=r+~?.W.=^7~?
    e350:	3dee3876 3f7e4323 3deb199a 3f7e4ec1     v8.=#C~?...=.N~?
    e360:	3de7fa9a 3f7e5a38 3de4db76 3f7e6588     ...=8Z~?v..=.e~?
    e370:	3de1bc2e 3f7e70b0 3dde9cc4 3f7e7bb1     ...=.p~?...=.{~?
    e380:	3ddb7d37 3f7e868b 3dd85d89 3f7e913d     7}.=..~?.].==.~?
    e390:	3dd53db9 3f7e9bc9 3dd21dc8 3f7ea62d     .=.=..~?...=-.~?
    e3a0:	3dcefdb7 3f7eb069 3dcbdd86 3f7eba7f     ...=i.~?...=..~?
    e3b0:	3dc8bd36 3f7ec46d 3dc59cc6 3f7ece34     6..=m.~?...=4.~?
    e3c0:	3dc27c39 3f7ed7d4 3dbf5b8d 3f7ee14c     9|.=..~?.[.=L.~?
    e3d0:	3dbc3ac3 3f7eea9d 3db919dd 3f7ef3c7     .:.=..~?...=..~?
    e3e0:	3db5f8da 3f7efcc9 3db2d7bb 3f7f05a4     ...=..~?...=...?
    e3f0:	3dafb680 3f7f0e58 3dac952b 3f7f16e4     ...=X..?+..=...?
    e400:	3da973ba 3f7f1f49 3da65230 3f7f2787     .s.=I..?0R.=.'.?
    e410:	3da3308c 3f7f2f9d 3da00ecf 3f7f378d     .0.=./.?...=.7.?
    e420:	3d9cecf9 3f7f3f54 3d99cb0a 3f7f46f4     ...=T?.?...=.F.?
    e430:	3d96a905 3f7f4e6d 3d9386e7 3f7f55bf     ...=mN.?...=.U.?
    e440:	3d9064b4 3f7f5ce9 3d8d426a 3f7f63ec     .d.=.\.?jB.=.c.?
    e450:	3d8a200a 3f7f6ac7 3d86fd94 3f7f717b     . .=.j.?...={q.?
    e460:	3d83db0a 3f7f7808 3d80b86c 3f7f7e6d     ...=.x.?l..=m~.?
    e470:	3d7b2b74 3f7f84ab 3d74e5e9 3f7f8ac2     t+{=...?..t=...?
    e480:	3d6ea038 3f7f90b1 3d685a62 3f7f9678     8.n=...?bZh=x..?
    e490:	3d621468 3f7f9c18 3d5bce4c 3f7fa191     h.b=...?L.[=...?
    e4a0:	3d55880e 3f7fa6e3 3d4f41af 3f7fac0d     ..U=...?.AO=...?
    e4b0:	3d48fb2f 3f7fb10f 3d42b491 3f7fb5ea     /.H=...?..B=...?
    e4c0:	3d3c6dd5 3f7fba9e 3d3626fc 3f7fbf2a     .m<=...?.&6=*..?
    e4d0:	3d2fe007 3f7fc38f 3d2998f6 3f7fc7cc     ../=...?..)=...?
    e4e0:	3d2351cc 3f7fcbe2 3d1d0a88 3f7fcfd1     .Q#=...?...=...?
    e4f0:	3d16c32c 3f7fd398 3d107bb8 3f7fd737     ,..=...?.{.=7..?
    e500:	3d0a342f 3f7fdaaf 3d03ec90 3f7fde00     /4.=...?...=...?
    e510:	3cfb49b9 3f7fe129 3ceeba2d 3f7fe42b     .I.<)..?-..<+..?
    e520:	3ce22a7b 3f7fe705 3cd59aa6 3f7fe9b8     {*.<...?...<...?
    e530:	3cc90ab0 3f7fec43 3cbc7a9b 3f7feea7     ...<C..?.z.<...?
    e540:	3cafea69 3f7ff0e3 3ca35a1c 3f7ff2f8     i..<...?.Z.<...?
    e550:	3c96c9b6 3f7ff4e6 3c8a3938 3f7ff6ac     ...<...?89.<...?
    e560:	3c7b514b 3f7ff84a 3c623000 3f7ff9c1     KQ{<J..?.0b<...?
    e570:	3c490e90 3f7ffb11 3c2fed02 3f7ffc39     ..I<...?../<9..?
    e580:	3c16cb59 3f7ffd39 3bfb5330 3f7ffe13     Y..<9..?0S.;...?
    e590:	3bc90f89 3f7ffec4 3b96cbc1 3f7fff4e     ...;...?...;N..?
    e5a0:	3b490fc7 3f7fffb1 3ac90fd4 3f7fffec     ..I;...?...:...?
    e5b0:	00000000 3f800000 bac90fd4 3f7fffec     .......?.......?
    e5c0:	bb490fc7 3f7fffb1 bb96cbc1 3f7fff4e     ..I....?....N..?
    e5d0:	bbc90f89 3f7ffec4 bbfb5330 3f7ffe13     .......?0S.....?
    e5e0:	bc16cb59 3f7ffd39 bc2fed02 3f7ffc39     Y...9..?../.9..?
    e5f0:	bc490e90 3f7ffb11 bc623000 3f7ff9c1     ..I....?.0b....?
    e600:	bc7b514b 3f7ff84a bc8a3938 3f7ff6ac     KQ{.J..?89.....?
    e610:	bc96c9b6 3f7ff4e6 bca35a1c 3f7ff2f8     .......?.Z.....?
    e620:	bcafea69 3f7ff0e3 bcbc7a9b 3f7feea7     i......?.z.....?
    e630:	bcc90ab0 3f7fec43 bcd59aa6 3f7fe9b8     ....C..?.......?
    e640:	bce22a7b 3f7fe705 bceeba2d 3f7fe42b     {*.....?-...+..?
    e650:	bcfb49b9 3f7fe129 bd03ec90 3f7fde00     .I..)..?.......?
    e660:	bd0a342f 3f7fdaaf bd107bb8 3f7fd737     /4.....?.{..7..?
    e670:	bd16c32c 3f7fd398 bd1d0a88 3f7fcfd1     ,......?.......?
    e680:	bd2351cc 3f7fcbe2 bd2998f6 3f7fc7cc     .Q#....?..)....?
    e690:	bd2fe007 3f7fc38f bd3626fc 3f7fbf2a     ../....?.&6.*..?
    e6a0:	bd3c6dd5 3f7fba9e bd42b491 3f7fb5ea     .m<....?..B....?
    e6b0:	bd48fb2f 3f7fb10f bd4f41af 3f7fac0d     /.H....?.AO....?
    e6c0:	bd55880e 3f7fa6e3 bd5bce4c 3f7fa191     ..U....?L.[....?
    e6d0:	bd621468 3f7f9c18 bd685a62 3f7f9678     h.b....?bZh.x..?
    e6e0:	bd6ea038 3f7f90b1 bd74e5e9 3f7f8ac2     8.n....?..t....?
    e6f0:	bd7b2b74 3f7f84ab bd80b86c 3f7f7e6d     t+{....?l...m~.?
    e700:	bd83db0a 3f7f7808 bd86fd94 3f7f717b     .....x.?....{q.?
    e710:	bd8a200a 3f7f6ac7 bd8d426a 3f7f63ec     . ...j.?jB...c.?
    e720:	bd9064b4 3f7f5ce9 bd9386e7 3f7f55bf     .d...\.?.....U.?
    e730:	bd96a905 3f7f4e6d bd99cb0a 3f7f46f4     ....mN.?.....F.?
    e740:	bd9cecf9 3f7f3f54 bda00ecf 3f7f378d     ....T?.?.....7.?
    e750:	bda3308c 3f7f2f9d bda65230 3f7f2787     .0.../.?0R...'.?
    e760:	bda973ba 3f7f1f49 bdac952b 3f7f16e4     .s..I..?+......?
    e770:	bdafb680 3f7f0e58 bdb2d7bb 3f7f05a4     ....X..?.......?
    e780:	bdb5f8da 3f7efcc9 bdb919dd 3f7ef3c7     ......~?......~?
    e790:	bdbc3ac3 3f7eea9d bdbf5b8d 3f7ee14c     .:....~?.[..L.~?
    e7a0:	bdc27c39 3f7ed7d4 bdc59cc6 3f7ece34     9|....~?....4.~?
    e7b0:	bdc8bd36 3f7ec46d bdcbdd86 3f7eba7f     6...m.~?......~?
    e7c0:	bdcefdb7 3f7eb069 bdd21dc8 3f7ea62d     ....i.~?....-.~?
    e7d0:	bdd53db9 3f7e9bc9 bdd85d89 3f7e913d     .=....~?.]..=.~?
    e7e0:	bddb7d37 3f7e868b bdde9cc4 3f7e7bb1     7}....~?.....{~?
    e7f0:	bde1bc2e 3f7e70b0 bde4db76 3f7e6588     .....p~?v....e~?
    e800:	bde7fa9a 3f7e5a38 bdeb199a 3f7e4ec1     ....8Z~?.....N~?
    e810:	bdee3876 3f7e4323 bdf1572e 3f7e375e     v8..#C~?.W..^7~?
    e820:	bdf475c0 3f7e2b72 bdf7942c 3f7e1f5e     .u..r+~?,...^.~?
    e830:	bdfab273 3f7e1324 bdfdd092 3f7e06c2     s...$.~?......~?
    e840:	be007745 3f7dfa38 be02062e 3f7ded88     Ew..8.}?......}?
    e850:	be039502 3f7de0b1 be0523c2 3f7dd3b2     ......}?.#....}?
    e860:	be06b26e 3f7dc68c be084105 3f7db940     n.....}?.A..@.}?
    e870:	be09cf86 3f7dabcc be0b5df3 3f7d9e30     ......}?.]..0.}?
    e880:	be0cec4a 3f7d906e be0e7a8b 3f7d8285     J...n.}?.z....}?
    e890:	be1008b7 3f7d7474 be1196cc 3f7d663d     ....tt}?....=f}?
    e8a0:	be1324ca 3f7d57de be14b2b2 3f7d4959     .$...W}?....YI}?
    e8b0:	be164083 3f7d3aac be17ce3d 3f7d2bd8     .@...:}?=....+}?
    e8c0:	be195be0 3f7d1cdd be1ae96b 3f7d0dbc     .[....}?k.....}?
    e8d0:	be1c76de 3f7cfe73 be1e0438 3f7cef03     .v..s.|?8.....|?
    e8e0:	be1f917b 3f7cdf6c be211ea5 3f7ccfae     {...l.|?..!...|?
    e8f0:	be22abb6 3f7cbfc9 be2438ad 3f7cafbd     .."...|?.8$...|?
    e900:	be25c58c 3f7c9f8a be275251 3f7c8f31     ..%...|?QR'.1.|?
    e910:	be28defc 3f7c7eb0 be2a6b8d 3f7c6e08     ..(..~|?.k*..n|?
    e920:	be2bf804 3f7c5d3a be2d8461 3f7c4c44     ..+.:]|?a.-.DL|?
    e930:	be2f10a2 3f7c3b28 be309cc9 3f7c29e5     ../.(;|?..0..)|?
    e940:	be3228d4 3f7c187a be33b4c4 3f7c06e9     .(2.z.|?..3...|?
    e950:	be354098 3f7bf531 be36cc50 3f7be353     .@5.1.{?P.6.S.{?
    e960:	be3857ec 3f7bd14d be39e36c 3f7bbf20     .W8.M.{?l.9. .{?
    e970:	be3b6ecf 3f7baccd be3cfa15 3f7b9a53     .n;...{?..<.S.{?
    e980:	be3e853e 3f7b87b2 be401049 3f7b74ea     >.>...{?I.@..t{?
    e990:	be419b37 3f7b61fc be432607 3f7b4ee7     7.A..a{?.&C..N{?
    e9a0:	be44b0b9 3f7b3bab be463b4d 3f7b2848     ..D..;{?M;F.H({?
    e9b0:	be47c5c2 3f7b14be be495018 3f7b010e     ..G...{?.PI...{?
    e9c0:	be4ada4f 3f7aed37 be4c6467 3f7ad93a     O.J.7.z?gdL.:.z?
    e9d0:	be4dee60 3f7ac516 be4f7838 3f7ab0cb     `.M...z?8xO...z?
    e9e0:	be5101f1 3f7a9c59 be528b89 3f7a87c1     ..Q.Y.z?..R...z?
    e9f0:	be541501 3f7a7302 be559e58 3f7a5e1c     ..T..sz?X.U..^z?
    ea00:	be57278f 3f7a4910 be58b0a4 3f7a33dd     .'W..Iz?..X..3z?
    ea10:	be5a3997 3f7a1e84 be5bc26a 3f7a0904     .9Z...z?j.[...z?
    ea20:	be5d4b1a 3f79f35e be5ed3a8 3f79dd91     .K].^.y?..^...y?
    ea30:	be605c13 3f79c79d be61e45c 3f79b183     .\`...y?\.a...y?
    ea40:	be636c83 3f799b43 be64f486 3f7984dc     .lc.C.y?..d...y?
    ea50:	be667c66 3f796e4e be680422 3f79579a     f|f.Nny?".h..Wy?
    ea60:	be698bba 3f7940c0 be6b132f 3f7929bf     ..i..@y?/.k..)y?
    ea70:	be6c9a7f 3f791298 be6e21ab 3f78fb4a     ..l...y?.!n.J.x?
    ea80:	be6fa8b2 3f78e3d6 be712f94 3f78cc3b     ..o...x?./q.;.x?
    ea90:	be72b651 3f78b47b be743ce8 3f789c93     Q.r.{.x?.<t...x?
    eaa0:	be75c35a 3f788486 be7749a6 3f786c52     Z.u...x?.Iw.Rlx?
    eab0:	be78cfcc 3f7853f8 be7a55cb 3f783b77     ..x..Sx?.Uz.w;x?
    eac0:	be7bdba4 3f7822d1 be7d6156 3f780a04     ..{.."x?Va}...x?
    ead0:	be7ee6e1 3f77f110 be803622 3f77d7f7     ..~...w?"6....w?
    eae0:	be80f8c0 3f77beb7 be81bb4a 3f77a551     ......w?J...Q.w?
    eaf0:	be827dc0 3f778bc5 be834022 3f777213     .}....w?"@...rw?
    eb00:	be840270 3f77583a be84c4aa 3f773e3c     p...:Xw?....<>w?
    eb10:	be8586ce 3f772417 be8648df 3f7709cc     .....$w?.H....w?
    eb20:	be870ada 3f76ef5b be87ccc1 3f76d4c4     ....[.v?......v?
    eb30:	be888e93 3f76ba07 be895050 3f769f24     ......v?PP..$.v?
    eb40:	be8a11f8 3f76841b be8ad38a 3f7668ec     ......v?.....hv?
    eb50:	be8b9507 3f764d97 be8c566e 3f76321b     .....Mv?nV...2v?
    eb60:	be8d17c0 3f76167a be8dd8fc 3f75fab3     ....z.v?......u?
    eb70:	be8e9a22 3f75dec6 be8f5b32 3f75c2b3     ".....u?2[....u?
    eb80:	be901c2c 3f75a67b be90dd10 3f758a1c     ,...{.u?......u?
    eb90:	be919ddd 3f756d97 be925e94 3f7550ed     .....mu?.^...Pu?
    eba0:	be931f35 3f75341d be93dfbf 3f751727     5....4u?....'.u?
    ebb0:	be94a031 3f74fa0b be95608d 3f74dcc9     1.....t?.`....t?
    ebc0:	be9620d2 3f74bf62 be96e100 3f74a1d5     . ..b.t?......t?
    ebd0:	be97a117 3f748422 be986116 3f746649     ....".t?.a..Ift?
    ebe0:	be9920fe 3f74484b be99e0ce 3f742a27     . ..KHt?....'*t?
    ebf0:	be9aa086 3f740bdd be9b6027 3f73ed6e     ......t?'`..n.s?
    ec00:	be9c1faf 3f73ced9 be9cdf20 3f73b01f     ......s? .....s?
    ec10:	be9d9e78 3f73913f be9e5db8 3f737239     x...?.s?.]..9rs?
    ec20:	be9f1cdf 3f73530e be9fdbee 3f7333be     .....Ss?.....3s?
    ec30:	bea09ae5 3f731447 bea159c2 3f72f4ac     ....G.s?.Y....r?
    ec40:	bea21887 3f72d4eb bea2d733 3f72b504     ......r?3.....r?
    ec50:	bea395c5 3f7294f8 bea4543f 3f7274c7     ......r??T...tr?
    ec60:	bea5129f 3f725470 bea5d0e5 3f7233f4     ....pTr?.....3r?
    ec70:	bea68f12 3f721352 bea74d25 3f71f28c     ....R.r?%M....q?
    ec80:	bea80b1f 3f71d19f bea8c8fe 3f71b08e     ......q?......q?
    ec90:	bea986c4 3f718f57 beaa446f 3f716dfb     ....W.q?oD...mq?
    eca0:	beab0201 3f714c7a beabbf77 3f712ad4     ....zLq?w....*q?
    ecb0:	beac7cd4 3f710908 bead3a15 3f70e717     .|....q?.:....p?
    ecc0:	beadf73c 3f70c502 beaeb449 3f70a2c6     <.....p?I.....p?
    ecd0:	beaf713a 3f708066 beb02e10 3f705de1     :q..f.p?.....]p?
    ece0:	beb0eacb 3f703b37 beb1a76b 3f701867     ....7;p?k...g.p?
    ecf0:	beb263ef 3f6ff573 beb32058 3f6fd25a     .c..s.o?X ..Z.o?
    ed00:	beb3dca5 3f6faf1b beb498d6 3f6f8bb8     ......o?......o?
    ed10:	beb554ec 3f6f6830 beb610e6 3f6f4483     .T..0ho?.....Do?
    ed20:	beb6ccc3 3f6f20b0 beb78884 3f6efcba     ..... o?......n?
    ed30:	beb8442a 3f6ed89e beb8ffb2 3f6eb45d     *D....n?....].n?
    ed40:	beb9bb1e 3f6e8ff8 beba766e 3f6e6b6d     ......n?nv..mkn?
    ed50:	bebb31a0 3f6e46be bebbecb6 3f6e21eb     .1...Fn?.....!n?
    ed60:	bebca7af 3f6dfcf2 bebd628b 3f6dd7d5     ......m?.b....m?
    ed70:	bebe1d4a 3f6db293 bebed7eb 3f6d8d2d     J.....m?....-.m?
    ed80:	bebf926f 3f6d67a1 bec04cd5 3f6d41f2     o....gm?.L...Am?
    ed90:	bec1071e 3f6d1c1d bec1c148 3f6cf624     ......m?H...$.l?
    eda0:	bec27b55 3f6cd007 bec33544 3f6ca9c5     U{....l?D5....l?
    edb0:	bec3ef15 3f6c835e bec4a8c8 3f6c5cd4     ....^.l?.....\l?
    edc0:	bec5625c 3f6c3624 bec61bd2 3f6c0f50     \b..$6l?....P.l?
    edd0:	bec6d529 3f6be858 bec78e62 3f6bc13b     )...X.k?b...;.k?
    ede0:	bec8477c 3f6b99fb bec90077 3f6b7295     |G....k?w....rk?
    edf0:	bec9b953 3f6b4b0c beca7210 3f6b235e     S....Kk?.r..^#k?
    ee00:	becb2aae 3f6afb8c becbe32c 3f6ad395     .*....j?,.....j?
    ee10:	becc9b8b 3f6aab7b becd53ca 3f6a833c     ....{.j?.S..<.j?
    ee20:	bece0bea 3f6a5ad9 becec3ea 3f6a3252     .....Zj?....R2j?
    ee30:	becf7bca 3f6a09a7 bed0338a 3f69e0d7     .{....j?.3....i?
    ee40:	bed0eb2a 3f69b7e4 bed1a2aa 3f698ecc     *.....i?......i?
    ee50:	bed25a09 3f696591 bed31148 3f693c32     .Z...ei?H...2<i?
    ee60:	bed3c867 3f6912ae bed47f64 3f68e907     g.....i?d.....h?
    ee70:	bed53641 3f68bf3c bed5ecfd 3f68954c     A6..<.h?....L.h?
    ee80:	bed6a399 3f686b39 bed75a13 3f684103     ....9kh?.Z...Ah?
    ee90:	bed8106b 3f6816a8 bed8c6a3 3f67ec2a     k.....h?....*.g?
    eea0:	bed97cb9 3f67c187 beda32ad 3f6796c1     .|....g?.2....g?
    eeb0:	bedae880 3f676bd8 bedb9e31 3f6740ca     .....kg?1....@g?
    eec0:	bedc53c1 3f671599 bedd092e 3f66ea45     .S....g?....E.f?
    eed0:	beddbe79 3f66becc bede73a2 3f669330     y.....f?.s..0.f?
    eee0:	bedf28a9 3f666771 bedfdd8d 3f663b8e     .(..qgf?.....;f?
    eef0:	bee0924f 3f660f88 bee146ee 3f65e35e     O.....f?.F..^.e?
    ef00:	bee1fb6a 3f65b710 bee2afc4 3f658aa0     j.....e?......e?
    ef10:	bee363fa 3f655e0b bee4180e 3f653154     .c...^e?....T1e?
    ef20:	bee4cbfe 3f650479 bee57fcb 3f64d77b     ....y.e?....{.d?
    ef30:	bee63375 3f64aa59 bee6e6fb 3f647d14     u3..Y.d?.....}d?
    ef40:	bee79a5d 3f644fac bee84d9c 3f642221     ]....Od?.M..!"d?
    ef50:	bee900b7 3f63f473 bee9b3ae 3f63c6a1     ....s.c?......c?
    ef60:	beea6681 3f6398ac beeb1930 3f636a95     .f....c?0....jc?
    ef70:	beebcbbb 3f633c5a beec7e21 3f630dfc     ....Z<c?!~....c?
    ef80:	beed3063 3f62df7b beede280 3f62b0d7     c0..{.b?......b?
    ef90:	beee9479 3f628210 beef464c 3f625326     y.....b?LF..&Sb?
    efa0:	beeff7fb 3f62241a bef0a985 3f61f4ea     .....$b?......a?
    efb0:	bef15aea 3f61c598 bef20c29 3f619622     .Z....a?)...".a?
    efc0:	bef2bd43 3f61668a bef36e38 3f6136d0     C....fa?8n...6a?
    efd0:	bef41f07 3f6106f2 bef4cfb1 3f60d6f2     ......a?......`?
    efe0:	bef58035 3f60a6cf bef63093 3f607689     5.....`?.0...v`?
    eff0:	bef6e0cb 3f604621 bef790dc 3f601596     ....!F`?......`?
    f000:	bef840c8 3f5fe4e9 bef8f08e 3f5fb419     .@...._?......_?
    f010:	bef9a02d 3f5f8327 befa4fa5 3f5f5212     -...'._?.O...R_?
    f020:	befafef7 3f5f20db befbae22 3f5eef81     ..... _?".....^?
    f030:	befc5d27 3f5ebe05 befd0c04 3f5e8c67     ']....^?....g.^?
    f040:	befdbabb 3f5e5aa6 befe694a 3f5e28c3     .....Z^?Ji...(^?
    f050:	beff17b2 3f5df6be beffc5f3 3f5dc497     ......]?......]?
    f060:	bf003a06 3f5d924d bf0090ff 3f5d5fe1     .:..M.]?....._]?
    f070:	bf00e7e4 3f5d2d53 bf013eb5 3f5cfaa3     ....S-]?.>....\?
    f080:	bf019573 3f5cc7d1 bf01ec1c 3f5c94dd     s.....\?......\?
    f090:	bf0242b1 3f5c61c7 bf029932 3f5c2e8e     .B...a\?2.....\?
    f0a0:	bf02ef9f 3f5bfb34 bf0345f8 3f5bc7b8     ....4.[?.E....[?
    f0b0:	bf039c3d 3f5b941a bf03f26d 3f5b605a     =.....[?m...Z`[?
    f0c0:	bf044889 3f5b2c79 bf049e91 3f5af875     .H..y,[?....u.Z?
    f0d0:	bf04f484 3f5ac450 bf054a62 3f5a9009     ....P.Z?bJ....Z?
    f0e0:	bf05a02c 3f5a5ba0 bf05f5e2 3f5a2716     ,....[Z?.....'Z?
    f0f0:	bf064b82 3f59f26a bf06a10e 3f59bd9c     .K..j.Y?......Y?
    f100:	bf06f686 3f5988ad bf074be8 3f59539c     ......Y?.K...SY?
    f110:	bf07a136 3f591e6a bf07f66f 3f58e917     6...j.Y?o.....X?
    f120:	bf084b92 3f58b3a1 bf08a0a1 3f587e0b     .K....X?.....~X?
    f130:	bf08f59b 3f584853 bf094a7f 3f581279     ....SHX?.J..y.X?
    f140:	bf099f4e 3f57dc7f bf09f409 3f57a663     N.....W?....c.W?
    f150:	bf0a48ad 3f577026 bf0a9d3d 3f5739c7     .H..&pW?=....9W?
    f160:	bf0af1b7 3f570348 bf0b461c 3f56cca7     ....H.W?.F....V?
    f170:	bf0b9a6b 3f5695e5 bf0beea5 3f565f02     k.....V?....._V?
    f180:	bf0c42c9 3f5627fe bf0c96d7 3f55f0d9     .B...'V?......U?
    f190:	bf0cead0 3f55b993 bf0d3eb3 3f55822c     ......U?.>..,.U?
    f1a0:	bf0d9281 3f554aa4 bf0de638 3f5512fb     .....JU?8.....U?
    f1b0:	bf0e39da 3f54db31 bf0e8d65 3f54a347     .9..1.T?e...G.T?
    f1c0:	bf0ee0db 3f546b3b bf0f343b 3f54330f     ....;kT?;4...3T?
    f1d0:	bf0f8784 3f53fac3 bf0fdab8 3f53c255     ......S?....U.S?
    f1e0:	bf102dd5 3f5389c7 bf1080dc 3f535118     .-....S?.....QS?
    f1f0:	bf10d3cd 3f531849 bf1126a7 3f52df59     ....I.S?.&..Y.R?
    f200:	bf11796b 3f52a649 bf11cc19 3f526d18     ky..I.R?.....mR?
    f210:	bf121eb0 3f5233c6 bf127130 3f51fa54     .....3R?0q..T.Q?
    f220:	bf12c39a 3f51c0c2 bf1315ee 3f518710     ......Q?......Q?
    f230:	bf13682a 3f514d3d bf13ba50 3f51134a     *h..=MQ?P...J.Q?
    f240:	bf140c5f 3f50d937 bf145e58 3f509f03     _...7.P?X^....P?
    f250:	bf14b039 3f5064af bf150204 3f502a3b     9....dP?....;*P?
    f260:	bf1553b7 3f4fefa8 bf15a554 3f4fb4f4     .S....O?T.....O?
    f270:	bf15f6d9 3f4f7a1f bf164847 3f4f3f2b     .....zO?GH..+?O?
    f280:	bf16999f 3f4f0417 bf16eadf 3f4ec8e4     ......O?......N?
    f290:	bf173c07 3f4e8d90 bf178d18 3f4e521c     .<....N?.....RN?
    f2a0:	bf17de12 3f4e1689 bf182ef5 3f4ddad5     ......N?......M?
    f2b0:	bf187fc0 3f4d9f02 bf18d073 3f4d6310     ......M?s....cM?
    f2c0:	bf19210f 3f4d26fd bf197194 3f4ceacb     .!...&M?.q....L?
    f2d0:	bf19c200 3f4cae79 bf1a1255 3f4c7208     ....y.L?U....rL?
    f2e0:	bf1a6293 3f4c3578 bf1ab2b8 3f4bf8c7     .b..x5L?......K?
    f2f0:	bf1b02c6 3f4bbbf8 bf1b52bb 3f4b7f09     ......K?.R....K?
    f300:	bf1ba299 3f4b41fa bf1bf25f 3f4b04cc     .....AK?_.....K?
    f310:	bf1c420c 3f4ac77f bf1c91a2 3f4a8a13     .B....J?......J?
    f320:	bf1ce11f 3f4a4c87 bf1d3084 3f4a0edc     .....LJ?.0....J?
    f330:	bf1d7fd1 3f49d112 bf1dcf06 3f499329     ......I?....).I?
    f340:	bf1e1e22 3f495521 bf1e6d26 3f4916fa     "...!UI?&m....I?
    f350:	bf1ebc12 3f48d8b3 bf1f0ae5 3f489a4e     ......H?....N.H?
    f360:	bf1f599f 3f485bca bf1fa841 3f481d27     .Y...[H?A...'.H?
    f370:	bf1ff6cb 3f47de65 bf20453b 3f479f84     ....e.G?;E ...G?
    f380:	bf209393 3f476085 bf20e1d2 3f472167     .. ..`G?.. .g!G?
    f390:	bf212ff9 3f46e22a bf217e06 3f46a2ce     ./!.*.F?.~!...F?
    f3a0:	bf21cbfb 3f466354 bf2219d7 3f4623bb     ..!.TcF?.."..#F?
    f3b0:	bf226799 3f45e403 bf22b543 3f45a42d     .g"...E?C.".-.E?
    f3c0:	bf2302d3 3f456439 bf23504b 3f452426     ..#.9dE?KP#.&$E?
    f3d0:	bf239da9 3f44e3f5 bf23eaee 3f44a3a5     ..#...D?..#...D?
    f3e0:	bf24381a 3f446337 bf24852c 3f4422ab     .8$.7cD?,.$.."D?
    f3f0:	bf24d225 3f43e200 bf251f04 3f43a138     %.$...C?..%.8.C?
    f400:	bf256bcb 3f436051 bf25b877 3f431f4c     .k%.Q`C?w.%.L.C?
    f410:	bf26050a 3f42de29 bf265184 3f429ce8     ..&.).B?.Q&...B?
    f420:	bf269de3 3f425b89 bf26ea2a 3f421a0b     ..&..[B?*.&...B?
    f430:	bf273656 3f41d870 bf278268 3f4196b7     V6'.p.A?h.'...A?
    f440:	bf27ce61 3f4154e1 bf281a40 3f4112ec     a.'..TA?@.(...A?
    f450:	bf286605 3f40d0da bf28b1b0 3f408ea9     .f(...@?..(...@?
    f460:	bf28fd41 3f404c5c bf2948b8 3f4009f0     A.(.\L@?.H)...@?
    f470:	bf299415 3f3fc767 bf29df57 3f3f84c0     ..).g.??W.)...??
    f480:	bf2a2a80 3f3f41fc bf2a758e 3f3eff1b     .**..A??.u*...>?
    f490:	bf2ac082 3f3ebc1b bf2b0b5b 3f3e78ff     ..*...>?[.+..x>?
    f4a0:	bf2b561b 3f3e35c5 bf2ba0bf 3f3df26e     .V+..5>?..+.n.=?
    f4b0:	bf2beb4a 3f3daef9 bf2c35b9 3f3d6b67     J.+...=?.5,.gk=?
    f4c0:	bf2c800f 3f3d27b8 bf2cca49 3f3ce3ec     ..,..'=?I.,...<?
    f4d0:	bf2d1469 3f3ca003 bf2d5e6f 3f3c5bfc     i.-...<?o^-..[<?
    f4e0:	bf2da859 3f3c17d9 bf2df229 3f3bd398     Y.-...<?).-...;?
    f4f0:	bf2e3bde 3f3b8f3b bf2e8578 3f3b4ac1     .;..;.;?x....J;?
    f500:	bf2ecef7 3f3b0629 bf2f185b 3f3ac175     ....).;?[./.u.:?
    f510:	bf2f61a5 3f3a7ca4 bf2faad3 3f3a37b7     .a/..|:?../..7:?
    f520:	bf2ff3e6 3f39f2ac bf303cde 3f39ad85     ../...9?.<0...9?
    f530:	bf3085bb 3f396842 bf30ce7c 3f3922e1     ..0.Bh9?|.0.."9?
    f540:	bf311722 3f38dd65 bf315fad 3f3897cb     ".1.e.8?._1...8?
    f550:	bf31a81d 3f385216 bf31f071 3f380c43     ..1..R8?q.1.C.8?
    f560:	bf3238aa 3f37c655 bf3280c7 3f37804a     .82.U.7?..2.J.7?
    f570:	bf32c8c9 3f373a23 bf3310af 3f36f3df     ..2.#:7?..3...6?
    f580:	bf33587a 3f36ad7f bf33a029 3f366704     zX3...6?).3..g6?
    f590:	bf33e7bc 3f36206c bf342f34 3f35d9b8     ..3.l 6?4/4...5?
    f5a0:	bf34768f 3f3592e7 bf34bdcf 3f354bfb     .v4...5?..4..K5?
    f5b0:	bf3504f3 3f3504f3 bf354bfb 3f34bdcf     ..5...5?.K5...4?
    f5c0:	bf3592e7 3f34768f bf35d9b8 3f342f34     ..5..v4?..5.4/4?
    f5d0:	bf36206c 3f33e7bc bf366704 3f33a029     l 6...3?.g6.).3?
    f5e0:	bf36ad7f 3f33587a bf36f3df 3f3310af     ..6.zX3?..6...3?
    f5f0:	bf373a23 3f32c8c9 bf37804a 3f3280c7     #:7...2?J.7...2?
    f600:	bf37c655 3f3238aa bf380c43 3f31f071     U.7..82?C.8.q.1?
    f610:	bf385216 3f31a81d bf3897cb 3f315fad     .R8...1?..8.._1?
    f620:	bf38dd65 3f311722 bf3922e1 3f30ce7c     e.8.".1?."9.|.0?
    f630:	bf396842 3f3085bb bf39ad85 3f303cde     Bh9...0?..9..<0?
    f640:	bf39f2ac 3f2ff3e6 bf3a37b7 3f2faad3     ..9.../?.7:.../?
    f650:	bf3a7ca4 3f2f61a5 bf3ac175 3f2f185b     .|:..a/?u.:.[./?
    f660:	bf3b0629 3f2ecef7 bf3b4ac1 3f2e8578     ).;....?.J;.x..?
    f670:	bf3b8f3b 3f2e3bde bf3bd398 3f2df229     ;.;..;.?..;.).-?
    f680:	bf3c17d9 3f2da859 bf3c5bfc 3f2d5e6f     ..<.Y.-?.[<.o^-?
    f690:	bf3ca003 3f2d1469 bf3ce3ec 3f2cca49     ..<.i.-?..<.I.,?
    f6a0:	bf3d27b8 3f2c800f bf3d6b67 3f2c35b9     .'=...,?gk=..5,?
    f6b0:	bf3daef9 3f2beb4a bf3df26e 3f2ba0bf     ..=.J.+?n.=...+?
    f6c0:	bf3e35c5 3f2b561b bf3e78ff 3f2b0b5b     .5>..V+?.x>.[.+?
    f6d0:	bf3ebc1b 3f2ac082 bf3eff1b 3f2a758e     ..>...*?..>..u*?
    f6e0:	bf3f41fc 3f2a2a80 bf3f84c0 3f29df57     .A?..**?..?.W.)?
    f6f0:	bf3fc767 3f299415 bf4009f0 3f2948b8     g.?...)?..@..H)?
    f700:	bf404c5c 3f28fd41 bf408ea9 3f28b1b0     \L@.A.(?..@...(?
    f710:	bf40d0da 3f286605 bf4112ec 3f281a40     ..@..f(?..A.@.(?
    f720:	bf4154e1 3f27ce61 bf4196b7 3f278268     .TA.a.'?..A.h.'?
    f730:	bf41d870 3f273656 bf421a0b 3f26ea2a     p.A.V6'?..B.*.&?
    f740:	bf425b89 3f269de3 bf429ce8 3f265184     .[B...&?..B..Q&?
    f750:	bf42de29 3f26050a bf431f4c 3f25b877     ).B...&?L.C.w.%?
    f760:	bf436051 3f256bcb bf43a138 3f251f04     Q`C..k%?8.C...%?
    f770:	bf43e200 3f24d225 bf4422ab 3f24852c     ..C.%.$?."D.,.$?
    f780:	bf446337 3f24381a bf44a3a5 3f23eaee     7cD..8$?..D...#?
    f790:	bf44e3f5 3f239da9 bf452426 3f23504b     ..D...#?&$E.KP#?
    f7a0:	bf456439 3f2302d3 bf45a42d 3f22b543     9dE...#?-.E.C."?
    f7b0:	bf45e403 3f226799 bf4623bb 3f2219d7     ..E..g"?.#F..."?
    f7c0:	bf466354 3f21cbfb bf46a2ce 3f217e06     TcF...!?..F..~!?
    f7d0:	bf46e22a 3f212ff9 bf472167 3f20e1d2     *.F../!?g!G... ?
    f7e0:	bf476085 3f209393 bf479f84 3f20453b     .`G... ?..G.;E ?
    f7f0:	bf47de65 3f1ff6cb bf481d27 3f1fa841     e.G....?'.H.A..?
    f800:	bf485bca 3f1f599f bf489a4e 3f1f0ae5     .[H..Y.?N.H....?
    f810:	bf48d8b3 3f1ebc12 bf4916fa 3f1e6d26     ..H....?..I.&m.?
    f820:	bf495521 3f1e1e22 bf499329 3f1dcf06     !UI."..?).I....?
    f830:	bf49d112 3f1d7fd1 bf4a0edc 3f1d3084     ..I....?..J..0.?
    f840:	bf4a4c87 3f1ce11f bf4a8a13 3f1c91a2     .LJ....?..J....?
    f850:	bf4ac77f 3f1c420c bf4b04cc 3f1bf25f     ..J..B.?..K._..?
    f860:	bf4b41fa 3f1ba299 bf4b7f09 3f1b52bb     .AK....?..K..R.?
    f870:	bf4bbbf8 3f1b02c6 bf4bf8c7 3f1ab2b8     ..K....?..K....?
    f880:	bf4c3578 3f1a6293 bf4c7208 3f1a1255     x5L..b.?.rL.U..?
    f890:	bf4cae79 3f19c200 bf4ceacb 3f197194     y.L....?..L..q.?
    f8a0:	bf4d26fd 3f19210f bf4d6310 3f18d073     .&M..!.?.cM.s..?
    f8b0:	bf4d9f02 3f187fc0 bf4ddad5 3f182ef5     ..M....?..M....?
    f8c0:	bf4e1689 3f17de12 bf4e521c 3f178d18     ..N....?.RN....?
    f8d0:	bf4e8d90 3f173c07 bf4ec8e4 3f16eadf     ..N..<.?..N....?
    f8e0:	bf4f0417 3f16999f bf4f3f2b 3f164847     ..O....?+?O.GH.?
    f8f0:	bf4f7a1f 3f15f6d9 bf4fb4f4 3f15a554     .zO....?..O.T..?
    f900:	bf4fefa8 3f1553b7 bf502a3b 3f150204     ..O..S.?;*P....?
    f910:	bf5064af 3f14b039 bf509f03 3f145e58     .dP.9..?..P.X^.?
    f920:	bf50d937 3f140c5f bf51134a 3f13ba50     7.P._..?J.Q.P..?
    f930:	bf514d3d 3f13682a bf518710 3f1315ee     =MQ.*h.?..Q....?
    f940:	bf51c0c2 3f12c39a bf51fa54 3f127130     ..Q....?T.Q.0q.?
    f950:	bf5233c6 3f121eb0 bf526d18 3f11cc19     .3R....?.mR....?
    f960:	bf52a649 3f11796b bf52df59 3f1126a7     I.R.ky.?Y.R..&.?
    f970:	bf531849 3f10d3cd bf535118 3f1080dc     I.S....?.QS....?
    f980:	bf5389c7 3f102dd5 bf53c255 3f0fdab8     ..S..-.?U.S....?
    f990:	bf53fac3 3f0f8784 bf54330f 3f0f343b     ..S....?.3T.;4.?
    f9a0:	bf546b3b 3f0ee0db bf54a347 3f0e8d65     ;kT....?G.T.e..?
    f9b0:	bf54db31 3f0e39da bf5512fb 3f0de638     1.T..9.?..U.8..?
    f9c0:	bf554aa4 3f0d9281 bf55822c 3f0d3eb3     .JU....?,.U..>.?
    f9d0:	bf55b993 3f0cead0 bf55f0d9 3f0c96d7     ..U....?..U....?
    f9e0:	bf5627fe 3f0c42c9 bf565f02 3f0beea5     .'V..B.?._V....?
    f9f0:	bf5695e5 3f0b9a6b bf56cca7 3f0b461c     ..V.k..?..V..F.?
    fa00:	bf570348 3f0af1b7 bf5739c7 3f0a9d3d     H.W....?.9W.=..?
    fa10:	bf577026 3f0a48ad bf57a663 3f09f409     &pW..H.?c.W....?
    fa20:	bf57dc7f 3f099f4e bf581279 3f094a7f     ..W.N..?y.X..J.?
    fa30:	bf584853 3f08f59b bf587e0b 3f08a0a1     SHX....?.~X....?
    fa40:	bf58b3a1 3f084b92 bf58e917 3f07f66f     ..X..K.?..X.o..?
    fa50:	bf591e6a 3f07a136 bf59539c 3f074be8     j.Y.6..?.SY..K.?
    fa60:	bf5988ad 3f06f686 bf59bd9c 3f06a10e     ..Y....?..Y....?
    fa70:	bf59f26a 3f064b82 bf5a2716 3f05f5e2     j.Y..K.?.'Z....?
    fa80:	bf5a5ba0 3f05a02c bf5a9009 3f054a62     .[Z.,..?..Z.bJ.?
    fa90:	bf5ac450 3f04f484 bf5af875 3f049e91     P.Z....?u.Z....?
    faa0:	bf5b2c79 3f044889 bf5b605a 3f03f26d     y,[..H.?Z`[.m..?
    fab0:	bf5b941a 3f039c3d bf5bc7b8 3f0345f8     ..[.=..?..[..E.?
    fac0:	bf5bfb34 3f02ef9f bf5c2e8e 3f029932     4.[....?..\.2..?
    fad0:	bf5c61c7 3f0242b1 bf5c94dd 3f01ec1c     .a\..B.?..\....?
    fae0:	bf5cc7d1 3f019573 bf5cfaa3 3f013eb5     ..\.s..?..\..>.?
    faf0:	bf5d2d53 3f00e7e4 bf5d5fe1 3f0090ff     S-]....?._]....?
    fb00:	bf5d924d 3f003a06 bf5dc497 3effc5f3     M.]..:.?..]....>
    fb10:	bf5df6be 3eff17b2 bf5e28c3 3efe694a     ..]....>.(^.Ji.>
    fb20:	bf5e5aa6 3efdbabb bf5e8c67 3efd0c04     .Z^....>g.^....>
    fb30:	bf5ebe05 3efc5d27 bf5eef81 3efbae22     ..^.'].>..^."..>
    fb40:	bf5f20db 3efafef7 bf5f5212 3efa4fa5     . _....>.R_..O.>
    fb50:	bf5f8327 3ef9a02d bf5fb419 3ef8f08e     '._.-..>.._....>
    fb60:	bf5fe4e9 3ef840c8 bf601596 3ef790dc     .._..@.>..`....>
    fb70:	bf604621 3ef6e0cb bf607689 3ef63093     !F`....>.v`..0.>
    fb80:	bf60a6cf 3ef58035 bf60d6f2 3ef4cfb1     ..`.5..>..`....>
    fb90:	bf6106f2 3ef41f07 bf6136d0 3ef36e38     ..a....>.6a.8n.>
    fba0:	bf61668a 3ef2bd43 bf619622 3ef20c29     .fa.C..>".a.)..>
    fbb0:	bf61c598 3ef15aea bf61f4ea 3ef0a985     ..a..Z.>..a....>
    fbc0:	bf62241a 3eeff7fb bf625326 3eef464c     .$b....>&Sb.LF.>
    fbd0:	bf628210 3eee9479 bf62b0d7 3eede280     ..b.y..>..b....>
    fbe0:	bf62df7b 3eed3063 bf630dfc 3eec7e21     {.b.c0.>..c.!~.>
    fbf0:	bf633c5a 3eebcbbb bf636a95 3eeb1930     Z<c....>.jc.0..>
    fc00:	bf6398ac 3eea6681 bf63c6a1 3ee9b3ae     ..c..f.>..c....>
    fc10:	bf63f473 3ee900b7 bf642221 3ee84d9c     s.c....>!"d..M.>
    fc20:	bf644fac 3ee79a5d bf647d14 3ee6e6fb     .Od.]..>.}d....>
    fc30:	bf64aa59 3ee63375 bf64d77b 3ee57fcb     Y.d.u3.>{.d....>
    fc40:	bf650479 3ee4cbfe bf653154 3ee4180e     y.e....>T1e....>
    fc50:	bf655e0b 3ee363fa bf658aa0 3ee2afc4     .^e..c.>..e....>
    fc60:	bf65b710 3ee1fb6a bf65e35e 3ee146ee     ..e.j..>^.e..F.>
    fc70:	bf660f88 3ee0924f bf663b8e 3edfdd8d     ..f.O..>.;f....>
    fc80:	bf666771 3edf28a9 bf669330 3ede73a2     qgf..(.>0.f..s.>
    fc90:	bf66becc 3eddbe79 bf66ea45 3edd092e     ..f.y..>E.f....>
    fca0:	bf671599 3edc53c1 bf6740ca 3edb9e31     ..g..S.>.@g.1..>
    fcb0:	bf676bd8 3edae880 bf6796c1 3eda32ad     .kg....>..g..2.>
    fcc0:	bf67c187 3ed97cb9 bf67ec2a 3ed8c6a3     ..g..|.>*.g....>
    fcd0:	bf6816a8 3ed8106b bf684103 3ed75a13     ..h.k..>.Ah..Z.>
    fce0:	bf686b39 3ed6a399 bf68954c 3ed5ecfd     9kh....>L.h....>
    fcf0:	bf68bf3c 3ed53641 bf68e907 3ed47f64     <.h.A6.>..h.d..>
    fd00:	bf6912ae 3ed3c867 bf693c32 3ed31148     ..i.g..>2<i.H..>
    fd10:	bf696591 3ed25a09 bf698ecc 3ed1a2aa     .ei..Z.>..i....>
    fd20:	bf69b7e4 3ed0eb2a bf69e0d7 3ed0338a     ..i.*..>..i..3.>
    fd30:	bf6a09a7 3ecf7bca bf6a3252 3ecec3ea     ..j..{.>R2j....>
    fd40:	bf6a5ad9 3ece0bea bf6a833c 3ecd53ca     .Zj....><.j..S.>
    fd50:	bf6aab7b 3ecc9b8b bf6ad395 3ecbe32c     {.j....>..j.,..>
    fd60:	bf6afb8c 3ecb2aae bf6b235e 3eca7210     ..j..*.>^#k..r.>
    fd70:	bf6b4b0c 3ec9b953 bf6b7295 3ec90077     .Kk.S..>.rk.w..>
    fd80:	bf6b99fb 3ec8477c bf6bc13b 3ec78e62     ..k.|G.>;.k.b..>
    fd90:	bf6be858 3ec6d529 bf6c0f50 3ec61bd2     X.k.)..>P.l....>
    fda0:	bf6c3624 3ec5625c bf6c5cd4 3ec4a8c8     $6l.\b.>.\l....>
    fdb0:	bf6c835e 3ec3ef15 bf6ca9c5 3ec33544     ^.l....>..l.D5.>
    fdc0:	bf6cd007 3ec27b55 bf6cf624 3ec1c148     ..l.U{.>$.l.H..>
    fdd0:	bf6d1c1d 3ec1071e bf6d41f2 3ec04cd5     ..m....>.Am..L.>
    fde0:	bf6d67a1 3ebf926f bf6d8d2d 3ebed7eb     .gm.o..>-.m....>
    fdf0:	bf6db293 3ebe1d4a bf6dd7d5 3ebd628b     ..m.J..>..m..b.>
    fe00:	bf6dfcf2 3ebca7af bf6e21eb 3ebbecb6     ..m....>.!n....>
    fe10:	bf6e46be 3ebb31a0 bf6e6b6d 3eba766e     .Fn..1.>mkn.nv.>
    fe20:	bf6e8ff8 3eb9bb1e bf6eb45d 3eb8ffb2     ..n....>].n....>
    fe30:	bf6ed89e 3eb8442a bf6efcba 3eb78884     ..n.*D.>..n....>
    fe40:	bf6f20b0 3eb6ccc3 bf6f4483 3eb610e6     . o....>.Do....>
    fe50:	bf6f6830 3eb554ec bf6f8bb8 3eb498d6     0ho..T.>..o....>
    fe60:	bf6faf1b 3eb3dca5 bf6fd25a 3eb32058     ..o....>Z.o.X .>
    fe70:	bf6ff573 3eb263ef bf701867 3eb1a76b     s.o..c.>g.p.k..>
    fe80:	bf703b37 3eb0eacb bf705de1 3eb02e10     7;p....>.]p....>
    fe90:	bf708066 3eaf713a bf70a2c6 3eaeb449     f.p.:q.>..p.I..>
    fea0:	bf70c502 3eadf73c bf70e717 3ead3a15     ..p.<..>..p..:.>
    feb0:	bf710908 3eac7cd4 bf712ad4 3eabbf77     ..q..|.>.*q.w..>
    fec0:	bf714c7a 3eab0201 bf716dfb 3eaa446f     zLq....>.mq.oD.>
    fed0:	bf718f57 3ea986c4 bf71b08e 3ea8c8fe     W.q....>..q....>
    fee0:	bf71d19f 3ea80b1f bf71f28c 3ea74d25     ..q....>..q.%M.>
    fef0:	bf721352 3ea68f12 bf7233f4 3ea5d0e5     R.r....>.3r....>
    ff00:	bf725470 3ea5129f bf7274c7 3ea4543f     pTr....>.tr.?T.>
    ff10:	bf7294f8 3ea395c5 bf72b504 3ea2d733     ..r....>..r.3..>
    ff20:	bf72d4eb 3ea21887 bf72f4ac 3ea159c2     ..r....>..r..Y.>
    ff30:	bf731447 3ea09ae5 bf7333be 3e9fdbee     G.s....>.3s....>
    ff40:	bf73530e 3e9f1cdf bf737239 3e9e5db8     .Ss....>9rs..].>
    ff50:	bf73913f 3e9d9e78 bf73b01f 3e9cdf20     ?.s.x..>..s. ..>
    ff60:	bf73ced9 3e9c1faf bf73ed6e 3e9b6027     ..s....>n.s.'`.>
    ff70:	bf740bdd 3e9aa086 bf742a27 3e99e0ce     ..t....>'*t....>
    ff80:	bf74484b 3e9920fe bf746649 3e986116     KHt.. .>Ift..a.>
    ff90:	bf748422 3e97a117 bf74a1d5 3e96e100     ".t....>..t....>
    ffa0:	bf74bf62 3e9620d2 bf74dcc9 3e95608d     b.t.. .>..t..`.>
    ffb0:	bf74fa0b 3e94a031 bf751727 3e93dfbf     ..t.1..>'.u....>
    ffc0:	bf75341d 3e931f35 bf7550ed 3e925e94     .4u.5..>.Pu..^.>
    ffd0:	bf756d97 3e919ddd bf758a1c 3e90dd10     .mu....>..u....>
    ffe0:	bf75a67b 3e901c2c bf75c2b3 3e8f5b32     {.u.,..>..u.2[.>
    fff0:	bf75dec6 3e8e9a22 bf75fab3 3e8dd8fc     ..u."..>..u....>
   10000:	bf76167a 3e8d17c0 bf76321b 3e8c566e     z.v....>.2v.nV.>
   10010:	bf764d97 3e8b9507 bf7668ec 3e8ad38a     .Mv....>.hv....>
   10020:	bf76841b 3e8a11f8 bf769f24 3e895050     ..v....>$.v.PP.>
   10030:	bf76ba07 3e888e93 bf76d4c4 3e87ccc1     ..v....>..v....>
   10040:	bf76ef5b 3e870ada bf7709cc 3e8648df     [.v....>..w..H.>
   10050:	bf772417 3e8586ce bf773e3c 3e84c4aa     .$w....><>w....>
   10060:	bf77583a 3e840270 bf777213 3e834022     :Xw.p..>.rw."@.>
   10070:	bf778bc5 3e827dc0 bf77a551 3e81bb4a     ..w..}.>Q.w.J..>
   10080:	bf77beb7 3e80f8c0 bf77d7f7 3e803622     ..w....>..w."6.>
   10090:	bf77f110 3e7ee6e1 bf780a04 3e7d6156     ..w...~>..x.Va}>
   100a0:	bf7822d1 3e7bdba4 bf783b77 3e7a55cb     ."x...{>w;x..Uz>
   100b0:	bf7853f8 3e78cfcc bf786c52 3e7749a6     .Sx...x>Rlx..Iw>
   100c0:	bf788486 3e75c35a bf789c93 3e743ce8     ..x.Z.u>..x..<t>
   100d0:	bf78b47b 3e72b651 bf78cc3b 3e712f94     {.x.Q.r>;.x../q>
   100e0:	bf78e3d6 3e6fa8b2 bf78fb4a 3e6e21ab     ..x...o>J.x..!n>
   100f0:	bf791298 3e6c9a7f bf7929bf 3e6b132f     ..y...l>.)y./.k>
   10100:	bf7940c0 3e698bba bf79579a 3e680422     .@y...i>.Wy.".h>
   10110:	bf796e4e 3e667c66 bf7984dc 3e64f486     Nny.f|f>..y...d>
   10120:	bf799b43 3e636c83 bf79b183 3e61e45c     C.y..lc>..y.\.a>
   10130:	bf79c79d 3e605c13 bf79dd91 3e5ed3a8     ..y..\`>..y...^>
   10140:	bf79f35e 3e5d4b1a bf7a0904 3e5bc26a     ^.y..K]>..z.j.[>
   10150:	bf7a1e84 3e5a3997 bf7a33dd 3e58b0a4     ..z..9Z>.3z...X>
   10160:	bf7a4910 3e57278f bf7a5e1c 3e559e58     .Iz..'W>.^z.X.U>
   10170:	bf7a7302 3e541501 bf7a87c1 3e528b89     .sz...T>..z...R>
   10180:	bf7a9c59 3e5101f1 bf7ab0cb 3e4f7838     Y.z...Q>..z.8xO>
   10190:	bf7ac516 3e4dee60 bf7ad93a 3e4c6467     ..z.`.M>:.z.gdL>
   101a0:	bf7aed37 3e4ada4f bf7b010e 3e495018     7.z.O.J>..{..PI>
   101b0:	bf7b14be 3e47c5c2 bf7b2848 3e463b4d     ..{...G>H({.M;F>
   101c0:	bf7b3bab 3e44b0b9 bf7b4ee7 3e432607     .;{...D>.N{..&C>
   101d0:	bf7b61fc 3e419b37 bf7b74ea 3e401049     .a{.7.A>.t{.I.@>
   101e0:	bf7b87b2 3e3e853e bf7b9a53 3e3cfa15     ..{.>.>>S.{...<>
   101f0:	bf7baccd 3e3b6ecf bf7bbf20 3e39e36c     ..{..n;> .{.l.9>
   10200:	bf7bd14d 3e3857ec bf7be353 3e36cc50     M.{..W8>S.{.P.6>
   10210:	bf7bf531 3e354098 bf7c06e9 3e33b4c4     1.{..@5>..|...3>
   10220:	bf7c187a 3e3228d4 bf7c29e5 3e309cc9     z.|..(2>.)|...0>
   10230:	bf7c3b28 3e2f10a2 bf7c4c44 3e2d8461     (;|.../>DL|.a.->
   10240:	bf7c5d3a 3e2bf804 bf7c6e08 3e2a6b8d     :]|...+>.n|..k*>
   10250:	bf7c7eb0 3e28defc bf7c8f31 3e275251     .~|...(>1.|.QR'>
   10260:	bf7c9f8a 3e25c58c bf7cafbd 3e2438ad     ..|...%>..|..8$>
   10270:	bf7cbfc9 3e22abb6 bf7ccfae 3e211ea5     ..|...">..|...!>
   10280:	bf7cdf6c 3e1f917b bf7cef03 3e1e0438     l.|.{..>..|.8..>
   10290:	bf7cfe73 3e1c76de bf7d0dbc 3e1ae96b     s.|..v.>..}.k..>
   102a0:	bf7d1cdd 3e195be0 bf7d2bd8 3e17ce3d     ..}..[.>.+}.=..>
   102b0:	bf7d3aac 3e164083 bf7d4959 3e14b2b2     .:}..@.>YI}....>
   102c0:	bf7d57de 3e1324ca bf7d663d 3e1196cc     .W}..$.>=f}....>
   102d0:	bf7d7474 3e1008b7 bf7d8285 3e0e7a8b     tt}....>..}..z.>
   102e0:	bf7d906e 3e0cec4a bf7d9e30 3e0b5df3     n.}.J..>0.}..].>
   102f0:	bf7dabcc 3e09cf86 bf7db940 3e084105     ..}....>@.}..A.>
   10300:	bf7dc68c 3e06b26e bf7dd3b2 3e0523c2     ..}.n..>..}..#.>
   10310:	bf7de0b1 3e039502 bf7ded88 3e02062e     ..}....>..}....>
   10320:	bf7dfa38 3e007745 bf7e06c2 3dfdd092     8.}.Ew.>..~....=
   10330:	bf7e1324 3dfab273 bf7e1f5e 3df7942c     $.~.s..=^.~.,..=
   10340:	bf7e2b72 3df475c0 bf7e375e 3df1572e     r+~..u.=^7~..W.=
   10350:	bf7e4323 3dee3876 bf7e4ec1 3deb199a     #C~.v8.=.N~....=
   10360:	bf7e5a38 3de7fa9a bf7e6588 3de4db76     8Z~....=.e~.v..=
   10370:	bf7e70b0 3de1bc2e bf7e7bb1 3dde9cc4     .p~....=.{~....=
   10380:	bf7e868b 3ddb7d37 bf7e913d 3dd85d89     ..~.7}.==.~..].=
   10390:	bf7e9bc9 3dd53db9 bf7ea62d 3dd21dc8     ..~..=.=-.~....=
   103a0:	bf7eb069 3dcefdb7 bf7eba7f 3dcbdd86     i.~....=..~....=
   103b0:	bf7ec46d 3dc8bd36 bf7ece34 3dc59cc6     m.~.6..=4.~....=
   103c0:	bf7ed7d4 3dc27c39 bf7ee14c 3dbf5b8d     ..~.9|.=L.~..[.=
   103d0:	bf7eea9d 3dbc3ac3 bf7ef3c7 3db919dd     ..~..:.=..~....=
   103e0:	bf7efcc9 3db5f8da bf7f05a4 3db2d7bb     ..~....=.......=
   103f0:	bf7f0e58 3dafb680 bf7f16e4 3dac952b     X......=....+..=
   10400:	bf7f1f49 3da973ba bf7f2787 3da65230     I....s.=.'..0R.=
   10410:	bf7f2f9d 3da3308c bf7f378d 3da00ecf     ./...0.=.7.....=
   10420:	bf7f3f54 3d9cecf9 bf7f46f4 3d99cb0a     T?.....=.F.....=
   10430:	bf7f4e6d 3d96a905 bf7f55bf 3d9386e7     mN.....=.U.....=
   10440:	bf7f5ce9 3d9064b4 bf7f63ec 3d8d426a     .\...d.=.c..jB.=
   10450:	bf7f6ac7 3d8a200a bf7f717b 3d86fd94     .j... .={q.....=
   10460:	bf7f7808 3d83db0a bf7f7e6d 3d80b86c     .x.....=m~..l..=
   10470:	bf7f84ab 3d7b2b74 bf7f8ac2 3d74e5e9     ....t+{=......t=
   10480:	bf7f90b1 3d6ea038 bf7f9678 3d685a62     ....8.n=x...bZh=
   10490:	bf7f9c18 3d621468 bf7fa191 3d5bce4c     ....h.b=....L.[=
   104a0:	bf7fa6e3 3d55880e bf7fac0d 3d4f41af     ......U=.....AO=
   104b0:	bf7fb10f 3d48fb2f bf7fb5ea 3d42b491     ..../.H=......B=
   104c0:	bf7fba9e 3d3c6dd5 bf7fbf2a 3d3626fc     .....m<=*....&6=
   104d0:	bf7fc38f 3d2fe007 bf7fc7cc 3d2998f6     ....../=......)=
   104e0:	bf7fcbe2 3d2351cc bf7fcfd1 3d1d0a88     .....Q#=.......=
   104f0:	bf7fd398 3d16c32c bf7fd737 3d107bb8     ....,..=7....{.=
   10500:	bf7fdaaf 3d0a342f bf7fde00 3d03ec90     ..../4.=.......=
   10510:	bf7fe129 3cfb49b9 bf7fe42b 3ceeba2d     )....I.<+...-..<
   10520:	bf7fe705 3ce22a7b bf7fe9b8 3cd59aa6     ....{*.<.......<
   10530:	bf7fec43 3cc90ab0 bf7feea7 3cbc7a9b     C......<.....z.<
   10540:	bf7ff0e3 3cafea69 bf7ff2f8 3ca35a1c     ....i..<.....Z.<
   10550:	bf7ff4e6 3c96c9b6 bf7ff6ac 3c8a3938     .......<....89.<
   10560:	bf7ff84a 3c7b514b bf7ff9c1 3c623000     J...KQ{<.....0b<
   10570:	bf7ffb11 3c490e90 bf7ffc39 3c2fed02     ......I<9...../<
   10580:	bf7ffd39 3c16cb59 bf7ffe13 3bfb5330     9...Y..<....0S.;
   10590:	bf7ffec4 3bc90f89 bf7fff4e 3b96cbc1     .......;N......;
   105a0:	bf7fffb1 3b490fc7 bf7fffec 3ac90fd4     ......I;.......:
   105b0:	bf800000 00000000 bf7fffec bac90fd4     ................
   105c0:	bf7fffb1 bb490fc7 bf7fff4e bb96cbc1     ......I.N.......
   105d0:	bf7ffec4 bbc90f89 bf7ffe13 bbfb5330     ............0S..
   105e0:	bf7ffd39 bc16cb59 bf7ffc39 bc2fed02     9...Y...9...../.
   105f0:	bf7ffb11 bc490e90 bf7ff9c1 bc623000     ......I......0b.
   10600:	bf7ff84a bc7b514b bf7ff6ac bc8a3938     J...KQ{.....89..
   10610:	bf7ff4e6 bc96c9b6 bf7ff2f8 bca35a1c     .............Z..
   10620:	bf7ff0e3 bcafea69 bf7feea7 bcbc7a9b     ....i........z..
   10630:	bf7fec43 bcc90ab0 bf7fe9b8 bcd59aa6     C...............
   10640:	bf7fe705 bce22a7b bf7fe42b bceeba2d     ....{*..+...-...
   10650:	bf7fe129 bcfb49b9 bf7fde00 bd03ec90     )....I..........
   10660:	bf7fdaaf bd0a342f bf7fd737 bd107bb8     ..../4..7....{..
   10670:	bf7fd398 bd16c32c bf7fcfd1 bd1d0a88     ....,...........
   10680:	bf7fcbe2 bd2351cc bf7fc7cc bd2998f6     .....Q#.......).
   10690:	bf7fc38f bd2fe007 bf7fbf2a bd3626fc     ....../.*....&6.
   106a0:	bf7fba9e bd3c6dd5 bf7fb5ea bd42b491     .....m<.......B.
   106b0:	bf7fb10f bd48fb2f bf7fac0d bd4f41af     ..../.H......AO.
   106c0:	bf7fa6e3 bd55880e bf7fa191 bd5bce4c     ......U.....L.[.
   106d0:	bf7f9c18 bd621468 bf7f9678 bd685a62     ....h.b.x...bZh.
   106e0:	bf7f90b1 bd6ea038 bf7f8ac2 bd74e5e9     ....8.n.......t.
   106f0:	bf7f84ab bd7b2b74 bf7f7e6d bd80b86c     ....t+{.m~..l...
   10700:	bf7f7808 bd83db0a bf7f717b bd86fd94     .x......{q......
   10710:	bf7f6ac7 bd8a200a bf7f63ec bd8d426a     .j... ...c..jB..
   10720:	bf7f5ce9 bd9064b4 bf7f55bf bd9386e7     .\...d...U......
   10730:	bf7f4e6d bd96a905 bf7f46f4 bd99cb0a     mN.......F......
   10740:	bf7f3f54 bd9cecf9 bf7f378d bda00ecf     T?.......7......
   10750:	bf7f2f9d bda3308c bf7f2787 bda65230     ./...0...'..0R..
   10760:	bf7f1f49 bda973ba bf7f16e4 bdac952b     I....s......+...
   10770:	bf7f0e58 bdafb680 bf7f05a4 bdb2d7bb     X...............
   10780:	bf7efcc9 bdb5f8da bf7ef3c7 bdb919dd     ..~.......~.....
   10790:	bf7eea9d bdbc3ac3 bf7ee14c bdbf5b8d     ..~..:..L.~..[..
   107a0:	bf7ed7d4 bdc27c39 bf7ece34 bdc59cc6     ..~.9|..4.~.....
   107b0:	bf7ec46d bdc8bd36 bf7eba7f bdcbdd86     m.~.6.....~.....
   107c0:	bf7eb069 bdcefdb7 bf7ea62d bdd21dc8     i.~.....-.~.....
   107d0:	bf7e9bc9 bdd53db9 bf7e913d bdd85d89     ..~..=..=.~..]..
   107e0:	bf7e868b bddb7d37 bf7e7bb1 bdde9cc4     ..~.7}...{~.....
   107f0:	bf7e70b0 bde1bc2e bf7e6588 bde4db76     .p~......e~.v...
   10800:	bf7e5a38 bde7fa9a bf7e4ec1 bdeb199a     8Z~......N~.....
   10810:	bf7e4323 bdee3876 bf7e375e bdf1572e     #C~.v8..^7~..W..
   10820:	bf7e2b72 bdf475c0 bf7e1f5e bdf7942c     r+~..u..^.~.,...
   10830:	bf7e1324 bdfab273 bf7e06c2 bdfdd092     $.~.s.....~.....
   10840:	bf7dfa38 be007745 bf7ded88 be02062e     8.}.Ew....}.....
   10850:	bf7de0b1 be039502 bf7dd3b2 be0523c2     ..}.......}..#..
   10860:	bf7dc68c be06b26e bf7db940 be084105     ..}.n...@.}..A..
   10870:	bf7dabcc be09cf86 bf7d9e30 be0b5df3     ..}.....0.}..]..
   10880:	bf7d906e be0cec4a bf7d8285 be0e7a8b     n.}.J.....}..z..
   10890:	bf7d7474 be1008b7 bf7d663d be1196cc     tt}.....=f}.....
   108a0:	bf7d57de be1324ca bf7d4959 be14b2b2     .W}..$..YI}.....
   108b0:	bf7d3aac be164083 bf7d2bd8 be17ce3d     .:}..@...+}.=...
   108c0:	bf7d1cdd be195be0 bf7d0dbc be1ae96b     ..}..[....}.k...
   108d0:	bf7cfe73 be1c76de bf7cef03 be1e0438     s.|..v....|.8...
   108e0:	bf7cdf6c be1f917b bf7ccfae be211ea5     l.|.{.....|...!.
   108f0:	bf7cbfc9 be22abb6 bf7cafbd be2438ad     ..|..."...|..8$.
   10900:	bf7c9f8a be25c58c bf7c8f31 be275251     ..|...%.1.|.QR'.
   10910:	bf7c7eb0 be28defc bf7c6e08 be2a6b8d     .~|...(..n|..k*.
   10920:	bf7c5d3a be2bf804 bf7c4c44 be2d8461     :]|...+.DL|.a.-.
   10930:	bf7c3b28 be2f10a2 bf7c29e5 be309cc9     (;|.../..)|...0.
   10940:	bf7c187a be3228d4 bf7c06e9 be33b4c4     z.|..(2...|...3.
   10950:	bf7bf531 be354098 bf7be353 be36cc50     1.{..@5.S.{.P.6.
   10960:	bf7bd14d be3857ec bf7bbf20 be39e36c     M.{..W8. .{.l.9.
   10970:	bf7baccd be3b6ecf bf7b9a53 be3cfa15     ..{..n;.S.{...<.
   10980:	bf7b87b2 be3e853e bf7b74ea be401049     ..{.>.>..t{.I.@.
   10990:	bf7b61fc be419b37 bf7b4ee7 be432607     .a{.7.A..N{..&C.
   109a0:	bf7b3bab be44b0b9 bf7b2848 be463b4d     .;{...D.H({.M;F.
   109b0:	bf7b14be be47c5c2 bf7b010e be495018     ..{...G...{..PI.
   109c0:	bf7aed37 be4ada4f bf7ad93a be4c6467     7.z.O.J.:.z.gdL.
   109d0:	bf7ac516 be4dee60 bf7ab0cb be4f7838     ..z.`.M...z.8xO.
   109e0:	bf7a9c59 be5101f1 bf7a87c1 be528b89     Y.z...Q...z...R.
   109f0:	bf7a7302 be541501 bf7a5e1c be559e58     .sz...T..^z.X.U.
   10a00:	bf7a4910 be57278f bf7a33dd be58b0a4     .Iz..'W..3z...X.
   10a10:	bf7a1e84 be5a3997 bf7a0904 be5bc26a     ..z..9Z...z.j.[.
   10a20:	bf79f35e be5d4b1a bf79dd91 be5ed3a8     ^.y..K]...y...^.
   10a30:	bf79c79d be605c13 bf79b183 be61e45c     ..y..\`...y.\.a.
   10a40:	bf799b43 be636c83 bf7984dc be64f486     C.y..lc...y...d.
   10a50:	bf796e4e be667c66 bf79579a be680422     Nny.f|f..Wy.".h.
   10a60:	bf7940c0 be698bba bf7929bf be6b132f     .@y...i..)y./.k.
   10a70:	bf791298 be6c9a7f bf78fb4a be6e21ab     ..y...l.J.x..!n.
   10a80:	bf78e3d6 be6fa8b2 bf78cc3b be712f94     ..x...o.;.x../q.
   10a90:	bf78b47b be72b651 bf789c93 be743ce8     {.x.Q.r...x..<t.
   10aa0:	bf788486 be75c35a bf786c52 be7749a6     ..x.Z.u.Rlx..Iw.
   10ab0:	bf7853f8 be78cfcc bf783b77 be7a55cb     .Sx...x.w;x..Uz.
   10ac0:	bf7822d1 be7bdba4 bf780a04 be7d6156     ."x...{...x.Va}.
   10ad0:	bf77f110 be7ee6e1 bf77d7f7 be803622     ..w...~...w."6..
   10ae0:	bf77beb7 be80f8c0 bf77a551 be81bb4a     ..w.....Q.w.J...
   10af0:	bf778bc5 be827dc0 bf777213 be834022     ..w..}...rw."@..
   10b00:	bf77583a be840270 bf773e3c be84c4aa     :Xw.p...<>w.....
   10b10:	bf772417 be8586ce bf7709cc be8648df     .$w.......w..H..
   10b20:	bf76ef5b be870ada bf76d4c4 be87ccc1     [.v.......v.....
   10b30:	bf76ba07 be888e93 bf769f24 be895050     ..v.....$.v.PP..
   10b40:	bf76841b be8a11f8 bf7668ec be8ad38a     ..v......hv.....
   10b50:	bf764d97 be8b9507 bf76321b be8c566e     .Mv......2v.nV..
   10b60:	bf76167a be8d17c0 bf75fab3 be8dd8fc     z.v.......u.....
   10b70:	bf75dec6 be8e9a22 bf75c2b3 be8f5b32     ..u.".....u.2[..
   10b80:	bf75a67b be901c2c bf758a1c be90dd10     {.u.,.....u.....
   10b90:	bf756d97 be919ddd bf7550ed be925e94     .mu......Pu..^..
   10ba0:	bf75341d be931f35 bf751727 be93dfbf     .4u.5...'.u.....
   10bb0:	bf74fa0b be94a031 bf74dcc9 be95608d     ..t.1.....t..`..
   10bc0:	bf74bf62 be9620d2 bf74a1d5 be96e100     b.t.. ....t.....
   10bd0:	bf748422 be97a117 bf746649 be986116     ".t.....Ift..a..
   10be0:	bf74484b be9920fe bf742a27 be99e0ce     KHt.. ..'*t.....
   10bf0:	bf740bdd be9aa086 bf73ed6e be9b6027     ..t.....n.s.'`..
   10c00:	bf73ced9 be9c1faf bf73b01f be9cdf20     ..s.......s. ...
   10c10:	bf73913f be9d9e78 bf737239 be9e5db8     ?.s.x...9rs..]..
   10c20:	bf73530e be9f1cdf bf7333be be9fdbee     .Ss......3s.....
   10c30:	bf731447 bea09ae5 bf72f4ac bea159c2     G.s.......r..Y..
   10c40:	bf72d4eb bea21887 bf72b504 bea2d733     ..r.......r.3...
   10c50:	bf7294f8 bea395c5 bf7274c7 bea4543f     ..r......tr.?T..
   10c60:	bf725470 bea5129f bf7233f4 bea5d0e5     pTr......3r.....
   10c70:	bf721352 bea68f12 bf71f28c bea74d25     R.r.......q.%M..
   10c80:	bf71d19f bea80b1f bf71b08e bea8c8fe     ..q.......q.....
   10c90:	bf718f57 bea986c4 bf716dfb beaa446f     W.q......mq.oD..
   10ca0:	bf714c7a beab0201 bf712ad4 beabbf77     zLq......*q.w...
   10cb0:	bf710908 beac7cd4 bf70e717 bead3a15     ..q..|....p..:..
   10cc0:	bf70c502 beadf73c bf70a2c6 beaeb449     ..p.<.....p.I...
   10cd0:	bf708066 beaf713a bf705de1 beb02e10     f.p.:q...]p.....
   10ce0:	bf703b37 beb0eacb bf701867 beb1a76b     7;p.....g.p.k...
   10cf0:	bf6ff573 beb263ef bf6fd25a beb32058     s.o..c..Z.o.X ..
   10d00:	bf6faf1b beb3dca5 bf6f8bb8 beb498d6     ..o.......o.....
   10d10:	bf6f6830 beb554ec bf6f4483 beb610e6     0ho..T...Do.....
   10d20:	bf6f20b0 beb6ccc3 bf6efcba beb78884     . o.......n.....
   10d30:	bf6ed89e beb8442a bf6eb45d beb8ffb2     ..n.*D..].n.....
   10d40:	bf6e8ff8 beb9bb1e bf6e6b6d beba766e     ..n.....mkn.nv..
   10d50:	bf6e46be bebb31a0 bf6e21eb bebbecb6     .Fn..1...!n.....
   10d60:	bf6dfcf2 bebca7af bf6dd7d5 bebd628b     ..m.......m..b..
   10d70:	bf6db293 bebe1d4a bf6d8d2d bebed7eb     ..m.J...-.m.....
   10d80:	bf6d67a1 bebf926f bf6d41f2 bec04cd5     .gm.o....Am..L..
   10d90:	bf6d1c1d bec1071e bf6cf624 bec1c148     ..m.....$.l.H...
   10da0:	bf6cd007 bec27b55 bf6ca9c5 bec33544     ..l.U{....l.D5..
   10db0:	bf6c835e bec3ef15 bf6c5cd4 bec4a8c8     ^.l......\l.....
   10dc0:	bf6c3624 bec5625c bf6c0f50 bec61bd2     $6l.\b..P.l.....
   10dd0:	bf6be858 bec6d529 bf6bc13b bec78e62     X.k.)...;.k.b...
   10de0:	bf6b99fb bec8477c bf6b7295 bec90077     ..k.|G...rk.w...
   10df0:	bf6b4b0c bec9b953 bf6b235e beca7210     .Kk.S...^#k..r..
   10e00:	bf6afb8c becb2aae bf6ad395 becbe32c     ..j..*....j.,...
   10e10:	bf6aab7b becc9b8b bf6a833c becd53ca     {.j.....<.j..S..
   10e20:	bf6a5ad9 bece0bea bf6a3252 becec3ea     .Zj.....R2j.....
   10e30:	bf6a09a7 becf7bca bf69e0d7 bed0338a     ..j..{....i..3..
   10e40:	bf69b7e4 bed0eb2a bf698ecc bed1a2aa     ..i.*.....i.....
   10e50:	bf696591 bed25a09 bf693c32 bed31148     .ei..Z..2<i.H...
   10e60:	bf6912ae bed3c867 bf68e907 bed47f64     ..i.g.....h.d...
   10e70:	bf68bf3c bed53641 bf68954c bed5ecfd     <.h.A6..L.h.....
   10e80:	bf686b39 bed6a399 bf684103 bed75a13     9kh......Ah..Z..
   10e90:	bf6816a8 bed8106b bf67ec2a bed8c6a3     ..h.k...*.g.....
   10ea0:	bf67c187 bed97cb9 bf6796c1 beda32ad     ..g..|....g..2..
   10eb0:	bf676bd8 bedae880 bf6740ca bedb9e31     .kg......@g.1...
   10ec0:	bf671599 bedc53c1 bf66ea45 bedd092e     ..g..S..E.f.....
   10ed0:	bf66becc beddbe79 bf669330 bede73a2     ..f.y...0.f..s..
   10ee0:	bf666771 bedf28a9 bf663b8e bedfdd8d     qgf..(...;f.....
   10ef0:	bf660f88 bee0924f bf65e35e bee146ee     ..f.O...^.e..F..
   10f00:	bf65b710 bee1fb6a bf658aa0 bee2afc4     ..e.j.....e.....
   10f10:	bf655e0b bee363fa bf653154 bee4180e     .^e..c..T1e.....
   10f20:	bf650479 bee4cbfe bf64d77b bee57fcb     y.e.....{.d.....
   10f30:	bf64aa59 bee63375 bf647d14 bee6e6fb     Y.d.u3...}d.....
   10f40:	bf644fac bee79a5d bf642221 bee84d9c     .Od.]...!"d..M..
   10f50:	bf63f473 bee900b7 bf63c6a1 bee9b3ae     s.c.......c.....
   10f60:	bf6398ac beea6681 bf636a95 beeb1930     ..c..f...jc.0...
   10f70:	bf633c5a beebcbbb bf630dfc beec7e21     Z<c.......c.!~..
   10f80:	bf62df7b beed3063 bf62b0d7 beede280     {.b.c0....b.....
   10f90:	bf628210 beee9479 bf625326 beef464c     ..b.y...&Sb.LF..
   10fa0:	bf62241a beeff7fb bf61f4ea bef0a985     .$b.......a.....
   10fb0:	bf61c598 bef15aea bf619622 bef20c29     ..a..Z..".a.)...
   10fc0:	bf61668a bef2bd43 bf6136d0 bef36e38     .fa.C....6a.8n..
   10fd0:	bf6106f2 bef41f07 bf60d6f2 bef4cfb1     ..a.......`.....
   10fe0:	bf60a6cf bef58035 bf607689 bef63093     ..`.5....v`..0..
   10ff0:	bf604621 bef6e0cb bf601596 bef790dc     !F`.......`.....
   11000:	bf5fe4e9 bef840c8 bf5fb419 bef8f08e     .._..@...._.....
   11010:	bf5f8327 bef9a02d bf5f5212 befa4fa5     '._.-....R_..O..
   11020:	bf5f20db befafef7 bf5eef81 befbae22     . _.......^."...
   11030:	bf5ebe05 befc5d27 bf5e8c67 befd0c04     ..^.']..g.^.....
   11040:	bf5e5aa6 befdbabb bf5e28c3 befe694a     .Z^......(^.Ji..
   11050:	bf5df6be beff17b2 bf5dc497 beffc5f3     ..].......].....
   11060:	bf5d924d bf003a06 bf5d5fe1 bf0090ff     M.]..:..._].....
   11070:	bf5d2d53 bf00e7e4 bf5cfaa3 bf013eb5     S-].......\..>..
   11080:	bf5cc7d1 bf019573 bf5c94dd bf01ec1c     ..\.s.....\.....
   11090:	bf5c61c7 bf0242b1 bf5c2e8e bf029932     .a\..B....\.2...
   110a0:	bf5bfb34 bf02ef9f bf5bc7b8 bf0345f8     4.[.......[..E..
   110b0:	bf5b941a bf039c3d bf5b605a bf03f26d     ..[.=...Z`[.m...
   110c0:	bf5b2c79 bf044889 bf5af875 bf049e91     y,[..H..u.Z.....
   110d0:	bf5ac450 bf04f484 bf5a9009 bf054a62     P.Z.......Z.bJ..
   110e0:	bf5a5ba0 bf05a02c bf5a2716 bf05f5e2     .[Z.,....'Z.....
   110f0:	bf59f26a bf064b82 bf59bd9c bf06a10e     j.Y..K....Y.....
   11100:	bf5988ad bf06f686 bf59539c bf074be8     ..Y......SY..K..
   11110:	bf591e6a bf07a136 bf58e917 bf07f66f     j.Y.6.....X.o...
   11120:	bf58b3a1 bf084b92 bf587e0b bf08a0a1     ..X..K...~X.....
   11130:	bf584853 bf08f59b bf581279 bf094a7f     SHX.....y.X..J..
   11140:	bf57dc7f bf099f4e bf57a663 bf09f409     ..W.N...c.W.....
   11150:	bf577026 bf0a48ad bf5739c7 bf0a9d3d     &pW..H...9W.=...
   11160:	bf570348 bf0af1b7 bf56cca7 bf0b461c     H.W.......V..F..
   11170:	bf5695e5 bf0b9a6b bf565f02 bf0beea5     ..V.k...._V.....
   11180:	bf5627fe bf0c42c9 bf55f0d9 bf0c96d7     .'V..B....U.....
   11190:	bf55b993 bf0cead0 bf55822c bf0d3eb3     ..U.....,.U..>..
   111a0:	bf554aa4 bf0d9281 bf5512fb bf0de638     .JU.......U.8...
   111b0:	bf54db31 bf0e39da bf54a347 bf0e8d65     1.T..9..G.T.e...
   111c0:	bf546b3b bf0ee0db bf54330f bf0f343b     ;kT......3T.;4..
   111d0:	bf53fac3 bf0f8784 bf53c255 bf0fdab8     ..S.....U.S.....
   111e0:	bf5389c7 bf102dd5 bf535118 bf1080dc     ..S..-...QS.....
   111f0:	bf531849 bf10d3cd bf52df59 bf1126a7     I.S.....Y.R..&..
   11200:	bf52a649 bf11796b bf526d18 bf11cc19     I.R.ky...mR.....
   11210:	bf5233c6 bf121eb0 bf51fa54 bf127130     .3R.....T.Q.0q..
   11220:	bf51c0c2 bf12c39a bf518710 bf1315ee     ..Q.......Q.....
   11230:	bf514d3d bf13682a bf51134a bf13ba50     =MQ.*h..J.Q.P...
   11240:	bf50d937 bf140c5f bf509f03 bf145e58     7.P._.....P.X^..
   11250:	bf5064af bf14b039 bf502a3b bf150204     .dP.9...;*P.....
   11260:	bf4fefa8 bf1553b7 bf4fb4f4 bf15a554     ..O..S....O.T...
   11270:	bf4f7a1f bf15f6d9 bf4f3f2b bf164847     .zO.....+?O.GH..
   11280:	bf4f0417 bf16999f bf4ec8e4 bf16eadf     ..O.......N.....
   11290:	bf4e8d90 bf173c07 bf4e521c bf178d18     ..N..<...RN.....
   112a0:	bf4e1689 bf17de12 bf4ddad5 bf182ef5     ..N.......M.....
   112b0:	bf4d9f02 bf187fc0 bf4d6310 bf18d073     ..M......cM.s...
   112c0:	bf4d26fd bf19210f bf4ceacb bf197194     .&M..!....L..q..
   112d0:	bf4cae79 bf19c200 bf4c7208 bf1a1255     y.L......rL.U...
   112e0:	bf4c3578 bf1a6293 bf4bf8c7 bf1ab2b8     x5L..b....K.....
   112f0:	bf4bbbf8 bf1b02c6 bf4b7f09 bf1b52bb     ..K.......K..R..
   11300:	bf4b41fa bf1ba299 bf4b04cc bf1bf25f     .AK.......K._...
   11310:	bf4ac77f bf1c420c bf4a8a13 bf1c91a2     ..J..B....J.....
   11320:	bf4a4c87 bf1ce11f bf4a0edc bf1d3084     .LJ.......J..0..
   11330:	bf49d112 bf1d7fd1 bf499329 bf1dcf06     ..I.....).I.....
   11340:	bf495521 bf1e1e22 bf4916fa bf1e6d26     !UI.".....I.&m..
   11350:	bf48d8b3 bf1ebc12 bf489a4e bf1f0ae5     ..H.....N.H.....
   11360:	bf485bca bf1f599f bf481d27 bf1fa841     .[H..Y..'.H.A...
   11370:	bf47de65 bf1ff6cb bf479f84 bf20453b     e.G.......G.;E .
   11380:	bf476085 bf209393 bf472167 bf20e1d2     .`G... .g!G... .
   11390:	bf46e22a bf212ff9 bf46a2ce bf217e06     *.F../!...F..~!.
   113a0:	bf466354 bf21cbfb bf4623bb bf2219d7     TcF...!..#F...".
   113b0:	bf45e403 bf226799 bf45a42d bf22b543     ..E..g".-.E.C.".
   113c0:	bf456439 bf2302d3 bf452426 bf23504b     9dE...#.&$E.KP#.
   113d0:	bf44e3f5 bf239da9 bf44a3a5 bf23eaee     ..D...#...D...#.
   113e0:	bf446337 bf24381a bf4422ab bf24852c     7cD..8$.."D.,.$.
   113f0:	bf43e200 bf24d225 bf43a138 bf251f04     ..C.%.$.8.C...%.
   11400:	bf436051 bf256bcb bf431f4c bf25b877     Q`C..k%.L.C.w.%.
   11410:	bf42de29 bf26050a bf429ce8 bf265184     ).B...&...B..Q&.
   11420:	bf425b89 bf269de3 bf421a0b bf26ea2a     .[B...&...B.*.&.
   11430:	bf41d870 bf273656 bf4196b7 bf278268     p.A.V6'...A.h.'.
   11440:	bf4154e1 bf27ce61 bf4112ec bf281a40     .TA.a.'...A.@.(.
   11450:	bf40d0da bf286605 bf408ea9 bf28b1b0     ..@..f(...@...(.
   11460:	bf404c5c bf28fd41 bf4009f0 bf2948b8     \L@.A.(...@..H).
   11470:	bf3fc767 bf299415 bf3f84c0 bf29df57     g.?...)...?.W.).
   11480:	bf3f41fc bf2a2a80 bf3eff1b bf2a758e     .A?..**...>..u*.
   11490:	bf3ebc1b bf2ac082 bf3e78ff bf2b0b5b     ..>...*..x>.[.+.
   114a0:	bf3e35c5 bf2b561b bf3df26e bf2ba0bf     .5>..V+.n.=...+.
   114b0:	bf3daef9 bf2beb4a bf3d6b67 bf2c35b9     ..=.J.+.gk=..5,.
   114c0:	bf3d27b8 bf2c800f bf3ce3ec bf2cca49     .'=...,...<.I.,.
   114d0:	bf3ca003 bf2d1469 bf3c5bfc bf2d5e6f     ..<.i.-..[<.o^-.
   114e0:	bf3c17d9 bf2da859 bf3bd398 bf2df229     ..<.Y.-...;.).-.
   114f0:	bf3b8f3b bf2e3bde bf3b4ac1 bf2e8578     ;.;..;...J;.x...
   11500:	bf3b0629 bf2ecef7 bf3ac175 bf2f185b     ).;.....u.:.[./.
   11510:	bf3a7ca4 bf2f61a5 bf3a37b7 bf2faad3     .|:..a/..7:.../.
   11520:	bf39f2ac bf2ff3e6 bf39ad85 bf303cde     ..9.../...9..<0.
   11530:	bf396842 bf3085bb bf3922e1 bf30ce7c     Bh9...0.."9.|.0.
   11540:	bf38dd65 bf311722 bf3897cb bf315fad     e.8.".1...8.._1.
   11550:	bf385216 bf31a81d bf380c43 bf31f071     .R8...1.C.8.q.1.
   11560:	bf37c655 bf3238aa bf37804a bf3280c7     U.7..82.J.7...2.
   11570:	bf373a23 bf32c8c9 bf36f3df bf3310af     #:7...2...6...3.
   11580:	bf36ad7f bf33587a bf366704 bf33a029     ..6.zX3..g6.).3.
   11590:	bf36206c bf33e7bc bf35d9b8 bf342f34     l 6...3...5.4/4.
   115a0:	bf3592e7 bf34768f bf354bfb bf34bdcf     ..5..v4..K5...4.
   115b0:	bf3504f3 bf3504f3 bf34bdcf bf354bfb     ..5...5...4..K5.
   115c0:	bf34768f bf3592e7 bf342f34 bf35d9b8     .v4...5.4/4...5.
   115d0:	bf33e7bc bf36206c bf33a029 bf366704     ..3.l 6.).3..g6.
   115e0:	bf33587a bf36ad7f bf3310af bf36f3df     zX3...6...3...6.
   115f0:	bf32c8c9 bf373a23 bf3280c7 bf37804a     ..2.#:7...2.J.7.
   11600:	bf3238aa bf37c655 bf31f071 bf380c43     .82.U.7.q.1.C.8.
   11610:	bf31a81d bf385216 bf315fad bf3897cb     ..1..R8.._1...8.
   11620:	bf311722 bf38dd65 bf30ce7c bf3922e1     ".1.e.8.|.0.."9.
   11630:	bf3085bb bf396842 bf303cde bf39ad85     ..0.Bh9..<0...9.
   11640:	bf2ff3e6 bf39f2ac bf2faad3 bf3a37b7     ../...9.../..7:.
   11650:	bf2f61a5 bf3a7ca4 bf2f185b bf3ac175     .a/..|:.[./.u.:.
   11660:	bf2ecef7 bf3b0629 bf2e8578 bf3b4ac1     ....).;.x....J;.
   11670:	bf2e3bde bf3b8f3b bf2df229 bf3bd398     .;..;.;.).-...;.
   11680:	bf2da859 bf3c17d9 bf2d5e6f bf3c5bfc     Y.-...<.o^-..[<.
   11690:	bf2d1469 bf3ca003 bf2cca49 bf3ce3ec     i.-...<.I.,...<.
   116a0:	bf2c800f bf3d27b8 bf2c35b9 bf3d6b67     ..,..'=..5,.gk=.
   116b0:	bf2beb4a bf3daef9 bf2ba0bf bf3df26e     J.+...=...+.n.=.
   116c0:	bf2b561b bf3e35c5 bf2b0b5b bf3e78ff     .V+..5>.[.+..x>.
   116d0:	bf2ac082 bf3ebc1b bf2a758e bf3eff1b     ..*...>..u*...>.
   116e0:	bf2a2a80 bf3f41fc bf29df57 bf3f84c0     .**..A?.W.)...?.
   116f0:	bf299415 bf3fc767 bf2948b8 bf4009f0     ..).g.?..H)...@.
   11700:	bf28fd41 bf404c5c bf28b1b0 bf408ea9     A.(.\L@...(...@.
   11710:	bf286605 bf40d0da bf281a40 bf4112ec     .f(...@.@.(...A.
   11720:	bf27ce61 bf4154e1 bf278268 bf4196b7     a.'..TA.h.'...A.
   11730:	bf273656 bf41d870 bf26ea2a bf421a0b     V6'.p.A.*.&...B.
   11740:	bf269de3 bf425b89 bf265184 bf429ce8     ..&..[B..Q&...B.
   11750:	bf26050a bf42de29 bf25b877 bf431f4c     ..&.).B.w.%.L.C.
   11760:	bf256bcb bf436051 bf251f04 bf43a138     .k%.Q`C...%.8.C.
   11770:	bf24d225 bf43e200 bf24852c bf4422ab     %.$...C.,.$.."D.
   11780:	bf24381a bf446337 bf23eaee bf44a3a5     .8$.7cD...#...D.
   11790:	bf239da9 bf44e3f5 bf23504b bf452426     ..#...D.KP#.&$E.
   117a0:	bf2302d3 bf456439 bf22b543 bf45a42d     ..#.9dE.C.".-.E.
   117b0:	bf226799 bf45e403 bf2219d7 bf4623bb     .g"...E..."..#F.
   117c0:	bf21cbfb bf466354 bf217e06 bf46a2ce     ..!.TcF..~!...F.
   117d0:	bf212ff9 bf46e22a bf20e1d2 bf472167     ./!.*.F... .g!G.
   117e0:	bf209393 bf476085 bf20453b bf479f84     .. ..`G.;E ...G.
   117f0:	bf1ff6cb bf47de65 bf1fa841 bf481d27     ....e.G.A...'.H.
   11800:	bf1f599f bf485bca bf1f0ae5 bf489a4e     .Y...[H.....N.H.
   11810:	bf1ebc12 bf48d8b3 bf1e6d26 bf4916fa     ......H.&m....I.
   11820:	bf1e1e22 bf495521 bf1dcf06 bf499329     "...!UI.....).I.
   11830:	bf1d7fd1 bf49d112 bf1d3084 bf4a0edc     ......I..0....J.
   11840:	bf1ce11f bf4a4c87 bf1c91a2 bf4a8a13     .....LJ.......J.
   11850:	bf1c420c bf4ac77f bf1bf25f bf4b04cc     .B....J._.....K.
   11860:	bf1ba299 bf4b41fa bf1b52bb bf4b7f09     .....AK..R....K.
   11870:	bf1b02c6 bf4bbbf8 bf1ab2b8 bf4bf8c7     ......K.......K.
   11880:	bf1a6293 bf4c3578 bf1a1255 bf4c7208     .b..x5L.U....rL.
   11890:	bf19c200 bf4cae79 bf197194 bf4ceacb     ....y.L..q....L.
   118a0:	bf19210f bf4d26fd bf18d073 bf4d6310     .!...&M.s....cM.
   118b0:	bf187fc0 bf4d9f02 bf182ef5 bf4ddad5     ......M.......M.
   118c0:	bf17de12 bf4e1689 bf178d18 bf4e521c     ......N......RN.
   118d0:	bf173c07 bf4e8d90 bf16eadf bf4ec8e4     .<....N.......N.
   118e0:	bf16999f bf4f0417 bf164847 bf4f3f2b     ......O.GH..+?O.
   118f0:	bf15f6d9 bf4f7a1f bf15a554 bf4fb4f4     .....zO.T.....O.
   11900:	bf1553b7 bf4fefa8 bf150204 bf502a3b     .S....O.....;*P.
   11910:	bf14b039 bf5064af bf145e58 bf509f03     9....dP.X^....P.
   11920:	bf140c5f bf50d937 bf13ba50 bf51134a     _...7.P.P...J.Q.
   11930:	bf13682a bf514d3d bf1315ee bf518710     *h..=MQ.......Q.
   11940:	bf12c39a bf51c0c2 bf127130 bf51fa54     ......Q.0q..T.Q.
   11950:	bf121eb0 bf5233c6 bf11cc19 bf526d18     .....3R......mR.
   11960:	bf11796b bf52a649 bf1126a7 bf52df59     ky..I.R..&..Y.R.
   11970:	bf10d3cd bf531849 bf1080dc bf535118     ....I.S......QS.
   11980:	bf102dd5 bf5389c7 bf0fdab8 bf53c255     .-....S.....U.S.
   11990:	bf0f8784 bf53fac3 bf0f343b bf54330f     ......S.;4...3T.
   119a0:	bf0ee0db bf546b3b bf0e8d65 bf54a347     ....;kT.e...G.T.
   119b0:	bf0e39da bf54db31 bf0de638 bf5512fb     .9..1.T.8.....U.
   119c0:	bf0d9281 bf554aa4 bf0d3eb3 bf55822c     .....JU..>..,.U.
   119d0:	bf0cead0 bf55b993 bf0c96d7 bf55f0d9     ......U.......U.
   119e0:	bf0c42c9 bf5627fe bf0beea5 bf565f02     .B...'V......_V.
   119f0:	bf0b9a6b bf5695e5 bf0b461c bf56cca7     k.....V..F....V.
   11a00:	bf0af1b7 bf570348 bf0a9d3d bf5739c7     ....H.W.=....9W.
   11a10:	bf0a48ad bf577026 bf09f409 bf57a663     .H..&pW.....c.W.
   11a20:	bf099f4e bf57dc7f bf094a7f bf581279     N.....W..J..y.X.
   11a30:	bf08f59b bf584853 bf08a0a1 bf587e0b     ....SHX......~X.
   11a40:	bf084b92 bf58b3a1 bf07f66f bf58e917     .K....X.o.....X.
   11a50:	bf07a136 bf591e6a bf074be8 bf59539c     6...j.Y..K...SY.
   11a60:	bf06f686 bf5988ad bf06a10e bf59bd9c     ......Y.......Y.
   11a70:	bf064b82 bf59f26a bf05f5e2 bf5a2716     .K..j.Y......'Z.
   11a80:	bf05a02c bf5a5ba0 bf054a62 bf5a9009     ,....[Z.bJ....Z.
   11a90:	bf04f484 bf5ac450 bf049e91 bf5af875     ....P.Z.....u.Z.
   11aa0:	bf044889 bf5b2c79 bf03f26d bf5b605a     .H..y,[.m...Z`[.
   11ab0:	bf039c3d bf5b941a bf0345f8 bf5bc7b8     =.....[..E....[.
   11ac0:	bf02ef9f bf5bfb34 bf029932 bf5c2e8e     ....4.[.2.....\.
   11ad0:	bf0242b1 bf5c61c7 bf01ec1c bf5c94dd     .B...a\.......\.
   11ae0:	bf019573 bf5cc7d1 bf013eb5 bf5cfaa3     s.....\..>....\.
   11af0:	bf00e7e4 bf5d2d53 bf0090ff bf5d5fe1     ....S-]......_].
   11b00:	bf003a06 bf5d924d beffc5f3 bf5dc497     .:..M.].......].
   11b10:	beff17b2 bf5df6be befe694a bf5e28c3     ......].Ji...(^.
   11b20:	befdbabb bf5e5aa6 befd0c04 bf5e8c67     .....Z^.....g.^.
   11b30:	befc5d27 bf5ebe05 befbae22 bf5eef81     ']....^.".....^.
   11b40:	befafef7 bf5f20db befa4fa5 bf5f5212     ..... _..O...R_.
   11b50:	bef9a02d bf5f8327 bef8f08e bf5fb419     -...'._......._.
   11b60:	bef840c8 bf5fe4e9 bef790dc bf601596     .@...._.......`.
   11b70:	bef6e0cb bf604621 bef63093 bf607689     ....!F`..0...v`.
   11b80:	bef58035 bf60a6cf bef4cfb1 bf60d6f2     5.....`.......`.
   11b90:	bef41f07 bf6106f2 bef36e38 bf6136d0     ......a.8n...6a.
   11ba0:	bef2bd43 bf61668a bef20c29 bf619622     C....fa.)...".a.
   11bb0:	bef15aea bf61c598 bef0a985 bf61f4ea     .Z....a.......a.
   11bc0:	beeff7fb bf62241a beef464c bf625326     .....$b.LF..&Sb.
   11bd0:	beee9479 bf628210 beede280 bf62b0d7     y.....b.......b.
   11be0:	beed3063 bf62df7b beec7e21 bf630dfc     c0..{.b.!~....c.
   11bf0:	beebcbbb bf633c5a beeb1930 bf636a95     ....Z<c.0....jc.
   11c00:	beea6681 bf6398ac bee9b3ae bf63c6a1     .f....c.......c.
   11c10:	bee900b7 bf63f473 bee84d9c bf642221     ....s.c..M..!"d.
   11c20:	bee79a5d bf644fac bee6e6fb bf647d14     ]....Od......}d.
   11c30:	bee63375 bf64aa59 bee57fcb bf64d77b     u3..Y.d.....{.d.
   11c40:	bee4cbfe bf650479 bee4180e bf653154     ....y.e.....T1e.
   11c50:	bee363fa bf655e0b bee2afc4 bf658aa0     .c...^e.......e.
   11c60:	bee1fb6a bf65b710 bee146ee bf65e35e     j.....e..F..^.e.
   11c70:	bee0924f bf660f88 bedfdd8d bf663b8e     O.....f......;f.
   11c80:	bedf28a9 bf666771 bede73a2 bf669330     .(..qgf..s..0.f.
   11c90:	beddbe79 bf66becc bedd092e bf66ea45     y.....f.....E.f.
   11ca0:	bedc53c1 bf671599 bedb9e31 bf6740ca     .S....g.1....@g.
   11cb0:	bedae880 bf676bd8 beda32ad bf6796c1     .....kg..2....g.
   11cc0:	bed97cb9 bf67c187 bed8c6a3 bf67ec2a     .|....g.....*.g.
   11cd0:	bed8106b bf6816a8 bed75a13 bf684103     k.....h..Z...Ah.
   11ce0:	bed6a399 bf686b39 bed5ecfd bf68954c     ....9kh.....L.h.
   11cf0:	bed53641 bf68bf3c bed47f64 bf68e907     A6..<.h.d.....h.
   11d00:	bed3c867 bf6912ae bed31148 bf693c32     g.....i.H...2<i.
   11d10:	bed25a09 bf696591 bed1a2aa bf698ecc     .Z...ei.......i.
   11d20:	bed0eb2a bf69b7e4 bed0338a bf69e0d7     *.....i..3....i.
   11d30:	becf7bca bf6a09a7 becec3ea bf6a3252     .{....j.....R2j.
   11d40:	bece0bea bf6a5ad9 becd53ca bf6a833c     .....Zj..S..<.j.
   11d50:	becc9b8b bf6aab7b becbe32c bf6ad395     ....{.j.,.....j.
   11d60:	becb2aae bf6afb8c beca7210 bf6b235e     .*....j..r..^#k.
   11d70:	bec9b953 bf6b4b0c bec90077 bf6b7295     S....Kk.w....rk.
   11d80:	bec8477c bf6b99fb bec78e62 bf6bc13b     |G....k.b...;.k.
   11d90:	bec6d529 bf6be858 bec61bd2 bf6c0f50     )...X.k.....P.l.
   11da0:	bec5625c bf6c3624 bec4a8c8 bf6c5cd4     \b..$6l......\l.
   11db0:	bec3ef15 bf6c835e bec33544 bf6ca9c5     ....^.l.D5....l.
   11dc0:	bec27b55 bf6cd007 bec1c148 bf6cf624     U{....l.H...$.l.
   11dd0:	bec1071e bf6d1c1d bec04cd5 bf6d41f2     ......m..L...Am.
   11de0:	bebf926f bf6d67a1 bebed7eb bf6d8d2d     o....gm.....-.m.
   11df0:	bebe1d4a bf6db293 bebd628b bf6dd7d5     J.....m..b....m.
   11e00:	bebca7af bf6dfcf2 bebbecb6 bf6e21eb     ......m......!n.
   11e10:	bebb31a0 bf6e46be beba766e bf6e6b6d     .1...Fn.nv..mkn.
   11e20:	beb9bb1e bf6e8ff8 beb8ffb2 bf6eb45d     ......n.....].n.
   11e30:	beb8442a bf6ed89e beb78884 bf6efcba     *D....n.......n.
   11e40:	beb6ccc3 bf6f20b0 beb610e6 bf6f4483     ..... o......Do.
   11e50:	beb554ec bf6f6830 beb498d6 bf6f8bb8     .T..0ho.......o.
   11e60:	beb3dca5 bf6faf1b beb32058 bf6fd25a     ......o.X ..Z.o.
   11e70:	beb263ef bf6ff573 beb1a76b bf701867     .c..s.o.k...g.p.
   11e80:	beb0eacb bf703b37 beb02e10 bf705de1     ....7;p......]p.
   11e90:	beaf713a bf708066 beaeb449 bf70a2c6     :q..f.p.I.....p.
   11ea0:	beadf73c bf70c502 bead3a15 bf70e717     <.....p..:....p.
   11eb0:	beac7cd4 bf710908 beabbf77 bf712ad4     .|....q.w....*q.
   11ec0:	beab0201 bf714c7a beaa446f bf716dfb     ....zLq.oD...mq.
   11ed0:	bea986c4 bf718f57 bea8c8fe bf71b08e     ....W.q.......q.
   11ee0:	bea80b1f bf71d19f bea74d25 bf71f28c     ......q.%M....q.
   11ef0:	bea68f12 bf721352 bea5d0e5 bf7233f4     ....R.r......3r.
   11f00:	bea5129f bf725470 bea4543f bf7274c7     ....pTr.?T...tr.
   11f10:	bea395c5 bf7294f8 bea2d733 bf72b504     ......r.3.....r.
   11f20:	bea21887 bf72d4eb bea159c2 bf72f4ac     ......r..Y....r.
   11f30:	bea09ae5 bf731447 be9fdbee bf7333be     ....G.s......3s.
   11f40:	be9f1cdf bf73530e be9e5db8 bf737239     .....Ss..]..9rs.
   11f50:	be9d9e78 bf73913f be9cdf20 bf73b01f     x...?.s. .....s.
   11f60:	be9c1faf bf73ced9 be9b6027 bf73ed6e     ......s.'`..n.s.
   11f70:	be9aa086 bf740bdd be99e0ce bf742a27     ......t.....'*t.
   11f80:	be9920fe bf74484b be986116 bf746649     . ..KHt..a..Ift.
   11f90:	be97a117 bf748422 be96e100 bf74a1d5     ....".t.......t.
   11fa0:	be9620d2 bf74bf62 be95608d bf74dcc9     . ..b.t..`....t.
   11fb0:	be94a031 bf74fa0b be93dfbf bf751727     1.....t.....'.u.
   11fc0:	be931f35 bf75341d be925e94 bf7550ed     5....4u..^...Pu.
   11fd0:	be919ddd bf756d97 be90dd10 bf758a1c     .....mu.......u.
   11fe0:	be901c2c bf75a67b be8f5b32 bf75c2b3     ,...{.u.2[....u.
   11ff0:	be8e9a22 bf75dec6 be8dd8fc bf75fab3     ".....u.......u.
   12000:	be8d17c0 bf76167a be8c566e bf76321b     ....z.v.nV...2v.
   12010:	be8b9507 bf764d97 be8ad38a bf7668ec     .....Mv......hv.
   12020:	be8a11f8 bf76841b be895050 bf769f24     ......v.PP..$.v.
   12030:	be888e93 bf76ba07 be87ccc1 bf76d4c4     ......v.......v.
   12040:	be870ada bf76ef5b be8648df bf7709cc     ....[.v..H....w.
   12050:	be8586ce bf772417 be84c4aa bf773e3c     .....$w.....<>w.
   12060:	be840270 bf77583a be834022 bf777213     p...:Xw."@...rw.
   12070:	be827dc0 bf778bc5 be81bb4a bf77a551     .}....w.J...Q.w.
   12080:	be80f8c0 bf77beb7 be803622 bf77d7f7     ......w."6....w.
   12090:	be7ee6e1 bf77f110 be7d6156 bf780a04     ..~...w.Va}...x.
   120a0:	be7bdba4 bf7822d1 be7a55cb bf783b77     ..{.."x..Uz.w;x.
   120b0:	be78cfcc bf7853f8 be7749a6 bf786c52     ..x..Sx..Iw.Rlx.
   120c0:	be75c35a bf788486 be743ce8 bf789c93     Z.u...x..<t...x.
   120d0:	be72b651 bf78b47b be712f94 bf78cc3b     Q.r.{.x../q.;.x.
   120e0:	be6fa8b2 bf78e3d6 be6e21ab bf78fb4a     ..o...x..!n.J.x.
   120f0:	be6c9a7f bf791298 be6b132f bf7929bf     ..l...y./.k..)y.
   12100:	be698bba bf7940c0 be680422 bf79579a     ..i..@y.".h..Wy.
   12110:	be667c66 bf796e4e be64f486 bf7984dc     f|f.Nny...d...y.
   12120:	be636c83 bf799b43 be61e45c bf79b183     .lc.C.y.\.a...y.
   12130:	be605c13 bf79c79d be5ed3a8 bf79dd91     .\`...y...^...y.
   12140:	be5d4b1a bf79f35e be5bc26a bf7a0904     .K].^.y.j.[...z.
   12150:	be5a3997 bf7a1e84 be58b0a4 bf7a33dd     .9Z...z...X..3z.
   12160:	be57278f bf7a4910 be559e58 bf7a5e1c     .'W..Iz.X.U..^z.
   12170:	be541501 bf7a7302 be528b89 bf7a87c1     ..T..sz...R...z.
   12180:	be5101f1 bf7a9c59 be4f7838 bf7ab0cb     ..Q.Y.z.8xO...z.
   12190:	be4dee60 bf7ac516 be4c6467 bf7ad93a     `.M...z.gdL.:.z.
   121a0:	be4ada4f bf7aed37 be495018 bf7b010e     O.J.7.z..PI...{.
   121b0:	be47c5c2 bf7b14be be463b4d bf7b2848     ..G...{.M;F.H({.
   121c0:	be44b0b9 bf7b3bab be432607 bf7b4ee7     ..D..;{..&C..N{.
   121d0:	be419b37 bf7b61fc be401049 bf7b74ea     7.A..a{.I.@..t{.
   121e0:	be3e853e bf7b87b2 be3cfa15 bf7b9a53     >.>...{...<.S.{.
   121f0:	be3b6ecf bf7baccd be39e36c bf7bbf20     .n;...{.l.9. .{.
   12200:	be3857ec bf7bd14d be36cc50 bf7be353     .W8.M.{.P.6.S.{.
   12210:	be354098 bf7bf531 be33b4c4 bf7c06e9     .@5.1.{...3...|.
   12220:	be3228d4 bf7c187a be309cc9 bf7c29e5     .(2.z.|...0..)|.
   12230:	be2f10a2 bf7c3b28 be2d8461 bf7c4c44     ../.(;|.a.-.DL|.
   12240:	be2bf804 bf7c5d3a be2a6b8d bf7c6e08     ..+.:]|..k*..n|.
   12250:	be28defc bf7c7eb0 be275251 bf7c8f31     ..(..~|.QR'.1.|.
   12260:	be25c58c bf7c9f8a be2438ad bf7cafbd     ..%...|..8$...|.
   12270:	be22abb6 bf7cbfc9 be211ea5 bf7ccfae     .."...|...!...|.
   12280:	be1f917b bf7cdf6c be1e0438 bf7cef03     {...l.|.8.....|.
   12290:	be1c76de bf7cfe73 be1ae96b bf7d0dbc     .v..s.|.k.....}.
   122a0:	be195be0 bf7d1cdd be17ce3d bf7d2bd8     .[....}.=....+}.
   122b0:	be164083 bf7d3aac be14b2b2 bf7d4959     .@...:}.....YI}.
   122c0:	be1324ca bf7d57de be1196cc bf7d663d     .$...W}.....=f}.
   122d0:	be1008b7 bf7d7474 be0e7a8b bf7d8285     ....tt}..z....}.
   122e0:	be0cec4a bf7d906e be0b5df3 bf7d9e30     J...n.}..]..0.}.
   122f0:	be09cf86 bf7dabcc be084105 bf7db940     ......}..A..@.}.
   12300:	be06b26e bf7dc68c be0523c2 bf7dd3b2     n.....}..#....}.
   12310:	be039502 bf7de0b1 be02062e bf7ded88     ......}.......}.
   12320:	be007745 bf7dfa38 bdfdd092 bf7e06c2     Ew..8.}.......~.
   12330:	bdfab273 bf7e1324 bdf7942c bf7e1f5e     s...$.~.,...^.~.
   12340:	bdf475c0 bf7e2b72 bdf1572e bf7e375e     .u..r+~..W..^7~.
   12350:	bdee3876 bf7e4323 bdeb199a bf7e4ec1     v8..#C~......N~.
   12360:	bde7fa9a bf7e5a38 bde4db76 bf7e6588     ....8Z~.v....e~.
   12370:	bde1bc2e bf7e70b0 bdde9cc4 bf7e7bb1     .....p~......{~.
   12380:	bddb7d37 bf7e868b bdd85d89 bf7e913d     7}....~..]..=.~.
   12390:	bdd53db9 bf7e9bc9 bdd21dc8 bf7ea62d     .=....~.....-.~.
   123a0:	bdcefdb7 bf7eb069 bdcbdd86 bf7eba7f     ....i.~.......~.
   123b0:	bdc8bd36 bf7ec46d bdc59cc6 bf7ece34     6...m.~.....4.~.
   123c0:	bdc27c39 bf7ed7d4 bdbf5b8d bf7ee14c     9|....~..[..L.~.
   123d0:	bdbc3ac3 bf7eea9d bdb919dd bf7ef3c7     .:....~.......~.
   123e0:	bdb5f8da bf7efcc9 bdb2d7bb bf7f05a4     ......~.........
   123f0:	bdafb680 bf7f0e58 bdac952b bf7f16e4     ....X...+.......
   12400:	bda973ba bf7f1f49 bda65230 bf7f2787     .s..I...0R...'..
   12410:	bda3308c bf7f2f9d bda00ecf bf7f378d     .0.../.......7..
   12420:	bd9cecf9 bf7f3f54 bd99cb0a bf7f46f4     ....T?.......F..
   12430:	bd96a905 bf7f4e6d bd9386e7 bf7f55bf     ....mN.......U..
   12440:	bd9064b4 bf7f5ce9 bd8d426a bf7f63ec     .d...\..jB...c..
   12450:	bd8a200a bf7f6ac7 bd86fd94 bf7f717b     . ...j......{q..
   12460:	bd83db0a bf7f7808 bd80b86c bf7f7e6d     .....x..l...m~..
   12470:	bd7b2b74 bf7f84ab bd74e5e9 bf7f8ac2     t+{.......t.....
   12480:	bd6ea038 bf7f90b1 bd685a62 bf7f9678     8.n.....bZh.x...
   12490:	bd621468 bf7f9c18 bd5bce4c bf7fa191     h.b.....L.[.....
   124a0:	bd55880e bf7fa6e3 bd4f41af bf7fac0d     ..U......AO.....
   124b0:	bd48fb2f bf7fb10f bd42b491 bf7fb5ea     /.H.......B.....
   124c0:	bd3c6dd5 bf7fba9e bd3626fc bf7fbf2a     .m<......&6.*...
   124d0:	bd2fe007 bf7fc38f bd2998f6 bf7fc7cc     ../.......).....
   124e0:	bd2351cc bf7fcbe2 bd1d0a88 bf7fcfd1     .Q#.............
   124f0:	bd16c32c bf7fd398 bd107bb8 bf7fd737     ,........{..7...
   12500:	bd0a342f bf7fdaaf bd03ec90 bf7fde00     /4..............
   12510:	bcfb49b9 bf7fe129 bceeba2d bf7fe42b     .I..)...-...+...
   12520:	bce22a7b bf7fe705 bcd59aa6 bf7fe9b8     {*..............
   12530:	bcc90ab0 bf7fec43 bcbc7a9b bf7feea7     ....C....z......
   12540:	bcafea69 bf7ff0e3 bca35a1c bf7ff2f8     i........Z......
   12550:	bc96c9b6 bf7ff4e6 bc8a3938 bf7ff6ac     ........89......
   12560:	bc7b514b bf7ff84a bc623000 bf7ff9c1     KQ{.J....0b.....
   12570:	bc490e90 bf7ffb11 bc2fed02 bf7ffc39     ..I......./.9...
   12580:	bc16cb59 bf7ffd39 bbfb5330 bf7ffe13     Y...9...0S......
   12590:	bbc90f89 bf7ffec4 bb96cbc1 bf7fff4e     ............N...
   125a0:	bb490fc7 bf7fffb1 bac90fd4 bf7fffec     ..I.............
   125b0:	80000000 bf800000 3ac90fd4 bf7fffec     ...........:....
   125c0:	3b490fc7 bf7fffb1 3b96cbc1 bf7fff4e     ..I;.......;N...
   125d0:	3bc90f89 bf7ffec4 3bfb5330 bf7ffe13     ...;....0S.;....
   125e0:	3c16cb59 bf7ffd39 3c2fed02 bf7ffc39     Y..<9...../<9...
   125f0:	3c490e90 bf7ffb11 3c623000 bf7ff9c1     ..I<.....0b<....
   12600:	3c7b514b bf7ff84a 3c8a3938 bf7ff6ac     KQ{<J...89.<....
   12610:	3c96c9b6 bf7ff4e6 3ca35a1c bf7ff2f8     ...<.....Z.<....
   12620:	3cafea69 bf7ff0e3 3cbc7a9b bf7feea7     i..<.....z.<....
   12630:	3cc90ab0 bf7fec43 3cd59aa6 bf7fe9b8     ...<C......<....
   12640:	3ce22a7b bf7fe705 3ceeba2d bf7fe42b     {*.<....-..<+...
   12650:	3cfb49b9 bf7fe129 3d03ec90 bf7fde00     .I.<)......=....
   12660:	3d0a342f bf7fdaaf 3d107bb8 bf7fd737     /4.=.....{.=7...
   12670:	3d16c32c bf7fd398 3d1d0a88 bf7fcfd1     ,..=.......=....
   12680:	3d2351cc bf7fcbe2 3d2998f6 bf7fc7cc     .Q#=......)=....
   12690:	3d2fe007 bf7fc38f 3d3626fc bf7fbf2a     ../=.....&6=*...
   126a0:	3d3c6dd5 bf7fba9e 3d42b491 bf7fb5ea     .m<=......B=....
   126b0:	3d48fb2f bf7fb10f 3d4f41af bf7fac0d     /.H=.....AO=....
   126c0:	3d55880e bf7fa6e3 3d5bce4c bf7fa191     ..U=....L.[=....
   126d0:	3d621468 bf7f9c18 3d685a62 bf7f9678     h.b=....bZh=x...
   126e0:	3d6ea038 bf7f90b1 3d74e5e9 bf7f8ac2     8.n=......t=....
   126f0:	3d7b2b74 bf7f84ab 3d80b86c bf7f7e6d     t+{=....l..=m~..
   12700:	3d83db0a bf7f7808 3d86fd94 bf7f717b     ...=.x.....={q..
   12710:	3d8a200a bf7f6ac7 3d8d426a bf7f63ec     . .=.j..jB.=.c..
   12720:	3d9064b4 bf7f5ce9 3d9386e7 bf7f55bf     .d.=.\.....=.U..
   12730:	3d96a905 bf7f4e6d 3d99cb0a bf7f46f4     ...=mN.....=.F..
   12740:	3d9cecf9 bf7f3f54 3da00ecf bf7f378d     ...=T?.....=.7..
   12750:	3da3308c bf7f2f9d 3da65230 bf7f2787     .0.=./..0R.=.'..
   12760:	3da973ba bf7f1f49 3dac952b bf7f16e4     .s.=I...+..=....
   12770:	3dafb680 bf7f0e58 3db2d7bb bf7f05a4     ...=X......=....
   12780:	3db5f8da bf7efcc9 3db919dd bf7ef3c7     ...=..~....=..~.
   12790:	3dbc3ac3 bf7eea9d 3dbf5b8d bf7ee14c     .:.=..~..[.=L.~.
   127a0:	3dc27c39 bf7ed7d4 3dc59cc6 bf7ece34     9|.=..~....=4.~.
   127b0:	3dc8bd36 bf7ec46d 3dcbdd86 bf7eba7f     6..=m.~....=..~.
   127c0:	3dcefdb7 bf7eb069 3dd21dc8 bf7ea62d     ...=i.~....=-.~.
   127d0:	3dd53db9 bf7e9bc9 3dd85d89 bf7e913d     .=.=..~..].==.~.
   127e0:	3ddb7d37 bf7e868b 3dde9cc4 bf7e7bb1     7}.=..~....=.{~.
   127f0:	3de1bc2e bf7e70b0 3de4db76 bf7e6588     ...=.p~.v..=.e~.
   12800:	3de7fa9a bf7e5a38 3deb199a bf7e4ec1     ...=8Z~....=.N~.
   12810:	3dee3876 bf7e4323 3df1572e bf7e375e     v8.=#C~..W.=^7~.
   12820:	3df475c0 bf7e2b72 3df7942c bf7e1f5e     .u.=r+~.,..=^.~.
   12830:	3dfab273 bf7e1324 3dfdd092 bf7e06c2     s..=$.~....=..~.
   12840:	3e007745 bf7dfa38 3e02062e bf7ded88     Ew.>8.}....>..}.
   12850:	3e039502 bf7de0b1 3e0523c2 bf7dd3b2     ...>..}..#.>..}.
   12860:	3e06b26e bf7dc68c 3e084105 bf7db940     n..>..}..A.>@.}.
   12870:	3e09cf86 bf7dabcc 3e0b5df3 bf7d9e30     ...>..}..].>0.}.
   12880:	3e0cec4a bf7d906e 3e0e7a8b bf7d8285     J..>n.}..z.>..}.
   12890:	3e1008b7 bf7d7474 3e1196cc bf7d663d     ...>tt}....>=f}.
   128a0:	3e1324ca bf7d57de 3e14b2b2 bf7d4959     .$.>.W}....>YI}.
   128b0:	3e164083 bf7d3aac 3e17ce3d bf7d2bd8     .@.>.:}.=..>.+}.
   128c0:	3e195be0 bf7d1cdd 3e1ae96b bf7d0dbc     .[.>..}.k..>..}.
   128d0:	3e1c76de bf7cfe73 3e1e0438 bf7cef03     .v.>s.|.8..>..|.
   128e0:	3e1f917b bf7cdf6c 3e211ea5 bf7ccfae     {..>l.|...!>..|.
   128f0:	3e22abb6 bf7cbfc9 3e2438ad bf7cafbd     ..">..|..8$>..|.
   12900:	3e25c58c bf7c9f8a 3e275251 bf7c8f31     ..%>..|.QR'>1.|.
   12910:	3e28defc bf7c7eb0 3e2a6b8d bf7c6e08     ..(>.~|..k*>.n|.
   12920:	3e2bf804 bf7c5d3a 3e2d8461 bf7c4c44     ..+>:]|.a.->DL|.
   12930:	3e2f10a2 bf7c3b28 3e309cc9 bf7c29e5     ../>(;|...0>.)|.
   12940:	3e3228d4 bf7c187a 3e33b4c4 bf7c06e9     .(2>z.|...3>..|.
   12950:	3e354098 bf7bf531 3e36cc50 bf7be353     .@5>1.{.P.6>S.{.
   12960:	3e3857ec bf7bd14d 3e39e36c bf7bbf20     .W8>M.{.l.9> .{.
   12970:	3e3b6ecf bf7baccd 3e3cfa15 bf7b9a53     .n;>..{...<>S.{.
   12980:	3e3e853e bf7b87b2 3e401049 bf7b74ea     >.>>..{.I.@>.t{.
   12990:	3e419b37 bf7b61fc 3e432607 bf7b4ee7     7.A>.a{..&C>.N{.
   129a0:	3e44b0b9 bf7b3bab 3e463b4d bf7b2848     ..D>.;{.M;F>H({.
   129b0:	3e47c5c2 bf7b14be 3e495018 bf7b010e     ..G>..{..PI>..{.
   129c0:	3e4ada4f bf7aed37 3e4c6467 bf7ad93a     O.J>7.z.gdL>:.z.
   129d0:	3e4dee60 bf7ac516 3e4f7838 bf7ab0cb     `.M>..z.8xO>..z.
   129e0:	3e5101f1 bf7a9c59 3e528b89 bf7a87c1     ..Q>Y.z...R>..z.
   129f0:	3e541501 bf7a7302 3e559e58 bf7a5e1c     ..T>.sz.X.U>.^z.
   12a00:	3e57278f bf7a4910 3e58b0a4 bf7a33dd     .'W>.Iz...X>.3z.
   12a10:	3e5a3997 bf7a1e84 3e5bc26a bf7a0904     .9Z>..z.j.[>..z.
   12a20:	3e5d4b1a bf79f35e 3e5ed3a8 bf79dd91     .K]>^.y...^>..y.
   12a30:	3e605c13 bf79c79d 3e61e45c bf79b183     .\`>..y.\.a>..y.
   12a40:	3e636c83 bf799b43 3e64f486 bf7984dc     .lc>C.y...d>..y.
   12a50:	3e667c66 bf796e4e 3e680422 bf79579a     f|f>Nny.".h>.Wy.
   12a60:	3e698bba bf7940c0 3e6b132f bf7929bf     ..i>.@y./.k>.)y.
   12a70:	3e6c9a7f bf791298 3e6e21ab bf78fb4a     ..l>..y..!n>J.x.
   12a80:	3e6fa8b2 bf78e3d6 3e712f94 bf78cc3b     ..o>..x../q>;.x.
   12a90:	3e72b651 bf78b47b 3e743ce8 bf789c93     Q.r>{.x..<t>..x.
   12aa0:	3e75c35a bf788486 3e7749a6 bf786c52     Z.u>..x..Iw>Rlx.
   12ab0:	3e78cfcc bf7853f8 3e7a55cb bf783b77     ..x>.Sx..Uz>w;x.
   12ac0:	3e7bdba4 bf7822d1 3e7d6156 bf780a04     ..{>."x.Va}>..x.
   12ad0:	3e7ee6e1 bf77f110 3e803622 bf77d7f7     ..~>..w."6.>..w.
   12ae0:	3e80f8c0 bf77beb7 3e81bb4a bf77a551     ...>..w.J..>Q.w.
   12af0:	3e827dc0 bf778bc5 3e834022 bf777213     .}.>..w."@.>.rw.
   12b00:	3e840270 bf77583a 3e84c4aa bf773e3c     p..>:Xw....><>w.
   12b10:	3e8586ce bf772417 3e8648df bf7709cc     ...>.$w..H.>..w.
   12b20:	3e870ada bf76ef5b 3e87ccc1 bf76d4c4     ...>[.v....>..v.
   12b30:	3e888e93 bf76ba07 3e895050 bf769f24     ...>..v.PP.>$.v.
   12b40:	3e8a11f8 bf76841b 3e8ad38a bf7668ec     ...>..v....>.hv.
   12b50:	3e8b9507 bf764d97 3e8c566e bf76321b     ...>.Mv.nV.>.2v.
   12b60:	3e8d17c0 bf76167a 3e8dd8fc bf75fab3     ...>z.v....>..u.
   12b70:	3e8e9a22 bf75dec6 3e8f5b32 bf75c2b3     "..>..u.2[.>..u.
   12b80:	3e901c2c bf75a67b 3e90dd10 bf758a1c     ,..>{.u....>..u.
   12b90:	3e919ddd bf756d97 3e925e94 bf7550ed     ...>.mu..^.>.Pu.
   12ba0:	3e931f35 bf75341d 3e93dfbf bf751727     5..>.4u....>'.u.
   12bb0:	3e94a031 bf74fa0b 3e95608d bf74dcc9     1..>..t..`.>..t.
   12bc0:	3e9620d2 bf74bf62 3e96e100 bf74a1d5     . .>b.t....>..t.
   12bd0:	3e97a117 bf748422 3e986116 bf746649     ...>".t..a.>Ift.
   12be0:	3e9920fe bf74484b 3e99e0ce bf742a27     . .>KHt....>'*t.
   12bf0:	3e9aa086 bf740bdd 3e9b6027 bf73ed6e     ...>..t.'`.>n.s.
   12c00:	3e9c1faf bf73ced9 3e9cdf20 bf73b01f     ...>..s. ..>..s.
   12c10:	3e9d9e78 bf73913f 3e9e5db8 bf737239     x..>?.s..].>9rs.
   12c20:	3e9f1cdf bf73530e 3e9fdbee bf7333be     ...>.Ss....>.3s.
   12c30:	3ea09ae5 bf731447 3ea159c2 bf72f4ac     ...>G.s..Y.>..r.
   12c40:	3ea21887 bf72d4eb 3ea2d733 bf72b504     ...>..r.3..>..r.
   12c50:	3ea395c5 bf7294f8 3ea4543f bf7274c7     ...>..r.?T.>.tr.
   12c60:	3ea5129f bf725470 3ea5d0e5 bf7233f4     ...>pTr....>.3r.
   12c70:	3ea68f12 bf721352 3ea74d25 bf71f28c     ...>R.r.%M.>..q.
   12c80:	3ea80b1f bf71d19f 3ea8c8fe bf71b08e     ...>..q....>..q.
   12c90:	3ea986c4 bf718f57 3eaa446f bf716dfb     ...>W.q.oD.>.mq.
   12ca0:	3eab0201 bf714c7a 3eabbf77 bf712ad4     ...>zLq.w..>.*q.
   12cb0:	3eac7cd4 bf710908 3ead3a15 bf70e717     .|.>..q..:.>..p.
   12cc0:	3eadf73c bf70c502 3eaeb449 bf70a2c6     <..>..p.I..>..p.
   12cd0:	3eaf713a bf708066 3eb02e10 bf705de1     :q.>f.p....>.]p.
   12ce0:	3eb0eacb bf703b37 3eb1a76b bf701867     ...>7;p.k..>g.p.
   12cf0:	3eb263ef bf6ff573 3eb32058 bf6fd25a     .c.>s.o.X .>Z.o.
   12d00:	3eb3dca5 bf6faf1b 3eb498d6 bf6f8bb8     ...>..o....>..o.
   12d10:	3eb554ec bf6f6830 3eb610e6 bf6f4483     .T.>0ho....>.Do.
   12d20:	3eb6ccc3 bf6f20b0 3eb78884 bf6efcba     ...>. o....>..n.
   12d30:	3eb8442a bf6ed89e 3eb8ffb2 bf6eb45d     *D.>..n....>].n.
   12d40:	3eb9bb1e bf6e8ff8 3eba766e bf6e6b6d     ...>..n.nv.>mkn.
   12d50:	3ebb31a0 bf6e46be 3ebbecb6 bf6e21eb     .1.>.Fn....>.!n.
   12d60:	3ebca7af bf6dfcf2 3ebd628b bf6dd7d5     ...>..m..b.>..m.
   12d70:	3ebe1d4a bf6db293 3ebed7eb bf6d8d2d     J..>..m....>-.m.
   12d80:	3ebf926f bf6d67a1 3ec04cd5 bf6d41f2     o..>.gm..L.>.Am.
   12d90:	3ec1071e bf6d1c1d 3ec1c148 bf6cf624     ...>..m.H..>$.l.
   12da0:	3ec27b55 bf6cd007 3ec33544 bf6ca9c5     U{.>..l.D5.>..l.
   12db0:	3ec3ef15 bf6c835e 3ec4a8c8 bf6c5cd4     ...>^.l....>.\l.
   12dc0:	3ec5625c bf6c3624 3ec61bd2 bf6c0f50     \b.>$6l....>P.l.
   12dd0:	3ec6d529 bf6be858 3ec78e62 bf6bc13b     )..>X.k.b..>;.k.
   12de0:	3ec8477c bf6b99fb 3ec90077 bf6b7295     |G.>..k.w..>.rk.
   12df0:	3ec9b953 bf6b4b0c 3eca7210 bf6b235e     S..>.Kk..r.>^#k.
   12e00:	3ecb2aae bf6afb8c 3ecbe32c bf6ad395     .*.>..j.,..>..j.
   12e10:	3ecc9b8b bf6aab7b 3ecd53ca bf6a833c     ...>{.j..S.><.j.
   12e20:	3ece0bea bf6a5ad9 3ecec3ea bf6a3252     ...>.Zj....>R2j.
   12e30:	3ecf7bca bf6a09a7 3ed0338a bf69e0d7     .{.>..j..3.>..i.
   12e40:	3ed0eb2a bf69b7e4 3ed1a2aa bf698ecc     *..>..i....>..i.
   12e50:	3ed25a09 bf696591 3ed31148 bf693c32     .Z.>.ei.H..>2<i.
   12e60:	3ed3c867 bf6912ae 3ed47f64 bf68e907     g..>..i.d..>..h.
   12e70:	3ed53641 bf68bf3c 3ed5ecfd bf68954c     A6.><.h....>L.h.
   12e80:	3ed6a399 bf686b39 3ed75a13 bf684103     ...>9kh..Z.>.Ah.
   12e90:	3ed8106b bf6816a8 3ed8c6a3 bf67ec2a     k..>..h....>*.g.
   12ea0:	3ed97cb9 bf67c187 3eda32ad bf6796c1     .|.>..g..2.>..g.
   12eb0:	3edae880 bf676bd8 3edb9e31 bf6740ca     ...>.kg.1..>.@g.
   12ec0:	3edc53c1 bf671599 3edd092e bf66ea45     .S.>..g....>E.f.
   12ed0:	3eddbe79 bf66becc 3ede73a2 bf669330     y..>..f..s.>0.f.
   12ee0:	3edf28a9 bf666771 3edfdd8d bf663b8e     .(.>qgf....>.;f.
   12ef0:	3ee0924f bf660f88 3ee146ee bf65e35e     O..>..f..F.>^.e.
   12f00:	3ee1fb6a bf65b710 3ee2afc4 bf658aa0     j..>..e....>..e.
   12f10:	3ee363fa bf655e0b 3ee4180e bf653154     .c.>.^e....>T1e.
   12f20:	3ee4cbfe bf650479 3ee57fcb bf64d77b     ...>y.e....>{.d.
   12f30:	3ee63375 bf64aa59 3ee6e6fb bf647d14     u3.>Y.d....>.}d.
   12f40:	3ee79a5d bf644fac 3ee84d9c bf642221     ]..>.Od..M.>!"d.
   12f50:	3ee900b7 bf63f473 3ee9b3ae bf63c6a1     ...>s.c....>..c.
   12f60:	3eea6681 bf6398ac 3eeb1930 bf636a95     .f.>..c.0..>.jc.
   12f70:	3eebcbbb bf633c5a 3eec7e21 bf630dfc     ...>Z<c.!~.>..c.
   12f80:	3eed3063 bf62df7b 3eede280 bf62b0d7     c0.>{.b....>..b.
   12f90:	3eee9479 bf628210 3eef464c bf625326     y..>..b.LF.>&Sb.
   12fa0:	3eeff7fb bf62241a 3ef0a985 bf61f4ea     ...>.$b....>..a.
   12fb0:	3ef15aea bf61c598 3ef20c29 bf619622     .Z.>..a.)..>".a.
   12fc0:	3ef2bd43 bf61668a 3ef36e38 bf6136d0     C..>.fa.8n.>.6a.
   12fd0:	3ef41f07 bf6106f2 3ef4cfb1 bf60d6f2     ...>..a....>..`.
   12fe0:	3ef58035 bf60a6cf 3ef63093 bf607689     5..>..`..0.>.v`.
   12ff0:	3ef6e0cb bf604621 3ef790dc bf601596     ...>!F`....>..`.
   13000:	3ef840c8 bf5fe4e9 3ef8f08e bf5fb419     .@.>.._....>.._.
   13010:	3ef9a02d bf5f8327 3efa4fa5 bf5f5212     -..>'._..O.>.R_.
   13020:	3efafef7 bf5f20db 3efbae22 bf5eef81     ...>. _."..>..^.
   13030:	3efc5d27 bf5ebe05 3efd0c04 bf5e8c67     '].>..^....>g.^.
   13040:	3efdbabb bf5e5aa6 3efe694a bf5e28c3     ...>.Z^.Ji.>.(^.
   13050:	3eff17b2 bf5df6be 3effc5f3 bf5dc497     ...>..]....>..].
   13060:	3f003a06 bf5d924d 3f0090ff bf5d5fe1     .:.?M.]....?._].
   13070:	3f00e7e4 bf5d2d53 3f013eb5 bf5cfaa3     ...?S-]..>.?..\.
   13080:	3f019573 bf5cc7d1 3f01ec1c bf5c94dd     s..?..\....?..\.
   13090:	3f0242b1 bf5c61c7 3f029932 bf5c2e8e     .B.?.a\.2..?..\.
   130a0:	3f02ef9f bf5bfb34 3f0345f8 bf5bc7b8     ...?4.[..E.?..[.
   130b0:	3f039c3d bf5b941a 3f03f26d bf5b605a     =..?..[.m..?Z`[.
   130c0:	3f044889 bf5b2c79 3f049e91 bf5af875     .H.?y,[....?u.Z.
   130d0:	3f04f484 bf5ac450 3f054a62 bf5a9009     ...?P.Z.bJ.?..Z.
   130e0:	3f05a02c bf5a5ba0 3f05f5e2 bf5a2716     ,..?.[Z....?.'Z.
   130f0:	3f064b82 bf59f26a 3f06a10e bf59bd9c     .K.?j.Y....?..Y.
   13100:	3f06f686 bf5988ad 3f074be8 bf59539c     ...?..Y..K.?.SY.
   13110:	3f07a136 bf591e6a 3f07f66f bf58e917     6..?j.Y.o..?..X.
   13120:	3f084b92 bf58b3a1 3f08a0a1 bf587e0b     .K.?..X....?.~X.
   13130:	3f08f59b bf584853 3f094a7f bf581279     ...?SHX..J.?y.X.
   13140:	3f099f4e bf57dc7f 3f09f409 bf57a663     N..?..W....?c.W.
   13150:	3f0a48ad bf577026 3f0a9d3d bf5739c7     .H.?&pW.=..?.9W.
   13160:	3f0af1b7 bf570348 3f0b461c bf56cca7     ...?H.W..F.?..V.
   13170:	3f0b9a6b bf5695e5 3f0beea5 bf565f02     k..?..V....?._V.
   13180:	3f0c42c9 bf5627fe 3f0c96d7 bf55f0d9     .B.?.'V....?..U.
   13190:	3f0cead0 bf55b993 3f0d3eb3 bf55822c     ...?..U..>.?,.U.
   131a0:	3f0d9281 bf554aa4 3f0de638 bf5512fb     ...?.JU.8..?..U.
   131b0:	3f0e39da bf54db31 3f0e8d65 bf54a347     .9.?1.T.e..?G.T.
   131c0:	3f0ee0db bf546b3b 3f0f343b bf54330f     ...?;kT.;4.?.3T.
   131d0:	3f0f8784 bf53fac3 3f0fdab8 bf53c255     ...?..S....?U.S.
   131e0:	3f102dd5 bf5389c7 3f1080dc bf535118     .-.?..S....?.QS.
   131f0:	3f10d3cd bf531849 3f1126a7 bf52df59     ...?I.S..&.?Y.R.
   13200:	3f11796b bf52a649 3f11cc19 bf526d18     ky.?I.R....?.mR.
   13210:	3f121eb0 bf5233c6 3f127130 bf51fa54     ...?.3R.0q.?T.Q.
   13220:	3f12c39a bf51c0c2 3f1315ee bf518710     ...?..Q....?..Q.
   13230:	3f13682a bf514d3d 3f13ba50 bf51134a     *h.?=MQ.P..?J.Q.
   13240:	3f140c5f bf50d937 3f145e58 bf509f03     _..?7.P.X^.?..P.
   13250:	3f14b039 bf5064af 3f150204 bf502a3b     9..?.dP....?;*P.
   13260:	3f1553b7 bf4fefa8 3f15a554 bf4fb4f4     .S.?..O.T..?..O.
   13270:	3f15f6d9 bf4f7a1f 3f164847 bf4f3f2b     ...?.zO.GH.?+?O.
   13280:	3f16999f bf4f0417 3f16eadf bf4ec8e4     ...?..O....?..N.
   13290:	3f173c07 bf4e8d90 3f178d18 bf4e521c     .<.?..N....?.RN.
   132a0:	3f17de12 bf4e1689 3f182ef5 bf4ddad5     ...?..N....?..M.
   132b0:	3f187fc0 bf4d9f02 3f18d073 bf4d6310     ...?..M.s..?.cM.
   132c0:	3f19210f bf4d26fd 3f197194 bf4ceacb     .!.?.&M..q.?..L.
   132d0:	3f19c200 bf4cae79 3f1a1255 bf4c7208     ...?y.L.U..?.rL.
   132e0:	3f1a6293 bf4c3578 3f1ab2b8 bf4bf8c7     .b.?x5L....?..K.
   132f0:	3f1b02c6 bf4bbbf8 3f1b52bb bf4b7f09     ...?..K..R.?..K.
   13300:	3f1ba299 bf4b41fa 3f1bf25f bf4b04cc     ...?.AK._..?..K.
   13310:	3f1c420c bf4ac77f 3f1c91a2 bf4a8a13     .B.?..J....?..J.
   13320:	3f1ce11f bf4a4c87 3f1d3084 bf4a0edc     ...?.LJ..0.?..J.
   13330:	3f1d7fd1 bf49d112 3f1dcf06 bf499329     ...?..I....?).I.
   13340:	3f1e1e22 bf495521 3f1e6d26 bf4916fa     "..?!UI.&m.?..I.
   13350:	3f1ebc12 bf48d8b3 3f1f0ae5 bf489a4e     ...?..H....?N.H.
   13360:	3f1f599f bf485bca 3f1fa841 bf481d27     .Y.?.[H.A..?'.H.
   13370:	3f1ff6cb bf47de65 3f20453b bf479f84     ...?e.G.;E ?..G.
   13380:	3f209393 bf476085 3f20e1d2 bf472167     .. ?.`G... ?g!G.
   13390:	3f212ff9 bf46e22a 3f217e06 bf46a2ce     ./!?*.F..~!?..F.
   133a0:	3f21cbfb bf466354 3f2219d7 bf4623bb     ..!?TcF..."?.#F.
   133b0:	3f226799 bf45e403 3f22b543 bf45a42d     .g"?..E.C."?-.E.
   133c0:	3f2302d3 bf456439 3f23504b bf452426     ..#?9dE.KP#?&$E.
   133d0:	3f239da9 bf44e3f5 3f23eaee bf44a3a5     ..#?..D...#?..D.
   133e0:	3f24381a bf446337 3f24852c bf4422ab     .8$?7cD.,.$?."D.
   133f0:	3f24d225 bf43e200 3f251f04 bf43a138     %.$?..C...%?8.C.
   13400:	3f256bcb bf436051 3f25b877 bf431f4c     .k%?Q`C.w.%?L.C.
   13410:	3f26050a bf42de29 3f265184 bf429ce8     ..&?).B..Q&?..B.
   13420:	3f269de3 bf425b89 3f26ea2a bf421a0b     ..&?.[B.*.&?..B.
   13430:	3f273656 bf41d870 3f278268 bf4196b7     V6'?p.A.h.'?..A.
   13440:	3f27ce61 bf4154e1 3f281a40 bf4112ec     a.'?.TA.@.(?..A.
   13450:	3f286605 bf40d0da 3f28b1b0 bf408ea9     .f(?..@...(?..@.
   13460:	3f28fd41 bf404c5c 3f2948b8 bf4009f0     A.(?\L@..H)?..@.
   13470:	3f299415 bf3fc767 3f29df57 bf3f84c0     ..)?g.?.W.)?..?.
   13480:	3f2a2a80 bf3f41fc 3f2a758e bf3eff1b     .**?.A?..u*?..>.
   13490:	3f2ac082 bf3ebc1b 3f2b0b5b bf3e78ff     ..*?..>.[.+?.x>.
   134a0:	3f2b561b bf3e35c5 3f2ba0bf bf3df26e     .V+?.5>...+?n.=.
   134b0:	3f2beb4a bf3daef9 3f2c35b9 bf3d6b67     J.+?..=..5,?gk=.
   134c0:	3f2c800f bf3d27b8 3f2cca49 bf3ce3ec     ..,?.'=.I.,?..<.
   134d0:	3f2d1469 bf3ca003 3f2d5e6f bf3c5bfc     i.-?..<.o^-?.[<.
   134e0:	3f2da859 bf3c17d9 3f2df229 bf3bd398     Y.-?..<.).-?..;.
   134f0:	3f2e3bde bf3b8f3b 3f2e8578 bf3b4ac1     .;.?;.;.x..?.J;.
   13500:	3f2ecef7 bf3b0629 3f2f185b bf3ac175     ...?).;.[./?u.:.
   13510:	3f2f61a5 bf3a7ca4 3f2faad3 bf3a37b7     .a/?.|:.../?.7:.
   13520:	3f2ff3e6 bf39f2ac 3f303cde bf39ad85     ../?..9..<0?..9.
   13530:	3f3085bb bf396842 3f30ce7c bf3922e1     ..0?Bh9.|.0?."9.
   13540:	3f311722 bf38dd65 3f315fad bf3897cb     ".1?e.8.._1?..8.
   13550:	3f31a81d bf385216 3f31f071 bf380c43     ..1?.R8.q.1?C.8.
   13560:	3f3238aa bf37c655 3f3280c7 bf37804a     .82?U.7...2?J.7.
   13570:	3f32c8c9 bf373a23 3f3310af bf36f3df     ..2?#:7...3?..6.
   13580:	3f33587a bf36ad7f 3f33a029 bf366704     zX3?..6.).3?.g6.
   13590:	3f33e7bc bf36206c 3f342f34 bf35d9b8     ..3?l 6.4/4?..5.
   135a0:	3f34768f bf3592e7 3f34bdcf bf354bfb     .v4?..5...4?.K5.
   135b0:	3f3504f3 bf3504f3 3f354bfb bf34bdcf     ..5?..5..K5?..4.
   135c0:	3f3592e7 bf34768f 3f35d9b8 bf342f34     ..5?.v4...5?4/4.
   135d0:	3f36206c bf33e7bc 3f366704 bf33a029     l 6?..3..g6?).3.
   135e0:	3f36ad7f bf33587a 3f36f3df bf3310af     ..6?zX3...6?..3.
   135f0:	3f373a23 bf32c8c9 3f37804a bf3280c7     #:7?..2.J.7?..2.
   13600:	3f37c655 bf3238aa 3f380c43 bf31f071     U.7?.82.C.8?q.1.
   13610:	3f385216 bf31a81d 3f3897cb bf315fad     .R8?..1...8?._1.
   13620:	3f38dd65 bf311722 3f3922e1 bf30ce7c     e.8?".1.."9?|.0.
   13630:	3f396842 bf3085bb 3f39ad85 bf303cde     Bh9?..0...9?.<0.
   13640:	3f39f2ac bf2ff3e6 3f3a37b7 bf2faad3     ..9?../..7:?../.
   13650:	3f3a7ca4 bf2f61a5 3f3ac175 bf2f185b     .|:?.a/.u.:?[./.
   13660:	3f3b0629 bf2ecef7 3f3b4ac1 bf2e8578     ).;?.....J;?x...
   13670:	3f3b8f3b bf2e3bde 3f3bd398 bf2df229     ;.;?.;....;?).-.
   13680:	3f3c17d9 bf2da859 3f3c5bfc bf2d5e6f     ..<?Y.-..[<?o^-.
   13690:	3f3ca003 bf2d1469 3f3ce3ec bf2cca49     ..<?i.-...<?I.,.
   136a0:	3f3d27b8 bf2c800f 3f3d6b67 bf2c35b9     .'=?..,.gk=?.5,.
   136b0:	3f3daef9 bf2beb4a 3f3df26e bf2ba0bf     ..=?J.+.n.=?..+.
   136c0:	3f3e35c5 bf2b561b 3f3e78ff bf2b0b5b     .5>?.V+..x>?[.+.
   136d0:	3f3ebc1b bf2ac082 3f3eff1b bf2a758e     ..>?..*...>?.u*.
   136e0:	3f3f41fc bf2a2a80 3f3f84c0 bf29df57     .A??.**...??W.).
   136f0:	3f3fc767 bf299415 3f4009f0 bf2948b8     g.??..)...@?.H).
   13700:	3f404c5c bf28fd41 3f408ea9 bf28b1b0     \L@?A.(...@?..(.
   13710:	3f40d0da bf286605 3f4112ec bf281a40     ..@?.f(...A?@.(.
   13720:	3f4154e1 bf27ce61 3f4196b7 bf278268     .TA?a.'...A?h.'.
   13730:	3f41d870 bf273656 3f421a0b bf26ea2a     p.A?V6'...B?*.&.
   13740:	3f425b89 bf269de3 3f429ce8 bf265184     .[B?..&...B?.Q&.
   13750:	3f42de29 bf26050a 3f431f4c bf25b877     ).B?..&.L.C?w.%.
   13760:	3f436051 bf256bcb 3f43a138 bf251f04     Q`C?.k%.8.C?..%.
   13770:	3f43e200 bf24d225 3f4422ab bf24852c     ..C?%.$.."D?,.$.
   13780:	3f446337 bf24381a 3f44a3a5 bf23eaee     7cD?.8$...D?..#.
   13790:	3f44e3f5 bf239da9 3f452426 bf23504b     ..D?..#.&$E?KP#.
   137a0:	3f456439 bf2302d3 3f45a42d bf22b543     9dE?..#.-.E?C.".
   137b0:	3f45e403 bf226799 3f4623bb bf2219d7     ..E?.g"..#F?..".
   137c0:	3f466354 bf21cbfb 3f46a2ce bf217e06     TcF?..!...F?.~!.
   137d0:	3f46e22a bf212ff9 3f472167 bf20e1d2     *.F?./!.g!G?.. .
   137e0:	3f476085 bf209393 3f479f84 bf20453b     .`G?.. ...G?;E .
   137f0:	3f47de65 bf1ff6cb 3f481d27 bf1fa841     e.G?....'.H?A...
   13800:	3f485bca bf1f599f 3f489a4e bf1f0ae5     .[H?.Y..N.H?....
   13810:	3f48d8b3 bf1ebc12 3f4916fa bf1e6d26     ..H?......I?&m..
   13820:	3f495521 bf1e1e22 3f499329 bf1dcf06     !UI?"...).I?....
   13830:	3f49d112 bf1d7fd1 3f4a0edc bf1d3084     ..I?......J?.0..
   13840:	3f4a4c87 bf1ce11f 3f4a8a13 bf1c91a2     .LJ?......J?....
   13850:	3f4ac77f bf1c420c 3f4b04cc bf1bf25f     ..J?.B....K?_...
   13860:	3f4b41fa bf1ba299 3f4b7f09 bf1b52bb     .AK?......K?.R..
   13870:	3f4bbbf8 bf1b02c6 3f4bf8c7 bf1ab2b8     ..K?......K?....
   13880:	3f4c3578 bf1a6293 3f4c7208 bf1a1255     x5L?.b...rL?U...
   13890:	3f4cae79 bf19c200 3f4ceacb bf197194     y.L?......L?.q..
   138a0:	3f4d26fd bf19210f 3f4d6310 bf18d073     .&M?.!...cM?s...
   138b0:	3f4d9f02 bf187fc0 3f4ddad5 bf182ef5     ..M?......M?....
   138c0:	3f4e1689 bf17de12 3f4e521c bf178d18     ..N?.....RN?....
   138d0:	3f4e8d90 bf173c07 3f4ec8e4 bf16eadf     ..N?.<....N?....
   138e0:	3f4f0417 bf16999f 3f4f3f2b bf164847     ..O?....+?O?GH..
   138f0:	3f4f7a1f bf15f6d9 3f4fb4f4 bf15a554     .zO?......O?T...
   13900:	3f4fefa8 bf1553b7 3f502a3b bf150204     ..O?.S..;*P?....
   13910:	3f5064af bf14b039 3f509f03 bf145e58     .dP?9.....P?X^..
   13920:	3f50d937 bf140c5f 3f51134a bf13ba50     7.P?_...J.Q?P...
   13930:	3f514d3d bf13682a 3f518710 bf1315ee     =MQ?*h....Q?....
   13940:	3f51c0c2 bf12c39a 3f51fa54 bf127130     ..Q?....T.Q?0q..
   13950:	3f5233c6 bf121eb0 3f526d18 bf11cc19     .3R?.....mR?....
   13960:	3f52a649 bf11796b 3f52df59 bf1126a7     I.R?ky..Y.R?.&..
   13970:	3f531849 bf10d3cd 3f535118 bf1080dc     I.S?.....QS?....
   13980:	3f5389c7 bf102dd5 3f53c255 bf0fdab8     ..S?.-..U.S?....
   13990:	3f53fac3 bf0f8784 3f54330f bf0f343b     ..S?.....3T?;4..
   139a0:	3f546b3b bf0ee0db 3f54a347 bf0e8d65     ;kT?....G.T?e...
   139b0:	3f54db31 bf0e39da 3f5512fb bf0de638     1.T?.9....U?8...
   139c0:	3f554aa4 bf0d9281 3f55822c bf0d3eb3     .JU?....,.U?.>..
   139d0:	3f55b993 bf0cead0 3f55f0d9 bf0c96d7     ..U?......U?....
   139e0:	3f5627fe bf0c42c9 3f565f02 bf0beea5     .'V?.B..._V?....
   139f0:	3f5695e5 bf0b9a6b 3f56cca7 bf0b461c     ..V?k.....V?.F..
   13a00:	3f570348 bf0af1b7 3f5739c7 bf0a9d3d     H.W?.....9W?=...
   13a10:	3f577026 bf0a48ad 3f57a663 bf09f409     &pW?.H..c.W?....
   13a20:	3f57dc7f bf099f4e 3f581279 bf094a7f     ..W?N...y.X?.J..
   13a30:	3f584853 bf08f59b 3f587e0b bf08a0a1     SHX?.....~X?....
   13a40:	3f58b3a1 bf084b92 3f58e917 bf07f66f     ..X?.K....X?o...
   13a50:	3f591e6a bf07a136 3f59539c bf074be8     j.Y?6....SY?.K..
   13a60:	3f5988ad bf06f686 3f59bd9c bf06a10e     ..Y?......Y?....
   13a70:	3f59f26a bf064b82 3f5a2716 bf05f5e2     j.Y?.K...'Z?....
   13a80:	3f5a5ba0 bf05a02c 3f5a9009 bf054a62     .[Z?,.....Z?bJ..
   13a90:	3f5ac450 bf04f484 3f5af875 bf049e91     P.Z?....u.Z?....
   13aa0:	3f5b2c79 bf044889 3f5b605a bf03f26d     y,[?.H..Z`[?m...
   13ab0:	3f5b941a bf039c3d 3f5bc7b8 bf0345f8     ..[?=.....[?.E..
   13ac0:	3f5bfb34 bf02ef9f 3f5c2e8e bf029932     4.[?......\?2...
   13ad0:	3f5c61c7 bf0242b1 3f5c94dd bf01ec1c     .a\?.B....\?....
   13ae0:	3f5cc7d1 bf019573 3f5cfaa3 bf013eb5     ..\?s.....\?.>..
   13af0:	3f5d2d53 bf00e7e4 3f5d5fe1 bf0090ff     S-]?....._]?....
   13b00:	3f5d924d bf003a06 3f5dc497 beffc5f3     M.]?.:....]?....
   13b10:	3f5df6be beff17b2 3f5e28c3 befe694a     ..]?.....(^?Ji..
   13b20:	3f5e5aa6 befdbabb 3f5e8c67 befd0c04     .Z^?....g.^?....
   13b30:	3f5ebe05 befc5d27 3f5eef81 befbae22     ..^?']....^?"...
   13b40:	3f5f20db befafef7 3f5f5212 befa4fa5     . _?.....R_?.O..
   13b50:	3f5f8327 bef9a02d 3f5fb419 bef8f08e     '._?-....._?....
   13b60:	3f5fe4e9 bef840c8 3f601596 bef790dc     .._?.@....`?....
   13b70:	3f604621 bef6e0cb 3f607689 bef63093     !F`?.....v`?.0..
   13b80:	3f60a6cf bef58035 3f60d6f2 bef4cfb1     ..`?5.....`?....
   13b90:	3f6106f2 bef41f07 3f6136d0 bef36e38     ..a?.....6a?8n..
   13ba0:	3f61668a bef2bd43 3f619622 bef20c29     .fa?C...".a?)...
   13bb0:	3f61c598 bef15aea 3f61f4ea bef0a985     ..a?.Z....a?....
   13bc0:	3f62241a beeff7fb 3f625326 beef464c     .$b?....&Sb?LF..
   13bd0:	3f628210 beee9479 3f62b0d7 beede280     ..b?y.....b?....
   13be0:	3f62df7b beed3063 3f630dfc beec7e21     {.b?c0....c?!~..
   13bf0:	3f633c5a beebcbbb 3f636a95 beeb1930     Z<c?.....jc?0...
   13c00:	3f6398ac beea6681 3f63c6a1 bee9b3ae     ..c?.f....c?....
   13c10:	3f63f473 bee900b7 3f642221 bee84d9c     s.c?....!"d?.M..
   13c20:	3f644fac bee79a5d 3f647d14 bee6e6fb     .Od?]....}d?....
   13c30:	3f64aa59 bee63375 3f64d77b bee57fcb     Y.d?u3..{.d?....
   13c40:	3f650479 bee4cbfe 3f653154 bee4180e     y.e?....T1e?....
   13c50:	3f655e0b bee363fa 3f658aa0 bee2afc4     .^e?.c....e?....
   13c60:	3f65b710 bee1fb6a 3f65e35e bee146ee     ..e?j...^.e?.F..
   13c70:	3f660f88 bee0924f 3f663b8e bedfdd8d     ..f?O....;f?....
   13c80:	3f666771 bedf28a9 3f669330 bede73a2     qgf?.(..0.f?.s..
   13c90:	3f66becc beddbe79 3f66ea45 bedd092e     ..f?y...E.f?....
   13ca0:	3f671599 bedc53c1 3f6740ca bedb9e31     ..g?.S...@g?1...
   13cb0:	3f676bd8 bedae880 3f6796c1 beda32ad     .kg?......g?.2..
   13cc0:	3f67c187 bed97cb9 3f67ec2a bed8c6a3     ..g?.|..*.g?....
   13cd0:	3f6816a8 bed8106b 3f684103 bed75a13     ..h?k....Ah?.Z..
   13ce0:	3f686b39 bed6a399 3f68954c bed5ecfd     9kh?....L.h?....
   13cf0:	3f68bf3c bed53641 3f68e907 bed47f64     <.h?A6....h?d...
   13d00:	3f6912ae bed3c867 3f693c32 bed31148     ..i?g...2<i?H...
   13d10:	3f696591 bed25a09 3f698ecc bed1a2aa     .ei?.Z....i?....
   13d20:	3f69b7e4 bed0eb2a 3f69e0d7 bed0338a     ..i?*.....i?.3..
   13d30:	3f6a09a7 becf7bca 3f6a3252 becec3ea     ..j?.{..R2j?....
   13d40:	3f6a5ad9 bece0bea 3f6a833c becd53ca     .Zj?....<.j?.S..
   13d50:	3f6aab7b becc9b8b 3f6ad395 becbe32c     {.j?......j?,...
   13d60:	3f6afb8c becb2aae 3f6b235e beca7210     ..j?.*..^#k?.r..
   13d70:	3f6b4b0c bec9b953 3f6b7295 bec90077     .Kk?S....rk?w...
   13d80:	3f6b99fb bec8477c 3f6bc13b bec78e62     ..k?|G..;.k?b...
   13d90:	3f6be858 bec6d529 3f6c0f50 bec61bd2     X.k?)...P.l?....
   13da0:	3f6c3624 bec5625c 3f6c5cd4 bec4a8c8     $6l?\b...\l?....
   13db0:	3f6c835e bec3ef15 3f6ca9c5 bec33544     ^.l?......l?D5..
   13dc0:	3f6cd007 bec27b55 3f6cf624 bec1c148     ..l?U{..$.l?H...
   13dd0:	3f6d1c1d bec1071e 3f6d41f2 bec04cd5     ..m?.....Am?.L..
   13de0:	3f6d67a1 bebf926f 3f6d8d2d bebed7eb     .gm?o...-.m?....
   13df0:	3f6db293 bebe1d4a 3f6dd7d5 bebd628b     ..m?J.....m?.b..
   13e00:	3f6dfcf2 bebca7af 3f6e21eb bebbecb6     ..m?.....!n?....
   13e10:	3f6e46be bebb31a0 3f6e6b6d beba766e     .Fn?.1..mkn?nv..
   13e20:	3f6e8ff8 beb9bb1e 3f6eb45d beb8ffb2     ..n?....].n?....
   13e30:	3f6ed89e beb8442a 3f6efcba beb78884     ..n?*D....n?....
   13e40:	3f6f20b0 beb6ccc3 3f6f4483 beb610e6     . o?.....Do?....
   13e50:	3f6f6830 beb554ec 3f6f8bb8 beb498d6     0ho?.T....o?....
   13e60:	3f6faf1b beb3dca5 3f6fd25a beb32058     ..o?....Z.o?X ..
   13e70:	3f6ff573 beb263ef 3f701867 beb1a76b     s.o?.c..g.p?k...
   13e80:	3f703b37 beb0eacb 3f705de1 beb02e10     7;p?.....]p?....
   13e90:	3f708066 beaf713a 3f70a2c6 beaeb449     f.p?:q....p?I...
   13ea0:	3f70c502 beadf73c 3f70e717 bead3a15     ..p?<.....p?.:..
   13eb0:	3f710908 beac7cd4 3f712ad4 beabbf77     ..q?.|...*q?w...
   13ec0:	3f714c7a beab0201 3f716dfb beaa446f     zLq?.....mq?oD..
   13ed0:	3f718f57 bea986c4 3f71b08e bea8c8fe     W.q?......q?....
   13ee0:	3f71d19f bea80b1f 3f71f28c bea74d25     ..q?......q?%M..
   13ef0:	3f721352 bea68f12 3f7233f4 bea5d0e5     R.r?.....3r?....
   13f00:	3f725470 bea5129f 3f7274c7 bea4543f     pTr?.....tr??T..
   13f10:	3f7294f8 bea395c5 3f72b504 bea2d733     ..r?......r?3...
   13f20:	3f72d4eb bea21887 3f72f4ac bea159c2     ..r?......r?.Y..
   13f30:	3f731447 bea09ae5 3f7333be be9fdbee     G.s?.....3s?....
   13f40:	3f73530e be9f1cdf 3f737239 be9e5db8     .Ss?....9rs?.]..
   13f50:	3f73913f be9d9e78 3f73b01f be9cdf20     ?.s?x.....s? ...
   13f60:	3f73ced9 be9c1faf 3f73ed6e be9b6027     ..s?....n.s?'`..
   13f70:	3f740bdd be9aa086 3f742a27 be99e0ce     ..t?....'*t?....
   13f80:	3f74484b be9920fe 3f746649 be986116     KHt?. ..Ift?.a..
   13f90:	3f748422 be97a117 3f74a1d5 be96e100     ".t?......t?....
   13fa0:	3f74bf62 be9620d2 3f74dcc9 be95608d     b.t?. ....t?.`..
   13fb0:	3f74fa0b be94a031 3f751727 be93dfbf     ..t?1...'.u?....
   13fc0:	3f75341d be931f35 3f7550ed be925e94     .4u?5....Pu?.^..
   13fd0:	3f756d97 be919ddd 3f758a1c be90dd10     .mu?......u?....
   13fe0:	3f75a67b be901c2c 3f75c2b3 be8f5b32     {.u?,.....u?2[..
   13ff0:	3f75dec6 be8e9a22 3f75fab3 be8dd8fc     ..u?".....u?....
   14000:	3f76167a be8d17c0 3f76321b be8c566e     z.v?.....2v?nV..
   14010:	3f764d97 be8b9507 3f7668ec be8ad38a     .Mv?.....hv?....
   14020:	3f76841b be8a11f8 3f769f24 be895050     ..v?....$.v?PP..
   14030:	3f76ba07 be888e93 3f76d4c4 be87ccc1     ..v?......v?....
   14040:	3f76ef5b be870ada 3f7709cc be8648df     [.v?......w?.H..
   14050:	3f772417 be8586ce 3f773e3c be84c4aa     .$w?....<>w?....
   14060:	3f77583a be840270 3f777213 be834022     :Xw?p....rw?"@..
   14070:	3f778bc5 be827dc0 3f77a551 be81bb4a     ..w?.}..Q.w?J...
   14080:	3f77beb7 be80f8c0 3f77d7f7 be803622     ..w?......w?"6..
   14090:	3f77f110 be7ee6e1 3f780a04 be7d6156     ..w?..~...x?Va}.
   140a0:	3f7822d1 be7bdba4 3f783b77 be7a55cb     ."x?..{.w;x?.Uz.
   140b0:	3f7853f8 be78cfcc 3f786c52 be7749a6     .Sx?..x.Rlx?.Iw.
   140c0:	3f788486 be75c35a 3f789c93 be743ce8     ..x?Z.u...x?.<t.
   140d0:	3f78b47b be72b651 3f78cc3b be712f94     {.x?Q.r.;.x?./q.
   140e0:	3f78e3d6 be6fa8b2 3f78fb4a be6e21ab     ..x?..o.J.x?.!n.
   140f0:	3f791298 be6c9a7f 3f7929bf be6b132f     ..y?..l..)y?/.k.
   14100:	3f7940c0 be698bba 3f79579a be680422     .@y?..i..Wy?".h.
   14110:	3f796e4e be667c66 3f7984dc be64f486     Nny?f|f...y?..d.
   14120:	3f799b43 be636c83 3f79b183 be61e45c     C.y?.lc...y?\.a.
   14130:	3f79c79d be605c13 3f79dd91 be5ed3a8     ..y?.\`...y?..^.
   14140:	3f79f35e be5d4b1a 3f7a0904 be5bc26a     ^.y?.K]...z?j.[.
   14150:	3f7a1e84 be5a3997 3f7a33dd be58b0a4     ..z?.9Z..3z?..X.
   14160:	3f7a4910 be57278f 3f7a5e1c be559e58     .Iz?.'W..^z?X.U.
   14170:	3f7a7302 be541501 3f7a87c1 be528b89     .sz?..T...z?..R.
   14180:	3f7a9c59 be5101f1 3f7ab0cb be4f7838     Y.z?..Q...z?8xO.
   14190:	3f7ac516 be4dee60 3f7ad93a be4c6467     ..z?`.M.:.z?gdL.
   141a0:	3f7aed37 be4ada4f 3f7b010e be495018     7.z?O.J...{?.PI.
   141b0:	3f7b14be be47c5c2 3f7b2848 be463b4d     ..{?..G.H({?M;F.
   141c0:	3f7b3bab be44b0b9 3f7b4ee7 be432607     .;{?..D..N{?.&C.
   141d0:	3f7b61fc be419b37 3f7b74ea be401049     .a{?7.A..t{?I.@.
   141e0:	3f7b87b2 be3e853e 3f7b9a53 be3cfa15     ..{?>.>.S.{?..<.
   141f0:	3f7baccd be3b6ecf 3f7bbf20 be39e36c     ..{?.n;. .{?l.9.
   14200:	3f7bd14d be3857ec 3f7be353 be36cc50     M.{?.W8.S.{?P.6.
   14210:	3f7bf531 be354098 3f7c06e9 be33b4c4     1.{?.@5...|?..3.
   14220:	3f7c187a be3228d4 3f7c29e5 be309cc9     z.|?.(2..)|?..0.
   14230:	3f7c3b28 be2f10a2 3f7c4c44 be2d8461     (;|?../.DL|?a.-.
   14240:	3f7c5d3a be2bf804 3f7c6e08 be2a6b8d     :]|?..+..n|?.k*.
   14250:	3f7c7eb0 be28defc 3f7c8f31 be275251     .~|?..(.1.|?QR'.
   14260:	3f7c9f8a be25c58c 3f7cafbd be2438ad     ..|?..%...|?.8$.
   14270:	3f7cbfc9 be22abb6 3f7ccfae be211ea5     ..|?.."...|?..!.
   14280:	3f7cdf6c be1f917b 3f7cef03 be1e0438     l.|?{.....|?8...
   14290:	3f7cfe73 be1c76de 3f7d0dbc be1ae96b     s.|?.v....}?k...
   142a0:	3f7d1cdd be195be0 3f7d2bd8 be17ce3d     ..}?.[...+}?=...
   142b0:	3f7d3aac be164083 3f7d4959 be14b2b2     .:}?.@..YI}?....
   142c0:	3f7d57de be1324ca 3f7d663d be1196cc     .W}?.$..=f}?....
   142d0:	3f7d7474 be1008b7 3f7d8285 be0e7a8b     tt}?......}?.z..
   142e0:	3f7d906e be0cec4a 3f7d9e30 be0b5df3     n.}?J...0.}?.]..
   142f0:	3f7dabcc be09cf86 3f7db940 be084105     ..}?....@.}?.A..
   14300:	3f7dc68c be06b26e 3f7dd3b2 be0523c2     ..}?n.....}?.#..
   14310:	3f7de0b1 be039502 3f7ded88 be02062e     ..}?......}?....
   14320:	3f7dfa38 be007745 3f7e06c2 bdfdd092     8.}?Ew....~?....
   14330:	3f7e1324 bdfab273 3f7e1f5e bdf7942c     $.~?s...^.~?,...
   14340:	3f7e2b72 bdf475c0 3f7e375e bdf1572e     r+~?.u..^7~?.W..
   14350:	3f7e4323 bdee3876 3f7e4ec1 bdeb199a     #C~?v8...N~?....
   14360:	3f7e5a38 bde7fa9a 3f7e6588 bde4db76     8Z~?.....e~?v...
   14370:	3f7e70b0 bde1bc2e 3f7e7bb1 bdde9cc4     .p~?.....{~?....
   14380:	3f7e868b bddb7d37 3f7e913d bdd85d89     ..~?7}..=.~?.]..
   14390:	3f7e9bc9 bdd53db9 3f7ea62d bdd21dc8     ..~?.=..-.~?....
   143a0:	3f7eb069 bdcefdb7 3f7eba7f bdcbdd86     i.~?......~?....
   143b0:	3f7ec46d bdc8bd36 3f7ece34 bdc59cc6     m.~?6...4.~?....
   143c0:	3f7ed7d4 bdc27c39 3f7ee14c bdbf5b8d     ..~?9|..L.~?.[..
   143d0:	3f7eea9d bdbc3ac3 3f7ef3c7 bdb919dd     ..~?.:....~?....
   143e0:	3f7efcc9 bdb5f8da 3f7f05a4 bdb2d7bb     ..~?.......?....
   143f0:	3f7f0e58 bdafb680 3f7f16e4 bdac952b     X..?.......?+...
   14400:	3f7f1f49 bda973ba 3f7f2787 bda65230     I..?.s...'.?0R..
   14410:	3f7f2f9d bda3308c 3f7f378d bda00ecf     ./.?.0...7.?....
   14420:	3f7f3f54 bd9cecf9 3f7f46f4 bd99cb0a     T?.?.....F.?....
   14430:	3f7f4e6d bd96a905 3f7f55bf bd9386e7     mN.?.....U.?....
   14440:	3f7f5ce9 bd9064b4 3f7f63ec bd8d426a     .\.?.d...c.?jB..
   14450:	3f7f6ac7 bd8a200a 3f7f717b bd86fd94     .j.?. ..{q.?....
   14460:	3f7f7808 bd83db0a 3f7f7e6d bd80b86c     .x.?....m~.?l...
   14470:	3f7f84ab bd7b2b74 3f7f8ac2 bd74e5e9     ...?t+{....?..t.
   14480:	3f7f90b1 bd6ea038 3f7f9678 bd685a62     ...?8.n.x..?bZh.
   14490:	3f7f9c18 bd621468 3f7fa191 bd5bce4c     ...?h.b....?L.[.
   144a0:	3f7fa6e3 bd55880e 3f7fac0d bd4f41af     ...?..U....?.AO.
   144b0:	3f7fb10f bd48fb2f 3f7fb5ea bd42b491     ...?/.H....?..B.
   144c0:	3f7fba9e bd3c6dd5 3f7fbf2a bd3626fc     ...?.m<.*..?.&6.
   144d0:	3f7fc38f bd2fe007 3f7fc7cc bd2998f6     ...?../....?..).
   144e0:	3f7fcbe2 bd2351cc 3f7fcfd1 bd1d0a88     ...?.Q#....?....
   144f0:	3f7fd398 bd16c32c 3f7fd737 bd107bb8     ...?,...7..?.{..
   14500:	3f7fdaaf bd0a342f 3f7fde00 bd03ec90     ...?/4.....?....
   14510:	3f7fe129 bcfb49b9 3f7fe42b bceeba2d     )..?.I..+..?-...
   14520:	3f7fe705 bce22a7b 3f7fe9b8 bcd59aa6     ...?{*.....?....
   14530:	3f7fec43 bcc90ab0 3f7feea7 bcbc7a9b     C..?.......?.z..
   14540:	3f7ff0e3 bcafea69 3f7ff2f8 bca35a1c     ...?i......?.Z..
   14550:	3f7ff4e6 bc96c9b6 3f7ff6ac bc8a3938     ...?.......?89..
   14560:	3f7ff84a bc7b514b 3f7ff9c1 bc623000     J..?KQ{....?.0b.
   14570:	3f7ffb11 bc490e90 3f7ffc39 bc2fed02     ...?..I.9..?../.
   14580:	3f7ffd39 bc16cb59 3f7ffe13 bbfb5330     9..?Y......?0S..
   14590:	3f7ffec4 bbc90f89 3f7fff4e bb96cbc1     ...?....N..?....
   145a0:	3f7fffb1 bb490fc7 3f7fffec bac90fd4     ...?..I....?....

000145b0 <armBitRevIndexTable16>:
   145b0:	00400008 00480018 00400010 00500028     ..@...H...@.(.P.
   145c0:	00400020 00580038 00480030 00680058      .@.8.X.0.H.X.h.
   145d0:	00600048 00700068                       H.`.h.p.

000145d8 <armBitRevIndexTable32>:
   145d8:	00400008 00800010 00c00018 00400020     ..@......... .@.
   145e8:	00480028 00880030 00c80038 00800040     (.H.0...8...@...
   145f8:	00500048 00d00058 00900050 00c00060     H.P.X...P...`...
   14608:	00d00068 00980070 00d80078 00c00088     h...p...x.......
   14618:	00a00090 00d000a8 00e00098 00d000b0     ................
   14628:	00e800b8 00f000d8 00e000c8 00f000e8     ................

00014638 <armBitRevIndexTable64>:
   14638:	00400008 00800010 00c00018 01000020     ..@......... ...
   14648:	01400028 01800030 01c00038 00880050     (.@.0...8...P...
   14658:	00c80058 01080060 01480068 01880070     X...`...h.H.p...
   14668:	01c80078 00d00098 011000a0 015000a8     x.............P.
   14678:	019000b0 01d000b8 011800e0 015800e8     ..............X.
   14688:	019800f0 01d800f8 01600128 01a00130     ........(.`.0...
   14698:	01e00138 01a80170 01e80178 01f001b8     8...p...x.......

000146a8 <armBitRevIndexTable128>:
   146a8:	02000008 00400010 02400018 00800020     ......@...@. ...
   146b8:	02800028 00c00030 02c00038 01000040     (...0...8...@...
   146c8:	03000048 01400050 03400058 01800060     H...P.@.X.@.`...
   146d8:	03800068 01c00070 03c00078 02000080     h...p...x.......
   146e8:	02080088 03000090 02480098 020800a0     ..........H.....
   146f8:	028800a8 00c800b0 02c800b8 010800c0     ................
   14708:	030800c8 014800d0 034800d8 018800e0     ......H...H.....
   14718:	038800e8 01c800f0 03c800f8 02100108     ................
   14728:	01400110 02500118 03000120 02900128     ..@...P. ...(...
   14738:	01480130 02d00138 03100148 03500158     0.H.8...H...X.P.
   14748:	01900160 03900168 01d00170 03d00178     `...h...p...x...
   14758:	02400180 02180188 03400190 02580198     ..@.......@...X.
   14768:	024801a0 029801a8 034801b0 02d801b8     ..H.......H.....
   14778:	025001c0 031801c8 035001d0 035801d8     ..P.......P...X.
   14788:	025801e0 039801e8 035801f0 03d801f8     ..X.......X.....
   14798:	02200208 02400210 02600218 02a00228     .. ...@...`.(...
   147a8:	02600230 02e00238 03000240 03200248     0.`.8...@...H. .
   147b8:	03400250 03600258 03200260 03a00268     P.@.X.`.`. .h...
   147c8:	03600270 03e00278 02a00288 03800290     p.`.x...........
   147d8:	03a00298 038802b0 02e802b8 038002c0     ................
   147e8:	032802c8 039002d0 036802d8 03a002e0     ..(.......h.....
   147f8:	03a802e8 039802f0 03e802f8 03200308     .............. .
   14808:	03400310 03600318 03880328 03600330     ..@...`.(...0.`.
   14818:	03980338 03600348 03700358 03b00368     8...H.`.X.p.h...
   14828:	03f00378 03a00388 03c00390 03e00398     x...............
   14838:	03c803b0 03e803b8 03e003c8 03f003d8     ................

00014848 <armBitRevIndexTable256>:
   14848:	02000008 04000010 06000018 00400020     ............ .@.
   14858:	02400028 04400030 06400038 00800040     (.@.0.@.8.@.@...
   14868:	02800048 04800050 06800058 00c00060     H...P...X...`...
   14878:	02c00068 04c00070 06c00078 01000080     h...p...x.......
   14888:	03000088 05000090 07000098 014000a0     ..............@.
   14898:	034000a8 054000b0 074000b8 018000c0     ..@...@...@.....
   148a8:	038000c8 058000d0 078000d8 01c000e0     ................
   148b8:	03c000e8 05c000f0 07c000f8 02000100     ................
   148c8:	02080108 04080110 06080118 02800120     ............ ...
   148d8:	02480128 04480130 06480138 03000140     (.H.0.H.8.H.@...
   148e8:	02880148 04880150 06880158 03800160     H...P...X...`...
   148f8:	02c80168 04c80170 06c80178 02080180     h...p...x.......
   14908:	03080188 05080190 07080198 028801a0     ................
   14918:	034801a8 054801b0 074801b8 030801c0     ..H...H...H.....
   14928:	038801c8 058801d0 078801d8 038801e0     ................
   14938:	03c801e8 05c801f0 07c801f8 02100208     ................
   14948:	04000200 04100210 06100218 04800220     ............ ...
   14958:	02500228 04500230 06500238 05000240     (.P.0.P.8.P.@...
   14968:	02900248 04900250 06900258 05800260     H...P...X...`...
   14978:	02d00268 04d00270 06d00278 04080280     h...p...x.......
   14988:	03100288 05100290 07100298 048802a0     ................
   14998:	035002a8 055002b0 075002b8 050802c0     ..P...P...P.....
   149a8:	039002c8 059002d0 079002d8 058802e0     ................
   149b8:	03d002e8 05d002f0 07d002f8 06000300     ................
   149c8:	06100308 04180310 06180318 06800320     ............ ...
   149d8:	06900328 04580330 06580338 07000340     (...0.X.8.X.@...
   149e8:	07100348 04980350 06980358 07800360     H...P...X...`...
   149f8:	07900368 04d80370 06d80378 06080380     h...p...x.......
   14a08:	06180388 05180390 07180398 068803a0     ................
   14a18:	069803a8 055803b0 075803b8 070803c0     ......X...X.....
   14a28:	071803c8 059803d0 079803d8 078803e0     ................
   14a38:	079803e8 05d803f0 07d803f8 04800408     ................
   14a48:	04200410 06200418 05800428 04600430     .. ... .(...0.`.
   14a58:	06600438 06000440 04880448 04a00450     8.`.@...H...P...
   14a68:	06a00458 06100460 05880468 04e00470     X...`...h...p...
   14a78:	06e00478 06800488 05200490 07200498     x......... ... .
   14a88:	060804a0 078004a8 056004b0 076004b8     ..........`...`.
   14a98:	062004c0 068804c8 05a004d0 07a004d8     .. .............
   14aa8:	061804e0 078804e8 05e004f0 07e004f8     ................
   14ab8:	05200508 05800510 06280518 05900528     .. .......(.(...
   14ac8:	05880530 06680538 07000540 07200548     0...8.h.@...H. .
   14ad8:	07800550 06a80558 07080560 05980568     P...X...`...h...
   14ae8:	07880570 06e80578 06900588 07280598     p...x.........(.
   14af8:	062805a0 079005a8 072805b0 076805b8     ..(.......(...h.
   14b08:	071005c0 069805c8 079005d0 07a805d8     ................
   14b18:	071805e0 079805e8 079805f0 07e805f8     ................
   14b28:	06300618 06700638 07000640 07800648     ..0.8.p.@...H...
   14b38:	07080650 06b00658 07100660 07900668     P...X...`...h...
   14b48:	07180670 06f00678 06a00688 07300698     p...x.........0.
   14b58:	07a006a8 078806b0 077006b8 072006c0     ..........p... .
   14b68:	07a006c8 072806d0 07b006d8 073006e0     ......(.......0.
   14b78:	07a806e8 079806f0 07f006f8 07500748     ............H.P.
   14b88:	07980738 07600750 07700758 07c00760     8...P.`.X.p.`...
   14b98:	07d00768 07f00778 07e00770 07f007b8     h...x...p.......
   14ba8:	07b007a8 07f007d8 07e007c8 07f007e8     ................

00014bb8 <armBitRevIndexTable512>:
   14bb8:	02000008 04000010 06000018 08000020     ............ ...
   14bc8:	0a000028 0c000030 0e000038 02400048     (...0...8...H.@.
   14bd8:	04400050 06400058 08400060 0a400068     P.@.X.@.`.@.h.@.
   14be8:	0c400070 0e400078 02800088 04800090     p.@.x.@.........
   14bf8:	06800098 088000a0 0a8000a8 0c8000b0     ................
   14c08:	0e8000b8 02c000c8 04c000d0 06c000d8     ................
   14c18:	08c000e0 0ac000e8 0cc000f0 0ec000f8     ................
   14c28:	03000108 05000110 07000118 09000120     ............ ...
   14c38:	0b000128 0d000130 0f000138 03400148     (...0...8...H.@.
   14c48:	05400150 07400158 09400160 0b400168     P.@.X.@.`.@.h.@.
   14c58:	0d400170 0f400178 03800188 05800190     p.@.x.@.........
   14c68:	07800198 098001a0 0b8001a8 0d8001b0     ................
   14c78:	0f8001b8 03c001c8 05c001d0 07c001d8     ................
   14c88:	09c001e0 0bc001e8 0dc001f0 0fc001f8     ................
   14c98:	04080210 06080218 08080220 0a080228     ........ ...(...
   14ca8:	0c080230 0e080238 04480250 06480258     0...8...P.H.X.H.
   14cb8:	08480260 0a480268 0c480270 0e480278     `.H.h.H.p.H.x.H.
   14cc8:	04880290 06880298 088802a0 0a8802a8     ................
   14cd8:	0c8802b0 0e8802b8 04c802d0 06c802d8     ................
   14ce8:	08c802e0 0ac802e8 0cc802f0 0ec802f8     ................
   14cf8:	05080310 07080318 09080320 0b080328     ........ ...(...
   14d08:	0d080330 0f080338 05480350 07480358     0...8...P.H.X.H.
   14d18:	09480360 0b480368 0d480370 0f480378     `.H.h.H.p.H.x.H.
   14d28:	05880390 07880398 098803a0 0b8803a8     ................
   14d38:	0d8803b0 0f8803b8 05c803d0 07c803d8     ................
   14d48:	09c803e0 0bc803e8 0dc803f0 0fc803f8     ................
   14d58:	06100418 08100420 0a100428 0c100430     .... ...(...0...
   14d68:	0e100438 06500458 08500460 0a500468     8...X.P.`.P.h.P.
   14d78:	0c500470 0e500478 06900498 089004a0     p.P.x.P.........
   14d88:	0a9004a8 0c9004b0 0e9004b8 06d004d8     ................
   14d98:	08d004e0 0ad004e8 0cd004f0 0ed004f8     ................
   14da8:	07100518 09100520 0b100528 0d100530     .... ...(...0...
   14db8:	0f100538 07500558 09500560 0b500568     8...X.P.`.P.h.P.
   14dc8:	0d500570 0f500578 07900598 099005a0     p.P.x.P.........
   14dd8:	0b9005a8 0d9005b0 0f9005b8 07d005d8     ................
   14de8:	09d005e0 0bd005e8 0dd005f0 0fd005f8     ................
   14df8:	08180620 0a180628 0c180630 0e180638      ...(...0...8...
   14e08:	08580660 0a580668 0c580670 0e580678     `.X.h.X.p.X.x.X.
   14e18:	089806a0 0a9806a8 0c9806b0 0e9806b8     ................
   14e28:	08d806e0 0ad806e8 0cd806f0 0ed806f8     ................
   14e38:	09180720 0b180728 0d180730 0f180738      ...(...0...8...
   14e48:	09580760 0b580768 0d580770 0f580778     `.X.h.X.p.X.x.X.
   14e58:	099807a0 0b9807a8 0d9807b0 0f9807b8     ................
   14e68:	09d807e0 0bd807e8 0dd807f0 0fd807f8     ................
   14e78:	0a200828 0c200830 0e200838 0a600868     (. .0. .8. .h.`.
   14e88:	0c600870 0e600878 0aa008a8 0ca008b0     p.`.x.`.........
   14e98:	0ea008b8 0ae008e8 0ce008f0 0ee008f8     ................
   14ea8:	0b200928 0d200930 0f200938 0b600968     (. .0. .8. .h.`.
   14eb8:	0d600970 0f600978 0ba009a8 0da009b0     p.`.x.`.........
   14ec8:	0fa009b8 0be009e8 0de009f0 0fe009f8     ................
   14ed8:	0c280a30 0e280a38 0c680a70 0e680a78     0.(.8.(.p.h.x.h.
   14ee8:	0ca80ab0 0ea80ab8 0ce80af0 0ee80af8     ................
   14ef8:	0d280b30 0f280b38 0d680b70 0f680b78     0.(.8.(.p.h.x.h.
   14f08:	0da80bb0 0fa80bb8 0de80bf0 0fe80bf8     ................
   14f18:	0e300c38 0e700c78 0eb00cb8 0ef00cf8     8.0.x.p.........
   14f28:	0f300d38 0f700d78 0fb00db8 0ff00df8     8.0.x.p.........

00014f38 <armBitRevIndexTable1024>:
   14f38:	10000008 02000010 12000018 04000020     ............ ...
   14f48:	14000028 06000030 16000038 08000040     (...0...8...@...
   14f58:	18000048 0a000050 1a000058 0c000060     H...P...X...`...
   14f68:	1c000068 0e000070 1e000078 08000080     h...p...x.......
   14f78:	10400088 02400090 12400098 044000a0     ..@...@...@...@.
   14f88:	144000a8 064000b0 164000b8 084000c0     ..@...@...@...@.
   14f98:	184000c8 0a4000d0 1a4000d8 0c4000e0     ..@...@...@...@.
   14fa8:	1c4000e8 0e4000f0 1e4000f8 08000100     ..@...@...@.....
   14fb8:	10800108 02800110 12800118 04800120     ............ ...
   14fc8:	14800128 06800130 16800138 08800140     (...0...8...@...
   14fd8:	18800148 0a800150 1a800158 0c800160     H...P...X...`...
   14fe8:	1c800168 0e800170 1e800178 08400180     h...p...x.....@.
   14ff8:	10c00188 02c00190 12c00198 04c001a0     ................
   15008:	14c001a8 06c001b0 16c001b8 08c001c0     ................
   15018:	18c001c8 0ac001d0 1ac001d8 0cc001e0     ................
   15028:	1cc001e8 0ec001f0 1ec001f8 08000200     ................
   15038:	11000208 03000210 13000218 05000220     ............ ...
   15048:	15000228 07000230 17000238 09000240     (...0...8...@...
   15058:	19000248 0b000250 1b000258 0d000260     H...P...X...`...
   15068:	1d000268 0f000270 1f000278 08800280     h...p...x.......
   15078:	11400288 03400290 13400298 054002a0     ..@...@...@...@.
   15088:	154002a8 074002b0 174002b8 094002c0     ..@...@...@...@.
   15098:	194002c8 0b4002d0 1b4002d8 0d4002e0     ..@...@...@...@.
   150a8:	1d4002e8 0f4002f0 1f4002f8 08400300     ..@...@...@...@.
   150b8:	11800308 03800310 13800318 05800320     ............ ...
   150c8:	15800328 07800330 17800338 09800340     (...0...8...@...
   150d8:	19800348 0b800350 1b800358 0d800360     H...P...X...`...
   150e8:	1d800368 0f800370 1f800378 08c00380     h...p...x.......
   150f8:	11c00388 03c00390 13c00398 05c003a0     ................
   15108:	15c003a8 07c003b0 17c003b8 09c003c0     ................
   15118:	19c003c8 0bc003d0 1bc003d8 0dc003e0     ................
   15128:	1dc003e8 0fc003f0 1fc003f8 10000400     ................
   15138:	10080408 11000410 12080418 10080420     ............ ...
   15148:	14080428 06080430 16080438 08080440     (...0...8...@...
   15158:	18080448 0a080450 1a080458 0c080460     H...P...X...`...
   15168:	1c080468 0e080470 1e080478 18000480     h...p...x.......
   15178:	10480488 19000490 12480498 180804a0     ..H.......H.....
   15188:	144804a8 064804b0 164804b8 084804c0     ..H...H...H...H.
   15198:	184804c8 0a4804d0 1a4804d8 0c4804e0     ..H...H...H...H.
   151a8:	1c4804e8 0e4804f0 1e4804f8 10400500     ..H...H...H...@.
   151b8:	10880508 11400510 12880518 10480520     ......@..... .H.
   151c8:	14880528 06880530 16880538 08880540     (...0...8...@...
   151d8:	18880548 0a880550 1a880558 0c880560     H...P...X...`...
   151e8:	1c880568 0e880570 1e880578 18400580     h...p...x.....@.
   151f8:	10c80588 19400590 12c80598 184805a0     ......@.......H.
   15208:	14c805a8 06c805b0 16c805b8 08c805c0     ................
   15218:	18c805c8 0ac805d0 1ac805d8 0cc805e0     ................
   15228:	1cc805e8 0ec805f0 1ec805f8 10800600     ................
   15238:	11080608 11800610 13080618 10880620     ............ ...
   15248:	15080628 07080630 17080638 09080640     (...0...8...@...
   15258:	19080648 0b080650 1b080658 0d080660     H...P...X...`...
   15268:	1d080668 0f080670 1f080678 18800680     h...p...x.......
   15278:	11480688 19800690 13480698 188806a0     ..H.......H.....
   15288:	154806a8 074806b0 174806b8 094806c0     ..H...H...H...H.
   15298:	194806c8 0b4806d0 1b4806d8 0d4806e0     ..H...H...H...H.
   152a8:	1d4806e8 0f4806f0 1f4806f8 10c00700     ..H...H...H.....
   152b8:	11880708 11c00710 13880718 10c80720     ............ ...
   152c8:	15880728 07880730 17880738 09880740     (...0...8...@...
   152d8:	19880748 0b880750 1b880758 0d880760     H...P...X...`...
   152e8:	1d880768 0f880770 1f880778 18c00780     h...p...x.......
   152f8:	11c80788 19c00790 13c80798 18c807a0     ................
   15308:	15c807a8 07c807b0 17c807b8 09c807c0     ................
   15318:	19c807c8 0bc807d0 1bc807d8 0dc807e0     ................
   15328:	1dc807e8 0fc807f0 1fc807f8 10100808     ................
   15338:	08400810 12100818 11000820 14100828     ..@..... ...(...
   15348:	11800830 16100838 18100848 0a100850     0...8...H...P...
   15358:	1a100858 0c100860 1c100868 0e100870     X...`...h...p...
   15368:	1e100878 0a000880 10500888 0b000890     x.........P.....
   15378:	12500898 0a0808a0 145008a8 0b0808b0     ..P.......P.....
   15388:	165008b8 0a1008c0 185008c8 0a5008d0     ..P.......P...P.
   15398:	1a5008d8 0c5008e0 1c5008e8 0e5008f0     ..P...P...P...P.
   153a8:	1e5008f8 10900908 09800910 12900918     ..P.............
   153b8:	19000920 14900928 19800930 16900938      ...(...0...8...
   153c8:	0b000940 18900948 0a900950 1a900958     @...H...P...X...
   153d8:	0c900960 1c900968 0e900970 1e900978     `...h...p...x...
   153e8:	0a400980 10d00988 0b400990 12d00998     ..@.......@.....
   153f8:	0a4809a0 14d009a8 0b4809b0 16d009b8     ..H.......H.....
   15408:	0a5009c0 18d009c8 0ad009d0 1ad009d8     ..P.............
   15418:	0cd009e0 1cd009e8 0ed009f0 1ed009f8     ................
   15428:	11100a08 13100a18 11400a20 15100a28     ........ .@.(...
   15438:	11c00a30 17100a38 19100a48 0b100a50     0...8...H...P...
   15448:	1b100a58 0d100a60 1d100a68 0f100a70     X...`...h...p...
   15458:	1f100a78 11500a88 0b800a90 13500a98     x.....P.......P.
   15468:	11500aa0 15500aa8 0b880ab0 17500ab8     ..P...P.......P.
   15478:	0b800ac0 19500ac8 0b500ad0 1b500ad8     ......P...P...P.
   15488:	0d500ae0 1d500ae8 0f500af0 1f500af8     ..P...P...P...P.
   15498:	11900b08 13900b18 19400b20 15900b28     ........ .@.(...
   154a8:	19c00b30 17900b38 19900b48 0b900b50     0...8...H...P...
   154b8:	1b900b58 0d900b60 1d900b68 0f900b70     X...`...h...p...
   154c8:	1f900b78 11d00b88 0bc00b90 13d00b98     x...............
   154d8:	19500ba0 15d00ba8 0bc80bb0 17d00bb8     ..P.............
   154e8:	19d00bc8 1bd00bd8 0dd00be0 1dd00be8     ................
   154f8:	0fd00bf0 1fd00bf8 12000c00 10180c08     ................
   15508:	13000c10 12180c18 12080c20 14180c28     ........ ...(...
   15518:	13080c30 16180c38 12100c40 18180c48     0...8...@...H...
   15528:	13100c50 1a180c58 12180c60 1c180c68     P...X...`...h...
   15538:	0e180c70 1e180c78 1a000c80 10580c88     p...x.........X.
   15548:	1b000c90 12580c98 1a080ca0 14580ca8     ......X.......X.
   15558:	1b080cb0 16580cb8 1a100cc0 18580cc8     ......X.......X.
   15568:	1b100cd0 1a580cd8 1a180ce0 1c580ce8     ......X.......X.
   15578:	0e580cf0 1e580cf8 12400d00 10980d08     ..X...X...@.....
   15588:	13400d10 12980d18 12480d20 14980d28     ..@..... .H.(...
   15598:	13480d30 16980d38 12500d40 18980d48     0.H.8...@.P.H...
   155a8:	13500d50 1a980d58 12580d60 1c980d68     P.P.X...`.X.h...
   155b8:	0e980d70 1e980d78 1a400d80 10d80d88     p...x.....@.....
   155c8:	1b400d90 12d80d98 1a480da0 14d80da8     ..@.......H.....
   155d8:	1b480db0 16d80db8 1a500dc0 18d80dc8     ..H.......P.....
   155e8:	1b500dd0 1ad80dd8 1a580de0 1cd80de8     ..P.......X.....
   155f8:	0ed80df0 1ed80df8 12800e00 11180e08     ................
   15608:	13800e10 13180e18 12880e20 15180e28     ........ ...(...
   15618:	13880e30 17180e38 12900e40 19180e48     0...8...@...H...
   15628:	13900e50 1b180e58 12980e60 1d180e68     P...X...`...h...
   15638:	0f180e70 1f180e78 1a800e80 11580e88     p...x.........X.
   15648:	1b800e90 13580e98 1a880ea0 15580ea8     ......X.......X.
   15658:	1b880eb0 17580eb8 1a900ec0 19580ec8     ......X.......X.
   15668:	1b900ed0 1b580ed8 1a980ee0 1d580ee8     ......X.......X.
   15678:	0f580ef0 1f580ef8 12c00f00 11980f08     ..X...X.........
   15688:	13c00f10 13980f18 12c80f20 15980f28     ........ ...(...
   15698:	13c80f30 17980f38 12d00f40 19980f48     0...8...@...H...
   156a8:	13d00f50 1b980f58 12d80f60 1d980f68     P...X...`...h...
   156b8:	0f980f70 1f980f78 1ac00f80 11d80f88     p...x...........
   156c8:	1bc00f90 13d80f98 1ac80fa0 15d80fa8     ................
   156d8:	1bc80fb0 17d80fb8 1ad00fc0 19d80fc8     ................
   156e8:	1bd00fd0 1bd80fd8 1ad80fe0 1dd80fe8     ................
   156f8:	1bd80ff0 1fd80ff8 10201008 10401010     .......... ...@.
   15708:	12201018 14201028 10881030 16201038     .. .(. .0...8. .
   15718:	11001040 18201048 11401050 1a201058     @...H. .P.@.X. .
   15728:	12081060 1c201068 12881070 1e201078     `...h. .p...x. .
   15738:	12001080 12081088 12401090 12601098     ..........@...`.
   15748:	122010a0 146010a8 126010b0 166010b8     .. ...`...`...`.
   15758:	130010c0 186010c8 134010d0 1a6010d8     ......`...@...`.
   15768:	121810e0 1c6010e8 129810f0 1e6010f8     ......`.......`.
   15778:	12201108 11401110 12a01118 18081120     .. ...@..... ...
   15788:	14a01128 18881130 16a01138 18a01148     (...0...8...H...
   15798:	1aa01158 1a081160 1ca01168 1a881170     X...`...h...p...
   157a8:	1ea01178 12101180 12181188 12501190     x.............P.
   157b8:	12e01198 181811a0 14e011a8 189811b0     ................
   157c8:	16e011b8 131011c0 18e011c8 135011d0     ..............P.
   157d8:	1ae011d8 1a1811e0 1ce011e8 1a9811f0     ................
   157e8:	1ee011f8 18001200 18081208 18401210     ..............@.
   157f8:	13201218 18201220 15201228 18601230     .. . . .(. .0.`.
   15808:	17201238 19001240 19201248 19401250     8. .@...H. .P.@.
   15818:	1b201258 19201260 1d201268 12c81270     X. .`. .h. .p...
   15828:	1f201278 1a001280 1a081288 1a401290     x. ...........@.
   15838:	13601298 1a2012a0 156012a8 1a6012b0     ..`... ...`...`.
   15848:	176012b8 1b0012c0 196012c8 1b4012d0     ..`.......`...@.
   15858:	1b6012d8 1b2012e0 1d6012e8 1b6012f0     ..`... ...`...`.
   15868:	1f6012f8 18101300 18181308 18501310     ..`...........P.
   15878:	13a01318 18481320 15a01328 18c81330     .... .H.(...0...
   15888:	17a01338 19101340 19a01348 19501350     8...@...H...P.P.
   15898:	1ba01358 1a481360 1da01368 1ac81370     X...`.H.h...p...
   158a8:	1fa01378 1a101380 1a181388 1a501390     x.............P.
   158b8:	13e01398 185813a0 15e013a8 18d813b0     ......X.........
   158c8:	17e013b8 1b1013c0 19e013c8 1b5013d0     ..............P.
   158d8:	1be013d8 1a5813e0 1de013e8 1ad813f0     ......X.........
   158e8:	1fe013f8 14201408 15001410 15201418     ...... ....... .
   158f8:	15081430 16281438 15001440 18281448     0...8.(.@...H.(.
   15908:	15101450 1a281458 15201460 1c281468     P...X.(.`. .h.(.
   15918:	15181470 1e281478 1c001480 1c201488     p...x.(....... .
   15928:	1d001490 1d201498 1c0814a0 1c2814a8     ...... .......(.
   15938:	1d0814b0 166814b8 1c1014c0 186814c8     ......h.......h.
   15948:	1d1014d0 1a6814d8 1c1814e0 1c6814e8     ......h.......h.
   15958:	1d1814f0 1e6814f8 15201508 15401510     ......h... ...@.
   15968:	15601518 18281520 1c281528 15481530     ..`. .(.(.(.0.H.
   15978:	16a81538 18a81548 1aa81558 1a281560     8...H...X...`.(.
   15988:	1ca81568 1aa81570 1ea81578 1c401580     h...p...x.....@.
   15998:	1c601588 1d401590 1d601598 1c4815a0     ..`...@...`...H.
   159a8:	1c6815a8 1d4815b0 16e815b8 1c5015c0     ..h...H.......P.
   159b8:	18e815c8 1d5015d0 1ae815d8 1c5815e0     ......P.......X.
   159c8:	1ce815e8 1d5815f0 1ee815f8 1c001600     ......X.........
   159d8:	1c081608 1c401610 1c481618 1c201620     ......@...H. . .
   159e8:	1c281628 1c601630 17281638 1d001640     (.(.0.`.8.(.@...
   159f8:	19281648 1d401650 1b281658 1d201660     H.(.P.@.X.(.`. .
   15a08:	1d281668 1d601670 1f281678 1c801680     h.(.p.`.x.(.....
   15a18:	1ca01688 1d801690 1da01698 1c8816a0     ................
   15a28:	1ca816a8 1d8816b0 176816b8 1c9016c0     ..........h.....
   15a38:	196816c8 1d9016d0 1b6816d8 1c9816e0     ..h.......h.....
   15a48:	1d6816e8 1d9816f0 1f6816f8 1c101700     ..h.......h.....
   15a58:	1c181708 1c501710 1c581718 18681720     ......P...X. .h.
   15a68:	1c681728 18e81730 17a81738 1d101740     (.h.0...8...@...
   15a78:	19a81748 1d501750 1ba81758 1a681760     H...P.P.X...`.h.
   15a88:	1da81768 1ae81770 1fa81778 1cc01780     h...p...x.......
   15a98:	1ce01788 1dc01790 1de01798 1cc817a0     ................
   15aa8:	1ce817a8 1dc817b0 17e817b8 1cd017c0     ................
   15ab8:	19e817c8 1dd017d0 1be817d8 1cd817e0     ................
   15ac8:	1de817e8 1dd817f0 1fe817f8 18601818     ..............`.
   15ad8:	18481830 1c601838 1a301858 1c301868     0.H.8.`.X.0.h.0.
   15ae8:	1a181870 1e301878 1a001880 1a081888     p...x.0.........
   15af8:	1b001890 19601898 1a2018a0 1a2818a8     ......`... ...(.
   15b08:	1b2018b0 1d6018b8 1a1018c0 1a1818c8     .. ...`.........
   15b18:	1b1018d0 1a7018d8 1a3018e0 1c7018e8     ......p...0...p.
   15b28:	1a5818f0 1e7018f8 19201908 1a601918     ..X...p... ...`.
   15b38:	1d081928 19881930 1d881938 1b201948     (...0...8...H. .
   15b48:	1ab01958 1b081960 1cb01968 1b881970     X...`...h...p...
   15b58:	1eb01978 1a401980 1a481988 1b401990     x.....@...H...@.
   15b68:	1b601998 1a6019a0 1d1819a8 1b6019b0     ..`...`.......`.
   15b78:	1d9819b8 1a5019c0 1a5819c8 1b5019d0     ......P...X...P.
   15b88:	1af019d8 1b1819e0 1cf019e8 1b9819f0     ................
   15b98:	1ef019f8 1c701a38 1b301a58 1d301a68     ....8.p.X.0.h.0.
   15ba8:	1b181a70 1f301a78 1ac01a90 1ac81a98     p...x.0.........
   15bb8:	1ae01ab0 1ae81ab8 1b801ac0 1b881ac8     ................
   15bc8:	1bc01ad0 1b701ad8 1ba01ae0 1d701ae8     ......p.......p.
   15bd8:	1be01af0 1f701af8 1d481b28 1dc81b38     ......p.(.H.8...
   15be8:	1b601b48 1bb01b58 1db01b68 1bc81b70     H.`.X...h...p...
   15bf8:	1fb01b78 1bc01b90 1bc81b98 1d581ba8     x.............X.
   15c08:	1be01bb0 1dd81bb8 1bf01bd8 1df01be8     ................
   15c18:	1ff01bf8 1c201c08 1c301c18 1c681c38     ...... ...0.8.h.
   15c28:	1c601c48 1c701c58 1e381c78 1e001c80     H.`.X.p.x.8.....
   15c38:	1e201c88 1f001c90 1f201c98 1e081ca0     .. ....... .....
   15c48:	1e281ca8 1f081cb0 1f281cb8 1e101cc0     ..(.......(.....
   15c58:	1e301cc8 1f101cd0 1f301cd8 1e181ce0     ..0.......0.....
   15c68:	1e381ce8 1f181cf0 1e781cf8 1d201d08     ..8.......x... .
   15c78:	1d301d18 1da81d38 1d601d48 1d701d58     ..0.8...H.`.X.p.
   15c88:	1f281d68 1eb81d78 1e401d80 1e601d88     h.(.x.....@...`.
   15c98:	1f401d90 1f601d98 1e481da0 1e681da8     ..@...`...H...h.
   15ca8:	1f481db0 1f681db8 1e501dc0 1e701dc8     ..H...h...P...p.
   15cb8:	1f501dd0 1f701dd8 1e581de0 1e781de8     ..P...p...X...x.
   15cc8:	1f581df0 1ef81df8 1e201e08 1e301e18     ..X....... ...0.
   15cd8:	1e601e48 1e701e58 1f381e78 1ea01e88     H.`.X.p.x.8.....
   15ce8:	1f801e90 1fa01e98 1f881eb0 1fa81eb8     ................
   15cf8:	1f801ec0 1f881ec8 1f901ed0 1fb01ed8     ................
   15d08:	1fa01ee0 1fa81ee8 1f981ef0 1f781ef8     ..............x.
   15d18:	1f201f08 1f301f18 1f601f48 1f701f58     .. ...0.H.`.X.p.
   15d28:	1fb81f78 1fa01f88 1fc01f90 1fe01f98     x...............
   15d38:	1fc81fb0 1fe81fb8 1fe01fc8 1ff01fd8     ................

00015d48 <armBitRevIndexTable2048>:
   15d48:	10000008 20000010 30000018 02000020     ....... ...0 ...
   15d58:	12000028 22000030 32000038 04000040     (...0.."8..2@...
   15d68:	14000048 24000050 34000058 06000060     H...P..$X..4`...
   15d78:	16000068 26000070 36000078 08000080     h...p..&x..6....
   15d88:	18000088 28000090 38000098 0a0000a0     .......(...8....
   15d98:	1a0000a8 2a0000b0 3a0000b8 0c0000c0     .......*...:....
   15da8:	1c0000c8 2c0000d0 3c0000d8 0e0000e0     .......,...<....
   15db8:	1e0000e8 2e0000f0 3e0000f8 04000100     ...........>....
   15dc8:	10400108 20400110 30400118 02400120     ..@...@ ..@0 .@.
   15dd8:	12400128 22400130 32400138 04400140     (.@.0.@"8.@2@.@.
   15de8:	14400148 24400150 34400158 06400160     H.@.P.@$X.@4`.@.
   15df8:	16400168 26400170 36400178 08400180     h.@.p.@&x.@6..@.
   15e08:	18400188 28400190 38400198 0a4001a0     ..@...@(..@8..@.
   15e18:	1a4001a8 2a4001b0 3a4001b8 0c4001c0     ..@...@*..@:..@.
   15e28:	1c4001c8 2c4001d0 3c4001d8 0e4001e0     ..@...@,..@<..@.
   15e38:	1e4001e8 2e4001f0 3e4001f8 08000200     ..@...@...@>....
   15e48:	10800208 20800210 30800218 02800220     ....... ...0 ...
   15e58:	12800228 22800230 32800238 04800240     (...0.."8..2@...
   15e68:	14800248 24800250 34800258 06800260     H...P..$X..4`...
   15e78:	16800268 26800270 36800278 08800280     h...p..&x..6....
   15e88:	18800288 28800290 38800298 0a8002a0     .......(...8....
   15e98:	1a8002a8 2a8002b0 3a8002b8 0c8002c0     .......*...:....
   15ea8:	1c8002c8 2c8002d0 3c8002d8 0e8002e0     .......,...<....
   15eb8:	1e8002e8 2e8002f0 3e8002f8 0c000300     ...........>....
   15ec8:	10c00308 20c00310 30c00318 0c800320     ....... ...0 ...
   15ed8:	12c00328 22c00330 32c00338 04c00340     (...0.."8..2@...
   15ee8:	14c00348 24c00350 34c00358 06c00360     H...P..$X..4`...
   15ef8:	16c00368 26c00370 36c00378 08c00380     h...p..&x..6....
   15f08:	18c00388 28c00390 38c00398 0ac003a0     .......(...8....
   15f18:	1ac003a8 2ac003b0 3ac003b8 0cc003c0     .......*...:....
   15f28:	1cc003c8 2cc003d0 3cc003d8 0ec003e0     .......,...<....
   15f38:	1ec003e8 2ec003f0 3ec003f8 11000408     ...........>....
   15f48:	21000410 31000418 0c000420 13000428     ...!...1 ...(...
   15f58:	23000430 33000438 05000440 15000448     0..#8..3@...H...
   15f68:	25000450 35000458 07000460 17000468     P..%X..5`...h...
   15f78:	27000470 37000478 09000480 19000488     p..'x..7........
   15f88:	29000490 39000498 0b0004a0 1b0004a8     ...)...9........
   15f98:	2b0004b0 3b0004b8 0d0004c0 1d0004c8     ...+...;........
   15fa8:	2d0004d0 3d0004d8 0f0004e0 1f0004e8     ...-...=........
   15fb8:	2f0004f0 3f0004f8 11400508 21400510     .../...?..@...@!
   15fc8:	31400518 0d000520 13400528 23400530     ..@1 ...(.@.0.@#
   15fd8:	33400538 15400548 25400550 35400558     8.@3H.@.P.@%X.@5
   15fe8:	07400560 17400568 27400570 37400578     `.@.h.@.p.@'x.@7
   15ff8:	09400580 19400588 29400590 39400598     ..@...@...@)..@9
   16008:	0b4005a0 1b4005a8 2b4005b0 3b4005b8     ..@...@...@+..@;
   16018:	0d4005c0 1d4005c8 2d4005d0 3d4005d8     ..@...@...@-..@=
   16028:	0f4005e0 1f4005e8 2f4005f0 3f4005f8     ..@...@...@/..@?
   16038:	08400600 11800608 21800610 31800618     ..@........!...1
   16048:	08c00620 13800628 23800630 33800638      ...(...0..#8..3
   16058:	09400640 15800648 25800650 35800658     @.@.H...P..%X..5
   16068:	07800660 17800668 27800670 37800678     `...h...p..'x..7
   16078:	09800680 19800688 29800690 39800698     ...........)...9
   16088:	0b8006a0 1b8006a8 2b8006b0 3b8006b8     ...........+...;
   16098:	0d8006c0 1d8006c8 2d8006d0 3d8006d8     ...........-...=
   160a8:	0f8006e0 1f8006e8 2f8006f0 3f8006f8     .........../...?
   160b8:	0c400700 11c00708 21c00710 31c00718     ..@........!...1
   160c8:	0cc00720 13c00728 23c00730 33c00738      ...(...0..#8..3
   160d8:	0d400740 15c00748 25c00750 35c00758     @.@.H...P..%X..5
   160e8:	07c00760 17c00768 27c00770 37c00778     `...h...p..'x..7
   160f8:	09c00780 19c00788 29c00790 39c00798     ...........)...9
   16108:	0bc007a0 1bc007a8 2bc007b0 3bc007b8     ...........+...;
   16118:	0dc007c0 1dc007c8 2dc007d0 3dc007d8     ...........-...=
   16128:	0fc007e0 1fc007e8 2fc007f0 3fc007f8     .........../...?
   16138:	10000800 10080808 20080810 30080818     ........... ...0
   16148:	10800820 12080828 22080830 32080838      ...(...0.."8..2
   16158:	11000840 14080848 24080850 34080858     @...H...P..$X..4
   16168:	11800860 16080868 26080870 36080878     `...h...p..&x..6
   16178:	10080880 18080888 28080890 38080898     ...........(...8
   16188:	0a0808a0 1a0808a8 2a0808b0 3a0808b8     ...........*...:
   16198:	0c0808c0 1c0808c8 2c0808d0 3c0808d8     ...........,...<
   161a8:	0e0808e0 1e0808e8 2e0808f0 3e0808f8     ...............>
   161b8:	14000900 10480908 20480910 30480918     ......H...H ..H0
   161c8:	14800920 12480928 22480930 32480938      ...(.H.0.H"8.H2
   161d8:	15000940 14480948 24480950 34480958     @...H.H.P.H$X.H4
   161e8:	15800960 16480968 26480970 36480978     `...h.H.p.H&x.H6
   161f8:	14080980 18480988 28480990 38480998     ......H...H(..H8
   16208:	0a4809a0 1a4809a8 2a4809b0 3a4809b8     ..H...H...H*..H:
   16218:	0c4809c0 1c4809c8 2c4809d0 3c4809d8     ..H...H...H,..H<
   16228:	0e4809e0 1e4809e8 2e4809f0 3e4809f8     ..H...H...H...H>
   16238:	18000a00 10880a08 20880a10 30880a18     ........... ...0
   16248:	18800a20 12880a28 22880a30 32880a38      ...(...0.."8..2
   16258:	19000a40 14880a48 24880a50 34880a58     @...H...P..$X..4
   16268:	19800a60 16880a68 26880a70 36880a78     `...h...p..&x..6
   16278:	18080a80 18880a88 28880a90 38880a98     ...........(...8
   16288:	18880aa0 1a880aa8 2a880ab0 3a880ab8     ...........*...:
   16298:	0c880ac0 1c880ac8 2c880ad0 3c880ad8     ...........,...<
   162a8:	0e880ae0 1e880ae8 2e880af0 3e880af8     ...............>
   162b8:	1c000b00 10c80b08 20c80b10 30c80b18     ........... ...0
   162c8:	1c800b20 12c80b28 22c80b30 32c80b38      ...(...0.."8..2
   162d8:	1d000b40 14c80b48 24c80b50 34c80b58     @...H...P..$X..4
   162e8:	1d800b60 16c80b68 26c80b70 36c80b78     `...h...p..&x..6
   162f8:	1c080b80 18c80b88 28c80b90 38c80b98     ...........(...8
   16308:	1c880ba0 1ac80ba8 2ac80bb0 3ac80bb8     ...........*...:
   16318:	0cc80bc0 1cc80bc8 2cc80bd0 3cc80bd8     ...........,...<
   16328:	0ec80be0 1ec80be8 2ec80bf0 3ec80bf8     ...............>
   16338:	10400c00 11080c08 21080c10 31080c18     ..@........!...1
   16348:	10c00c20 13080c28 23080c30 33080c38      ...(...0..#8..3
   16358:	11400c40 15080c48 25080c50 35080c58     @.@.H...P..%X..5
   16368:	11c00c60 17080c68 27080c70 37080c78     `...h...p..'x..7
   16378:	10480c80 19080c88 29080c90 39080c98     ..H........)...9
   16388:	10c80ca0 1b080ca8 2b080cb0 3b080cb8     ...........+...;
   16398:	0d080cc0 1d080cc8 2d080cd0 3d080cd8     ...........-...=
   163a8:	0f080ce0 1f080ce8 2f080cf0 3f080cf8     .........../...?
   163b8:	14400d00 11480d08 21480d10 31480d18     ..@...H...H!..H1
   163c8:	14c00d20 13480d28 23480d30 33480d38      ...(.H.0.H#8.H3
   163d8:	15400d40 15480d48 25480d50 35480d58     @.@.H.H.P.H%X.H5
   163e8:	15c00d60 17480d68 27480d70 37480d78     `...h.H.p.H'x.H7
   163f8:	14480d80 19480d88 29480d90 39480d98     ..H...H...H)..H9
   16408:	14c80da0 1b480da8 2b480db0 3b480db8     ......H...H+..H;
   16418:	15480dc0 1d480dc8 2d480dd0 3d480dd8     ..H...H...H-..H=
   16428:	0f480de0 1f480de8 2f480df0 3f480df8     ..H...H...H/..H?
   16438:	18400e00 11880e08 21880e10 31880e18     ..@........!...1
   16448:	18c00e20 13880e28 23880e30 33880e38      ...(...0..#8..3
   16458:	19400e40 15880e48 25880e50 35880e58     @.@.H...P..%X..5
   16468:	19c00e60 17880e68 27880e70 37880e78     `...h...p..'x..7
   16478:	18480e80 19880e88 29880e90 39880e98     ..H........)...9
   16488:	18c80ea0 1b880ea8 2b880eb0 3b880eb8     ...........+...;
   16498:	19480ec0 1d880ec8 2d880ed0 3d880ed8     ..H........-...=
   164a8:	0f880ee0 1f880ee8 2f880ef0 3f880ef8     .........../...?
   164b8:	1c400f00 11c80f08 21c80f10 31c80f18     ..@........!...1
   164c8:	1cc00f20 13c80f28 23c80f30 33c80f38      ...(...0..#8..3
   164d8:	1d400f40 15c80f48 25c80f50 35c80f58     @.@.H...P..%X..5
   164e8:	1dc00f60 17c80f68 27c80f70 37c80f78     `...h...p..'x..7
   164f8:	1c480f80 19c80f88 29c80f90 39c80f98     ..H........)...9
   16508:	1cc80fa0 1bc80fa8 2bc80fb0 3bc80fb8     ...........+...;
   16518:	1d480fc0 1dc80fc8 2dc80fd0 3dc80fd8     ..H........-...=
   16528:	1dc80fe0 1fc80fe8 2fc80ff0 3fc80ff8     .........../...?
   16538:	20001000 10101008 20101010 30101018     ... ....... ...0
   16548:	20801020 12101028 22101030 32101038      .. (...0.."8..2
   16558:	21001040 14101048 24101050 34101058     @..!H...P..$X..4
   16568:	21801060 16101068 26101070 36101078     `..!h...p..&x..6
   16578:	20081080 18101088 28101090 38101098     ... .......(...8
   16588:	208810a0 1a1010a8 2a1010b0 3a1010b8     ... .......*...:
   16598:	210810c0 1c1010c8 2c1010d0 3c1010d8     ...!.......,...<
   165a8:	218810e0 1e1010e8 2e1010f0 3e1010f8     ...!...........>
   165b8:	24001100 24101108 20501110 30501118     ...$...$..P ..P0
   165c8:	24801120 12501128 22501130 32501138      ..$(.P.0.P"8.P2
   165d8:	25001140 14501148 24501150 34501158     @..%H.P.P.P$X.P4
   165e8:	25801160 16501168 26501170 36501178     `..%h.P.p.P&x.P6
   165f8:	24081180 18501188 28501190 38501198     ...$..P...P(..P8
   16608:	248811a0 1a5011a8 2a5011b0 3a5011b8     ...$..P...P*..P:
   16618:	250811c0 1c5011c8 2c5011d0 3c5011d8     ...%..P...P,..P<
   16628:	258811e0 1e5011e8 2e5011f0 3e5011f8     ...%..P...P...P>
   16638:	28001200 28101208 20901210 30901218     ...(...(... ...0
   16648:	28801220 12901228 22901230 32901238      ..((...0.."8..2
   16658:	29001240 14901248 24901250 34901258     @..)H...P..$X..4
   16668:	29801260 16901268 26901270 36901278     `..)h...p..&x..6
   16678:	28081280 18901288 28901290 38901298     ...(.......(...8
   16688:	288812a0 1a9012a8 2a9012b0 3a9012b8     ...(.......*...:
   16698:	290812c0 1c9012c8 2c9012d0 3c9012d8     ...).......,...<
   166a8:	298812e0 1e9012e8 2e9012f0 3e9012f8     ...)...........>
   166b8:	2c001300 2c101308 20d01310 30d01318     ...,...,... ...0
   166c8:	2c801320 2c901328 22d01330 32d01338      ..,(..,0.."8..2
   166d8:	2d001340 14d01348 24d01350 34d01358     @..-H...P..$X..4
   166e8:	2d801360 16d01368 26d01370 36d01378     `..-h...p..&x..6
   166f8:	2c081380 18d01388 28d01390 38d01398     ...,.......(...8
   16708:	2c8813a0 1ad013a8 2ad013b0 3ad013b8     ...,.......*...:
   16718:	2d0813c0 1cd013c8 2cd013d0 3cd013d8     ...-.......,...<
   16728:	2d8813e0 1ed013e8 2ed013f0 3ed013f8     ...-...........>
   16738:	20401400 20501408 21101410 31101418     ..@ ..P ...!...1
   16748:	20c01420 20d01428 23101430 33101438      .. (.. 0..#8..3
   16758:	21401440 15101448 25101450 35101458     @.@!H...P..%X..5
   16768:	21c01460 17101468 27101470 37101478     `..!h...p..'x..7
   16778:	20481480 19101488 29101490 39101498     ..H .......)...9
   16788:	20c814a0 1b1014a8 2b1014b0 3b1014b8     ... .......+...;
   16798:	214814c0 1d1014c8 2d1014d0 3d1014d8     ..H!.......-...=
   167a8:	21c814e0 1f1014e8 2f1014f0 3f1014f8     ...!......./...?
   167b8:	24401500 24501508 21501510 31501518     ..@$..P$..P!..P1
   167c8:	24c01520 24d01528 23501530 33501538      ..$(..$0.P#8.P3
   167d8:	25401540 15501548 25501550 35501558     @.@%H.P.P.P%X.P5
   167e8:	25c01560 17501568 27501570 37501578     `..%h.P.p.P'x.P7
   167f8:	24481580 19501588 29501590 39501598     ..H$..P...P)..P9
   16808:	24c815a0 1b5015a8 2b5015b0 3b5015b8     ...$..P...P+..P;
   16818:	254815c0 1d5015c8 2d5015d0 3d5015d8     ..H%..P...P-..P=
   16828:	25c815e0 1f5015e8 2f5015f0 3f5015f8     ...%..P...P/..P?
   16838:	28401600 28501608 21901610 31901618     ..@(..P(...!...1
   16848:	28c01620 28d01628 23901630 33901638      ..((..(0..#8..3
   16858:	29401640 29501648 25901650 35901658     @.@)H.P)P..%X..5
   16868:	29c01660 17901668 27901670 37901678     `..)h...p..'x..7
   16878:	28481680 19901688 29901690 39901698     ..H(.......)...9
   16888:	28c816a0 1b9016a8 2b9016b0 3b9016b8     ...(.......+...;
   16898:	294816c0 1d9016c8 2d9016d0 3d9016d8     ..H).......-...=
   168a8:	29c816e0 1f9016e8 2f9016f0 3f9016f8     ...)......./...?
   168b8:	2c401700 2c501708 21d01710 31d01718     ..@,..P,...!...1
   168c8:	2cc01720 2cd01728 23d01730 33d01738      ..,(..,0..#8..3
   168d8:	2d401740 2d501748 25d01750 35d01758     @.@-H.P-P..%X..5
   168e8:	2dc01760 17d01768 27d01770 37d01778     `..-h...p..'x..7
   168f8:	2c481780 19d01788 29d01790 39d01798     ..H,.......)...9
   16908:	2cc817a0 1bd017a8 2bd017b0 3bd017b8     ...,.......+...;
   16918:	2d4817c0 1dd017c8 2dd017d0 3dd017d8     ..H-.......-...=
   16928:	2dc817e0 1fd017e8 2fd017f0 3fd017f8     ...-......./...?
   16938:	30001800 30101808 20181810 30181818     ...0...0... ...0
   16948:	30801820 30901828 22181830 32181838      ..0(..00.."8..2
   16958:	31001840 31101848 24181850 34181858     @..1H..1P..$X..4
   16968:	31801860 31901868 26181870 36181878     `..1h..1p..&x..6
   16978:	30081880 30181888 28181890 38181898     ...0...0...(...8
   16988:	308818a0 1a1818a8 2a1818b0 3a1818b8     ...0.......*...:
   16998:	310818c0 1c1818c8 2c1818d0 3c1818d8     ...1.......,...<
   169a8:	318818e0 1e1818e8 2e1818f0 3e1818f8     ...1...........>
   169b8:	34001900 34101908 20581910 30581918     ...4...4..X ..X0
   169c8:	34801920 34901928 22581930 32581938      ..4(..40.X"8.X2
   169d8:	35001940 35101948 24581950 34581958     @..5H..5P.X$X.X4
   169e8:	35801960 35901968 26581970 36581978     `..5h..5p.X&x.X6
   169f8:	34081980 34181988 28581990 38581998     ...4...4..X(..X8
   16a08:	348819a0 1a5819a8 2a5819b0 3a5819b8     ...4..X...X*..X:
   16a18:	350819c0 1c5819c8 2c5819d0 3c5819d8     ...5..X...X,..X<
   16a28:	358819e0 1e5819e8 2e5819f0 3e5819f8     ...5..X...X...X>
   16a38:	38001a00 38101a08 20981a10 30981a18     ...8...8... ...0
   16a48:	38801a20 38901a28 22981a30 32981a38      ..8(..80.."8..2
   16a58:	39001a40 39101a48 24981a50 34981a58     @..9H..9P..$X..4
   16a68:	39801a60 39901a68 26981a70 36981a78     `..9h..9p..&x..6
   16a78:	38081a80 38181a88 28981a90 38981a98     ...8...8...(...8
   16a88:	38881aa0 38981aa8 2a981ab0 3a981ab8     ...8...8...*...:
   16a98:	39081ac0 1c981ac8 2c981ad0 3c981ad8     ...9.......,...<
   16aa8:	39881ae0 1e981ae8 2e981af0 3e981af8     ...9...........>
   16ab8:	3c001b00 3c101b08 20d81b10 30d81b18     ...<...<... ...0
   16ac8:	3c801b20 3c901b28 22d81b30 32d81b38      ..<(..<0.."8..2
   16ad8:	3d001b40 3d101b48 24d81b50 34d81b58     @..=H..=P..$X..4
   16ae8:	3d801b60 3d901b68 26d81b70 36d81b78     `..=h..=p..&x..6
   16af8:	3c081b80 3c181b88 28d81b90 38d81b98     ...<...<...(...8
   16b08:	3c881ba0 3c981ba8 2ad81bb0 3ad81bb8     ...<...<...*...:
   16b18:	3d081bc0 1cd81bc8 2cd81bd0 3cd81bd8     ...=.......,...<
   16b28:	3d881be0 1ed81be8 2ed81bf0 3ed81bf8     ...=...........>
   16b38:	30401c00 30501c08 21181c10 31181c18     ..@0..P0...!...1
   16b48:	30c01c20 30d01c28 23181c30 33181c38      ..0(..00..#8..3
   16b58:	31401c40 31501c48 25181c50 35181c58     @.@1H.P1P..%X..5
   16b68:	31c01c60 31d01c68 27181c70 37181c78     `..1h..1p..'x..7
   16b78:	30481c80 30581c88 29181c90 39181c98     ..H0..X0...)...9
   16b88:	30c81ca0 30d81ca8 2b181cb0 3b181cb8     ...0...0...+...;
   16b98:	31481cc0 1d181cc8 2d181cd0 3d181cd8     ..H1.......-...=
   16ba8:	31c81ce0 1f181ce8 2f181cf0 3f181cf8     ...1......./...?
   16bb8:	34401d00 34501d08 21581d10 31581d18     ..@4..P4..X!..X1
   16bc8:	34c01d20 34d01d28 23581d30 33581d38      ..4(..40.X#8.X3
   16bd8:	35401d40 35501d48 25581d50 35581d58     @.@5H.P5P.X%X.X5
   16be8:	35c01d60 35d01d68 27581d70 37581d78     `..5h..5p.X'x.X7
   16bf8:	34481d80 34581d88 29581d90 39581d98     ..H4..X4..X)..X9
   16c08:	34c81da0 34d81da8 2b581db0 3b581db8     ...4...4..X+..X;
   16c18:	35481dc0 35581dc8 2d581dd0 3d581dd8     ..H5..X5..X-..X=
   16c28:	35c81de0 1f581de8 2f581df0 3f581df8     ...5..X...X/..X?
   16c38:	38401e00 38501e08 21981e10 31981e18     ..@8..P8...!...1
   16c48:	38c01e20 38d01e28 23981e30 33981e38      ..8(..80..#8..3
   16c58:	39401e40 39501e48 25981e50 35981e58     @.@9H.P9P..%X..5
   16c68:	39c01e60 39d01e68 27981e70 37981e78     `..9h..9p..'x..7
   16c78:	38481e80 38581e88 29981e90 39981e98     ..H8..X8...)...9
   16c88:	38c81ea0 38d81ea8 2b981eb0 3b981eb8     ...8...8...+...;
   16c98:	39481ec0 39581ec8 2d981ed0 3d981ed8     ..H9..X9...-...=
   16ca8:	39c81ee0 1f981ee8 2f981ef0 3f981ef8     ...9......./...?
   16cb8:	3c401f00 3c501f08 21d81f10 31d81f18     ..@<..P<...!...1
   16cc8:	3cc01f20 3cd01f28 23d81f30 33d81f38      ..<(..<0..#8..3
   16cd8:	3d401f40 3d501f48 25d81f50 35d81f58     @.@=H.P=P..%X..5
   16ce8:	3dc01f60 3dd01f68 27d81f70 37d81f78     `..=h..=p..'x..7
   16cf8:	3c481f80 3c581f88 29d81f90 39d81f98     ..H<..X<...)...9
   16d08:	3cc81fa0 3cd81fa8 2bd81fb0 3bd81fb8     ...<...<...+...;
   16d18:	3d481fc0 3d581fc8 2dd81fd0 3dd81fd8     ..H=..X=...-...=
   16d28:	3dc81fe0 3dd81fe8 2fd81ff0 3fd81ff8     ...=...=.../...?
   16d38:	20802008 20202010 30202018 28802028     . . .   .  0( .(
   16d48:	22202030 32202038 21002040 20c02048     0  "8  2@ .!H . 
   16d58:	24202050 34202058 24102060 28c02068     P  $X  4` .$h .(
   16d68:	26202070 36202078 30802088 28202090     p  &x  6. .0.  (
   16d78:	38202098 300820a0 388020a8 2a2020b0     .  8. .0. .8.  *
   16d88:	3a2020b8 210820c0 30c020c8 2c2020d0     .  :. .!. .0.  ,
   16d98:	3c2020d8 310820e0 38c020e8 2e2020f0     .  <. .1. .8.  .
   16da8:	3e2020f8 24002100 21802108 24102110     .  >.!.$.!.!.!.$
   16db8:	30602118 24202120 29802128 22602130     .!`0 ! $(!.)0!`"
   16dc8:	32602138 25002140 21c02148 24602150     8!`2@!.%H!.!P!`$
   16dd8:	34602158 24502160 29c02168 26602170     X!`4`!P$h!.)p!`&
   16de8:	36602178 24082180 31802188 28602190     x!`6.!.$.!.1.!`(
   16df8:	38602198 340821a0 398021a8 2a6021b0     .!`8.!.4.!.9.!`*
   16e08:	3a6021b8 250821c0 31c021c8 2c6021d0     .!`:.!.%.!.1.!`,
   16e18:	3c6021d8 350821e0 39c021e8 2e6021f0     .!`<.!.5.!.9.!`.
   16e28:	3e6021f8 30002200 30802208 30082210     .!`>.".0.".0.".0
   16e38:	30a02218 30102220 28882228 22a02230     .".0 ".0(".(0"."
   16e48:	32a02238 30402240 30c02248 24a02250     8".2@"@0H".0P".$
   16e58:	34a02258 30502260 28c82268 26a02270     X".4`"P0h".(p".&
   16e68:	36a02278 30202280 30882288 28a02290     x".6." 0.".0.".(
   16e78:	38a02298 301822a0 388822a8 2aa022b0     .".8.".0.".8.".*
   16e88:	3aa022b8 306022c0 30c822c8 2ca022d0     .".:."`0.".0.".,
   16e98:	3ca022d8 311822e0 38c822e8 2ea022f0     .".<.".1.".8."..
   16ea8:	3ea022f8 31002300 31802308 31082310     .".>.#.1.#.1.#.1
   16eb8:	30e02318 31102320 29882328 31182330     .#.0 #.1(#.)0#.1
   16ec8:	32e02338 31402340 31c02348 24e02350     8#.2@#@1H#.1P#.$
   16ed8:	34e02358 31502360 29c82368 26e02370     X#.4`#P1h#.)p#.&
   16ee8:	36e02378 24182380 31882388 28e02390     x#.6.#.$.#.1.#.(
   16ef8:	38e02398 341823a0 398823a8 2ae023b0     .#.8.#.4.#.9.#.*
   16f08:	3ae023b8 251823c0 31c823c8 2ce023d0     .#.:.#.%.#.1.#.,
   16f18:	3ce023d8 351823e0 39c823e8 2ee023f0     .#.<.#.5.#.9.#..
   16f28:	3ee023f8 24802408 24202410 31202418     .#.>.$.$.$ $.$ 1
   16f38:	2c802428 31102430 33202438 25002440     ($.,0$.18$ 3@$.%
   16f48:	24c02448 25202450 35202458 25102460     H$.$P$ %X$ 5`$.%
   16f58:	2cc02468 27202470 37202478 34802488     h$.,p$ 'x$ 7.$.4
   16f68:	29202490 39202498 304824a0 3c8024a8     .$ ).$ 9.$H0.$.<
   16f78:	2b2024b0 3b2024b8 250824c0 34c024c8     .$ +.$ ;.$.%.$.4
   16f88:	2d2024d0 3d2024d8 314824e0 3cc024e8     .$ -.$ =.$H1.$.<
   16f98:	2f2024f0 3f2024f8 25802508 25202510     .$ /.$ ?.%.%.% %
   16fa8:	31602518 2d802528 31502530 33602538     .%`1(%.-0%P18%`3
   16fb8:	25c02548 25602550 35602558 2dc02568     H%.%P%`%X%`5h%.-
   16fc8:	27602570 37602578 35802588 29602590     p%`'x%`7.%.5.%`)
   16fd8:	39602598 344825a0 3d8025a8 2b6025b0     .%`9.%H4.%.=.%`+
   16fe8:	3b6025b8 35c025c8 2d6025d0 3d6025d8     .%`;.%.5.%`-.%`=
   16ff8:	354825e0 3dc025e8 2f6025f0 3f6025f8     .%H5.%.=.%`/.%`?
   17008:	34002600 34802608 34082610 31a02618     .&.4.&.4.&.4.&.1
   17018:	34102620 2c882628 34182630 33a02638      &.4(&.,0&.48&.3
   17028:	34402640 34c02648 34482650 35a02658     @&@4H&.4P&H4X&.5
   17038:	34502660 2cc82668 27a02670 37a02678     `&P4h&.,p&.'x&.7
   17048:	34202680 34882688 29a02690 39a02698     .& 4.&.4.&.).&.9
   17058:	305826a0 3c8826a8 2ba026b0 3ba026b8     .&X0.&.<.&.+.&.;
   17068:	346026c0 34c826c8 2da026d0 3da026d8     .&`4.&.4.&.-.&.=
   17078:	315826e0 3cc826e8 2fa026f0 3fa026f8     .&X1.&.<.&./.&.?
   17088:	35002700 35802708 35082710 31e02718     .'.5.'.5.'.5.'.1
   17098:	35102720 2d882728 35182730 33e02738      '.5('.-0'.58'.3
   170a8:	35402740 35c02748 35482750 35e02758     @'@5H'.5P'H5X'.5
   170b8:	35502760 2dc82768 27e02770 37e02778     `'P5h'.-p'.'x'.7
   170c8:	35202780 35882788 29e02790 39e02798     .' 5.'.5.'.).'.9
   170d8:	345827a0 3d8827a8 2be027b0 3be027b8     .'X4.'.=.'.+.'.;
   170e8:	356027c0 35c827c8 2de027d0 3de027d8     .'`5.'.5.'.-.'.=
   170f8:	355827e0 3dc827e8 2fe027f0 3fe027f8     .'X5.'.=.'./.'.?
   17108:	28202808 28802810 30282818 28902828     .( (.(.(.((0((.(
   17118:	28882830 32282838 2c002840 2c202848     0(.(8((2@(.,H( ,
   17128:	2c802850 34282858 2c082860 28d02868     P(.,X((4`(.,h(.(
   17138:	2c882870 36282878 30902888 38282898     p(.,x((6.(.0.((8
   17148:	302828a0 389028a8 2a2828b0 3a2828b8     .((0.(.8.((*.((:
   17158:	2c1028c0 30d028c8 2c2828d0 3c2828d8     .(.,.(.0.((,.((<
   17168:	2c1828e0 38d028e8 2e2828f0 3e2828f8     .(.,.(.8.((..((>
   17178:	2c002900 2c082908 2c102910 30682918     .).,.).,.).,.)h0
   17188:	2c202920 29902928 30d02930 32682938      ) ,().)0).08)h2
   17198:	2c402940 2c602948 2cc02950 34682958     @)@,H)`,P).,X)h4
   171a8:	2c482960 29d02968 2cc82970 36682978     `)H,h).)p).,x)h6
   171b8:	2c802980 31902988 2c282990 38682998     .).,.).1.)(,.)h8
   171c8:	342829a0 399029a8 2a6829b0 3a6829b8     .)(4.).9.)h*.)h:
   171d8:	2c5029c0 31d029c8 2c6829d0 3c6829d8     .)P,.).1.)h,.)h<
   171e8:	2c5829e0 39d029e8 2e6829f0 3e6829f8     .)X,.).9.)h..)h>
   171f8:	38002a00 38202a08 38802a10 30a82a18     .*.8.* 8.*.8.*.0
   17208:	38082a20 38282a28 38882a30 32a82a38      *.8(*(80*.88*.2
   17218:	3c002a40 3c202a48 3c802a50 34a82a58     @*.<H* <P*.<X*.4
   17228:	3c082a60 3c282a68 3c882a70 36a82a78     `*.<h*(<p*.<x*.6
   17238:	38102a80 30982a88 38902a90 38a82a98     .*.8.*.0.*.8.*.8
   17248:	38182aa0 38982aa8 38982ab0 3aa82ab8     .*.8.*.8.*.8.*.:
   17258:	3c102ac0 30d82ac8 2ca82ad0 3ca82ad8     .*.<.*.0.*.,.*.<
   17268:	3c182ae0 38d82ae8 2ea82af0 3ea82af8     .*.<.*.8.*...*.>
   17278:	38402b00 38602b08 38c02b10 30e82b18     .+@8.+`8.+.8.+.0
   17288:	38482b20 38682b28 38c82b30 32e82b38      +H8(+h80+.88+.2
   17298:	3c402b40 3c602b48 3cc02b50 34e82b58     @+@<H+`<P+.<X+.4
   172a8:	3c482b60 3c682b68 3cc82b70 36e82b78     `+H<h+h<p+.<x+.6
   172b8:	38502b80 31982b88 38d02b90 38e82b98     .+P8.+.1.+.8.+.8
   172c8:	38582ba0 39982ba8 38d82bb0 3ae82bb8     .+X8.+.9.+.8.+.:
   172d8:	3c502bc0 31d82bc8 2ce82bd0 3ce82bd8     .+P<.+.1.+.,.+.<
   172e8:	3c582be0 39d82be8 2ee82bf0 3ee82bf8     .+X<.+.9.+...+.>
   172f8:	2c202c08 2c802c10 31282c18 2c902c28     ., ,.,.,.,(1(,.,
   17308:	31902c30 33282c38 2d002c40 2d202c48     0,.18,(3@,.-H, -
   17318:	2d802c50 35282c58 2d082c60 2cd02c68     P,.-X,(5`,.-h,.,
   17328:	2d882c70 37282c78 34902c88 39282c98     p,.-x,(7.,.4.,(9
   17338:	30682ca0 3c902ca8 38682cb0 3b282cb8     .,h0.,.<.,h8.,(;
   17348:	2d102cc0 34d02cc8 2d282cd0 3d282cd8     .,.-.,.4.,(-.,(=
   17358:	2d182ce0 3cd02ce8 2f282cf0 3f282cf8     .,.-.,.<.,(/.,(?
   17368:	2d202d08 2d802d10 31682d18 2d902d28     .- -.-.-.-h1(-.-
   17378:	31d02d30 33682d38 2d602d48 2dc02d50     0-.18-h3H-`-P-.-
   17388:	35682d58 2dd02d68 2dc82d70 37682d78     X-h5h-.-p-.-x-h7
   17398:	35902d88 39682d98 34682da0 3d902da8     .-.5.-h9.-h4.-.=
   173a8:	3c682db0 3b682db8 35d02dc8 3d682dd8     .-h<.-h;.-.5.-h=
   173b8:	35682de0 3dd02de8 2f682df0 3f682df8     .-h5.-.=.-h/.-h?
   173c8:	39002e00 39202e08 39802e10 31a82e18     ...9.. 9...9...1
   173d8:	39082e20 39282e28 39882e30 33a82e38      ..9(.(90..98..3
   173e8:	3d002e40 3d202e48 3d802e50 35a82e58     @..=H. =P..=X..5
   173f8:	3d082e60 3d282e68 3d882e70 37a82e78     `..=h.(=p..=x..7
   17408:	39102e80 34982e88 39902e90 39a82e98     ...9...4...9...9
   17418:	39182ea0 3c982ea8 39982eb0 3ba82eb8     ...9...<...9...;
   17428:	3d102ec0 34d82ec8 3d902ed0 3da82ed8     ...=...4...=...=
   17438:	3d182ee0 3cd82ee8 2fa82ef0 3fa82ef8     ...=...<.../...?
   17448:	39402f00 39602f08 39c02f10 31e82f18     ./@9./`9./.9./.1
   17458:	39482f20 39682f28 39c82f30 33e82f38      /H9(/h90/.98/.3
   17468:	3d402f40 3d602f48 3dc02f50 35e82f58     @/@=H/`=P/.=X/.5
   17478:	3d482f60 3d682f68 3dc82f70 37e82f78     `/H=h/h=p/.=x/.7
   17488:	39502f80 35982f88 39d02f90 39e82f98     ./P9./.5./.9./.9
   17498:	39582fa0 3d982fa8 39d82fb0 3be82fb8     ./X9./.=./.9./.;
   174a8:	3d502fc0 35d82fc8 3dd02fd0 3de82fd8     ./P=./.5./.=./.=
   174b8:	3d582fe0 3dd82fe8 3dd82ff0 3fe82ff8     ./X=./.=./.=./.?
   174c8:	30303018 32303038 31003040 31083048     .0008002@0.1H0.1
   174d8:	31103050 34303058 31203060 31283068     P0.1X004`0 1h0(1
   174e8:	34183070 36303078 30a03088 38303098     p0.4x006.0.0.008
   174f8:	38a030a8 388830b0 3a3030b8 318030c0     .0.8.0.8.00:.0.1
   17508:	30e030c8 319030d0 3c3030d8 318830e0     .0.0.0.1.00<.0.1
   17518:	38e030e8 398830f0 3e3030f8 34003100     .0.8.0.9.00>.1.4
   17528:	34083108 34103110 34183118 34203120     .1.4.1.4.1.4 1 4
   17538:	34283128 34303130 32703138 35003140     (1(4010481p2@1.5
   17548:	35083148 35103150 34703158 35203160     H1.5P1.5X1p4`1 5
   17558:	35283168 34583170 36703178 34803180     h1(5p1X4x1p6.1.4
   17568:	31a03188 34903190 38703198 348831a0     .1.1.1.4.1p8.1.4
   17578:	39a031a8 3c8831b0 3a7031b8 358031c0     .1.9.1.<.1p:.1.5
   17588:	31e031c8 359031d0 3c7031d8 358831e0     .1.1.1.5.1p<.1.5
   17598:	39e031e8 3d8831f0 3e7031f8 38003200     .1.9.1.=.1p>.2.8
   175a8:	38803208 38083210 38883218 38103220     .2.8.2.8.2.8 2.8
   175b8:	38903228 38183230 32b03238 38403240     (2.802.882.2@2@8
   175c8:	38c03248 38483250 34b03258 38503260     H2.8P2H8X2.4`2P8
   175d8:	38d03268 38583270 36b03278 38203280     h2.8p2X8x2.6.2 8
   175e8:	38a03288 38283290 38b03298 383032a0     .2.8.2(8.2.8.208
   175f8:	38a832a8 389832b0 3ab032b8 386032c0     .2.8.2.8.2.:.2`8
   17608:	38e032c8 386832d0 3cb032d8 387032e0     .2.8.2h8.2.<.2p8
   17618:	38e832e8 399832f0 3eb032f8 39003300     .2.8.2.9.2.>.3.9
   17628:	39803308 39083310 39883318 39103320     .3.9.3.9.3.9 3.9
   17638:	39903328 39183330 39983338 39403340     (3.903.983.9@3@9
   17648:	39c03348 39483350 34f03358 39503360     H3.9P3H9X3.4`3P9
   17658:	39d03368 39583370 36f03378 39203380     h3.9p3X9x3.6.3 9
   17668:	39a03388 39283390 38f03398 349833a0     .3.9.3(9.3.8.3.4
   17678:	39a833a8 3c9833b0 3af033b8 396033c0     .3.9.3.<.3.:.3`9
   17688:	39e033c8 396833d0 3cf033d8 359833e0     .3.9.3h9.3.<.3.5
   17698:	39e833e8 3d9833f0 3ef033f8 34303418     .3.9.3.=.3.>.404
   176a8:	39183438 35003440 35083448 35103450     84.9@4.5H4.5P4.5
   176b8:	35303458 35203460 35283468 35183470     X405`4 5h4(5p4.5
   176c8:	37303478 34a03488 39303498 3ca034a8     x407.4.4.409.4.<
   176d8:	38c834b0 3b3034b8 358034c0 34e034c8     .4.8.40;.4.5.4.4
   176e8:	359034d0 3d3034d8 358834e0 3ce034e8     .4.5.40=.4.5.4.<
   176f8:	39c834f0 3f3034f8 35303518 39583538     .4.9.40?.50585X9
   17708:	35703558 37703578 35a03588 39703598     X5p5x5p7.5.5.5p9
   17718:	3da035a8 3cc835b0 3b7035b8 35e035c8     .5.=.5.<.5p;.5.5
   17728:	3d7035d8 3de035e8 3dc835f0 3f7035f8     .5p=.5.=.5.=.5p?
   17738:	3c003600 3c803608 3c083610 3c883618     .6.<.6.<.6.<.6.<
   17748:	3c103620 3c903628 3c183630 3c983638      6.<(6.<06.<86.<
   17758:	3c403640 3cc03648 3c483650 3cc83658     @6@<H6.<P6H<X6.<
   17768:	3c503660 3cd03668 3c583670 37b03678     `6P<h6.<p6X<x6.7
   17778:	3c203680 3ca03688 3c283690 39b03698     .6 <.6.<.6(<.6.9
   17788:	3c3036a0 3ca836a8 38d836b0 3bb036b8     .60<.6.<.6.8.6.;
   17798:	3c6036c0 3ce036c8 3c6836d0 3db036d8     .6`<.6.<.6h<.6.=
   177a8:	3c7036e0 3ce836e8 39d836f0 3fb036f8     .6p<.6.<.6.9.6.?
   177b8:	3d003700 3d803708 3d083710 3d883718     .7.=.7.=.7.=.7.=
   177c8:	3d103720 3d903728 3d183730 3d983738      7.=(7.=07.=87.=
   177d8:	3d403740 3dc03748 3d483750 3dc83758     @7@=H7.=P7H=X7.=
   177e8:	3d503760 3dd03768 3d583770 37f03778     `7P=h7.=p7X=x7.7
   177f8:	3d203780 3da03788 3d283790 39f03798     .7 =.7.=.7(=.7.9
   17808:	3d3037a0 3da837a8 3cd837b0 3bf037b8     .70=.7.=.7.<.7.;
   17818:	3d6037c0 3de037c8 3d6837d0 3df037d8     .7`=.7.=.7h=.7.=
   17828:	3d7037e0 3de837e8 3dd837f0 3ff037f8     .7p=.7.=.7.=.7.?
   17838:	38983838 39003840 39083848 39103850     88.8@8.9H8.9P8.9
   17848:	39183858 39203860 39283868 39303870     X8.9`8 9h8(9p809
   17858:	3c983878 38b038a8 3a3838b8 398038c0     x8.<.8.8.88:.8.9
   17868:	398838c8 399038d0 3c3838d8 39a038e0     .8.9.8.9.88<.8.9
   17878:	38f038e8 3e3838f8 39a838f0 3c003900     .8.8.88>.8.9.9.<
   17888:	3c083908 3c103910 3c183918 3c203920     .9.<.9.<.9.< 9 <
   17898:	3c283928 3c303930 3c383938 3d003940     (9(<090<898<@9.=
   178a8:	3d083948 3d103950 3d183958 3d203960     H9.=P9.=X9.=`9 =
   178b8:	3d283968 3d303970 3cd83978 3c803980     h9(=p90=x9.<.9.<
   178c8:	3c883988 3c903990 3c983998 3ca039a0     .9.<.9.<.9.<.9.<
   178d8:	39b039a8 3a7839b8 3ca839b0 3d8039c0     .9.9.9x:.9.<.9.=
   178e8:	3d8839c8 3d9039d0 3c7839d8 3da039e0     .9.=.9.=.9x<.9.=
   178f8:	39f039e8 3e7839f8 3da839f0 3a103a08     .9.9.9x>.9.=.:.:
   17908:	3a203a10 3a303a18 3a803a20 3a903a28     .: :.:0: :.:(:.:
   17918:	3aa03a30 3ab03a38 3b003a40 3b103a48     0:.:8:.:@:.;H:.;
   17928:	3b203a50 3b303a58 3b803a60 3b903a68     P: ;X:0;`:.;h:.;
   17938:	3ba03a70 3bb03a78 3aa03a88 3ab03a98     p:.;x:.;.:.:.:.:
   17948:	3ab03aa8 3b083ac0 3b183ac8 3b283ad0     .:.:.:.;.:.;.:(;
   17958:	3cb83ad8 3b883ae0 3b983ae8 3ba83af0     .:.<.:.;.:.;.:.;
   17968:	3eb83af8 3e003b00 3e103b08 3e203b10     .:.>.;.>.;.>.; >
   17978:	3e303b18 3e803b20 3e903b28 3ea03b30     .;0> ;.>(;.>0;.>
   17988:	3eb03b38 3f003b40 3f103b48 3f203b50     8;.>@;.?H;.?P; ?
   17998:	3f303b58 3f803b60 3f903b68 3fa03b70     X;0?`;.?h;.?p;.?
   179a8:	3fb03b78 3e083b80 3e183b88 3e283b90     x;.?.;.>.;.>.;(>
   179b8:	3e383b98 3e883ba0 3e983ba8 3ea83bb0     .;8>.;.>.;.>.;.>
   179c8:	3eb83bb8 3f083bc0 3f183bc8 3f283bd0     .;.>.;.?.;.?.;(?
   179d8:	3cf83bd8 3f883be0 3f983be8 3fa83bf0     .;.<.;.?.;.?.;.?
   179e8:	3ef83bf8 3c983c38 3d003c40 3d083c48     .;.>8<.<@<.=H<.=
   179f8:	3d103c50 3d183c58 3d203c60 3d283c68     P<.=X<.=`< =h<(=
   17a08:	3d303c70 3d983c78 3cb03ca8 3eb03cb8     p<0=x<.=.<.<.<.>
   17a18:	3d803cc0 3d883cc8 3d903cd0 3d383cd8     .<.=.<.=.<.=.<8=
   17a28:	3da03ce0 3cf03ce8 3da83cf0 3f383cf8     .<.=.<.<.<.=.<8?
   17a38:	3d983d38 3dd83d78 3db03da8 3fb03db8     8=.=x=.=.=.=.=.?
   17a48:	3df03de8 3e803e08 3f783df8 3e803e10     .=.=.>.>.=x?.>.>
   17a58:	3e883e18 3e803e20 3e903e28 3e883e30     .>.> >.>(>.>0>.>
   17a68:	3e983e38 3f003e40 3f203e48 3f803e50     8>.>@>.?H> ?P>.?
   17a78:	3fa03e58 3f083e60 3f283e68 3f883e70     X>.?`>.?h>(?p>.?
   17a88:	3fa83e78 3ea03e88 3ea83e98 3f103ec0     x>.?.>.>.>.>.>.?
   17a98:	3eb03ea8 3f303ec8 3f903ed0 3fb03ed8     .>.>.>0?.>.?.>.?
   17aa8:	3f183ee0 3f383ee8 3f983ef0 3f803f08     .>.?.>8?.>.?.?.?
   17ab8:	3fb83ef8 3f803f10 3f883f18 3f803f20     .>.?.?.?.?.? ?.?
   17ac8:	3f903f28 3f883f30 3f983f38 3f503f48     (?.?0?.?8?.?H?P?
   17ad8:	3f603f50 3f703f58 3fc03f60 3fd03f68     P?`?X?p?`?.?h?.?
   17ae8:	3fe03f70 3ff03f78 3fa03f88 3fa83f98     p?.?x?.?.?.?.?.?
   17af8:	3fb03fa8 3ff03fd8 3fe03fc8 3ff03fe8     .?.?.?.?.?.?.?.?

00017b08 <armBitRevIndexTable4096>:
   17b08:	10000008 20000010 30000018 40000020     ....... ...0 ..@
   17b18:	50000028 60000030 70000038 02000040     (..P0..`8..p@...
   17b28:	12000048 22000050 32000058 42000060     H...P.."X..2`..B
   17b38:	52000068 62000070 72000078 04000080     h..Rp..bx..r....
   17b48:	14000088 24000090 34000098 440000a0     .......$...4...D
   17b58:	540000a8 640000b0 740000b8 060000c0     ...T...d...t....
   17b68:	160000c8 260000d0 360000d8 460000e0     .......&...6...F
   17b78:	560000e8 660000f0 760000f8 08000100     ...V...f...v....
   17b88:	18000108 28000110 38000118 48000120     .......(...8 ..H
   17b98:	58000128 68000130 78000138 0a000140     (..X0..h8..x@...
   17ba8:	1a000148 2a000150 3a000158 4a000160     H...P..*X..:`..J
   17bb8:	5a000168 6a000170 7a000178 0c000180     h..Zp..jx..z....
   17bc8:	1c000188 2c000190 3c000198 4c0001a0     .......,...<...L
   17bd8:	5c0001a8 6c0001b0 7c0001b8 0e0001c0     ...\...l...|....
   17be8:	1e0001c8 2e0001d0 3e0001d8 4e0001e0     ...........>...N
   17bf8:	5e0001e8 6e0001f0 7e0001f8 10400208     ...^...n...~..@.
   17c08:	20400210 30400218 40400220 50400228     ..@ ..@0 .@@(.@P
   17c18:	60400230 70400238 12400248 22400250     0.@`8.@pH.@.P.@"
   17c28:	32400258 42400260 52400268 62400270     X.@2`.@Bh.@Rp.@b
   17c38:	72400278 04400280 14400288 24400290     x.@r..@...@...@$
   17c48:	34400298 444002a0 544002a8 644002b0     ..@4..@D..@T..@d
   17c58:	744002b8 064002c0 164002c8 264002d0     ..@t..@...@...@&
   17c68:	364002d8 464002e0 564002e8 664002f0     ..@6..@F..@V..@f
   17c78:	764002f8 08400300 18400308 28400310     ..@v..@...@...@(
   17c88:	38400318 48400320 58400328 68400330     ..@8 .@H(.@X0.@h
   17c98:	78400338 0a400340 1a400348 2a400350     8.@x@.@.H.@.P.@*
   17ca8:	3a400358 4a400360 5a400368 6a400370     X.@:`.@Jh.@Zp.@j
   17cb8:	7a400378 0c400380 1c400388 2c400390     x.@z..@...@...@,
   17cc8:	3c400398 4c4003a0 5c4003a8 6c4003b0     ..@<..@L..@\..@l
   17cd8:	7c4003b8 0e4003c0 1e4003c8 2e4003d0     ..@|..@...@...@.
   17ce8:	3e4003d8 4e4003e0 5e4003e8 6e4003f0     ..@>..@N..@^..@n
   17cf8:	7e4003f8 10800408 20800410 30800418     ..@~....... ...0
   17d08:	40800420 50800428 60800430 70800438      ..@(..P0..`8..p
   17d18:	12800448 22800450 32800458 42800460     H...P.."X..2`..B
   17d28:	52800468 62800470 72800478 14800488     h..Rp..bx..r....
   17d38:	24800490 34800498 448004a0 548004a8     ...$...4...D...T
   17d48:	648004b0 748004b8 068004c0 168004c8     ...d...t........
   17d58:	268004d0 368004d8 468004e0 568004e8     ...&...6...F...V
   17d68:	668004f0 768004f8 08800500 18800508     ...f...v........
   17d78:	28800510 38800518 48800520 58800528     ...(...8 ..H(..X
   17d88:	68800530 78800538 0a800540 1a800548     0..h8..x@...H...
   17d98:	2a800550 3a800558 4a800560 5a800568     P..*X..:`..Jh..Z
   17da8:	6a800570 7a800578 0c800580 1c800588     p..jx..z........
   17db8:	2c800590 3c800598 4c8005a0 5c8005a8     ...,...<...L...\
   17dc8:	6c8005b0 7c8005b8 0e8005c0 1e8005c8     ...l...|........
   17dd8:	2e8005d0 3e8005d8 4e8005e0 5e8005e8     .......>...N...^
   17de8:	6e8005f0 7e8005f8 10c00608 20c00610     ...n...~....... 
   17df8:	30c00618 40c00620 50c00628 60c00630     ...0 ..@(..P0..`
   17e08:	70c00638 12c00648 22c00650 32c00658     8..pH...P.."X..2
   17e18:	42c00660 52c00668 62c00670 72c00678     `..Bh..Rp..bx..r
   17e28:	14c00688 24c00690 34c00698 44c006a0     .......$...4...D
   17e38:	54c006a8 64c006b0 74c006b8 16c006c8     ...T...d...t....
   17e48:	26c006d0 36c006d8 46c006e0 56c006e8     ...&...6...F...V
   17e58:	66c006f0 76c006f8 08c00700 18c00708     ...f...v........
   17e68:	28c00710 38c00718 48c00720 58c00728     ...(...8 ..H(..X
   17e78:	68c00730 78c00738 0ac00740 1ac00748     0..h8..x@...H...
   17e88:	2ac00750 3ac00758 4ac00760 5ac00768     P..*X..:`..Jh..Z
   17e98:	6ac00770 7ac00778 0cc00780 1cc00788     p..jx..z........
   17ea8:	2cc00790 3cc00798 4cc007a0 5cc007a8     ...,...<...L...\
   17eb8:	6cc007b0 7cc007b8 0ec007c0 1ec007c8     ...l...|........
   17ec8:	2ec007d0 3ec007d8 4ec007e0 5ec007e8     .......>...N...^
   17ed8:	6ec007f0 7ec007f8 11000808 21000810     ...n...~.......!
   17ee8:	31000818 41000820 51000828 61000830     ...1 ..A(..Q0..a
   17ef8:	71000838 13000848 23000850 33000858     8..qH...P..#X..3
   17f08:	43000860 53000868 63000870 73000878     `..Ch..Sp..cx..s
   17f18:	15000888 25000890 35000898 450008a0     .......%...5...E
   17f28:	550008a8 650008b0 750008b8 170008c8     ...U...e...u....
   17f38:	270008d0 370008d8 470008e0 570008e8     ...'...7...G...W
   17f48:	670008f0 770008f8 19000908 29000910     ...g...w.......)
   17f58:	39000918 49000920 59000928 69000930     ...9 ..I(..Y0..i
   17f68:	79000938 0b000940 1b000948 2b000950     8..y@...H...P..+
   17f78:	3b000958 4b000960 5b000968 6b000970     X..;`..Kh..[p..k
   17f88:	7b000978 0d000980 1d000988 2d000990     x..{...........-
   17f98:	3d000998 4d0009a0 5d0009a8 6d0009b0     ...=...M...]...m
   17fa8:	7d0009b8 0f0009c0 1f0009c8 2f0009d0     ...}.........../
   17fb8:	3f0009d8 4f0009e0 5f0009e8 6f0009f0     ...?...O..._...o
   17fc8:	7f0009f8 11400a08 21400a10 31400a18     ......@...@!..@1
   17fd8:	41400a20 51400a28 61400a30 71400a38      .@A(.@Q0.@a8.@q
   17fe8:	13400a48 23400a50 33400a58 43400a60     H.@.P.@#X.@3`.@C
   17ff8:	53400a68 63400a70 73400a78 15400a88     h.@Sp.@cx.@s..@.
   18008:	25400a90 35400a98 45400aa0 55400aa8     ..@%..@5..@E..@U
   18018:	65400ab0 75400ab8 17400ac8 27400ad0     ..@e..@u..@...@'
   18028:	37400ad8 47400ae0 57400ae8 67400af0     ..@7..@G..@W..@g
   18038:	77400af8 19400b08 29400b10 39400b18     ..@w..@...@)..@9
   18048:	49400b20 59400b28 69400b30 79400b38      .@I(.@Y0.@i8.@y
   18058:	1b400b48 2b400b50 3b400b58 4b400b60     H.@.P.@+X.@;`.@K
   18068:	5b400b68 6b400b70 7b400b78 0d400b80     h.@[p.@kx.@{..@.
   18078:	1d400b88 2d400b90 3d400b98 4d400ba0     ..@...@-..@=..@M
   18088:	5d400ba8 6d400bb0 7d400bb8 0f400bc0     ..@]..@m..@}..@.
   18098:	1f400bc8 2f400bd0 3f400bd8 4f400be0     ..@...@/..@?..@O
   180a8:	5f400be8 6f400bf0 7f400bf8 11800c08     ..@_..@o..@.....
   180b8:	21800c10 31800c18 41800c20 51800c28     ...!...1 ..A(..Q
   180c8:	61800c30 71800c38 13800c48 23800c50     0..a8..qH...P..#
   180d8:	33800c58 43800c60 53800c68 63800c70     X..3`..Ch..Sp..c
   180e8:	73800c78 15800c88 25800c90 35800c98     x..s.......%...5
   180f8:	45800ca0 55800ca8 65800cb0 75800cb8     ...E...U...e...u
   18108:	17800cc8 27800cd0 37800cd8 47800ce0     .......'...7...G
   18118:	57800ce8 67800cf0 77800cf8 19800d08     ...W...g...w....
   18128:	29800d10 39800d18 49800d20 59800d28     ...)...9 ..I(..Y
   18138:	69800d30 79800d38 1b800d48 2b800d50     0..i8..yH...P..+
   18148:	3b800d58 4b800d60 5b800d68 6b800d70     X..;`..Kh..[p..k
   18158:	7b800d78 1d800d88 2d800d90 3d800d98     x..{.......-...=
   18168:	4d800da0 5d800da8 6d800db0 7d800db8     ...M...]...m...}
   18178:	0f800dc0 1f800dc8 2f800dd0 3f800dd8     .........../...?
   18188:	4f800de0 5f800de8 6f800df0 7f800df8     ...O..._...o....
   18198:	11c00e08 21c00e10 31c00e18 41c00e20     .......!...1 ..A
   181a8:	51c00e28 61c00e30 71c00e38 13c00e48     (..Q0..a8..qH...
   181b8:	23c00e50 33c00e58 43c00e60 53c00e68     P..#X..3`..Ch..S
   181c8:	63c00e70 73c00e78 15c00e88 25c00e90     p..cx..s.......%
   181d8:	35c00e98 45c00ea0 55c00ea8 65c00eb0     ...5...E...U...e
   181e8:	75c00eb8 17c00ec8 27c00ed0 37c00ed8     ...u.......'...7
   181f8:	47c00ee0 57c00ee8 67c00ef0 77c00ef8     ...G...W...g...w
   18208:	19c00f08 29c00f10 39c00f18 49c00f20     .......)...9 ..I
   18218:	59c00f28 69c00f30 79c00f38 1bc00f48     (..Y0..i8..yH...
   18228:	2bc00f50 3bc00f58 4bc00f60 5bc00f68     P..+X..;`..Kh..[
   18238:	6bc00f70 7bc00f78 1dc00f88 2dc00f90     p..kx..{.......-
   18248:	3dc00f98 4dc00fa0 5dc00fa8 6dc00fb0     ...=...M...]...m
   18258:	7dc00fb8 1fc00fc8 2fc00fd0 3fc00fd8     ...}......./...?
   18268:	4fc00fe0 5fc00fe8 6fc00ff0 7fc00ff8     ...O..._...o....
   18278:	20081010 30081018 40081020 50081028     ... ...0 ..@(..P
   18288:	60081030 70081038 12081048 22081050     0..`8..pH...P.."
   18298:	32081058 42081060 52081068 62081070     X..2`..Bh..Rp..b
   182a8:	72081078 14081088 24081090 34081098     x..r.......$...4
   182b8:	440810a0 540810a8 640810b0 740810b8     ...D...T...d...t
   182c8:	160810c8 260810d0 360810d8 460810e0     .......&...6...F
   182d8:	560810e8 660810f0 760810f8 18081108     ...V...f...v....
   182e8:	28081110 38081118 48081120 58081128     ...(...8 ..H(..X
   182f8:	68081130 78081138 1a081148 2a081150     0..h8..xH...P..*
   18308:	3a081158 4a081160 5a081168 6a081170     X..:`..Jh..Zp..j
   18318:	7a081178 1c081188 2c081190 3c081198     x..z.......,...<
   18328:	4c0811a0 5c0811a8 6c0811b0 7c0811b8     ...L...\...l...|
   18338:	1e0811c8 2e0811d0 3e0811d8 4e0811e0     ...........>...N
   18348:	5e0811e8 6e0811f0 7e0811f8 20481210     ...^...n...~..H 
   18358:	30481218 40481220 50481228 60481230     ..H0 .H@(.HP0.H`
   18368:	70481238 22481250 32481258 42481260     8.HpP.H"X.H2`.HB
   18378:	52481268 62481270 72481278 14481288     h.HRp.Hbx.Hr..H.
   18388:	24481290 34481298 444812a0 544812a8     ..H$..H4..HD..HT
   18398:	644812b0 744812b8 164812c8 264812d0     ..Hd..Ht..H...H&
   183a8:	364812d8 464812e0 564812e8 664812f0     ..H6..HF..HV..Hf
   183b8:	764812f8 18481308 28481310 38481318     ..Hv..H...H(..H8
   183c8:	48481320 58481328 68481330 78481338      .HH(.HX0.Hh8.Hx
   183d8:	1a481348 2a481350 3a481358 4a481360     H.H.P.H*X.H:`.HJ
   183e8:	5a481368 6a481370 7a481378 1c481388     h.HZp.Hjx.Hz..H.
   183f8:	2c481390 3c481398 4c4813a0 5c4813a8     ..H,..H<..HL..H\
   18408:	6c4813b0 7c4813b8 1e4813c8 2e4813d0     ..Hl..H|..H...H.
   18418:	3e4813d8 4e4813e0 5e4813e8 6e4813f0     ..H>..HN..H^..Hn
   18428:	7e4813f8 20881410 30881418 40881420     ..H~... ...0 ..@
   18438:	50881428 60881430 70881438 22881450     (..P0..`8..pP.."
   18448:	32881458 42881460 52881468 62881470     X..2`..Bh..Rp..b
   18458:	72881478 24881490 34881498 448814a0     x..r...$...4...D
   18468:	548814a8 648814b0 748814b8 168814c8     ...T...d...t....
   18478:	268814d0 368814d8 468814e0 568814e8     ...&...6...F...V
   18488:	668814f0 768814f8 18881508 28881510     ...f...v.......(
   18498:	38881518 48881520 58881528 68881530     ...8 ..H(..X0..h
   184a8:	78881538 1a881548 2a881550 3a881558     8..xH...P..*X..:
   184b8:	4a881560 5a881568 6a881570 7a881578     `..Jh..Zp..jx..z
   184c8:	1c881588 2c881590 3c881598 4c8815a0     .......,...<...L
   184d8:	5c8815a8 6c8815b0 7c8815b8 1e8815c8     ...\...l...|....
   184e8:	2e8815d0 3e8815d8 4e8815e0 5e8815e8     .......>...N...^
   184f8:	6e8815f0 7e8815f8 20c81610 30c81618     ...n...~... ...0
   18508:	40c81620 50c81628 60c81630 70c81638      ..@(..P0..`8..p
   18518:	22c81650 32c81658 42c81660 52c81668     P.."X..2`..Bh..R
   18528:	62c81670 72c81678 24c81690 34c81698     p..bx..r...$...4
   18538:	44c816a0 54c816a8 64c816b0 74c816b8     ...D...T...d...t
   18548:	26c816d0 36c816d8 46c816e0 56c816e8     ...&...6...F...V
   18558:	66c816f0 76c816f8 18c81708 28c81710     ...f...v.......(
   18568:	38c81718 48c81720 58c81728 68c81730     ...8 ..H(..X0..h
   18578:	78c81738 1ac81748 2ac81750 3ac81758     8..xH...P..*X..:
   18588:	4ac81760 5ac81768 6ac81770 7ac81778     `..Jh..Zp..jx..z
   18598:	1cc81788 2cc81790 3cc81798 4cc817a0     .......,...<...L
   185a8:	5cc817a8 6cc817b0 7cc817b8 1ec817c8     ...\...l...|....
   185b8:	2ec817d0 3ec817d8 4ec817e0 5ec817e8     .......>...N...^
   185c8:	6ec817f0 7ec817f8 21081810 31081818     ...n...~...!...1
   185d8:	41081820 51081828 61081830 71081838      ..A(..Q0..a8..q
   185e8:	23081850 33081858 43081860 53081868     P..#X..3`..Ch..S
   185f8:	63081870 73081878 25081890 35081898     p..cx..s...%...5
   18608:	450818a0 550818a8 650818b0 750818b8     ...E...U...e...u
   18618:	270818d0 370818d8 470818e0 570818e8     ...'...7...G...W
   18628:	670818f0 770818f8 29081910 39081918     ...g...w...)...9
   18638:	49081920 59081928 69081930 79081938      ..I(..Y0..i8..y
   18648:	1b081948 2b081950 3b081958 4b081960     H...P..+X..;`..K
   18658:	5b081968 6b081970 7b081978 1d081988     h..[p..kx..{....
   18668:	2d081990 3d081998 4d0819a0 5d0819a8     ...-...=...M...]
   18678:	6d0819b0 7d0819b8 1f0819c8 2f0819d0     ...m...}......./
   18688:	3f0819d8 4f0819e0 5f0819e8 6f0819f0     ...?...O..._...o
   18698:	7f0819f8 21481a10 31481a18 41481a20     ......H!..H1 .HA
   186a8:	51481a28 61481a30 71481a38 23481a50     (.HQ0.Ha8.HqP.H#
   186b8:	33481a58 43481a60 53481a68 63481a70     X.H3`.HCh.HSp.Hc
   186c8:	73481a78 25481a90 35481a98 45481aa0     x.Hs..H%..H5..HE
   186d8:	55481aa8 65481ab0 75481ab8 27481ad0     ..HU..He..Hu..H'
   186e8:	37481ad8 47481ae0 57481ae8 67481af0     ..H7..HG..HW..Hg
   186f8:	77481af8 29481b10 39481b18 49481b20     ..Hw..H)..H9 .HI
   18708:	59481b28 69481b30 79481b38 2b481b50     (.HY0.Hi8.HyP.H+
   18718:	3b481b58 4b481b60 5b481b68 6b481b70     X.H;`.HKh.H[p.Hk
   18728:	7b481b78 1d481b88 2d481b90 3d481b98     x.H{..H...H-..H=
   18738:	4d481ba0 5d481ba8 6d481bb0 7d481bb8     ..HM..H]..Hm..H}
   18748:	1f481bc8 2f481bd0 3f481bd8 4f481be0     ..H...H/..H?..HO
   18758:	5f481be8 6f481bf0 7f481bf8 21881c10     ..H_..Ho..H....!
   18768:	31881c18 41881c20 51881c28 61881c30     ...1 ..A(..Q0..a
   18778:	71881c38 23881c50 33881c58 43881c60     8..qP..#X..3`..C
   18788:	53881c68 63881c70 73881c78 25881c90     h..Sp..cx..s...%
   18798:	35881c98 45881ca0 55881ca8 65881cb0     ...5...E...U...e
   187a8:	75881cb8 27881cd0 37881cd8 47881ce0     ...u...'...7...G
   187b8:	57881ce8 67881cf0 77881cf8 29881d10     ...W...g...w...)
   187c8:	39881d18 49881d20 59881d28 69881d30     ...9 ..I(..Y0..i
   187d8:	79881d38 2b881d50 3b881d58 4b881d60     8..yP..+X..;`..K
   187e8:	5b881d68 6b881d70 7b881d78 2d881d90     h..[p..kx..{...-
   187f8:	3d881d98 4d881da0 5d881da8 6d881db0     ...=...M...]...m
   18808:	7d881db8 1f881dc8 2f881dd0 3f881dd8     ...}......./...?
   18818:	4f881de0 5f881de8 6f881df0 7f881df8     ...O..._...o....
   18828:	21c81e10 31c81e18 41c81e20 51c81e28     ...!...1 ..A(..Q
   18838:	61c81e30 71c81e38 23c81e50 33c81e58     0..a8..qP..#X..3
   18848:	43c81e60 53c81e68 63c81e70 73c81e78     `..Ch..Sp..cx..s
   18858:	25c81e90 35c81e98 45c81ea0 55c81ea8     ...%...5...E...U
   18868:	65c81eb0 75c81eb8 27c81ed0 37c81ed8     ...e...u...'...7
   18878:	47c81ee0 57c81ee8 67c81ef0 77c81ef8     ...G...W...g...w
   18888:	29c81f10 39c81f18 49c81f20 59c81f28     ...)...9 ..I(..Y
   18898:	69c81f30 79c81f38 2bc81f50 3bc81f58     0..i8..yP..+X..;
   188a8:	4bc81f60 5bc81f68 6bc81f70 7bc81f78     `..Kh..[p..kx..{
   188b8:	2dc81f90 3dc81f98 4dc81fa0 5dc81fa8     ...-...=...M...]
   188c8:	6dc81fb0 7dc81fb8 2fc81fd0 3fc81fd8     ...m...}.../...?
   188d8:	4fc81fe0 5fc81fe8 6fc81ff0 7fc81ff8     ...O..._...o....
   188e8:	30102018 40102020 50102028 60102030     . .0  .@( .P0 .`
   188f8:	70102038 22102050 32102058 42102060     8 .pP ."X .2` .B
   18908:	52102068 62102070 72102078 24102090     h .Rp .bx .r. .$
   18918:	34102098 441020a0 541020a8 641020b0     . .4. .D. .T. .d
   18928:	741020b8 261020d0 361020d8 461020e0     . .t. .&. .6. .F
   18938:	561020e8 661020f0 761020f8 28102110     . .V. .f. .v.!.(
   18948:	38102118 48102120 58102128 68102130     .!.8 !.H(!.X0!.h
   18958:	78102138 2a102150 3a102158 4a102160     8!.xP!.*X!.:`!.J
   18968:	5a102168 6a102170 7a102178 2c102190     h!.Zp!.jx!.z.!.,
   18978:	3c102198 4c1021a0 5c1021a8 6c1021b0     .!.<.!.L.!.\.!.l
   18988:	7c1021b8 2e1021d0 3e1021d8 4e1021e0     .!.|.!...!.>.!.N
   18998:	5e1021e8 6e1021f0 7e1021f8 30502218     .!.^.!.n.!.~."P0
   189a8:	40502220 50502228 60502230 70502238      "P@("PP0"P`8"Pp
   189b8:	32502258 42502260 52502268 62502270     X"P2`"PBh"PRp"Pb
   189c8:	72502278 24502290 34502298 445022a0     x"Pr."P$."P4."PD
   189d8:	545022a8 645022b0 745022b8 265022d0     ."PT."Pd."Pt."P&
   189e8:	365022d8 465022e0 565022e8 665022f0     ."P6."PF."PV."Pf
   189f8:	765022f8 28502310 38502318 48502320     ."Pv.#P(.#P8 #PH
   18a08:	58502328 68502330 78502338 2a502350     (#PX0#Ph8#PxP#P*
   18a18:	3a502358 4a502360 5a502368 6a502370     X#P:`#PJh#PZp#Pj
   18a28:	7a502378 2c502390 3c502398 4c5023a0     x#Pz.#P,.#P<.#PL
   18a38:	5c5023a8 6c5023b0 7c5023b8 2e5023d0     .#P\.#Pl.#P|.#P.
   18a48:	3e5023d8 4e5023e0 5e5023e8 6e5023f0     .#P>.#PN.#P^.#Pn
   18a58:	7e5023f8 30902418 40902420 50902428     .#P~.$.0 $.@($.P
   18a68:	60902430 70902438 32902458 42902460     0$.`8$.pX$.2`$.B
   18a78:	52902468 62902470 72902478 34902498     h$.Rp$.bx$.r.$.4
   18a88:	449024a0 549024a8 649024b0 749024b8     .$.D.$.T.$.d.$.t
   18a98:	269024d0 369024d8 469024e0 569024e8     .$.&.$.6.$.F.$.V
   18aa8:	669024f0 769024f8 28902510 38902518     .$.f.$.v.%.(.%.8
   18ab8:	48902520 58902528 68902530 78902538      %.H(%.X0%.h8%.x
   18ac8:	2a902550 3a902558 4a902560 5a902568     P%.*X%.:`%.Jh%.Z
   18ad8:	6a902570 7a902578 2c902590 3c902598     p%.jx%.z.%.,.%.<
   18ae8:	4c9025a0 5c9025a8 6c9025b0 7c9025b8     .%.L.%.\.%.l.%.|
   18af8:	2e9025d0 3e9025d8 4e9025e0 5e9025e8     .%...%.>.%.N.%.^
   18b08:	6e9025f0 7e9025f8 30d02618 40d02620     .%.n.%.~.&.0 &.@
   18b18:	50d02628 60d02630 70d02638 32d02658     (&.P0&.`8&.pX&.2
   18b28:	42d02660 52d02668 62d02670 72d02678     `&.Bh&.Rp&.bx&.r
   18b38:	34d02698 44d026a0 54d026a8 64d026b0     .&.4.&.D.&.T.&.d
   18b48:	74d026b8 36d026d8 46d026e0 56d026e8     .&.t.&.6.&.F.&.V
   18b58:	66d026f0 76d026f8 28d02710 38d02718     .&.f.&.v.'.(.'.8
   18b68:	48d02720 58d02728 68d02730 78d02738      '.H('.X0'.h8'.x
   18b78:	2ad02750 3ad02758 4ad02760 5ad02768     P'.*X'.:`'.Jh'.Z
   18b88:	6ad02770 7ad02778 2cd02790 3cd02798     p'.jx'.z.'.,.'.<
   18b98:	4cd027a0 5cd027a8 6cd027b0 7cd027b8     .'.L.'.\.'.l.'.|
   18ba8:	2ed027d0 3ed027d8 4ed027e0 5ed027e8     .'...'.>.'.N.'.^
   18bb8:	6ed027f0 7ed027f8 31102818 41102820     .'.n.'.~.(.1 (.A
   18bc8:	51102828 61102830 71102838 33102858     ((.Q0(.a8(.qX(.3
   18bd8:	43102860 53102868 63102870 73102878     `(.Ch(.Sp(.cx(.s
   18be8:	35102898 451028a0 551028a8 651028b0     .(.5.(.E.(.U.(.e
   18bf8:	751028b8 371028d8 471028e0 571028e8     .(.u.(.7.(.G.(.W
   18c08:	671028f0 771028f8 39102918 49102920     .(.g.(.w.).9 ).I
   18c18:	59102928 69102930 79102938 2b102950     ().Y0).i8).yP).+
   18c28:	3b102958 4b102960 5b102968 6b102970     X).;`).Kh).[p).k
   18c38:	7b102978 2d102990 3d102998 4d1029a0     x).{.).-.).=.).M
   18c48:	5d1029a8 6d1029b0 7d1029b8 2f1029d0     .).].).m.).}.)./
   18c58:	3f1029d8 4f1029e0 5f1029e8 6f1029f0     .).?.).O.)._.).o
   18c68:	7f1029f8 31502a18 41502a20 51502a28     .)...*P1 *PA(*PQ
   18c78:	61502a30 71502a38 33502a58 43502a60     0*Pa8*PqX*P3`*PC
   18c88:	53502a68 63502a70 73502a78 35502a98     h*PSp*Pcx*Ps.*P5
   18c98:	45502aa0 55502aa8 65502ab0 75502ab8     .*PE.*PU.*Pe.*Pu
   18ca8:	37502ad8 47502ae0 57502ae8 67502af0     .*P7.*PG.*PW.*Pg
   18cb8:	77502af8 39502b18 49502b20 59502b28     .*Pw.+P9 +PI(+PY
   18cc8:	69502b30 79502b38 3b502b58 4b502b60     0+Pi8+PyX+P;`+PK
   18cd8:	5b502b68 6b502b70 7b502b78 2d502b90     h+P[p+Pkx+P{.+P-
   18ce8:	3d502b98 4d502ba0 5d502ba8 6d502bb0     .+P=.+PM.+P].+Pm
   18cf8:	7d502bb8 2f502bd0 3f502bd8 4f502be0     .+P}.+P/.+P?.+PO
   18d08:	5f502be8 6f502bf0 7f502bf8 31902c18     .+P_.+Po.+P..,.1
   18d18:	41902c20 51902c28 61902c30 71902c38      ,.A(,.Q0,.a8,.q
   18d28:	33902c58 43902c60 53902c68 63902c70     X,.3`,.Ch,.Sp,.c
   18d38:	73902c78 35902c98 45902ca0 55902ca8     x,.s.,.5.,.E.,.U
   18d48:	65902cb0 75902cb8 37902cd8 47902ce0     .,.e.,.u.,.7.,.G
   18d58:	57902ce8 67902cf0 77902cf8 39902d18     .,.W.,.g.,.w.-.9
   18d68:	49902d20 59902d28 69902d30 79902d38      -.I(-.Y0-.i8-.y
   18d78:	3b902d58 4b902d60 5b902d68 6b902d70     X-.;`-.Kh-.[p-.k
   18d88:	7b902d78 3d902d98 4d902da0 5d902da8     x-.{.-.=.-.M.-.]
   18d98:	6d902db0 7d902db8 2f902dd0 3f902dd8     .-.m.-.}.-./.-.?
   18da8:	4f902de0 5f902de8 6f902df0 7f902df8     .-.O.-._.-.o.-..
   18db8:	31d02e18 41d02e20 51d02e28 61d02e30     ...1 ..A(..Q0..a
   18dc8:	71d02e38 33d02e58 43d02e60 53d02e68     8..qX..3`..Ch..S
   18dd8:	63d02e70 73d02e78 35d02e98 45d02ea0     p..cx..s...5...E
   18de8:	55d02ea8 65d02eb0 75d02eb8 37d02ed8     ...U...e...u...7
   18df8:	47d02ee0 57d02ee8 67d02ef0 77d02ef8     ...G...W...g...w
   18e08:	39d02f18 49d02f20 59d02f28 69d02f30     ./.9 /.I(/.Y0/.i
   18e18:	79d02f38 3bd02f58 4bd02f60 5bd02f68     8/.yX/.;`/.Kh/.[
   18e28:	6bd02f70 7bd02f78 3dd02f98 4dd02fa0     p/.kx/.{./.=./.M
   18e38:	5dd02fa8 6dd02fb0 7dd02fb8 3fd02fd8     ./.]./.m./.}./.?
   18e48:	4fd02fe0 5fd02fe8 6fd02ff0 7fd02ff8     ./.O./._./.o./..
   18e58:	40183020 50183028 60183030 70183038      0.@(0.P00.`80.p
   18e68:	32183058 42183060 52183068 62183070     X0.2`0.Bh0.Rp0.b
   18e78:	72183078 34183098 441830a0 541830a8     x0.r.0.4.0.D.0.T
   18e88:	641830b0 741830b8 361830d8 461830e0     .0.d.0.t.0.6.0.F
   18e98:	561830e8 661830f0 761830f8 38183118     .0.V.0.f.0.v.1.8
   18ea8:	48183120 58183128 68183130 78183138      1.H(1.X01.h81.x
   18eb8:	3a183158 4a183160 5a183168 6a183170     X1.:`1.Jh1.Zp1.j
   18ec8:	7a183178 3c183198 4c1831a0 5c1831a8     x1.z.1.<.1.L.1.\
   18ed8:	6c1831b0 7c1831b8 3e1831d8 4e1831e0     .1.l.1.|.1.>.1.N
   18ee8:	5e1831e8 6e1831f0 7e1831f8 40583220     .1.^.1.n.1.~ 2X@
   18ef8:	50583228 60583230 70583238 42583260     (2XP02X`82Xp`2XB
   18f08:	52583268 62583270 72583278 34583298     h2XRp2Xbx2Xr.2X4
   18f18:	445832a0 545832a8 645832b0 745832b8     .2XD.2XT.2Xd.2Xt
   18f28:	365832d8 465832e0 565832e8 665832f0     .2X6.2XF.2XV.2Xf
   18f38:	765832f8 38583318 48583320 58583328     .2Xv.3X8 3XH(3XX
   18f48:	68583330 78583338 3a583358 4a583360     03Xh83XxX3X:`3XJ
   18f58:	5a583368 6a583370 7a583378 3c583398     h3XZp3Xjx3Xz.3X<
   18f68:	4c5833a0 5c5833a8 6c5833b0 7c5833b8     .3XL.3X\.3Xl.3X|
   18f78:	3e5833d8 4e5833e0 5e5833e8 6e5833f0     .3X>.3XN.3X^.3Xn
   18f88:	7e5833f8 40983420 50983428 60983430     .3X~ 4.@(4.P04.`
   18f98:	70983438 42983460 52983468 62983470     84.p`4.Bh4.Rp4.b
   18fa8:	72983478 449834a0 549834a8 649834b0     x4.r.4.D.4.T.4.d
   18fb8:	749834b8 369834d8 469834e0 569834e8     .4.t.4.6.4.F.4.V
   18fc8:	669834f0 769834f8 38983518 48983520     .4.f.4.v.5.8 5.H
   18fd8:	58983528 68983530 78983538 3a983558     (5.X05.h85.xX5.:
   18fe8:	4a983560 5a983568 6a983570 7a983578     `5.Jh5.Zp5.jx5.z
   18ff8:	3c983598 4c9835a0 5c9835a8 6c9835b0     .5.<.5.L.5.\.5.l
   19008:	7c9835b8 3e9835d8 4e9835e0 5e9835e8     .5.|.5.>.5.N.5.^
   19018:	6e9835f0 7e9835f8 40d83620 50d83628     .5.n.5.~ 6.@(6.P
   19028:	60d83630 70d83638 42d83660 52d83668     06.`86.p`6.Bh6.R
   19038:	62d83670 72d83678 44d836a0 54d836a8     p6.bx6.r.6.D.6.T
   19048:	64d836b0 74d836b8 46d836e0 56d836e8     .6.d.6.t.6.F.6.V
   19058:	66d836f0 76d836f8 38d83718 48d83720     .6.f.6.v.7.8 7.H
   19068:	58d83728 68d83730 78d83738 3ad83758     (7.X07.h87.xX7.:
   19078:	4ad83760 5ad83768 6ad83770 7ad83778     `7.Jh7.Zp7.jx7.z
   19088:	3cd83798 4cd837a0 5cd837a8 6cd837b0     .7.<.7.L.7.\.7.l
   19098:	7cd837b8 3ed837d8 4ed837e0 5ed837e8     .7.|.7.>.7.N.7.^
   190a8:	6ed837f0 7ed837f8 41183820 51183828     .7.n.7.~ 8.A(8.Q
   190b8:	61183830 71183838 43183860 53183868     08.a88.q`8.Ch8.S
   190c8:	63183870 73183878 451838a0 551838a8     p8.cx8.s.8.E.8.U
   190d8:	651838b0 751838b8 471838e0 571838e8     .8.e.8.u.8.G.8.W
   190e8:	671838f0 771838f8 49183920 59183928     .8.g.8.w 9.I(9.Y
   190f8:	69183930 79183938 3b183958 4b183960     09.i89.yX9.;`9.K
   19108:	5b183968 6b183970 7b183978 3d183998     h9.[p9.kx9.{.9.=
   19118:	4d1839a0 5d1839a8 6d1839b0 7d1839b8     .9.M.9.].9.m.9.}
   19128:	3f1839d8 4f1839e0 5f1839e8 6f1839f0     .9.?.9.O.9._.9.o
   19138:	7f1839f8 41583a20 51583a28 61583a30     .9.. :XA(:XQ0:Xa
   19148:	71583a38 43583a60 53583a68 63583a70     8:Xq`:XCh:XSp:Xc
   19158:	73583a78 45583aa0 55583aa8 65583ab0     x:Xs.:XE.:XU.:Xe
   19168:	75583ab8 47583ae0 57583ae8 67583af0     .:Xu.:XG.:XW.:Xg
   19178:	77583af8 49583b20 59583b28 69583b30     .:Xw ;XI(;XY0;Xi
   19188:	79583b38 4b583b60 5b583b68 6b583b70     8;Xy`;XKh;X[p;Xk
   19198:	7b583b78 3d583b98 4d583ba0 5d583ba8     x;X{.;X=.;XM.;X]
   191a8:	6d583bb0 7d583bb8 3f583bd8 4f583be0     .;Xm.;X}.;X?.;XO
   191b8:	5f583be8 6f583bf0 7f583bf8 41983c20     .;X_.;Xo.;X. <.A
   191c8:	51983c28 61983c30 71983c38 43983c60     (<.Q0<.a8<.q`<.C
   191d8:	53983c68 63983c70 73983c78 45983ca0     h<.Sp<.cx<.s.<.E
   191e8:	55983ca8 65983cb0 75983cb8 47983ce0     .<.U.<.e.<.u.<.G
   191f8:	57983ce8 67983cf0 77983cf8 49983d20     .<.W.<.g.<.w =.I
   19208:	59983d28 69983d30 79983d38 4b983d60     (=.Y0=.i8=.y`=.K
   19218:	5b983d68 6b983d70 7b983d78 4d983da0     h=.[p=.kx=.{.=.M
   19228:	5d983da8 6d983db0 7d983db8 3f983dd8     .=.].=.m.=.}.=.?
   19238:	4f983de0 5f983de8 6f983df0 7f983df8     .=.O.=._.=.o.=..
   19248:	41d83e20 51d83e28 61d83e30 71d83e38      >.A(>.Q0>.a8>.q
   19258:	43d83e60 53d83e68 63d83e70 73d83e78     `>.Ch>.Sp>.cx>.s
   19268:	45d83ea0 55d83ea8 65d83eb0 75d83eb8     .>.E.>.U.>.e.>.u
   19278:	47d83ee0 57d83ee8 67d83ef0 77d83ef8     .>.G.>.W.>.g.>.w
   19288:	49d83f20 59d83f28 69d83f30 79d83f38      ?.I(?.Y0?.i8?.y
   19298:	4bd83f60 5bd83f68 6bd83f70 7bd83f78     `?.Kh?.[p?.kx?.{
   192a8:	4dd83fa0 5dd83fa8 6dd83fb0 7dd83fb8     .?.M.?.].?.m.?.}
   192b8:	4fd83fe0 5fd83fe8 6fd83ff0 7fd83ff8     .?.O.?._.?.o.?..
   192c8:	50204028 60204030 70204038 42204060     (@ P0@ `8@ p`@ B
   192d8:	52204068 62204070 72204078 442040a0     h@ Rp@ bx@ r.@ D
   192e8:	542040a8 642040b0 742040b8 462040e0     .@ T.@ d.@ t.@ F
   192f8:	562040e8 662040f0 762040f8 48204120     .@ V.@ f.@ v A H
   19308:	58204128 68204130 78204138 4a204160     (A X0A h8A x`A J
   19318:	5a204168 6a204170 7a204178 4c2041a0     hA ZpA jxA z.A L
   19328:	5c2041a8 6c2041b0 7c2041b8 4e2041e0     .A \.A l.A |.A N
   19338:	5e2041e8 6e2041f0 7e2041f8 50604228     .A ^.A n.A ~(B`P
   19348:	60604230 70604238 52604268 62604270     0B``8B`phB`RpB`b
   19358:	72604278 446042a0 546042a8 646042b0     xB`r.B`D.B`T.B`d
   19368:	746042b8 466042e0 566042e8 666042f0     .B`t.B`F.B`V.B`f
   19378:	766042f8 48604320 58604328 68604330     .B`v C`H(C`X0C`h
   19388:	78604338 4a604360 5a604368 6a604370     8C`x`C`JhC`ZpC`j
   19398:	7a604378 4c6043a0 5c6043a8 6c6043b0     xC`z.C`L.C`\.C`l
   193a8:	7c6043b8 4e6043e0 5e6043e8 6e6043f0     .C`|.C`N.C`^.C`n
   193b8:	7e6043f8 50a04428 60a04430 70a04438     .C`~(D.P0D.`8D.p
   193c8:	52a04468 62a04470 72a04478 54a044a8     hD.RpD.bxD.r.D.T
   193d8:	64a044b0 74a044b8 46a044e0 56a044e8     .D.d.D.t.D.F.D.V
   193e8:	66a044f0 76a044f8 48a04520 58a04528     .D.f.D.v E.H(E.X
   193f8:	68a04530 78a04538 4aa04560 5aa04568     0E.h8E.x`E.JhE.Z
   19408:	6aa04570 7aa04578 4ca045a0 5ca045a8     pE.jxE.z.E.L.E.\
   19418:	6ca045b0 7ca045b8 4ea045e0 5ea045e8     .E.l.E.|.E.N.E.^
   19428:	6ea045f0 7ea045f8 50e04628 60e04630     .E.n.E.~(F.P0F.`
   19438:	70e04638 52e04668 62e04670 72e04678     8F.phF.RpF.bxF.r
   19448:	54e046a8 64e046b0 74e046b8 56e046e8     .F.T.F.d.F.t.F.V
   19458:	66e046f0 76e046f8 48e04720 58e04728     .F.f.F.v G.H(G.X
   19468:	68e04730 78e04738 4ae04760 5ae04768     0G.h8G.x`G.JhG.Z
   19478:	6ae04770 7ae04778 4ce047a0 5ce047a8     pG.jxG.z.G.L.G.\
   19488:	6ce047b0 7ce047b8 4ee047e0 5ee047e8     .G.l.G.|.G.N.G.^
   19498:	6ee047f0 7ee047f8 51204828 61204830     .G.n.G.~(H Q0H a
   194a8:	71204838 53204868 63204870 73204878     8H qhH SpH cxH s
   194b8:	552048a8 652048b0 752048b8 572048e8     .H U.H e.H u.H W
   194c8:	672048f0 772048f8 59204928 69204930     .H g.H w(I Y0I i
   194d8:	79204938 4b204960 5b204968 6b204970     8I y`I KhI [pI k
   194e8:	7b204978 4d2049a0 5d2049a8 6d2049b0     xI {.I M.I ].I m
   194f8:	7d2049b8 4f2049e0 5f2049e8 6f2049f0     .I }.I O.I _.I o
   19508:	7f2049f8 51604a28 61604a30 71604a38     .I .(J`Q0J`a8J`q
   19518:	53604a68 63604a70 73604a78 55604aa8     hJ`SpJ`cxJ`s.J`U
   19528:	65604ab0 75604ab8 57604ae8 67604af0     .J`e.J`u.J`W.J`g
   19538:	77604af8 59604b28 69604b30 79604b38     .J`w(K`Y0K`i8K`y
   19548:	5b604b68 6b604b70 7b604b78 4d604ba0     hK`[pK`kxK`{.K`M
   19558:	5d604ba8 6d604bb0 7d604bb8 4f604be0     .K`].K`m.K`}.K`O
   19568:	5f604be8 6f604bf0 7f604bf8 51a04c28     .K`_.K`o.K`.(L.Q
   19578:	61a04c30 71a04c38 53a04c68 63a04c70     0L.a8L.qhL.SpL.c
   19588:	73a04c78 55a04ca8 65a04cb0 75a04cb8     xL.s.L.U.L.e.L.u
   19598:	57a04ce8 67a04cf0 77a04cf8 59a04d28     .L.W.L.g.L.w(M.Y
   195a8:	69a04d30 79a04d38 5ba04d68 6ba04d70     0M.i8M.yhM.[pM.k
   195b8:	7ba04d78 5da04da8 6da04db0 7da04db8     xM.{.M.].M.m.M.}
   195c8:	4fa04de0 5fa04de8 6fa04df0 7fa04df8     .M.O.M._.M.o.M..
   195d8:	51e04e28 61e04e30 71e04e38 53e04e68     (N.Q0N.a8N.qhN.S
   195e8:	63e04e70 73e04e78 55e04ea8 65e04eb0     pN.cxN.s.N.U.N.e
   195f8:	75e04eb8 57e04ee8 67e04ef0 77e04ef8     .N.u.N.W.N.g.N.w
   19608:	59e04f28 69e04f30 79e04f38 5be04f68     (O.Y0O.i8O.yhO.[
   19618:	6be04f70 7be04f78 5de04fa8 6de04fb0     pO.kxO.{.O.].O.m
   19628:	7de04fb8 5fe04fe8 6fe04ff0 7fe04ff8     .O.}.O._.O.o.O..
   19638:	60285030 70285038 52285068 62285070     0P(`8P(phP(RpP(b
   19648:	72285078 542850a8 642850b0 742850b8     xP(r.P(T.P(d.P(t
   19658:	562850e8 662850f0 762850f8 58285128     .P(V.P(f.P(v(Q(X
   19668:	68285130 78285138 5a285168 6a285170     0Q(h8Q(xhQ(ZpQ(j
   19678:	7a285178 5c2851a8 6c2851b0 7c2851b8     xQ(z.Q(\.Q(l.Q(|
   19688:	5e2851e8 6e2851f0 7e2851f8 60685230     .Q(^.Q(n.Q(~0Rh`
   19698:	70685238 62685270 72685278 546852a8     8RhppRhbxRhr.RhT
   196a8:	646852b0 746852b8 566852e8 666852f0     .Rhd.Rht.RhV.Rhf
   196b8:	766852f8 58685328 68685330 78685338     .Rhv(ShX0Shh8Shx
   196c8:	5a685368 6a685370 7a685378 5c6853a8     hShZpShjxShz.Sh\
   196d8:	6c6853b0 7c6853b8 5e6853e8 6e6853f0     .Shl.Sh|.Sh^.Shn
   196e8:	7e6853f8 60a85430 70a85438 62a85470     .Sh~0T.`8T.ppT.b
   196f8:	72a85478 64a854b0 74a854b8 56a854e8     xT.r.T.d.T.t.T.V
   19708:	66a854f0 76a854f8 58a85528 68a85530     .T.f.T.v(U.X0U.h
   19718:	78a85538 5aa85568 6aa85570 7aa85578     8U.xhU.ZpU.jxU.z
   19728:	5ca855a8 6ca855b0 7ca855b8 5ea855e8     .U.\.U.l.U.|.U.^
   19738:	6ea855f0 7ea855f8 60e85630 70e85638     .U.n.U.~0V.`8V.p
   19748:	62e85670 72e85678 64e856b0 74e856b8     pV.bxV.r.V.d.V.t
   19758:	66e856f0 76e856f8 58e85728 68e85730     .V.f.V.v(W.X0W.h
   19768:	78e85738 5ae85768 6ae85770 7ae85778     8W.xhW.ZpW.jxW.z
   19778:	5ce857a8 6ce857b0 7ce857b8 5ee857e8     .W.\.W.l.W.|.W.^
   19788:	6ee857f0 7ee857f8 61285830 71285838     .W.n.W.~0X(a8X(q
   19798:	63285870 73285878 652858b0 752858b8     pX(cxX(s.X(e.X(u
   197a8:	672858f0 772858f8 69285930 79285938     .X(g.X(w0Y(i8Y(y
   197b8:	5b285968 6b285970 7b285978 5d2859a8     hY([pY(kxY({.Y(]
   197c8:	6d2859b0 7d2859b8 5f2859e8 6f2859f0     .Y(m.Y(}.Y(_.Y(o
   197d8:	7f2859f8 61685a30 71685a38 63685a70     .Y(.0Zha8ZhqpZhc
   197e8:	73685a78 65685ab0 75685ab8 67685af0     xZhs.Zhe.Zhu.Zhg
   197f8:	77685af8 69685b30 79685b38 6b685b70     .Zhw0[hi8[hyp[hk
   19808:	7b685b78 5d685ba8 6d685bb0 7d685bb8     x[h{.[h].[hm.[h}
   19818:	5f685be8 6f685bf0 7f685bf8 61a85c30     .[h_.[ho.[h.0\.a
   19828:	71a85c38 63a85c70 73a85c78 65a85cb0     8\.qp\.cx\.s.\.e
   19838:	75a85cb8 67a85cf0 77a85cf8 69a85d30     .\.u.\.g.\.w0].i
   19848:	79a85d38 6ba85d70 7ba85d78 6da85db0     8].yp].kx].{.].m
   19858:	7da85db8 5fa85de8 6fa85df0 7fa85df8     .].}.]._.].o.]..
   19868:	61e85e30 71e85e38 63e85e70 73e85e78     0^.a8^.qp^.cx^.s
   19878:	65e85eb0 75e85eb8 67e85ef0 77e85ef8     .^.e.^.u.^.g.^.w
   19888:	69e85f30 79e85f38 6be85f70 7be85f78     0_.i8_.yp_.kx_.{
   19898:	6de85fb0 7de85fb8 6fe85ff0 7fe85ff8     ._.m._.}._.o._..
   198a8:	70306038 62306070 72306078 643060b0     8`0pp`0bx`0r.`0d
   198b8:	743060b8 663060f0 763060f8 68306130     .`0t.`0f.`0v0a0h
   198c8:	78306138 6a306170 7a306178 6c3061b0     8a0xpa0jxa0z.a0l
   198d8:	7c3061b8 6e3061f0 7e3061f8 70706238     .a0|.a0n.a0~8bpp
   198e8:	72706278 647062b0 747062b8 667062f0     xbpr.bpd.bpt.bpf
   198f8:	767062f8 68706330 78706338 6a706370     .bpv0cph8cpxpcpj
   19908:	7a706378 6c7063b0 7c7063b8 6e7063f0     xcpz.cpl.cp|.cpn
   19918:	7e7063f8 70b06438 72b06478 74b064b8     .cp~8d.pxd.r.d.t
   19928:	66b064f0 76b064f8 68b06530 78b06538     .d.f.d.v0e.h8e.x
   19938:	6ab06570 7ab06578 6cb065b0 7cb065b8     pe.jxe.z.e.l.e.|
   19948:	6eb065f0 7eb065f8 70f06638 72f06678     .e.n.e.~8f.pxf.r
   19958:	74f066b8 76f066f8 68f06730 78f06738     .f.t.f.v0g.h8g.x
   19968:	6af06770 7af06778 6cf067b0 7cf067b8     pg.jxg.z.g.l.g.|
   19978:	6ef067f0 7ef067f8 71306838 73306878     .g.n.g.~8h0qxh0s
   19988:	753068b8 773068f8 79306938 6b306970     .h0u.h0w8i0ypi0k
   19998:	7b306978 6d3069b0 7d3069b8 6f3069f0     xi0{.i0m.i0}.i0o
   199a8:	7f3069f8 71706a38 73706a78 75706ab8     .i0.8jpqxjps.jpu
   199b8:	77706af8 79706b38 7b706b78 6d706bb0     .jpw8kpyxkp{.kpm
   199c8:	7d706bb8 6f706bf0 7f706bf8 71b06c38     .kp}.kpo.kp.8l.q
   199d8:	73b06c78 75b06cb8 77b06cf8 79b06d38     xl.s.l.u.l.w8m.y
   199e8:	7bb06d78 7db06db8 6fb06df0 7fb06df8     xm.{.m.}.m.o.m..
   199f8:	71f06e38 73f06e78 75f06eb8 77f06ef8     8n.qxn.s.n.u.n.w
   19a08:	79f06f38 7bf06f78 7df06fb8 7ff06ff8     8o.yxo.{.o.}.o..
   19a18:	72387078 743870b8 763870f8 78387138     xp8r.p8t.p8v8q8x
   19a28:	7a387178 7c3871b8 7e3871f8 747872b8     xq8z.q8|.q8~.rxt
   19a38:	767872f8 78787338 7a787378 7c7873b8     .rxv8sxxxsxz.sx|
   19a48:	7e7873f8 76b874f8 78b87538 7ab87578     .sx~.t.v8u.xxu.z
   19a58:	7cb875b8 7eb875f8 78f87738 7af87778     .u.|.u.~8w.xxw.z
   19a68:	7cf877b8 7ef877f8 7b387978 7d3879b8     .w.|.w.~xy8{.y8}
   19a78:	7f3879f8 7d787bb8 7f787bf8 7fb87df8     .y8..{x}.{x..}..

00019a88 <twiddleCoef_rfft_32>:
   19a88:	00000000 3f800000 3e47c5c2 3f7b14be     .......?..G>..{?
   19a98:	3ec3ef15 3f6c835e 3f0e39da 3f54db31     ...>^.l?.9.?1.T?
   19aa8:	3f3504f3 3f3504f3 3f54db31 3f0e39da     ..5?..5?1.T?.9.?
   19ab8:	3f6c835e 3ec3ef15 3f7b14be 3e47c5c2     ^.l?...>..{?..G>
   19ac8:	3f800000 00000000 3f7b14be be47c5c2     ...?......{?..G.
   19ad8:	3f6c835e bec3ef15 3f54db31 bf0e39da     ^.l?....1.T?.9..
   19ae8:	3f3504f3 bf3504f3 3f0e39da bf54db31     ..5?..5..9.?1.T.
   19af8:	3ec3ef15 bf6c835e 3e47c5c2 bf7b14be     ...>^.l...G>..{.

00019b08 <twiddleCoef_rfft_64>:
   19b08:	00000000 3f800000 3dc8bd36 3f7ec46d     .......?6..=m.~?
   19b18:	3e47c5c2 3f7b14be 3e94a031 3f74fa0b     ..G>..{?1..>..t?
   19b28:	3ec3ef15 3f6c835e 3ef15aea 3f61c598     ...>^.l?.Z.>..a?
   19b38:	3f0e39da 3f54db31 3f226799 3f45e403     .9.?1.T?.g"?..E?
   19b48:	3f3504f3 3f3504f3 3f45e403 3f226799     ..5?..5?..E?.g"?
   19b58:	3f54db31 3f0e39da 3f61c598 3ef15aea     1.T?.9.?..a?.Z.>
   19b68:	3f6c835e 3ec3ef15 3f74fa0b 3e94a031     ^.l?...>..t?1..>
   19b78:	3f7b14be 3e47c5c2 3f7ec46d 3dc8bd36     ..{?..G>m.~?6..=
   19b88:	3f800000 00000000 3f7ec46d bdc8bd36     ...?....m.~?6...
   19b98:	3f7b14be be47c5c2 3f74fa0b be94a031     ..{?..G...t?1...
   19ba8:	3f6c835e bec3ef15 3f61c598 bef15aea     ^.l?......a?.Z..
   19bb8:	3f54db31 bf0e39da 3f45e403 bf226799     1.T?.9....E?.g".
   19bc8:	3f3504f3 bf3504f3 3f226799 bf45e403     ..5?..5..g"?..E.
   19bd8:	3f0e39da bf54db31 3ef15aea bf61c598     .9.?1.T..Z.>..a.
   19be8:	3ec3ef15 bf6c835e 3e94a031 bf74fa0b     ...>^.l.1..>..t.
   19bf8:	3e47c5c2 bf7b14be 3dc8bd36 bf7ec46d     ..G>..{.6..=m.~.

00019c08 <twiddleCoef_rfft_128>:
   19c08:	00000000 3f800000 3d48fb2f 3f7fb10f     .......?/.H=...?
   19c18:	3dc8bd36 3f7ec46d 3e164083 3f7d3aac     6..=m.~?.@.>.:}?
   19c28:	3e47c5c2 3f7b14be 3e78cfcc 3f7853f8     ..G>..{?..x>.Sx?
   19c38:	3e94a031 3f74fa0b 3eac7cd4 3f710908     1..>..t?.|.>..q?
   19c48:	3ec3ef15 3f6c835e 3edae880 3f676bd8     ...>^.l?...>.kg?
   19c58:	3ef15aea 3f61c598 3f039c3d 3f5b941a     .Z.>..a?=..?..[?
   19c68:	3f0e39da 3f54db31 3f187fc0 3f4d9f02     .9.?1.T?...?..M?
   19c78:	3f226799 3f45e403 3f2beb4a 3f3daef9     .g"?..E?J.+?..=?
   19c88:	3f3504f3 3f3504f3 3f3daef9 3f2beb4a     ..5?..5?..=?J.+?
   19c98:	3f45e403 3f226799 3f4d9f02 3f187fc0     ..E?.g"?..M?...?
   19ca8:	3f54db31 3f0e39da 3f5b941a 3f039c3d     1.T?.9.?..[?=..?
   19cb8:	3f61c598 3ef15aea 3f676bd8 3edae880     ..a?.Z.>.kg?...>
   19cc8:	3f6c835e 3ec3ef15 3f710908 3eac7cd4     ^.l?...>..q?.|.>
   19cd8:	3f74fa0b 3e94a031 3f7853f8 3e78cfcc     ..t?1..>.Sx?..x>
   19ce8:	3f7b14be 3e47c5c2 3f7d3aac 3e164083     ..{?..G>.:}?.@.>
   19cf8:	3f7ec46d 3dc8bd36 3f7fb10f 3d48fb2f     m.~?6..=...?/.H=
   19d08:	3f800000 00000000 3f7fb10f bd48fb2f     ...?.......?/.H.
   19d18:	3f7ec46d bdc8bd36 3f7d3aac be164083     m.~?6....:}?.@..
   19d28:	3f7b14be be47c5c2 3f7853f8 be78cfcc     ..{?..G..Sx?..x.
   19d38:	3f74fa0b be94a031 3f710908 beac7cd4     ..t?1.....q?.|..
   19d48:	3f6c835e bec3ef15 3f676bd8 bedae880     ^.l?.....kg?....
   19d58:	3f61c598 bef15aea 3f5b941a bf039c3d     ..a?.Z....[?=...
   19d68:	3f54db31 bf0e39da 3f4d9f02 bf187fc0     1.T?.9....M?....
   19d78:	3f45e403 bf226799 3f3daef9 bf2beb4a     ..E?.g"...=?J.+.
   19d88:	3f3504f3 bf3504f3 3f2beb4a bf3daef9     ..5?..5.J.+?..=.
   19d98:	3f226799 bf45e403 3f187fc0 bf4d9f02     .g"?..E....?..M.
   19da8:	3f0e39da bf54db31 3f039c3d bf5b941a     .9.?1.T.=..?..[.
   19db8:	3ef15aea bf61c598 3edae880 bf676bd8     .Z.>..a....>.kg.
   19dc8:	3ec3ef15 bf6c835e 3eac7cd4 bf710908     ...>^.l..|.>..q.
   19dd8:	3e94a031 bf74fa0b 3e78cfcc bf7853f8     1..>..t...x>.Sx.
   19de8:	3e47c5c2 bf7b14be 3e164083 bf7d3aac     ..G>..{..@.>.:}.
   19df8:	3dc8bd36 bf7ec46d 3d48fb2f bf7fb10f     6..=m.~./.H=....

00019e08 <twiddleCoef_rfft_256>:
   19e08:	00000000 3f800000 3cc90ab0 3f7fec43     .......?...<C..?
   19e18:	3d48fb2f 3f7fb10f 3d96a905 3f7f4e6d     /.H=...?...=mN.?
   19e28:	3dc8bd36 3f7ec46d 3dfab273 3f7e1324     6..=m.~?s..=$.~?
   19e38:	3e164083 3f7d3aac 3e2f10a2 3f7c3b28     .@.>.:}?../>(;|?
   19e48:	3e47c5c2 3f7b14be 3e605c13 3f79c79d     ..G>..{?.\`>..y?
   19e58:	3e78cfcc 3f7853f8 3e888e93 3f76ba07     ..x>.Sx?...>..v?
   19e68:	3e94a031 3f74fa0b 3ea09ae5 3f731447     1..>..t?...>G.s?
   19e78:	3eac7cd4 3f710908 3eb8442a 3f6ed89e     .|.>..q?*D.>..n?
   19e88:	3ec3ef15 3f6c835e 3ecf7bca 3f6a09a7     ...>^.l?.{.>..j?
   19e98:	3edae880 3f676bd8 3ee63375 3f64aa59     ...>.kg?u3.>Y.d?
   19ea8:	3ef15aea 3f61c598 3efc5d27 3f5ebe05     .Z.>..a?'].>..^?
   19eb8:	3f039c3d 3f5b941a 3f08f59b 3f584853     =..?..[?...?SHX?
   19ec8:	3f0e39da 3f54db31 3f13682a 3f514d3d     .9.?1.T?*h.?=MQ?
   19ed8:	3f187fc0 3f4d9f02 3f1d7fd1 3f49d112     ...?..M?...?..I?
   19ee8:	3f226799 3f45e403 3f273656 3f41d870     .g"?..E?V6'?p.A?
   19ef8:	3f2beb4a 3f3daef9 3f3085bb 3f396842     J.+?..=?..0?Bh9?
   19f08:	3f3504f3 3f3504f3 3f396842 3f3085bb     ..5?..5?Bh9?..0?
   19f18:	3f3daef9 3f2beb4a 3f41d870 3f273656     ..=?J.+?p.A?V6'?
   19f28:	3f45e403 3f226799 3f49d112 3f1d7fd1     ..E?.g"?..I?...?
   19f38:	3f4d9f02 3f187fc0 3f514d3d 3f13682a     ..M?...?=MQ?*h.?
   19f48:	3f54db31 3f0e39da 3f584853 3f08f59b     1.T?.9.?SHX?...?
   19f58:	3f5b941a 3f039c3d 3f5ebe05 3efc5d27     ..[?=..?..^?'].>
   19f68:	3f61c598 3ef15aea 3f64aa59 3ee63375     ..a?.Z.>Y.d?u3.>
   19f78:	3f676bd8 3edae880 3f6a09a7 3ecf7bca     .kg?...>..j?.{.>
   19f88:	3f6c835e 3ec3ef15 3f6ed89e 3eb8442a     ^.l?...>..n?*D.>
   19f98:	3f710908 3eac7cd4 3f731447 3ea09ae5     ..q?.|.>G.s?...>
   19fa8:	3f74fa0b 3e94a031 3f76ba07 3e888e93     ..t?1..>..v?...>
   19fb8:	3f7853f8 3e78cfcc 3f79c79d 3e605c13     .Sx?..x>..y?.\`>
   19fc8:	3f7b14be 3e47c5c2 3f7c3b28 3e2f10a2     ..{?..G>(;|?../>
   19fd8:	3f7d3aac 3e164083 3f7e1324 3dfab273     .:}?.@.>$.~?s..=
   19fe8:	3f7ec46d 3dc8bd36 3f7f4e6d 3d96a905     m.~?6..=mN.?...=
   19ff8:	3f7fb10f 3d48fb2f 3f7fec43 3cc90ab0     ...?/.H=C..?...<
   1a008:	3f800000 00000000 3f7fec43 bcc90ab0     ...?....C..?....
   1a018:	3f7fb10f bd48fb2f 3f7f4e6d bd96a905     ...?/.H.mN.?....
   1a028:	3f7ec46d bdc8bd36 3f7e1324 bdfab273     m.~?6...$.~?s...
   1a038:	3f7d3aac be164083 3f7c3b28 be2f10a2     .:}?.@..(;|?../.
   1a048:	3f7b14be be47c5c2 3f79c79d be605c13     ..{?..G...y?.\`.
   1a058:	3f7853f8 be78cfcc 3f76ba07 be888e93     .Sx?..x...v?....
   1a068:	3f74fa0b be94a031 3f731447 bea09ae5     ..t?1...G.s?....
   1a078:	3f710908 beac7cd4 3f6ed89e beb8442a     ..q?.|....n?*D..
   1a088:	3f6c835e bec3ef15 3f6a09a7 becf7bca     ^.l?......j?.{..
   1a098:	3f676bd8 bedae880 3f64aa59 bee63375     .kg?....Y.d?u3..
   1a0a8:	3f61c598 bef15aea 3f5ebe05 befc5d27     ..a?.Z....^?']..
   1a0b8:	3f5b941a bf039c3d 3f584853 bf08f59b     ..[?=...SHX?....
   1a0c8:	3f54db31 bf0e39da 3f514d3d bf13682a     1.T?.9..=MQ?*h..
   1a0d8:	3f4d9f02 bf187fc0 3f49d112 bf1d7fd1     ..M?......I?....
   1a0e8:	3f45e403 bf226799 3f41d870 bf273656     ..E?.g".p.A?V6'.
   1a0f8:	3f3daef9 bf2beb4a 3f396842 bf3085bb     ..=?J.+.Bh9?..0.
   1a108:	3f3504f3 bf3504f3 3f3085bb bf396842     ..5?..5...0?Bh9.
   1a118:	3f2beb4a bf3daef9 3f273656 bf41d870     J.+?..=.V6'?p.A.
   1a128:	3f226799 bf45e403 3f1d7fd1 bf49d112     .g"?..E....?..I.
   1a138:	3f187fc0 bf4d9f02 3f13682a bf514d3d     ...?..M.*h.?=MQ.
   1a148:	3f0e39da bf54db31 3f08f59b bf584853     .9.?1.T....?SHX.
   1a158:	3f039c3d bf5b941a 3efc5d27 bf5ebe05     =..?..[.'].>..^.
   1a168:	3ef15aea bf61c598 3ee63375 bf64aa59     .Z.>..a.u3.>Y.d.
   1a178:	3edae880 bf676bd8 3ecf7bca bf6a09a7     ...>.kg..{.>..j.
   1a188:	3ec3ef15 bf6c835e 3eb8442a bf6ed89e     ...>^.l.*D.>..n.
   1a198:	3eac7cd4 bf710908 3ea09ae5 bf731447     .|.>..q....>G.s.
   1a1a8:	3e94a031 bf74fa0b 3e888e93 bf76ba07     1..>..t....>..v.
   1a1b8:	3e78cfcc bf7853f8 3e605c13 bf79c79d     ..x>.Sx..\`>..y.
   1a1c8:	3e47c5c2 bf7b14be 3e2f10a2 bf7c3b28     ..G>..{.../>(;|.
   1a1d8:	3e164083 bf7d3aac 3dfab273 bf7e1324     .@.>.:}.s..=$.~.
   1a1e8:	3dc8bd36 bf7ec46d 3d96a905 bf7f4e6d     6..=m.~....=mN..
   1a1f8:	3d48fb2f bf7fb10f 3cc90ab0 bf7fec43     /.H=.......<C...

0001a208 <twiddleCoef_rfft_512>:
   1a208:	00000000 3f800000 3c490e90 3f7ffb11     .......?..I<...?
   1a218:	3cc90ab0 3f7fec43 3d16c32c 3f7fd398     ...<C..?,..=...?
   1a228:	3d48fb2f 3f7fb10f 3d7b2b74 3f7f84ab     /.H=...?t+{=...?
   1a238:	3d96a905 3f7f4e6d 3dafb680 3f7f0e58     ...=mN.?...=X..?
   1a248:	3dc8bd36 3f7ec46d 3de1bc2e 3f7e70b0     6..=m.~?...=.p~?
   1a258:	3dfab273 3f7e1324 3e09cf86 3f7dabcc     s..=$.~?...>..}?
   1a268:	3e164083 3f7d3aac 3e22abb6 3f7cbfc9     .@.>.:}?..">..|?
   1a278:	3e2f10a2 3f7c3b28 3e3b6ecf 3f7baccd     ../>(;|?.n;>..{?
   1a288:	3e47c5c2 3f7b14be 3e541501 3f7a7302     ..G>..{?..T>.sz?
   1a298:	3e605c13 3f79c79d 3e6c9a7f 3f791298     .\`>..y?..l>..y?
   1a2a8:	3e78cfcc 3f7853f8 3e827dc0 3f778bc5     ..x>.Sx?.}.>..w?
   1a2b8:	3e888e93 3f76ba07 3e8e9a22 3f75dec6     ...>..v?"..>..u?
   1a2c8:	3e94a031 3f74fa0b 3e9aa086 3f740bdd     1..>..t?...>..t?
   1a2d8:	3ea09ae5 3f731447 3ea68f12 3f721352     ...>G.s?...>R.r?
   1a2e8:	3eac7cd4 3f710908 3eb263ef 3f6ff573     .|.>..q?.c.>s.o?
   1a2f8:	3eb8442a 3f6ed89e 3ebe1d4a 3f6db293     *D.>..n?J..>..m?
   1a308:	3ec3ef15 3f6c835e 3ec9b953 3f6b4b0c     ...>^.l?S..>.Kk?
   1a318:	3ecf7bca 3f6a09a7 3ed53641 3f68bf3c     .{.>..j?A6.><.h?
   1a328:	3edae880 3f676bd8 3ee0924f 3f660f88     ...>.kg?O..>..f?
   1a338:	3ee63375 3f64aa59 3eebcbbb 3f633c5a     u3.>Y.d?...>Z<c?
   1a348:	3ef15aea 3f61c598 3ef6e0cb 3f604621     .Z.>..a?...>!F`?
   1a358:	3efc5d27 3f5ebe05 3f00e7e4 3f5d2d53     '].>..^?...?S-]?
   1a368:	3f039c3d 3f5b941a 3f064b82 3f59f26a     =..?..[?.K.?j.Y?
   1a378:	3f08f59b 3f584853 3f0b9a6b 3f5695e5     ...?SHX?k..?..V?
   1a388:	3f0e39da 3f54db31 3f10d3cd 3f531849     .9.?1.T?...?I.S?
   1a398:	3f13682a 3f514d3d 3f15f6d9 3f4f7a1f     *h.?=MQ?...?.zO?
   1a3a8:	3f187fc0 3f4d9f02 3f1b02c6 3f4bbbf8     ...?..M?...?..K?
   1a3b8:	3f1d7fd1 3f49d112 3f1ff6cb 3f47de65     ...?..I?...?e.G?
   1a3c8:	3f226799 3f45e403 3f24d225 3f43e200     .g"?..E?%.$?..C?
   1a3d8:	3f273656 3f41d870 3f299415 3f3fc767     V6'?p.A?..)?g.??
   1a3e8:	3f2beb4a 3f3daef9 3f2e3bde 3f3b8f3b     J.+?..=?.;.?;.;?
   1a3f8:	3f3085bb 3f396842 3f32c8c9 3f373a23     ..0?Bh9?..2?#:7?
   1a408:	3f3504f3 3f3504f3 3f373a23 3f32c8c9     ..5?..5?#:7?..2?
   1a418:	3f396842 3f3085bb 3f3b8f3b 3f2e3bde     Bh9?..0?;.;?.;.?
   1a428:	3f3daef9 3f2beb4a 3f3fc767 3f299415     ..=?J.+?g.??..)?
   1a438:	3f41d870 3f273656 3f43e200 3f24d225     p.A?V6'?..C?%.$?
   1a448:	3f45e403 3f226799 3f47de65 3f1ff6cb     ..E?.g"?e.G?...?
   1a458:	3f49d112 3f1d7fd1 3f4bbbf8 3f1b02c6     ..I?...?..K?...?
   1a468:	3f4d9f02 3f187fc0 3f4f7a1f 3f15f6d9     ..M?...?.zO?...?
   1a478:	3f514d3d 3f13682a 3f531849 3f10d3cd     =MQ?*h.?I.S?...?
   1a488:	3f54db31 3f0e39da 3f5695e5 3f0b9a6b     1.T?.9.?..V?k..?
   1a498:	3f584853 3f08f59b 3f59f26a 3f064b82     SHX?...?j.Y?.K.?
   1a4a8:	3f5b941a 3f039c3d 3f5d2d53 3f00e7e4     ..[?=..?S-]?...?
   1a4b8:	3f5ebe05 3efc5d27 3f604621 3ef6e0cb     ..^?'].>!F`?...>
   1a4c8:	3f61c598 3ef15aea 3f633c5a 3eebcbbb     ..a?.Z.>Z<c?...>
   1a4d8:	3f64aa59 3ee63375 3f660f88 3ee0924f     Y.d?u3.>..f?O..>
   1a4e8:	3f676bd8 3edae880 3f68bf3c 3ed53641     .kg?...><.h?A6.>
   1a4f8:	3f6a09a7 3ecf7bca 3f6b4b0c 3ec9b953     ..j?.{.>.Kk?S..>
   1a508:	3f6c835e 3ec3ef15 3f6db293 3ebe1d4a     ^.l?...>..m?J..>
   1a518:	3f6ed89e 3eb8442a 3f6ff573 3eb263ef     ..n?*D.>s.o?.c.>
   1a528:	3f710908 3eac7cd4 3f721352 3ea68f12     ..q?.|.>R.r?...>
   1a538:	3f731447 3ea09ae5 3f740bdd 3e9aa086     G.s?...>..t?...>
   1a548:	3f74fa0b 3e94a031 3f75dec6 3e8e9a22     ..t?1..>..u?"..>
   1a558:	3f76ba07 3e888e93 3f778bc5 3e827dc0     ..v?...>..w?.}.>
   1a568:	3f7853f8 3e78cfcc 3f791298 3e6c9a7f     .Sx?..x>..y?..l>
   1a578:	3f79c79d 3e605c13 3f7a7302 3e541501     ..y?.\`>.sz?..T>
   1a588:	3f7b14be 3e47c5c2 3f7baccd 3e3b6ecf     ..{?..G>..{?.n;>
   1a598:	3f7c3b28 3e2f10a2 3f7cbfc9 3e22abb6     (;|?../>..|?..">
   1a5a8:	3f7d3aac 3e164083 3f7dabcc 3e09cf86     .:}?.@.>..}?...>
   1a5b8:	3f7e1324 3dfab273 3f7e70b0 3de1bc2e     $.~?s..=.p~?...=
   1a5c8:	3f7ec46d 3dc8bd36 3f7f0e58 3dafb680     m.~?6..=X..?...=
   1a5d8:	3f7f4e6d 3d96a905 3f7f84ab 3d7b2b74     mN.?...=...?t+{=
   1a5e8:	3f7fb10f 3d48fb2f 3f7fd398 3d16c32c     ...?/.H=...?,..=
   1a5f8:	3f7fec43 3cc90ab0 3f7ffb11 3c490e90     C..?...<...?..I<
   1a608:	3f800000 00000000 3f7ffb11 bc490e90     ...?.......?..I.
   1a618:	3f7fec43 bcc90ab0 3f7fd398 bd16c32c     C..?.......?,...
   1a628:	3f7fb10f bd48fb2f 3f7f84ab bd7b2b74     ...?/.H....?t+{.
   1a638:	3f7f4e6d bd96a905 3f7f0e58 bdafb680     mN.?....X..?....
   1a648:	3f7ec46d bdc8bd36 3f7e70b0 bde1bc2e     m.~?6....p~?....
   1a658:	3f7e1324 bdfab273 3f7dabcc be09cf86     $.~?s.....}?....
   1a668:	3f7d3aac be164083 3f7cbfc9 be22abb6     .:}?.@....|?..".
   1a678:	3f7c3b28 be2f10a2 3f7baccd be3b6ecf     (;|?../...{?.n;.
   1a688:	3f7b14be be47c5c2 3f7a7302 be541501     ..{?..G..sz?..T.
   1a698:	3f79c79d be605c13 3f791298 be6c9a7f     ..y?.\`...y?..l.
   1a6a8:	3f7853f8 be78cfcc 3f778bc5 be827dc0     .Sx?..x...w?.}..
   1a6b8:	3f76ba07 be888e93 3f75dec6 be8e9a22     ..v?......u?"...
   1a6c8:	3f74fa0b be94a031 3f740bdd be9aa086     ..t?1.....t?....
   1a6d8:	3f731447 bea09ae5 3f721352 bea68f12     G.s?....R.r?....
   1a6e8:	3f710908 beac7cd4 3f6ff573 beb263ef     ..q?.|..s.o?.c..
   1a6f8:	3f6ed89e beb8442a 3f6db293 bebe1d4a     ..n?*D....m?J...
   1a708:	3f6c835e bec3ef15 3f6b4b0c bec9b953     ^.l?.....Kk?S...
   1a718:	3f6a09a7 becf7bca 3f68bf3c bed53641     ..j?.{..<.h?A6..
   1a728:	3f676bd8 bedae880 3f660f88 bee0924f     .kg?......f?O...
   1a738:	3f64aa59 bee63375 3f633c5a beebcbbb     Y.d?u3..Z<c?....
   1a748:	3f61c598 bef15aea 3f604621 bef6e0cb     ..a?.Z..!F`?....
   1a758:	3f5ebe05 befc5d27 3f5d2d53 bf00e7e4     ..^?']..S-]?....
   1a768:	3f5b941a bf039c3d 3f59f26a bf064b82     ..[?=...j.Y?.K..
   1a778:	3f584853 bf08f59b 3f5695e5 bf0b9a6b     SHX?......V?k...
   1a788:	3f54db31 bf0e39da 3f531849 bf10d3cd     1.T?.9..I.S?....
   1a798:	3f514d3d bf13682a 3f4f7a1f bf15f6d9     =MQ?*h...zO?....
   1a7a8:	3f4d9f02 bf187fc0 3f4bbbf8 bf1b02c6     ..M?......K?....
   1a7b8:	3f49d112 bf1d7fd1 3f47de65 bf1ff6cb     ..I?....e.G?....
   1a7c8:	3f45e403 bf226799 3f43e200 bf24d225     ..E?.g"...C?%.$.
   1a7d8:	3f41d870 bf273656 3f3fc767 bf299415     p.A?V6'.g.??..).
   1a7e8:	3f3daef9 bf2beb4a 3f3b8f3b bf2e3bde     ..=?J.+.;.;?.;..
   1a7f8:	3f396842 bf3085bb 3f373a23 bf32c8c9     Bh9?..0.#:7?..2.
   1a808:	3f3504f3 bf3504f3 3f32c8c9 bf373a23     ..5?..5...2?#:7.
   1a818:	3f3085bb bf396842 3f2e3bde bf3b8f3b     ..0?Bh9..;.?;.;.
   1a828:	3f2beb4a bf3daef9 3f299415 bf3fc767     J.+?..=...)?g.?.
   1a838:	3f273656 bf41d870 3f24d225 bf43e200     V6'?p.A.%.$?..C.
   1a848:	3f226799 bf45e403 3f1ff6cb bf47de65     .g"?..E....?e.G.
   1a858:	3f1d7fd1 bf49d112 3f1b02c6 bf4bbbf8     ...?..I....?..K.
   1a868:	3f187fc0 bf4d9f02 3f15f6d9 bf4f7a1f     ...?..M....?.zO.
   1a878:	3f13682a bf514d3d 3f10d3cd bf531849     *h.?=MQ....?I.S.
   1a888:	3f0e39da bf54db31 3f0b9a6b bf5695e5     .9.?1.T.k..?..V.
   1a898:	3f08f59b bf584853 3f064b82 bf59f26a     ...?SHX..K.?j.Y.
   1a8a8:	3f039c3d bf5b941a 3f00e7e4 bf5d2d53     =..?..[....?S-].
   1a8b8:	3efc5d27 bf5ebe05 3ef6e0cb bf604621     '].>..^....>!F`.
   1a8c8:	3ef15aea bf61c598 3eebcbbb bf633c5a     .Z.>..a....>Z<c.
   1a8d8:	3ee63375 bf64aa59 3ee0924f bf660f88     u3.>Y.d.O..>..f.
   1a8e8:	3edae880 bf676bd8 3ed53641 bf68bf3c     ...>.kg.A6.><.h.
   1a8f8:	3ecf7bca bf6a09a7 3ec9b953 bf6b4b0c     .{.>..j.S..>.Kk.
   1a908:	3ec3ef15 bf6c835e 3ebe1d4a bf6db293     ...>^.l.J..>..m.
   1a918:	3eb8442a bf6ed89e 3eb263ef bf6ff573     *D.>..n..c.>s.o.
   1a928:	3eac7cd4 bf710908 3ea68f12 bf721352     .|.>..q....>R.r.
   1a938:	3ea09ae5 bf731447 3e9aa086 bf740bdd     ...>G.s....>..t.
   1a948:	3e94a031 bf74fa0b 3e8e9a22 bf75dec6     1..>..t."..>..u.
   1a958:	3e888e93 bf76ba07 3e827dc0 bf778bc5     ...>..v..}.>..w.
   1a968:	3e78cfcc bf7853f8 3e6c9a7f bf791298     ..x>.Sx...l>..y.
   1a978:	3e605c13 bf79c79d 3e541501 bf7a7302     .\`>..y...T>.sz.
   1a988:	3e47c5c2 bf7b14be 3e3b6ecf bf7baccd     ..G>..{..n;>..{.
   1a998:	3e2f10a2 bf7c3b28 3e22abb6 bf7cbfc9     ../>(;|...">..|.
   1a9a8:	3e164083 bf7d3aac 3e09cf86 bf7dabcc     .@.>.:}....>..}.
   1a9b8:	3dfab273 bf7e1324 3de1bc2e bf7e70b0     s..=$.~....=.p~.
   1a9c8:	3dc8bd36 bf7ec46d 3dafb680 bf7f0e58     6..=m.~....=X...
   1a9d8:	3d96a905 bf7f4e6d 3d7b2b74 bf7f84ab     ...=mN..t+{=....
   1a9e8:	3d48fb2f bf7fb10f 3d16c32c bf7fd398     /.H=....,..=....
   1a9f8:	3cc90ab0 bf7fec43 3c490e90 bf7ffb11     ...<C.....I<....

0001aa08 <twiddleCoef_rfft_1024>:
   1aa08:	00000000 3f800000 3bc90f89 3f7ffec4     .......?...;...?
   1aa18:	3c490e90 3f7ffb11 3c96c9b6 3f7ff4e6     ..I<...?...<...?
   1aa28:	3cc90ab0 3f7fec43 3cfb49b9 3f7fe129     ...<C..?.I.<)..?
   1aa38:	3d16c32c 3f7fd398 3d2fe007 3f7fc38f     ,..=...?../=...?
   1aa48:	3d48fb2f 3f7fb10f 3d621468 3f7f9c18     /.H=...?h.b=...?
   1aa58:	3d7b2b74 3f7f84ab 3d8a200a 3f7f6ac7     t+{=...?. .=.j.?
   1aa68:	3d96a905 3f7f4e6d 3da3308c 3f7f2f9d     ...=mN.?.0.=./.?
   1aa78:	3dafb680 3f7f0e58 3dbc3ac3 3f7eea9d     ...=X..?.:.=..~?
   1aa88:	3dc8bd36 3f7ec46d 3dd53db9 3f7e9bc9     6..=m.~?.=.=..~?
   1aa98:	3de1bc2e 3f7e70b0 3dee3876 3f7e4323     ...=.p~?v8.=#C~?
   1aaa8:	3dfab273 3f7e1324 3e039502 3f7de0b1     s..=$.~?...>..}?
   1aab8:	3e09cf86 3f7dabcc 3e1008b7 3f7d7474     ...>..}?...>tt}?
   1aac8:	3e164083 3f7d3aac 3e1c76de 3f7cfe73     .@.>.:}?.v.>s.|?
   1aad8:	3e22abb6 3f7cbfc9 3e28defc 3f7c7eb0     ..">..|?..(>.~|?
   1aae8:	3e2f10a2 3f7c3b28 3e354098 3f7bf531     ../>(;|?.@5>1.{?
   1aaf8:	3e3b6ecf 3f7baccd 3e419b37 3f7b61fc     .n;>..{?7.A>.a{?
   1ab08:	3e47c5c2 3f7b14be 3e4dee60 3f7ac516     ..G>..{?`.M>..z?
   1ab18:	3e541501 3f7a7302 3e5a3997 3f7a1e84     ..T>.sz?.9Z>..z?
   1ab28:	3e605c13 3f79c79d 3e667c66 3f796e4e     .\`>..y?f|f>Nny?
   1ab38:	3e6c9a7f 3f791298 3e72b651 3f78b47b     ..l>..y?Q.r>{.x?
   1ab48:	3e78cfcc 3f7853f8 3e7ee6e1 3f77f110     ..x>.Sx?..~>..w?
   1ab58:	3e827dc0 3f778bc5 3e8586ce 3f772417     .}.>..w?...>.$w?
   1ab68:	3e888e93 3f76ba07 3e8b9507 3f764d97     ...>..v?...>.Mv?
   1ab78:	3e8e9a22 3f75dec6 3e919ddd 3f756d97     "..>..u?...>.mu?
   1ab88:	3e94a031 3f74fa0b 3e97a117 3f748422     1..>..t?...>".t?
   1ab98:	3e9aa086 3f740bdd 3e9d9e78 3f73913f     ...>..t?x..>?.s?
   1aba8:	3ea09ae5 3f731447 3ea395c5 3f7294f8     ...>G.s?...>..r?
   1abb8:	3ea68f12 3f721352 3ea986c4 3f718f57     ...>R.r?...>W.q?
   1abc8:	3eac7cd4 3f710908 3eaf713a 3f708066     .|.>..q?:q.>f.p?
   1abd8:	3eb263ef 3f6ff573 3eb554ec 3f6f6830     .c.>s.o?.T.>0ho?
   1abe8:	3eb8442a 3f6ed89e 3ebb31a0 3f6e46be     *D.>..n?.1.>.Fn?
   1abf8:	3ebe1d4a 3f6db293 3ec1071e 3f6d1c1d     J..>..m?...>..m?
   1ac08:	3ec3ef15 3f6c835e 3ec6d529 3f6be858     ...>^.l?)..>X.k?
   1ac18:	3ec9b953 3f6b4b0c 3ecc9b8b 3f6aab7b     S..>.Kk?...>{.j?
   1ac28:	3ecf7bca 3f6a09a7 3ed25a09 3f696591     .{.>..j?.Z.>.ei?
   1ac38:	3ed53641 3f68bf3c 3ed8106b 3f6816a8     A6.><.h?k..>..h?
   1ac48:	3edae880 3f676bd8 3eddbe79 3f66becc     ...>.kg?y..>..f?
   1ac58:	3ee0924f 3f660f88 3ee363fa 3f655e0b     O..>..f?.c.>.^e?
   1ac68:	3ee63375 3f64aa59 3ee900b7 3f63f473     u3.>Y.d?...>s.c?
   1ac78:	3eebcbbb 3f633c5a 3eee9479 3f628210     ...>Z<c?y..>..b?
   1ac88:	3ef15aea 3f61c598 3ef41f07 3f6106f2     .Z.>..a?...>..a?
   1ac98:	3ef6e0cb 3f604621 3ef9a02d 3f5f8327     ...>!F`?-..>'._?
   1aca8:	3efc5d27 3f5ebe05 3eff17b2 3f5df6be     '].>..^?...>..]?
   1acb8:	3f00e7e4 3f5d2d53 3f0242b1 3f5c61c7     ...?S-]?.B.?.a\?
   1acc8:	3f039c3d 3f5b941a 3f04f484 3f5ac450     =..?..[?...?P.Z?
   1acd8:	3f064b82 3f59f26a 3f07a136 3f591e6a     .K.?j.Y?6..?j.Y?
   1ace8:	3f08f59b 3f584853 3f0a48ad 3f577026     ...?SHX?.H.?&pW?
   1acf8:	3f0b9a6b 3f5695e5 3f0cead0 3f55b993     k..?..V?...?..U?
   1ad08:	3f0e39da 3f54db31 3f0f8784 3f53fac3     .9.?1.T?...?..S?
   1ad18:	3f10d3cd 3f531849 3f121eb0 3f5233c6     ...?I.S?...?.3R?
   1ad28:	3f13682a 3f514d3d 3f14b039 3f5064af     *h.?=MQ?9..?.dP?
   1ad38:	3f15f6d9 3f4f7a1f 3f173c07 3f4e8d90     ...?.zO?.<.?..N?
   1ad48:	3f187fc0 3f4d9f02 3f19c200 3f4cae79     ...?..M?...?y.L?
   1ad58:	3f1b02c6 3f4bbbf8 3f1c420c 3f4ac77f     ...?..K?.B.?..J?
   1ad68:	3f1d7fd1 3f49d112 3f1ebc12 3f48d8b3     ...?..I?...?..H?
   1ad78:	3f1ff6cb 3f47de65 3f212ff9 3f46e22a     ...?e.G?./!?*.F?
   1ad88:	3f226799 3f45e403 3f239da9 3f44e3f5     .g"?..E?..#?..D?
   1ad98:	3f24d225 3f43e200 3f26050a 3f42de29     %.$?..C?..&?).B?
   1ada8:	3f273656 3f41d870 3f286605 3f40d0da     V6'?p.A?.f(?..@?
   1adb8:	3f299415 3f3fc767 3f2ac082 3f3ebc1b     ..)?g.??..*?..>?
   1adc8:	3f2beb4a 3f3daef9 3f2d1469 3f3ca003     J.+?..=?i.-?..<?
   1add8:	3f2e3bde 3f3b8f3b 3f2f61a5 3f3a7ca4     .;.?;.;?.a/?.|:?
   1ade8:	3f3085bb 3f396842 3f31a81d 3f385216     ..0?Bh9?..1?.R8?
   1adf8:	3f32c8c9 3f373a23 3f33e7bc 3f36206c     ..2?#:7?..3?l 6?
   1ae08:	3f3504f3 3f3504f3 3f36206c 3f33e7bc     ..5?..5?l 6?..3?
   1ae18:	3f373a23 3f32c8c9 3f385216 3f31a81d     #:7?..2?.R8?..1?
   1ae28:	3f396842 3f3085bb 3f3a7ca4 3f2f61a5     Bh9?..0?.|:?.a/?
   1ae38:	3f3b8f3b 3f2e3bde 3f3ca003 3f2d1469     ;.;?.;.?..<?i.-?
   1ae48:	3f3daef9 3f2beb4a 3f3ebc1b 3f2ac082     ..=?J.+?..>?..*?
   1ae58:	3f3fc767 3f299415 3f40d0da 3f286605     g.??..)?..@?.f(?
   1ae68:	3f41d870 3f273656 3f42de29 3f26050a     p.A?V6'?).B?..&?
   1ae78:	3f43e200 3f24d225 3f44e3f5 3f239da9     ..C?%.$?..D?..#?
   1ae88:	3f45e403 3f226799 3f46e22a 3f212ff9     ..E?.g"?*.F?./!?
   1ae98:	3f47de65 3f1ff6cb 3f48d8b3 3f1ebc12     e.G?...?..H?...?
   1aea8:	3f49d112 3f1d7fd1 3f4ac77f 3f1c420c     ..I?...?..J?.B.?
   1aeb8:	3f4bbbf8 3f1b02c6 3f4cae79 3f19c200     ..K?...?y.L?...?
   1aec8:	3f4d9f02 3f187fc0 3f4e8d90 3f173c07     ..M?...?..N?.<.?
   1aed8:	3f4f7a1f 3f15f6d9 3f5064af 3f14b039     .zO?...?.dP?9..?
   1aee8:	3f514d3d 3f13682a 3f5233c6 3f121eb0     =MQ?*h.?.3R?...?
   1aef8:	3f531849 3f10d3cd 3f53fac3 3f0f8784     I.S?...?..S?...?
   1af08:	3f54db31 3f0e39da 3f55b993 3f0cead0     1.T?.9.?..U?...?
   1af18:	3f5695e5 3f0b9a6b 3f577026 3f0a48ad     ..V?k..?&pW?.H.?
   1af28:	3f584853 3f08f59b 3f591e6a 3f07a136     SHX?...?j.Y?6..?
   1af38:	3f59f26a 3f064b82 3f5ac450 3f04f484     j.Y?.K.?P.Z?...?
   1af48:	3f5b941a 3f039c3d 3f5c61c7 3f0242b1     ..[?=..?.a\?.B.?
   1af58:	3f5d2d53 3f00e7e4 3f5df6be 3eff17b2     S-]?...?..]?...>
   1af68:	3f5ebe05 3efc5d27 3f5f8327 3ef9a02d     ..^?'].>'._?-..>
   1af78:	3f604621 3ef6e0cb 3f6106f2 3ef41f07     !F`?...>..a?...>
   1af88:	3f61c598 3ef15aea 3f628210 3eee9479     ..a?.Z.>..b?y..>
   1af98:	3f633c5a 3eebcbbb 3f63f473 3ee900b7     Z<c?...>s.c?...>
   1afa8:	3f64aa59 3ee63375 3f655e0b 3ee363fa     Y.d?u3.>.^e?.c.>
   1afb8:	3f660f88 3ee0924f 3f66becc 3eddbe79     ..f?O..>..f?y..>
   1afc8:	3f676bd8 3edae880 3f6816a8 3ed8106b     .kg?...>..h?k..>
   1afd8:	3f68bf3c 3ed53641 3f696591 3ed25a09     <.h?A6.>.ei?.Z.>
   1afe8:	3f6a09a7 3ecf7bca 3f6aab7b 3ecc9b8b     ..j?.{.>{.j?...>
   1aff8:	3f6b4b0c 3ec9b953 3f6be858 3ec6d529     .Kk?S..>X.k?)..>
   1b008:	3f6c835e 3ec3ef15 3f6d1c1d 3ec1071e     ^.l?...>..m?...>
   1b018:	3f6db293 3ebe1d4a 3f6e46be 3ebb31a0     ..m?J..>.Fn?.1.>
   1b028:	3f6ed89e 3eb8442a 3f6f6830 3eb554ec     ..n?*D.>0ho?.T.>
   1b038:	3f6ff573 3eb263ef 3f708066 3eaf713a     s.o?.c.>f.p?:q.>
   1b048:	3f710908 3eac7cd4 3f718f57 3ea986c4     ..q?.|.>W.q?...>
   1b058:	3f721352 3ea68f12 3f7294f8 3ea395c5     R.r?...>..r?...>
   1b068:	3f731447 3ea09ae5 3f73913f 3e9d9e78     G.s?...>?.s?x..>
   1b078:	3f740bdd 3e9aa086 3f748422 3e97a117     ..t?...>".t?...>
   1b088:	3f74fa0b 3e94a031 3f756d97 3e919ddd     ..t?1..>.mu?...>
   1b098:	3f75dec6 3e8e9a22 3f764d97 3e8b9507     ..u?"..>.Mv?...>
   1b0a8:	3f76ba07 3e888e93 3f772417 3e8586ce     ..v?...>.$w?...>
   1b0b8:	3f778bc5 3e827dc0 3f77f110 3e7ee6e1     ..w?.}.>..w?..~>
   1b0c8:	3f7853f8 3e78cfcc 3f78b47b 3e72b651     .Sx?..x>{.x?Q.r>
   1b0d8:	3f791298 3e6c9a7f 3f796e4e 3e667c66     ..y?..l>Nny?f|f>
   1b0e8:	3f79c79d 3e605c13 3f7a1e84 3e5a3997     ..y?.\`>..z?.9Z>
   1b0f8:	3f7a7302 3e541501 3f7ac516 3e4dee60     .sz?..T>..z?`.M>
   1b108:	3f7b14be 3e47c5c2 3f7b61fc 3e419b37     ..{?..G>.a{?7.A>
   1b118:	3f7baccd 3e3b6ecf 3f7bf531 3e354098     ..{?.n;>1.{?.@5>
   1b128:	3f7c3b28 3e2f10a2 3f7c7eb0 3e28defc     (;|?../>.~|?..(>
   1b138:	3f7cbfc9 3e22abb6 3f7cfe73 3e1c76de     ..|?..">s.|?.v.>
   1b148:	3f7d3aac 3e164083 3f7d7474 3e1008b7     .:}?.@.>tt}?...>
   1b158:	3f7dabcc 3e09cf86 3f7de0b1 3e039502     ..}?...>..}?...>
   1b168:	3f7e1324 3dfab273 3f7e4323 3dee3876     $.~?s..=#C~?v8.=
   1b178:	3f7e70b0 3de1bc2e 3f7e9bc9 3dd53db9     .p~?...=..~?.=.=
   1b188:	3f7ec46d 3dc8bd36 3f7eea9d 3dbc3ac3     m.~?6..=..~?.:.=
   1b198:	3f7f0e58 3dafb680 3f7f2f9d 3da3308c     X..?...=./.?.0.=
   1b1a8:	3f7f4e6d 3d96a905 3f7f6ac7 3d8a200a     mN.?...=.j.?. .=
   1b1b8:	3f7f84ab 3d7b2b74 3f7f9c18 3d621468     ...?t+{=...?h.b=
   1b1c8:	3f7fb10f 3d48fb2f 3f7fc38f 3d2fe007     ...?/.H=...?../=
   1b1d8:	3f7fd398 3d16c32c 3f7fe129 3cfb49b9     ...?,..=)..?.I.<
   1b1e8:	3f7fec43 3cc90ab0 3f7ff4e6 3c96c9b6     C..?...<...?...<
   1b1f8:	3f7ffb11 3c490e90 3f7ffec4 3bc90f89     ...?..I<...?...;
   1b208:	3f800000 00000000 3f7ffec4 bbc90f89     ...?.......?....
   1b218:	3f7ffb11 bc490e90 3f7ff4e6 bc96c9b6     ...?..I....?....
   1b228:	3f7fec43 bcc90ab0 3f7fe129 bcfb49b9     C..?....)..?.I..
   1b238:	3f7fd398 bd16c32c 3f7fc38f bd2fe007     ...?,......?../.
   1b248:	3f7fb10f bd48fb2f 3f7f9c18 bd621468     ...?/.H....?h.b.
   1b258:	3f7f84ab bd7b2b74 3f7f6ac7 bd8a200a     ...?t+{..j.?. ..
   1b268:	3f7f4e6d bd96a905 3f7f2f9d bda3308c     mN.?...../.?.0..
   1b278:	3f7f0e58 bdafb680 3f7eea9d bdbc3ac3     X..?......~?.:..
   1b288:	3f7ec46d bdc8bd36 3f7e9bc9 bdd53db9     m.~?6.....~?.=..
   1b298:	3f7e70b0 bde1bc2e 3f7e4323 bdee3876     .p~?....#C~?v8..
   1b2a8:	3f7e1324 bdfab273 3f7de0b1 be039502     $.~?s.....}?....
   1b2b8:	3f7dabcc be09cf86 3f7d7474 be1008b7     ..}?....tt}?....
   1b2c8:	3f7d3aac be164083 3f7cfe73 be1c76de     .:}?.@..s.|?.v..
   1b2d8:	3f7cbfc9 be22abb6 3f7c7eb0 be28defc     ..|?.."..~|?..(.
   1b2e8:	3f7c3b28 be2f10a2 3f7bf531 be354098     (;|?../.1.{?.@5.
   1b2f8:	3f7baccd be3b6ecf 3f7b61fc be419b37     ..{?.n;..a{?7.A.
   1b308:	3f7b14be be47c5c2 3f7ac516 be4dee60     ..{?..G...z?`.M.
   1b318:	3f7a7302 be541501 3f7a1e84 be5a3997     .sz?..T...z?.9Z.
   1b328:	3f79c79d be605c13 3f796e4e be667c66     ..y?.\`.Nny?f|f.
   1b338:	3f791298 be6c9a7f 3f78b47b be72b651     ..y?..l.{.x?Q.r.
   1b348:	3f7853f8 be78cfcc 3f77f110 be7ee6e1     .Sx?..x...w?..~.
   1b358:	3f778bc5 be827dc0 3f772417 be8586ce     ..w?.}...$w?....
   1b368:	3f76ba07 be888e93 3f764d97 be8b9507     ..v?.....Mv?....
   1b378:	3f75dec6 be8e9a22 3f756d97 be919ddd     ..u?"....mu?....
   1b388:	3f74fa0b be94a031 3f748422 be97a117     ..t?1...".t?....
   1b398:	3f740bdd be9aa086 3f73913f be9d9e78     ..t?....?.s?x...
   1b3a8:	3f731447 bea09ae5 3f7294f8 bea395c5     G.s?......r?....
   1b3b8:	3f721352 bea68f12 3f718f57 bea986c4     R.r?....W.q?....
   1b3c8:	3f710908 beac7cd4 3f708066 beaf713a     ..q?.|..f.p?:q..
   1b3d8:	3f6ff573 beb263ef 3f6f6830 beb554ec     s.o?.c..0ho?.T..
   1b3e8:	3f6ed89e beb8442a 3f6e46be bebb31a0     ..n?*D...Fn?.1..
   1b3f8:	3f6db293 bebe1d4a 3f6d1c1d bec1071e     ..m?J.....m?....
   1b408:	3f6c835e bec3ef15 3f6be858 bec6d529     ^.l?....X.k?)...
   1b418:	3f6b4b0c bec9b953 3f6aab7b becc9b8b     .Kk?S...{.j?....
   1b428:	3f6a09a7 becf7bca 3f696591 bed25a09     ..j?.{...ei?.Z..
   1b438:	3f68bf3c bed53641 3f6816a8 bed8106b     <.h?A6....h?k...
   1b448:	3f676bd8 bedae880 3f66becc beddbe79     .kg?......f?y...
   1b458:	3f660f88 bee0924f 3f655e0b bee363fa     ..f?O....^e?.c..
   1b468:	3f64aa59 bee63375 3f63f473 bee900b7     Y.d?u3..s.c?....
   1b478:	3f633c5a beebcbbb 3f628210 beee9479     Z<c?......b?y...
   1b488:	3f61c598 bef15aea 3f6106f2 bef41f07     ..a?.Z....a?....
   1b498:	3f604621 bef6e0cb 3f5f8327 bef9a02d     !F`?....'._?-...
   1b4a8:	3f5ebe05 befc5d27 3f5df6be beff17b2     ..^?']....]?....
   1b4b8:	3f5d2d53 bf00e7e4 3f5c61c7 bf0242b1     S-]?.....a\?.B..
   1b4c8:	3f5b941a bf039c3d 3f5ac450 bf04f484     ..[?=...P.Z?....
   1b4d8:	3f59f26a bf064b82 3f591e6a bf07a136     j.Y?.K..j.Y?6...
   1b4e8:	3f584853 bf08f59b 3f577026 bf0a48ad     SHX?....&pW?.H..
   1b4f8:	3f5695e5 bf0b9a6b 3f55b993 bf0cead0     ..V?k.....U?....
   1b508:	3f54db31 bf0e39da 3f53fac3 bf0f8784     1.T?.9....S?....
   1b518:	3f531849 bf10d3cd 3f5233c6 bf121eb0     I.S?.....3R?....
   1b528:	3f514d3d bf13682a 3f5064af bf14b039     =MQ?*h...dP?9...
   1b538:	3f4f7a1f bf15f6d9 3f4e8d90 bf173c07     .zO?......N?.<..
   1b548:	3f4d9f02 bf187fc0 3f4cae79 bf19c200     ..M?....y.L?....
   1b558:	3f4bbbf8 bf1b02c6 3f4ac77f bf1c420c     ..K?......J?.B..
   1b568:	3f49d112 bf1d7fd1 3f48d8b3 bf1ebc12     ..I?......H?....
   1b578:	3f47de65 bf1ff6cb 3f46e22a bf212ff9     e.G?....*.F?./!.
   1b588:	3f45e403 bf226799 3f44e3f5 bf239da9     ..E?.g"...D?..#.
   1b598:	3f43e200 bf24d225 3f42de29 bf26050a     ..C?%.$.).B?..&.
   1b5a8:	3f41d870 bf273656 3f40d0da bf286605     p.A?V6'...@?.f(.
   1b5b8:	3f3fc767 bf299415 3f3ebc1b bf2ac082     g.??..)...>?..*.
   1b5c8:	3f3daef9 bf2beb4a 3f3ca003 bf2d1469     ..=?J.+...<?i.-.
   1b5d8:	3f3b8f3b bf2e3bde 3f3a7ca4 bf2f61a5     ;.;?.;...|:?.a/.
   1b5e8:	3f396842 bf3085bb 3f385216 bf31a81d     Bh9?..0..R8?..1.
   1b5f8:	3f373a23 bf32c8c9 3f36206c bf33e7bc     #:7?..2.l 6?..3.
   1b608:	3f3504f3 bf3504f3 3f33e7bc bf36206c     ..5?..5...3?l 6.
   1b618:	3f32c8c9 bf373a23 3f31a81d bf385216     ..2?#:7...1?.R8.
   1b628:	3f3085bb bf396842 3f2f61a5 bf3a7ca4     ..0?Bh9..a/?.|:.
   1b638:	3f2e3bde bf3b8f3b 3f2d1469 bf3ca003     .;.?;.;.i.-?..<.
   1b648:	3f2beb4a bf3daef9 3f2ac082 bf3ebc1b     J.+?..=...*?..>.
   1b658:	3f299415 bf3fc767 3f286605 bf40d0da     ..)?g.?..f(?..@.
   1b668:	3f273656 bf41d870 3f26050a bf42de29     V6'?p.A...&?).B.
   1b678:	3f24d225 bf43e200 3f239da9 bf44e3f5     %.$?..C...#?..D.
   1b688:	3f226799 bf45e403 3f212ff9 bf46e22a     .g"?..E../!?*.F.
   1b698:	3f1ff6cb bf47de65 3f1ebc12 bf48d8b3     ...?e.G....?..H.
   1b6a8:	3f1d7fd1 bf49d112 3f1c420c bf4ac77f     ...?..I..B.?..J.
   1b6b8:	3f1b02c6 bf4bbbf8 3f19c200 bf4cae79     ...?..K....?y.L.
   1b6c8:	3f187fc0 bf4d9f02 3f173c07 bf4e8d90     ...?..M..<.?..N.
   1b6d8:	3f15f6d9 bf4f7a1f 3f14b039 bf5064af     ...?.zO.9..?.dP.
   1b6e8:	3f13682a bf514d3d 3f121eb0 bf5233c6     *h.?=MQ....?.3R.
   1b6f8:	3f10d3cd bf531849 3f0f8784 bf53fac3     ...?I.S....?..S.
   1b708:	3f0e39da bf54db31 3f0cead0 bf55b993     .9.?1.T....?..U.
   1b718:	3f0b9a6b bf5695e5 3f0a48ad bf577026     k..?..V..H.?&pW.
   1b728:	3f08f59b bf584853 3f07a136 bf591e6a     ...?SHX.6..?j.Y.
   1b738:	3f064b82 bf59f26a 3f04f484 bf5ac450     .K.?j.Y....?P.Z.
   1b748:	3f039c3d bf5b941a 3f0242b1 bf5c61c7     =..?..[..B.?.a\.
   1b758:	3f00e7e4 bf5d2d53 3eff17b2 bf5df6be     ...?S-]....>..].
   1b768:	3efc5d27 bf5ebe05 3ef9a02d bf5f8327     '].>..^.-..>'._.
   1b778:	3ef6e0cb bf604621 3ef41f07 bf6106f2     ...>!F`....>..a.
   1b788:	3ef15aea bf61c598 3eee9479 bf628210     .Z.>..a.y..>..b.
   1b798:	3eebcbbb bf633c5a 3ee900b7 bf63f473     ...>Z<c....>s.c.
   1b7a8:	3ee63375 bf64aa59 3ee363fa bf655e0b     u3.>Y.d..c.>.^e.
   1b7b8:	3ee0924f bf660f88 3eddbe79 bf66becc     O..>..f.y..>..f.
   1b7c8:	3edae880 bf676bd8 3ed8106b bf6816a8     ...>.kg.k..>..h.
   1b7d8:	3ed53641 bf68bf3c 3ed25a09 bf696591     A6.><.h..Z.>.ei.
   1b7e8:	3ecf7bca bf6a09a7 3ecc9b8b bf6aab7b     .{.>..j....>{.j.
   1b7f8:	3ec9b953 bf6b4b0c 3ec6d529 bf6be858     S..>.Kk.)..>X.k.
   1b808:	3ec3ef15 bf6c835e 3ec1071e bf6d1c1d     ...>^.l....>..m.
   1b818:	3ebe1d4a bf6db293 3ebb31a0 bf6e46be     J..>..m..1.>.Fn.
   1b828:	3eb8442a bf6ed89e 3eb554ec bf6f6830     *D.>..n..T.>0ho.
   1b838:	3eb263ef bf6ff573 3eaf713a bf708066     .c.>s.o.:q.>f.p.
   1b848:	3eac7cd4 bf710908 3ea986c4 bf718f57     .|.>..q....>W.q.
   1b858:	3ea68f12 bf721352 3ea395c5 bf7294f8     ...>R.r....>..r.
   1b868:	3ea09ae5 bf731447 3e9d9e78 bf73913f     ...>G.s.x..>?.s.
   1b878:	3e9aa086 bf740bdd 3e97a117 bf748422     ...>..t....>".t.
   1b888:	3e94a031 bf74fa0b 3e919ddd bf756d97     1..>..t....>.mu.
   1b898:	3e8e9a22 bf75dec6 3e8b9507 bf764d97     "..>..u....>.Mv.
   1b8a8:	3e888e93 bf76ba07 3e8586ce bf772417     ...>..v....>.$w.
   1b8b8:	3e827dc0 bf778bc5 3e7ee6e1 bf77f110     .}.>..w...~>..w.
   1b8c8:	3e78cfcc bf7853f8 3e72b651 bf78b47b     ..x>.Sx.Q.r>{.x.
   1b8d8:	3e6c9a7f bf791298 3e667c66 bf796e4e     ..l>..y.f|f>Nny.
   1b8e8:	3e605c13 bf79c79d 3e5a3997 bf7a1e84     .\`>..y..9Z>..z.
   1b8f8:	3e541501 bf7a7302 3e4dee60 bf7ac516     ..T>.sz.`.M>..z.
   1b908:	3e47c5c2 bf7b14be 3e419b37 bf7b61fc     ..G>..{.7.A>.a{.
   1b918:	3e3b6ecf bf7baccd 3e354098 bf7bf531     .n;>..{..@5>1.{.
   1b928:	3e2f10a2 bf7c3b28 3e28defc bf7c7eb0     ../>(;|...(>.~|.
   1b938:	3e22abb6 bf7cbfc9 3e1c76de bf7cfe73     ..">..|..v.>s.|.
   1b948:	3e164083 bf7d3aac 3e1008b7 bf7d7474     .@.>.:}....>tt}.
   1b958:	3e09cf86 bf7dabcc 3e039502 bf7de0b1     ...>..}....>..}.
   1b968:	3dfab273 bf7e1324 3dee3876 bf7e4323     s..=$.~.v8.=#C~.
   1b978:	3de1bc2e bf7e70b0 3dd53db9 bf7e9bc9     ...=.p~..=.=..~.
   1b988:	3dc8bd36 bf7ec46d 3dbc3ac3 bf7eea9d     6..=m.~..:.=..~.
   1b998:	3dafb680 bf7f0e58 3da3308c bf7f2f9d     ...=X....0.=./..
   1b9a8:	3d96a905 bf7f4e6d 3d8a200a bf7f6ac7     ...=mN... .=.j..
   1b9b8:	3d7b2b74 bf7f84ab 3d621468 bf7f9c18     t+{=....h.b=....
   1b9c8:	3d48fb2f bf7fb10f 3d2fe007 bf7fc38f     /.H=....../=....
   1b9d8:	3d16c32c bf7fd398 3cfb49b9 bf7fe129     ,..=.....I.<)...
   1b9e8:	3cc90ab0 bf7fec43 3c96c9b6 bf7ff4e6     ...<C......<....
   1b9f8:	3c490e90 bf7ffb11 3bc90f89 bf7ffec4     ..I<.......;....

0001ba08 <twiddleCoef_rfft_2048>:
   1ba08:	00000000 3f800000 3b490fc7 3f7fffb1     .......?..I;...?
   1ba18:	3bc90f89 3f7ffec4 3c16cb59 3f7ffd39     ...;...?Y..<9..?
   1ba28:	3c490e90 3f7ffb11 3c7b514b 3f7ff84a     ..I<...?KQ{<J..?
   1ba38:	3c96c9b6 3f7ff4e6 3cafea69 3f7ff0e3     ...<...?i..<...?
   1ba48:	3cc90ab0 3f7fec43 3ce22a7b 3f7fe705     ...<C..?{*.<...?
   1ba58:	3cfb49b9 3f7fe129 3d0a342f 3f7fdaaf     .I.<)..?/4.=...?
   1ba68:	3d16c32c 3f7fd398 3d2351cc 3f7fcbe2     ,..=...?.Q#=...?
   1ba78:	3d2fe007 3f7fc38f 3d3c6dd5 3f7fba9e     ../=...?.m<=...?
   1ba88:	3d48fb2f 3f7fb10f 3d55880e 3f7fa6e3     /.H=...?..U=...?
   1ba98:	3d621468 3f7f9c18 3d6ea038 3f7f90b1     h.b=...?8.n=...?
   1baa8:	3d7b2b74 3f7f84ab 3d83db0a 3f7f7808     t+{=...?...=.x.?
   1bab8:	3d8a200a 3f7f6ac7 3d9064b4 3f7f5ce9     . .=.j.?.d.=.\.?
   1bac8:	3d96a905 3f7f4e6d 3d9cecf9 3f7f3f54     ...=mN.?...=T?.?
   1bad8:	3da3308c 3f7f2f9d 3da973ba 3f7f1f49     .0.=./.?.s.=I..?
   1bae8:	3dafb680 3f7f0e58 3db5f8da 3f7efcc9     ...=X..?...=..~?
   1baf8:	3dbc3ac3 3f7eea9d 3dc27c39 3f7ed7d4     .:.=..~?9|.=..~?
   1bb08:	3dc8bd36 3f7ec46d 3dcefdb7 3f7eb069     6..=m.~?...=i.~?
   1bb18:	3dd53db9 3f7e9bc9 3ddb7d37 3f7e868b     .=.=..~?7}.=..~?
   1bb28:	3de1bc2e 3f7e70b0 3de7fa9a 3f7e5a38     ...=.p~?...=8Z~?
   1bb38:	3dee3876 3f7e4323 3df475c0 3f7e2b72     v8.=#C~?.u.=r+~?
   1bb48:	3dfab273 3f7e1324 3e007745 3f7dfa38     s..=$.~?Ew.>8.}?
   1bb58:	3e039502 3f7de0b1 3e06b26e 3f7dc68c     ...>..}?n..>..}?
   1bb68:	3e09cf86 3f7dabcc 3e0cec4a 3f7d906e     ...>..}?J..>n.}?
   1bb78:	3e1008b7 3f7d7474 3e1324ca 3f7d57de     ...>tt}?.$.>.W}?
   1bb88:	3e164083 3f7d3aac 3e195be0 3f7d1cdd     .@.>.:}?.[.>..}?
   1bb98:	3e1c76de 3f7cfe73 3e1f917b 3f7cdf6c     .v.>s.|?{..>l.|?
   1bba8:	3e22abb6 3f7cbfc9 3e25c58c 3f7c9f8a     ..">..|?..%>..|?
   1bbb8:	3e28defc 3f7c7eb0 3e2bf804 3f7c5d3a     ..(>.~|?..+>:]|?
   1bbc8:	3e2f10a2 3f7c3b28 3e3228d4 3f7c187a     ../>(;|?.(2>z.|?
   1bbd8:	3e354098 3f7bf531 3e3857ec 3f7bd14d     .@5>1.{?.W8>M.{?
   1bbe8:	3e3b6ecf 3f7baccd 3e3e853e 3f7b87b2     .n;>..{?>.>>..{?
   1bbf8:	3e419b37 3f7b61fc 3e44b0b9 3f7b3bab     7.A>.a{?..D>.;{?
   1bc08:	3e47c5c2 3f7b14be 3e4ada4f 3f7aed37     ..G>..{?O.J>7.z?
   1bc18:	3e4dee60 3f7ac516 3e5101f1 3f7a9c59     `.M>..z?..Q>Y.z?
   1bc28:	3e541501 3f7a7302 3e57278f 3f7a4910     ..T>.sz?.'W>.Iz?
   1bc38:	3e5a3997 3f7a1e84 3e5d4b1a 3f79f35e     .9Z>..z?.K]>^.y?
   1bc48:	3e605c13 3f79c79d 3e636c83 3f799b43     .\`>..y?.lc>C.y?
   1bc58:	3e667c66 3f796e4e 3e698bba 3f7940c0     f|f>Nny?..i>.@y?
   1bc68:	3e6c9a7f 3f791298 3e6fa8b2 3f78e3d6     ..l>..y?..o>..x?
   1bc78:	3e72b651 3f78b47b 3e75c35a 3f788486     Q.r>{.x?Z.u>..x?
   1bc88:	3e78cfcc 3f7853f8 3e7bdba4 3f7822d1     ..x>.Sx?..{>."x?
   1bc98:	3e7ee6e1 3f77f110 3e80f8c0 3f77beb7     ..~>..w?...>..w?
   1bca8:	3e827dc0 3f778bc5 3e840270 3f77583a     .}.>..w?p..>:Xw?
   1bcb8:	3e8586ce 3f772417 3e870ada 3f76ef5b     ...>.$w?...>[.v?
   1bcc8:	3e888e93 3f76ba07 3e8a11f8 3f76841b     ...>..v?...>..v?
   1bcd8:	3e8b9507 3f764d97 3e8d17c0 3f76167a     ...>.Mv?...>z.v?
   1bce8:	3e8e9a22 3f75dec6 3e901c2c 3f75a67b     "..>..u?,..>{.u?
   1bcf8:	3e919ddd 3f756d97 3e931f35 3f75341d     ...>.mu?5..>.4u?
   1bd08:	3e94a031 3f74fa0b 3e9620d2 3f74bf62     1..>..t?. .>b.t?
   1bd18:	3e97a117 3f748422 3e9920fe 3f74484b     ...>".t?. .>KHt?
   1bd28:	3e9aa086 3f740bdd 3e9c1faf 3f73ced9     ...>..t?...>..s?
   1bd38:	3e9d9e78 3f73913f 3e9f1cdf 3f73530e     x..>?.s?...>.Ss?
   1bd48:	3ea09ae5 3f731447 3ea21887 3f72d4eb     ...>G.s?...>..r?
   1bd58:	3ea395c5 3f7294f8 3ea5129f 3f725470     ...>..r?...>pTr?
   1bd68:	3ea68f12 3f721352 3ea80b1f 3f71d19f     ...>R.r?...>..q?
   1bd78:	3ea986c4 3f718f57 3eab0201 3f714c7a     ...>W.q?...>zLq?
   1bd88:	3eac7cd4 3f710908 3eadf73c 3f70c502     .|.>..q?<..>..p?
   1bd98:	3eaf713a 3f708066 3eb0eacb 3f703b37     :q.>f.p?...>7;p?
   1bda8:	3eb263ef 3f6ff573 3eb3dca5 3f6faf1b     .c.>s.o?...>..o?
   1bdb8:	3eb554ec 3f6f6830 3eb6ccc3 3f6f20b0     .T.>0ho?...>. o?
   1bdc8:	3eb8442a 3f6ed89e 3eb9bb1e 3f6e8ff8     *D.>..n?...>..n?
   1bdd8:	3ebb31a0 3f6e46be 3ebca7af 3f6dfcf2     .1.>.Fn?...>..m?
   1bde8:	3ebe1d4a 3f6db293 3ebf926f 3f6d67a1     J..>..m?o..>.gm?
   1bdf8:	3ec1071e 3f6d1c1d 3ec27b55 3f6cd007     ...>..m?U{.>..l?
   1be08:	3ec3ef15 3f6c835e 3ec5625c 3f6c3624     ...>^.l?\b.>$6l?
   1be18:	3ec6d529 3f6be858 3ec8477c 3f6b99fb     )..>X.k?|G.>..k?
   1be28:	3ec9b953 3f6b4b0c 3ecb2aae 3f6afb8c     S..>.Kk?.*.>..j?
   1be38:	3ecc9b8b 3f6aab7b 3ece0bea 3f6a5ad9     ...>{.j?...>.Zj?
   1be48:	3ecf7bca 3f6a09a7 3ed0eb2a 3f69b7e4     .{.>..j?*..>..i?
   1be58:	3ed25a09 3f696591 3ed3c867 3f6912ae     .Z.>.ei?g..>..i?
   1be68:	3ed53641 3f68bf3c 3ed6a399 3f686b39     A6.><.h?...>9kh?
   1be78:	3ed8106b 3f6816a8 3ed97cb9 3f67c187     k..>..h?.|.>..g?
   1be88:	3edae880 3f676bd8 3edc53c1 3f671599     ...>.kg?.S.>..g?
   1be98:	3eddbe79 3f66becc 3edf28a9 3f666771     y..>..f?.(.>qgf?
   1bea8:	3ee0924f 3f660f88 3ee1fb6a 3f65b710     O..>..f?j..>..e?
   1beb8:	3ee363fa 3f655e0b 3ee4cbfe 3f650479     .c.>.^e?...>y.e?
   1bec8:	3ee63375 3f64aa59 3ee79a5d 3f644fac     u3.>Y.d?]..>.Od?
   1bed8:	3ee900b7 3f63f473 3eea6681 3f6398ac     ...>s.c?.f.>..c?
   1bee8:	3eebcbbb 3f633c5a 3eed3063 3f62df7b     ...>Z<c?c0.>{.b?
   1bef8:	3eee9479 3f628210 3eeff7fb 3f62241a     y..>..b?...>.$b?
   1bf08:	3ef15aea 3f61c598 3ef2bd43 3f61668a     .Z.>..a?C..>.fa?
   1bf18:	3ef41f07 3f6106f2 3ef58035 3f60a6cf     ...>..a?5..>..`?
   1bf28:	3ef6e0cb 3f604621 3ef840c8 3f5fe4e9     ...>!F`?.@.>.._?
   1bf38:	3ef9a02d 3f5f8327 3efafef7 3f5f20db     -..>'._?...>. _?
   1bf48:	3efc5d27 3f5ebe05 3efdbabb 3f5e5aa6     '].>..^?...>.Z^?
   1bf58:	3eff17b2 3f5df6be 3f003a06 3f5d924d     ...>..]?.:.?M.]?
   1bf68:	3f00e7e4 3f5d2d53 3f019573 3f5cc7d1     ...?S-]?s..?..\?
   1bf78:	3f0242b1 3f5c61c7 3f02ef9f 3f5bfb34     .B.?.a\?...?4.[?
   1bf88:	3f039c3d 3f5b941a 3f044889 3f5b2c79     =..?..[?.H.?y,[?
   1bf98:	3f04f484 3f5ac450 3f05a02c 3f5a5ba0     ...?P.Z?,..?.[Z?
   1bfa8:	3f064b82 3f59f26a 3f06f686 3f5988ad     .K.?j.Y?...?..Y?
   1bfb8:	3f07a136 3f591e6a 3f084b92 3f58b3a1     6..?j.Y?.K.?..X?
   1bfc8:	3f08f59b 3f584853 3f099f4e 3f57dc7f     ...?SHX?N..?..W?
   1bfd8:	3f0a48ad 3f577026 3f0af1b7 3f570348     .H.?&pW?...?H.W?
   1bfe8:	3f0b9a6b 3f5695e5 3f0c42c9 3f5627fe     k..?..V?.B.?.'V?
   1bff8:	3f0cead0 3f55b993 3f0d9281 3f554aa4     ...?..U?...?.JU?
   1c008:	3f0e39da 3f54db31 3f0ee0db 3f546b3b     .9.?1.T?...?;kT?
   1c018:	3f0f8784 3f53fac3 3f102dd5 3f5389c7     ...?..S?.-.?..S?
   1c028:	3f10d3cd 3f531849 3f11796b 3f52a649     ...?I.S?ky.?I.R?
   1c038:	3f121eb0 3f5233c6 3f12c39a 3f51c0c2     ...?.3R?...?..Q?
   1c048:	3f13682a 3f514d3d 3f140c5f 3f50d937     *h.?=MQ?_..?7.P?
   1c058:	3f14b039 3f5064af 3f1553b7 3f4fefa8     9..?.dP?.S.?..O?
   1c068:	3f15f6d9 3f4f7a1f 3f16999f 3f4f0417     ...?.zO?...?..O?
   1c078:	3f173c07 3f4e8d90 3f17de12 3f4e1689     .<.?..N?...?..N?
   1c088:	3f187fc0 3f4d9f02 3f19210f 3f4d26fd     ...?..M?.!.?.&M?
   1c098:	3f19c200 3f4cae79 3f1a6293 3f4c3578     ...?y.L?.b.?x5L?
   1c0a8:	3f1b02c6 3f4bbbf8 3f1ba299 3f4b41fa     ...?..K?...?.AK?
   1c0b8:	3f1c420c 3f4ac77f 3f1ce11f 3f4a4c87     .B.?..J?...?.LJ?
   1c0c8:	3f1d7fd1 3f49d112 3f1e1e22 3f495521     ...?..I?"..?!UI?
   1c0d8:	3f1ebc12 3f48d8b3 3f1f599f 3f485bca     ...?..H?.Y.?.[H?
   1c0e8:	3f1ff6cb 3f47de65 3f209393 3f476085     ...?e.G?.. ?.`G?
   1c0f8:	3f212ff9 3f46e22a 3f21cbfb 3f466354     ./!?*.F?..!?TcF?
   1c108:	3f226799 3f45e403 3f2302d3 3f456439     .g"?..E?..#?9dE?
   1c118:	3f239da9 3f44e3f5 3f24381a 3f446337     ..#?..D?.8$?7cD?
   1c128:	3f24d225 3f43e200 3f256bcb 3f436051     %.$?..C?.k%?Q`C?
   1c138:	3f26050a 3f42de29 3f269de3 3f425b89     ..&?).B?..&?.[B?
   1c148:	3f273656 3f41d870 3f27ce61 3f4154e1     V6'?p.A?a.'?.TA?
   1c158:	3f286605 3f40d0da 3f28fd41 3f404c5c     .f(?..@?A.(?\L@?
   1c168:	3f299415 3f3fc767 3f2a2a80 3f3f41fc     ..)?g.??.**?.A??
   1c178:	3f2ac082 3f3ebc1b 3f2b561b 3f3e35c5     ..*?..>?.V+?.5>?
   1c188:	3f2beb4a 3f3daef9 3f2c800f 3f3d27b8     J.+?..=?..,?.'=?
   1c198:	3f2d1469 3f3ca003 3f2da859 3f3c17d9     i.-?..<?Y.-?..<?
   1c1a8:	3f2e3bde 3f3b8f3b 3f2ecef7 3f3b0629     .;.?;.;?...?).;?
   1c1b8:	3f2f61a5 3f3a7ca4 3f2ff3e6 3f39f2ac     .a/?.|:?../?..9?
   1c1c8:	3f3085bb 3f396842 3f311722 3f38dd65     ..0?Bh9?".1?e.8?
   1c1d8:	3f31a81d 3f385216 3f3238aa 3f37c655     ..1?.R8?.82?U.7?
   1c1e8:	3f32c8c9 3f373a23 3f33587a 3f36ad7f     ..2?#:7?zX3?..6?
   1c1f8:	3f33e7bc 3f36206c 3f34768f 3f3592e7     ..3?l 6?.v4?..5?
   1c208:	3f3504f3 3f3504f3 3f3592e7 3f34768f     ..5?..5?..5?.v4?
   1c218:	3f36206c 3f33e7bc 3f36ad7f 3f33587a     l 6?..3?..6?zX3?
   1c228:	3f373a23 3f32c8c9 3f37c655 3f3238aa     #:7?..2?U.7?.82?
   1c238:	3f385216 3f31a81d 3f38dd65 3f311722     .R8?..1?e.8?".1?
   1c248:	3f396842 3f3085bb 3f39f2ac 3f2ff3e6     Bh9?..0?..9?../?
   1c258:	3f3a7ca4 3f2f61a5 3f3b0629 3f2ecef7     .|:?.a/?).;?...?
   1c268:	3f3b8f3b 3f2e3bde 3f3c17d9 3f2da859     ;.;?.;.?..<?Y.-?
   1c278:	3f3ca003 3f2d1469 3f3d27b8 3f2c800f     ..<?i.-?.'=?..,?
   1c288:	3f3daef9 3f2beb4a 3f3e35c5 3f2b561b     ..=?J.+?.5>?.V+?
   1c298:	3f3ebc1b 3f2ac082 3f3f41fc 3f2a2a80     ..>?..*?.A??.**?
   1c2a8:	3f3fc767 3f299415 3f404c5c 3f28fd41     g.??..)?\L@?A.(?
   1c2b8:	3f40d0da 3f286605 3f4154e1 3f27ce61     ..@?.f(?.TA?a.'?
   1c2c8:	3f41d870 3f273656 3f425b89 3f269de3     p.A?V6'?.[B?..&?
   1c2d8:	3f42de29 3f26050a 3f436051 3f256bcb     ).B?..&?Q`C?.k%?
   1c2e8:	3f43e200 3f24d225 3f446337 3f24381a     ..C?%.$?7cD?.8$?
   1c2f8:	3f44e3f5 3f239da9 3f456439 3f2302d3     ..D?..#?9dE?..#?
   1c308:	3f45e403 3f226799 3f466354 3f21cbfb     ..E?.g"?TcF?..!?
   1c318:	3f46e22a 3f212ff9 3f476085 3f209393     *.F?./!?.`G?.. ?
   1c328:	3f47de65 3f1ff6cb 3f485bca 3f1f599f     e.G?...?.[H?.Y.?
   1c338:	3f48d8b3 3f1ebc12 3f495521 3f1e1e22     ..H?...?!UI?"..?
   1c348:	3f49d112 3f1d7fd1 3f4a4c87 3f1ce11f     ..I?...?.LJ?...?
   1c358:	3f4ac77f 3f1c420c 3f4b41fa 3f1ba299     ..J?.B.?.AK?...?
   1c368:	3f4bbbf8 3f1b02c6 3f4c3578 3f1a6293     ..K?...?x5L?.b.?
   1c378:	3f4cae79 3f19c200 3f4d26fd 3f19210f     y.L?...?.&M?.!.?
   1c388:	3f4d9f02 3f187fc0 3f4e1689 3f17de12     ..M?...?..N?...?
   1c398:	3f4e8d90 3f173c07 3f4f0417 3f16999f     ..N?.<.?..O?...?
   1c3a8:	3f4f7a1f 3f15f6d9 3f4fefa8 3f1553b7     .zO?...?..O?.S.?
   1c3b8:	3f5064af 3f14b039 3f50d937 3f140c5f     .dP?9..?7.P?_..?
   1c3c8:	3f514d3d 3f13682a 3f51c0c2 3f12c39a     =MQ?*h.?..Q?...?
   1c3d8:	3f5233c6 3f121eb0 3f52a649 3f11796b     .3R?...?I.R?ky.?
   1c3e8:	3f531849 3f10d3cd 3f5389c7 3f102dd5     I.S?...?..S?.-.?
   1c3f8:	3f53fac3 3f0f8784 3f546b3b 3f0ee0db     ..S?...?;kT?...?
   1c408:	3f54db31 3f0e39da 3f554aa4 3f0d9281     1.T?.9.?.JU?...?
   1c418:	3f55b993 3f0cead0 3f5627fe 3f0c42c9     ..U?...?.'V?.B.?
   1c428:	3f5695e5 3f0b9a6b 3f570348 3f0af1b7     ..V?k..?H.W?...?
   1c438:	3f577026 3f0a48ad 3f57dc7f 3f099f4e     &pW?.H.?..W?N..?
   1c448:	3f584853 3f08f59b 3f58b3a1 3f084b92     SHX?...?..X?.K.?
   1c458:	3f591e6a 3f07a136 3f5988ad 3f06f686     j.Y?6..?..Y?...?
   1c468:	3f59f26a 3f064b82 3f5a5ba0 3f05a02c     j.Y?.K.?.[Z?,..?
   1c478:	3f5ac450 3f04f484 3f5b2c79 3f044889     P.Z?...?y,[?.H.?
   1c488:	3f5b941a 3f039c3d 3f5bfb34 3f02ef9f     ..[?=..?4.[?...?
   1c498:	3f5c61c7 3f0242b1 3f5cc7d1 3f019573     .a\?.B.?..\?s..?
   1c4a8:	3f5d2d53 3f00e7e4 3f5d924d 3f003a06     S-]?...?M.]?.:.?
   1c4b8:	3f5df6be 3eff17b2 3f5e5aa6 3efdbabb     ..]?...>.Z^?...>
   1c4c8:	3f5ebe05 3efc5d27 3f5f20db 3efafef7     ..^?'].>. _?...>
   1c4d8:	3f5f8327 3ef9a02d 3f5fe4e9 3ef840c8     '._?-..>.._?.@.>
   1c4e8:	3f604621 3ef6e0cb 3f60a6cf 3ef58035     !F`?...>..`?5..>
   1c4f8:	3f6106f2 3ef41f07 3f61668a 3ef2bd43     ..a?...>.fa?C..>
   1c508:	3f61c598 3ef15aea 3f62241a 3eeff7fb     ..a?.Z.>.$b?...>
   1c518:	3f628210 3eee9479 3f62df7b 3eed3063     ..b?y..>{.b?c0.>
   1c528:	3f633c5a 3eebcbbb 3f6398ac 3eea6681     Z<c?...>..c?.f.>
   1c538:	3f63f473 3ee900b7 3f644fac 3ee79a5d     s.c?...>.Od?]..>
   1c548:	3f64aa59 3ee63375 3f650479 3ee4cbfe     Y.d?u3.>y.e?...>
   1c558:	3f655e0b 3ee363fa 3f65b710 3ee1fb6a     .^e?.c.>..e?j..>
   1c568:	3f660f88 3ee0924f 3f666771 3edf28a9     ..f?O..>qgf?.(.>
   1c578:	3f66becc 3eddbe79 3f671599 3edc53c1     ..f?y..>..g?.S.>
   1c588:	3f676bd8 3edae880 3f67c187 3ed97cb9     .kg?...>..g?.|.>
   1c598:	3f6816a8 3ed8106b 3f686b39 3ed6a399     ..h?k..>9kh?...>
   1c5a8:	3f68bf3c 3ed53641 3f6912ae 3ed3c867     <.h?A6.>..i?g..>
   1c5b8:	3f696591 3ed25a09 3f69b7e4 3ed0eb2a     .ei?.Z.>..i?*..>
   1c5c8:	3f6a09a7 3ecf7bca 3f6a5ad9 3ece0bea     ..j?.{.>.Zj?...>
   1c5d8:	3f6aab7b 3ecc9b8b 3f6afb8c 3ecb2aae     {.j?...>..j?.*.>
   1c5e8:	3f6b4b0c 3ec9b953 3f6b99fb 3ec8477c     .Kk?S..>..k?|G.>
   1c5f8:	3f6be858 3ec6d529 3f6c3624 3ec5625c     X.k?)..>$6l?\b.>
   1c608:	3f6c835e 3ec3ef15 3f6cd007 3ec27b55     ^.l?...>..l?U{.>
   1c618:	3f6d1c1d 3ec1071e 3f6d67a1 3ebf926f     ..m?...>.gm?o..>
   1c628:	3f6db293 3ebe1d4a 3f6dfcf2 3ebca7af     ..m?J..>..m?...>
   1c638:	3f6e46be 3ebb31a0 3f6e8ff8 3eb9bb1e     .Fn?.1.>..n?...>
   1c648:	3f6ed89e 3eb8442a 3f6f20b0 3eb6ccc3     ..n?*D.>. o?...>
   1c658:	3f6f6830 3eb554ec 3f6faf1b 3eb3dca5     0ho?.T.>..o?...>
   1c668:	3f6ff573 3eb263ef 3f703b37 3eb0eacb     s.o?.c.>7;p?...>
   1c678:	3f708066 3eaf713a 3f70c502 3eadf73c     f.p?:q.>..p?<..>
   1c688:	3f710908 3eac7cd4 3f714c7a 3eab0201     ..q?.|.>zLq?...>
   1c698:	3f718f57 3ea986c4 3f71d19f 3ea80b1f     W.q?...>..q?...>
   1c6a8:	3f721352 3ea68f12 3f725470 3ea5129f     R.r?...>pTr?...>
   1c6b8:	3f7294f8 3ea395c5 3f72d4eb 3ea21887     ..r?...>..r?...>
   1c6c8:	3f731447 3ea09ae5 3f73530e 3e9f1cdf     G.s?...>.Ss?...>
   1c6d8:	3f73913f 3e9d9e78 3f73ced9 3e9c1faf     ?.s?x..>..s?...>
   1c6e8:	3f740bdd 3e9aa086 3f74484b 3e9920fe     ..t?...>KHt?. .>
   1c6f8:	3f748422 3e97a117 3f74bf62 3e9620d2     ".t?...>b.t?. .>
   1c708:	3f74fa0b 3e94a031 3f75341d 3e931f35     ..t?1..>.4u?5..>
   1c718:	3f756d97 3e919ddd 3f75a67b 3e901c2c     .mu?...>{.u?,..>
   1c728:	3f75dec6 3e8e9a22 3f76167a 3e8d17c0     ..u?"..>z.v?...>
   1c738:	3f764d97 3e8b9507 3f76841b 3e8a11f8     .Mv?...>..v?...>
   1c748:	3f76ba07 3e888e93 3f76ef5b 3e870ada     ..v?...>[.v?...>
   1c758:	3f772417 3e8586ce 3f77583a 3e840270     .$w?...>:Xw?p..>
   1c768:	3f778bc5 3e827dc0 3f77beb7 3e80f8c0     ..w?.}.>..w?...>
   1c778:	3f77f110 3e7ee6e1 3f7822d1 3e7bdba4     ..w?..~>."x?..{>
   1c788:	3f7853f8 3e78cfcc 3f788486 3e75c35a     .Sx?..x>..x?Z.u>
   1c798:	3f78b47b 3e72b651 3f78e3d6 3e6fa8b2     {.x?Q.r>..x?..o>
   1c7a8:	3f791298 3e6c9a7f 3f7940c0 3e698bba     ..y?..l>.@y?..i>
   1c7b8:	3f796e4e 3e667c66 3f799b43 3e636c83     Nny?f|f>C.y?.lc>
   1c7c8:	3f79c79d 3e605c13 3f79f35e 3e5d4b1a     ..y?.\`>^.y?.K]>
   1c7d8:	3f7a1e84 3e5a3997 3f7a4910 3e57278f     ..z?.9Z>.Iz?.'W>
   1c7e8:	3f7a7302 3e541501 3f7a9c59 3e5101f1     .sz?..T>Y.z?..Q>
   1c7f8:	3f7ac516 3e4dee60 3f7aed37 3e4ada4f     ..z?`.M>7.z?O.J>
   1c808:	3f7b14be 3e47c5c2 3f7b3bab 3e44b0b9     ..{?..G>.;{?..D>
   1c818:	3f7b61fc 3e419b37 3f7b87b2 3e3e853e     .a{?7.A>..{?>.>>
   1c828:	3f7baccd 3e3b6ecf 3f7bd14d 3e3857ec     ..{?.n;>M.{?.W8>
   1c838:	3f7bf531 3e354098 3f7c187a 3e3228d4     1.{?.@5>z.|?.(2>
   1c848:	3f7c3b28 3e2f10a2 3f7c5d3a 3e2bf804     (;|?../>:]|?..+>
   1c858:	3f7c7eb0 3e28defc 3f7c9f8a 3e25c58c     .~|?..(>..|?..%>
   1c868:	3f7cbfc9 3e22abb6 3f7cdf6c 3e1f917b     ..|?..">l.|?{..>
   1c878:	3f7cfe73 3e1c76de 3f7d1cdd 3e195be0     s.|?.v.>..}?.[.>
   1c888:	3f7d3aac 3e164083 3f7d57de 3e1324ca     .:}?.@.>.W}?.$.>
   1c898:	3f7d7474 3e1008b7 3f7d906e 3e0cec4a     tt}?...>n.}?J..>
   1c8a8:	3f7dabcc 3e09cf86 3f7dc68c 3e06b26e     ..}?...>..}?n..>
   1c8b8:	3f7de0b1 3e039502 3f7dfa38 3e007745     ..}?...>8.}?Ew.>
   1c8c8:	3f7e1324 3dfab273 3f7e2b72 3df475c0     $.~?s..=r+~?.u.=
   1c8d8:	3f7e4323 3dee3876 3f7e5a38 3de7fa9a     #C~?v8.=8Z~?...=
   1c8e8:	3f7e70b0 3de1bc2e 3f7e868b 3ddb7d37     .p~?...=..~?7}.=
   1c8f8:	3f7e9bc9 3dd53db9 3f7eb069 3dcefdb7     ..~?.=.=i.~?...=
   1c908:	3f7ec46d 3dc8bd36 3f7ed7d4 3dc27c39     m.~?6..=..~?9|.=
   1c918:	3f7eea9d 3dbc3ac3 3f7efcc9 3db5f8da     ..~?.:.=..~?...=
   1c928:	3f7f0e58 3dafb680 3f7f1f49 3da973ba     X..?...=I..?.s.=
   1c938:	3f7f2f9d 3da3308c 3f7f3f54 3d9cecf9     ./.?.0.=T?.?...=
   1c948:	3f7f4e6d 3d96a905 3f7f5ce9 3d9064b4     mN.?...=.\.?.d.=
   1c958:	3f7f6ac7 3d8a200a 3f7f7808 3d83db0a     .j.?. .=.x.?...=
   1c968:	3f7f84ab 3d7b2b74 3f7f90b1 3d6ea038     ...?t+{=...?8.n=
   1c978:	3f7f9c18 3d621468 3f7fa6e3 3d55880e     ...?h.b=...?..U=
   1c988:	3f7fb10f 3d48fb2f 3f7fba9e 3d3c6dd5     ...?/.H=...?.m<=
   1c998:	3f7fc38f 3d2fe007 3f7fcbe2 3d2351cc     ...?../=...?.Q#=
   1c9a8:	3f7fd398 3d16c32c 3f7fdaaf 3d0a342f     ...?,..=...?/4.=
   1c9b8:	3f7fe129 3cfb49b9 3f7fe705 3ce22a7b     )..?.I.<...?{*.<
   1c9c8:	3f7fec43 3cc90ab0 3f7ff0e3 3cafea69     C..?...<...?i..<
   1c9d8:	3f7ff4e6 3c96c9b6 3f7ff84a 3c7b514b     ...?...<J..?KQ{<
   1c9e8:	3f7ffb11 3c490e90 3f7ffd39 3c16cb59     ...?..I<9..?Y..<
   1c9f8:	3f7ffec4 3bc90f89 3f7fffb1 3b490fc7     ...?...;...?..I;
   1ca08:	3f800000 00000000 3f7fffb1 bb490fc7     ...?.......?..I.
   1ca18:	3f7ffec4 bbc90f89 3f7ffd39 bc16cb59     ...?....9..?Y...
   1ca28:	3f7ffb11 bc490e90 3f7ff84a bc7b514b     ...?..I.J..?KQ{.
   1ca38:	3f7ff4e6 bc96c9b6 3f7ff0e3 bcafea69     ...?.......?i...
   1ca48:	3f7fec43 bcc90ab0 3f7fe705 bce22a7b     C..?.......?{*..
   1ca58:	3f7fe129 bcfb49b9 3f7fdaaf bd0a342f     )..?.I.....?/4..
   1ca68:	3f7fd398 bd16c32c 3f7fcbe2 bd2351cc     ...?,......?.Q#.
   1ca78:	3f7fc38f bd2fe007 3f7fba9e bd3c6dd5     ...?../....?.m<.
   1ca88:	3f7fb10f bd48fb2f 3f7fa6e3 bd55880e     ...?/.H....?..U.
   1ca98:	3f7f9c18 bd621468 3f7f90b1 bd6ea038     ...?h.b....?8.n.
   1caa8:	3f7f84ab bd7b2b74 3f7f7808 bd83db0a     ...?t+{..x.?....
   1cab8:	3f7f6ac7 bd8a200a 3f7f5ce9 bd9064b4     .j.?. ...\.?.d..
   1cac8:	3f7f4e6d bd96a905 3f7f3f54 bd9cecf9     mN.?....T?.?....
   1cad8:	3f7f2f9d bda3308c 3f7f1f49 bda973ba     ./.?.0..I..?.s..
   1cae8:	3f7f0e58 bdafb680 3f7efcc9 bdb5f8da     X..?......~?....
   1caf8:	3f7eea9d bdbc3ac3 3f7ed7d4 bdc27c39     ..~?.:....~?9|..
   1cb08:	3f7ec46d bdc8bd36 3f7eb069 bdcefdb7     m.~?6...i.~?....
   1cb18:	3f7e9bc9 bdd53db9 3f7e868b bddb7d37     ..~?.=....~?7}..
   1cb28:	3f7e70b0 bde1bc2e 3f7e5a38 bde7fa9a     .p~?....8Z~?....
   1cb38:	3f7e4323 bdee3876 3f7e2b72 bdf475c0     #C~?v8..r+~?.u..
   1cb48:	3f7e1324 bdfab273 3f7dfa38 be007745     $.~?s...8.}?Ew..
   1cb58:	3f7de0b1 be039502 3f7dc68c be06b26e     ..}?......}?n...
   1cb68:	3f7dabcc be09cf86 3f7d906e be0cec4a     ..}?....n.}?J...
   1cb78:	3f7d7474 be1008b7 3f7d57de be1324ca     tt}?.....W}?.$..
   1cb88:	3f7d3aac be164083 3f7d1cdd be195be0     .:}?.@....}?.[..
   1cb98:	3f7cfe73 be1c76de 3f7cdf6c be1f917b     s.|?.v..l.|?{...
   1cba8:	3f7cbfc9 be22abb6 3f7c9f8a be25c58c     ..|?.."...|?..%.
   1cbb8:	3f7c7eb0 be28defc 3f7c5d3a be2bf804     .~|?..(.:]|?..+.
   1cbc8:	3f7c3b28 be2f10a2 3f7c187a be3228d4     (;|?../.z.|?.(2.
   1cbd8:	3f7bf531 be354098 3f7bd14d be3857ec     1.{?.@5.M.{?.W8.
   1cbe8:	3f7baccd be3b6ecf 3f7b87b2 be3e853e     ..{?.n;...{?>.>.
   1cbf8:	3f7b61fc be419b37 3f7b3bab be44b0b9     .a{?7.A..;{?..D.
   1cc08:	3f7b14be be47c5c2 3f7aed37 be4ada4f     ..{?..G.7.z?O.J.
   1cc18:	3f7ac516 be4dee60 3f7a9c59 be5101f1     ..z?`.M.Y.z?..Q.
   1cc28:	3f7a7302 be541501 3f7a4910 be57278f     .sz?..T..Iz?.'W.
   1cc38:	3f7a1e84 be5a3997 3f79f35e be5d4b1a     ..z?.9Z.^.y?.K].
   1cc48:	3f79c79d be605c13 3f799b43 be636c83     ..y?.\`.C.y?.lc.
   1cc58:	3f796e4e be667c66 3f7940c0 be698bba     Nny?f|f..@y?..i.
   1cc68:	3f791298 be6c9a7f 3f78e3d6 be6fa8b2     ..y?..l...x?..o.
   1cc78:	3f78b47b be72b651 3f788486 be75c35a     {.x?Q.r...x?Z.u.
   1cc88:	3f7853f8 be78cfcc 3f7822d1 be7bdba4     .Sx?..x.."x?..{.
   1cc98:	3f77f110 be7ee6e1 3f77beb7 be80f8c0     ..w?..~...w?....
   1cca8:	3f778bc5 be827dc0 3f77583a be840270     ..w?.}..:Xw?p...
   1ccb8:	3f772417 be8586ce 3f76ef5b be870ada     .$w?....[.v?....
   1ccc8:	3f76ba07 be888e93 3f76841b be8a11f8     ..v?......v?....
   1ccd8:	3f764d97 be8b9507 3f76167a be8d17c0     .Mv?....z.v?....
   1cce8:	3f75dec6 be8e9a22 3f75a67b be901c2c     ..u?"...{.u?,...
   1ccf8:	3f756d97 be919ddd 3f75341d be931f35     .mu?.....4u?5...
   1cd08:	3f74fa0b be94a031 3f74bf62 be9620d2     ..t?1...b.t?. ..
   1cd18:	3f748422 be97a117 3f74484b be9920fe     ".t?....KHt?. ..
   1cd28:	3f740bdd be9aa086 3f73ced9 be9c1faf     ..t?......s?....
   1cd38:	3f73913f be9d9e78 3f73530e be9f1cdf     ?.s?x....Ss?....
   1cd48:	3f731447 bea09ae5 3f72d4eb bea21887     G.s?......r?....
   1cd58:	3f7294f8 bea395c5 3f725470 bea5129f     ..r?....pTr?....
   1cd68:	3f721352 bea68f12 3f71d19f bea80b1f     R.r?......q?....
   1cd78:	3f718f57 bea986c4 3f714c7a beab0201     W.q?....zLq?....
   1cd88:	3f710908 beac7cd4 3f70c502 beadf73c     ..q?.|....p?<...
   1cd98:	3f708066 beaf713a 3f703b37 beb0eacb     f.p?:q..7;p?....
   1cda8:	3f6ff573 beb263ef 3f6faf1b beb3dca5     s.o?.c....o?....
   1cdb8:	3f6f6830 beb554ec 3f6f20b0 beb6ccc3     0ho?.T... o?....
   1cdc8:	3f6ed89e beb8442a 3f6e8ff8 beb9bb1e     ..n?*D....n?....
   1cdd8:	3f6e46be bebb31a0 3f6dfcf2 bebca7af     .Fn?.1....m?....
   1cde8:	3f6db293 bebe1d4a 3f6d67a1 bebf926f     ..m?J....gm?o...
   1cdf8:	3f6d1c1d bec1071e 3f6cd007 bec27b55     ..m?......l?U{..
   1ce08:	3f6c835e bec3ef15 3f6c3624 bec5625c     ^.l?....$6l?\b..
   1ce18:	3f6be858 bec6d529 3f6b99fb bec8477c     X.k?).....k?|G..
   1ce28:	3f6b4b0c bec9b953 3f6afb8c becb2aae     .Kk?S.....j?.*..
   1ce38:	3f6aab7b becc9b8b 3f6a5ad9 bece0bea     {.j?.....Zj?....
   1ce48:	3f6a09a7 becf7bca 3f69b7e4 bed0eb2a     ..j?.{....i?*...
   1ce58:	3f696591 bed25a09 3f6912ae bed3c867     .ei?.Z....i?g...
   1ce68:	3f68bf3c bed53641 3f686b39 bed6a399     <.h?A6..9kh?....
   1ce78:	3f6816a8 bed8106b 3f67c187 bed97cb9     ..h?k.....g?.|..
   1ce88:	3f676bd8 bedae880 3f671599 bedc53c1     .kg?......g?.S..
   1ce98:	3f66becc beddbe79 3f666771 bedf28a9     ..f?y...qgf?.(..
   1cea8:	3f660f88 bee0924f 3f65b710 bee1fb6a     ..f?O.....e?j...
   1ceb8:	3f655e0b bee363fa 3f650479 bee4cbfe     .^e?.c..y.e?....
   1cec8:	3f64aa59 bee63375 3f644fac bee79a5d     Y.d?u3...Od?]...
   1ced8:	3f63f473 bee900b7 3f6398ac beea6681     s.c?......c?.f..
   1cee8:	3f633c5a beebcbbb 3f62df7b beed3063     Z<c?....{.b?c0..
   1cef8:	3f628210 beee9479 3f62241a beeff7fb     ..b?y....$b?....
   1cf08:	3f61c598 bef15aea 3f61668a bef2bd43     ..a?.Z...fa?C...
   1cf18:	3f6106f2 bef41f07 3f60a6cf bef58035     ..a?......`?5...
   1cf28:	3f604621 bef6e0cb 3f5fe4e9 bef840c8     !F`?......_?.@..
   1cf38:	3f5f8327 bef9a02d 3f5f20db befafef7     '._?-.... _?....
   1cf48:	3f5ebe05 befc5d27 3f5e5aa6 befdbabb     ..^?']...Z^?....
   1cf58:	3f5df6be beff17b2 3f5d924d bf003a06     ..]?....M.]?.:..
   1cf68:	3f5d2d53 bf00e7e4 3f5cc7d1 bf019573     S-]?......\?s...
   1cf78:	3f5c61c7 bf0242b1 3f5bfb34 bf02ef9f     .a\?.B..4.[?....
   1cf88:	3f5b941a bf039c3d 3f5b2c79 bf044889     ..[?=...y,[?.H..
   1cf98:	3f5ac450 bf04f484 3f5a5ba0 bf05a02c     P.Z?.....[Z?,...
   1cfa8:	3f59f26a bf064b82 3f5988ad bf06f686     j.Y?.K....Y?....
   1cfb8:	3f591e6a bf07a136 3f58b3a1 bf084b92     j.Y?6.....X?.K..
   1cfc8:	3f584853 bf08f59b 3f57dc7f bf099f4e     SHX?......W?N...
   1cfd8:	3f577026 bf0a48ad 3f570348 bf0af1b7     &pW?.H..H.W?....
   1cfe8:	3f5695e5 bf0b9a6b 3f5627fe bf0c42c9     ..V?k....'V?.B..
   1cff8:	3f55b993 bf0cead0 3f554aa4 bf0d9281     ..U?.....JU?....
   1d008:	3f54db31 bf0e39da 3f546b3b bf0ee0db     1.T?.9..;kT?....
   1d018:	3f53fac3 bf0f8784 3f5389c7 bf102dd5     ..S?......S?.-..
   1d028:	3f531849 bf10d3cd 3f52a649 bf11796b     I.S?....I.R?ky..
   1d038:	3f5233c6 bf121eb0 3f51c0c2 bf12c39a     .3R?......Q?....
   1d048:	3f514d3d bf13682a 3f50d937 bf140c5f     =MQ?*h..7.P?_...
   1d058:	3f5064af bf14b039 3f4fefa8 bf1553b7     .dP?9.....O?.S..
   1d068:	3f4f7a1f bf15f6d9 3f4f0417 bf16999f     .zO?......O?....
   1d078:	3f4e8d90 bf173c07 3f4e1689 bf17de12     ..N?.<....N?....
   1d088:	3f4d9f02 bf187fc0 3f4d26fd bf19210f     ..M?.....&M?.!..
   1d098:	3f4cae79 bf19c200 3f4c3578 bf1a6293     y.L?....x5L?.b..
   1d0a8:	3f4bbbf8 bf1b02c6 3f4b41fa bf1ba299     ..K?.....AK?....
   1d0b8:	3f4ac77f bf1c420c 3f4a4c87 bf1ce11f     ..J?.B...LJ?....
   1d0c8:	3f49d112 bf1d7fd1 3f495521 bf1e1e22     ..I?....!UI?"...
   1d0d8:	3f48d8b3 bf1ebc12 3f485bca bf1f599f     ..H?.....[H?.Y..
   1d0e8:	3f47de65 bf1ff6cb 3f476085 bf209393     e.G?.....`G?.. .
   1d0f8:	3f46e22a bf212ff9 3f466354 bf21cbfb     *.F?./!.TcF?..!.
   1d108:	3f45e403 bf226799 3f456439 bf2302d3     ..E?.g".9dE?..#.
   1d118:	3f44e3f5 bf239da9 3f446337 bf24381a     ..D?..#.7cD?.8$.
   1d128:	3f43e200 bf24d225 3f436051 bf256bcb     ..C?%.$.Q`C?.k%.
   1d138:	3f42de29 bf26050a 3f425b89 bf269de3     ).B?..&..[B?..&.
   1d148:	3f41d870 bf273656 3f4154e1 bf27ce61     p.A?V6'..TA?a.'.
   1d158:	3f40d0da bf286605 3f404c5c bf28fd41     ..@?.f(.\L@?A.(.
   1d168:	3f3fc767 bf299415 3f3f41fc bf2a2a80     g.??..)..A??.**.
   1d178:	3f3ebc1b bf2ac082 3f3e35c5 bf2b561b     ..>?..*..5>?.V+.
   1d188:	3f3daef9 bf2beb4a 3f3d27b8 bf2c800f     ..=?J.+..'=?..,.
   1d198:	3f3ca003 bf2d1469 3f3c17d9 bf2da859     ..<?i.-...<?Y.-.
   1d1a8:	3f3b8f3b bf2e3bde 3f3b0629 bf2ecef7     ;.;?.;..).;?....
   1d1b8:	3f3a7ca4 bf2f61a5 3f39f2ac bf2ff3e6     .|:?.a/...9?../.
   1d1c8:	3f396842 bf3085bb 3f38dd65 bf311722     Bh9?..0.e.8?".1.
   1d1d8:	3f385216 bf31a81d 3f37c655 bf3238aa     .R8?..1.U.7?.82.
   1d1e8:	3f373a23 bf32c8c9 3f36ad7f bf33587a     #:7?..2...6?zX3.
   1d1f8:	3f36206c bf33e7bc 3f3592e7 bf34768f     l 6?..3...5?.v4.
   1d208:	3f3504f3 bf3504f3 3f34768f bf3592e7     ..5?..5..v4?..5.
   1d218:	3f33e7bc bf36206c 3f33587a bf36ad7f     ..3?l 6.zX3?..6.
   1d228:	3f32c8c9 bf373a23 3f3238aa bf37c655     ..2?#:7..82?U.7.
   1d238:	3f31a81d bf385216 3f311722 bf38dd65     ..1?.R8.".1?e.8.
   1d248:	3f3085bb bf396842 3f2ff3e6 bf39f2ac     ..0?Bh9.../?..9.
   1d258:	3f2f61a5 bf3a7ca4 3f2ecef7 bf3b0629     .a/?.|:....?).;.
   1d268:	3f2e3bde bf3b8f3b 3f2da859 bf3c17d9     .;.?;.;.Y.-?..<.
   1d278:	3f2d1469 bf3ca003 3f2c800f bf3d27b8     i.-?..<...,?.'=.
   1d288:	3f2beb4a bf3daef9 3f2b561b bf3e35c5     J.+?..=..V+?.5>.
   1d298:	3f2ac082 bf3ebc1b 3f2a2a80 bf3f41fc     ..*?..>..**?.A?.
   1d2a8:	3f299415 bf3fc767 3f28fd41 bf404c5c     ..)?g.?.A.(?\L@.
   1d2b8:	3f286605 bf40d0da 3f27ce61 bf4154e1     .f(?..@.a.'?.TA.
   1d2c8:	3f273656 bf41d870 3f269de3 bf425b89     V6'?p.A...&?.[B.
   1d2d8:	3f26050a bf42de29 3f256bcb bf436051     ..&?).B..k%?Q`C.
   1d2e8:	3f24d225 bf43e200 3f24381a bf446337     %.$?..C..8$?7cD.
   1d2f8:	3f239da9 bf44e3f5 3f2302d3 bf456439     ..#?..D...#?9dE.
   1d308:	3f226799 bf45e403 3f21cbfb bf466354     .g"?..E...!?TcF.
   1d318:	3f212ff9 bf46e22a 3f209393 bf476085     ./!?*.F... ?.`G.
   1d328:	3f1ff6cb bf47de65 3f1f599f bf485bca     ...?e.G..Y.?.[H.
   1d338:	3f1ebc12 bf48d8b3 3f1e1e22 bf495521     ...?..H."..?!UI.
   1d348:	3f1d7fd1 bf49d112 3f1ce11f bf4a4c87     ...?..I....?.LJ.
   1d358:	3f1c420c bf4ac77f 3f1ba299 bf4b41fa     .B.?..J....?.AK.
   1d368:	3f1b02c6 bf4bbbf8 3f1a6293 bf4c3578     ...?..K..b.?x5L.
   1d378:	3f19c200 bf4cae79 3f19210f bf4d26fd     ...?y.L..!.?.&M.
   1d388:	3f187fc0 bf4d9f02 3f17de12 bf4e1689     ...?..M....?..N.
   1d398:	3f173c07 bf4e8d90 3f16999f bf4f0417     .<.?..N....?..O.
   1d3a8:	3f15f6d9 bf4f7a1f 3f1553b7 bf4fefa8     ...?.zO..S.?..O.
   1d3b8:	3f14b039 bf5064af 3f140c5f bf50d937     9..?.dP._..?7.P.
   1d3c8:	3f13682a bf514d3d 3f12c39a bf51c0c2     *h.?=MQ....?..Q.
   1d3d8:	3f121eb0 bf5233c6 3f11796b bf52a649     ...?.3R.ky.?I.R.
   1d3e8:	3f10d3cd bf531849 3f102dd5 bf5389c7     ...?I.S..-.?..S.
   1d3f8:	3f0f8784 bf53fac3 3f0ee0db bf546b3b     ...?..S....?;kT.
   1d408:	3f0e39da bf54db31 3f0d9281 bf554aa4     .9.?1.T....?.JU.
   1d418:	3f0cead0 bf55b993 3f0c42c9 bf5627fe     ...?..U..B.?.'V.
   1d428:	3f0b9a6b bf5695e5 3f0af1b7 bf570348     k..?..V....?H.W.
   1d438:	3f0a48ad bf577026 3f099f4e bf57dc7f     .H.?&pW.N..?..W.
   1d448:	3f08f59b bf584853 3f084b92 bf58b3a1     ...?SHX..K.?..X.
   1d458:	3f07a136 bf591e6a 3f06f686 bf5988ad     6..?j.Y....?..Y.
   1d468:	3f064b82 bf59f26a 3f05a02c bf5a5ba0     .K.?j.Y.,..?.[Z.
   1d478:	3f04f484 bf5ac450 3f044889 bf5b2c79     ...?P.Z..H.?y,[.
   1d488:	3f039c3d bf5b941a 3f02ef9f bf5bfb34     =..?..[....?4.[.
   1d498:	3f0242b1 bf5c61c7 3f019573 bf5cc7d1     .B.?.a\.s..?..\.
   1d4a8:	3f00e7e4 bf5d2d53 3f003a06 bf5d924d     ...?S-]..:.?M.].
   1d4b8:	3eff17b2 bf5df6be 3efdbabb bf5e5aa6     ...>..]....>.Z^.
   1d4c8:	3efc5d27 bf5ebe05 3efafef7 bf5f20db     '].>..^....>. _.
   1d4d8:	3ef9a02d bf5f8327 3ef840c8 bf5fe4e9     -..>'._..@.>.._.
   1d4e8:	3ef6e0cb bf604621 3ef58035 bf60a6cf     ...>!F`.5..>..`.
   1d4f8:	3ef41f07 bf6106f2 3ef2bd43 bf61668a     ...>..a.C..>.fa.
   1d508:	3ef15aea bf61c598 3eeff7fb bf62241a     .Z.>..a....>.$b.
   1d518:	3eee9479 bf628210 3eed3063 bf62df7b     y..>..b.c0.>{.b.
   1d528:	3eebcbbb bf633c5a 3eea6681 bf6398ac     ...>Z<c..f.>..c.
   1d538:	3ee900b7 bf63f473 3ee79a5d bf644fac     ...>s.c.]..>.Od.
   1d548:	3ee63375 bf64aa59 3ee4cbfe bf650479     u3.>Y.d....>y.e.
   1d558:	3ee363fa bf655e0b 3ee1fb6a bf65b710     .c.>.^e.j..>..e.
   1d568:	3ee0924f bf660f88 3edf28a9 bf666771     O..>..f..(.>qgf.
   1d578:	3eddbe79 bf66becc 3edc53c1 bf671599     y..>..f..S.>..g.
   1d588:	3edae880 bf676bd8 3ed97cb9 bf67c187     ...>.kg..|.>..g.
   1d598:	3ed8106b bf6816a8 3ed6a399 bf686b39     k..>..h....>9kh.
   1d5a8:	3ed53641 bf68bf3c 3ed3c867 bf6912ae     A6.><.h.g..>..i.
   1d5b8:	3ed25a09 bf696591 3ed0eb2a bf69b7e4     .Z.>.ei.*..>..i.
   1d5c8:	3ecf7bca bf6a09a7 3ece0bea bf6a5ad9     .{.>..j....>.Zj.
   1d5d8:	3ecc9b8b bf6aab7b 3ecb2aae bf6afb8c     ...>{.j..*.>..j.
   1d5e8:	3ec9b953 bf6b4b0c 3ec8477c bf6b99fb     S..>.Kk.|G.>..k.
   1d5f8:	3ec6d529 bf6be858 3ec5625c bf6c3624     )..>X.k.\b.>$6l.
   1d608:	3ec3ef15 bf6c835e 3ec27b55 bf6cd007     ...>^.l.U{.>..l.
   1d618:	3ec1071e bf6d1c1d 3ebf926f bf6d67a1     ...>..m.o..>.gm.
   1d628:	3ebe1d4a bf6db293 3ebca7af bf6dfcf2     J..>..m....>..m.
   1d638:	3ebb31a0 bf6e46be 3eb9bb1e bf6e8ff8     .1.>.Fn....>..n.
   1d648:	3eb8442a bf6ed89e 3eb6ccc3 bf6f20b0     *D.>..n....>. o.
   1d658:	3eb554ec bf6f6830 3eb3dca5 bf6faf1b     .T.>0ho....>..o.
   1d668:	3eb263ef bf6ff573 3eb0eacb bf703b37     .c.>s.o....>7;p.
   1d678:	3eaf713a bf708066 3eadf73c bf70c502     :q.>f.p.<..>..p.
   1d688:	3eac7cd4 bf710908 3eab0201 bf714c7a     .|.>..q....>zLq.
   1d698:	3ea986c4 bf718f57 3ea80b1f bf71d19f     ...>W.q....>..q.
   1d6a8:	3ea68f12 bf721352 3ea5129f bf725470     ...>R.r....>pTr.
   1d6b8:	3ea395c5 bf7294f8 3ea21887 bf72d4eb     ...>..r....>..r.
   1d6c8:	3ea09ae5 bf731447 3e9f1cdf bf73530e     ...>G.s....>.Ss.
   1d6d8:	3e9d9e78 bf73913f 3e9c1faf bf73ced9     x..>?.s....>..s.
   1d6e8:	3e9aa086 bf740bdd 3e9920fe bf74484b     ...>..t.. .>KHt.
   1d6f8:	3e97a117 bf748422 3e9620d2 bf74bf62     ...>".t.. .>b.t.
   1d708:	3e94a031 bf74fa0b 3e931f35 bf75341d     1..>..t.5..>.4u.
   1d718:	3e919ddd bf756d97 3e901c2c bf75a67b     ...>.mu.,..>{.u.
   1d728:	3e8e9a22 bf75dec6 3e8d17c0 bf76167a     "..>..u....>z.v.
   1d738:	3e8b9507 bf764d97 3e8a11f8 bf76841b     ...>.Mv....>..v.
   1d748:	3e888e93 bf76ba07 3e870ada bf76ef5b     ...>..v....>[.v.
   1d758:	3e8586ce bf772417 3e840270 bf77583a     ...>.$w.p..>:Xw.
   1d768:	3e827dc0 bf778bc5 3e80f8c0 bf77beb7     .}.>..w....>..w.
   1d778:	3e7ee6e1 bf77f110 3e7bdba4 bf7822d1     ..~>..w...{>."x.
   1d788:	3e78cfcc bf7853f8 3e75c35a bf788486     ..x>.Sx.Z.u>..x.
   1d798:	3e72b651 bf78b47b 3e6fa8b2 bf78e3d6     Q.r>{.x...o>..x.
   1d7a8:	3e6c9a7f bf791298 3e698bba bf7940c0     ..l>..y...i>.@y.
   1d7b8:	3e667c66 bf796e4e 3e636c83 bf799b43     f|f>Nny..lc>C.y.
   1d7c8:	3e605c13 bf79c79d 3e5d4b1a bf79f35e     .\`>..y..K]>^.y.
   1d7d8:	3e5a3997 bf7a1e84 3e57278f bf7a4910     .9Z>..z..'W>.Iz.
   1d7e8:	3e541501 bf7a7302 3e5101f1 bf7a9c59     ..T>.sz...Q>Y.z.
   1d7f8:	3e4dee60 bf7ac516 3e4ada4f bf7aed37     `.M>..z.O.J>7.z.
   1d808:	3e47c5c2 bf7b14be 3e44b0b9 bf7b3bab     ..G>..{...D>.;{.
   1d818:	3e419b37 bf7b61fc 3e3e853e bf7b87b2     7.A>.a{.>.>>..{.
   1d828:	3e3b6ecf bf7baccd 3e3857ec bf7bd14d     .n;>..{..W8>M.{.
   1d838:	3e354098 bf7bf531 3e3228d4 bf7c187a     .@5>1.{..(2>z.|.
   1d848:	3e2f10a2 bf7c3b28 3e2bf804 bf7c5d3a     ../>(;|...+>:]|.
   1d858:	3e28defc bf7c7eb0 3e25c58c bf7c9f8a     ..(>.~|...%>..|.
   1d868:	3e22abb6 bf7cbfc9 3e1f917b bf7cdf6c     ..">..|.{..>l.|.
   1d878:	3e1c76de bf7cfe73 3e195be0 bf7d1cdd     .v.>s.|..[.>..}.
   1d888:	3e164083 bf7d3aac 3e1324ca bf7d57de     .@.>.:}..$.>.W}.
   1d898:	3e1008b7 bf7d7474 3e0cec4a bf7d906e     ...>tt}.J..>n.}.
   1d8a8:	3e09cf86 bf7dabcc 3e06b26e bf7dc68c     ...>..}.n..>..}.
   1d8b8:	3e039502 bf7de0b1 3e007745 bf7dfa38     ...>..}.Ew.>8.}.
   1d8c8:	3dfab273 bf7e1324 3df475c0 bf7e2b72     s..=$.~..u.=r+~.
   1d8d8:	3dee3876 bf7e4323 3de7fa9a bf7e5a38     v8.=#C~....=8Z~.
   1d8e8:	3de1bc2e bf7e70b0 3ddb7d37 bf7e868b     ...=.p~.7}.=..~.
   1d8f8:	3dd53db9 bf7e9bc9 3dcefdb7 bf7eb069     .=.=..~....=i.~.
   1d908:	3dc8bd36 bf7ec46d 3dc27c39 bf7ed7d4     6..=m.~.9|.=..~.
   1d918:	3dbc3ac3 bf7eea9d 3db5f8da bf7efcc9     .:.=..~....=..~.
   1d928:	3dafb680 bf7f0e58 3da973ba bf7f1f49     ...=X....s.=I...
   1d938:	3da3308c bf7f2f9d 3d9cecf9 bf7f3f54     .0.=./.....=T?..
   1d948:	3d96a905 bf7f4e6d 3d9064b4 bf7f5ce9     ...=mN...d.=.\..
   1d958:	3d8a200a bf7f6ac7 3d83db0a bf7f7808     . .=.j.....=.x..
   1d968:	3d7b2b74 bf7f84ab 3d6ea038 bf7f90b1     t+{=....8.n=....
   1d978:	3d621468 bf7f9c18 3d55880e bf7fa6e3     h.b=......U=....
   1d988:	3d48fb2f bf7fb10f 3d3c6dd5 bf7fba9e     /.H=.....m<=....
   1d998:	3d2fe007 bf7fc38f 3d2351cc bf7fcbe2     ../=.....Q#=....
   1d9a8:	3d16c32c bf7fd398 3d0a342f bf7fdaaf     ,..=..../4.=....
   1d9b8:	3cfb49b9 bf7fe129 3ce22a7b bf7fe705     .I.<)...{*.<....
   1d9c8:	3cc90ab0 bf7fec43 3cafea69 bf7ff0e3     ...<C...i..<....
   1d9d8:	3c96c9b6 bf7ff4e6 3c7b514b bf7ff84a     ...<....KQ{<J...
   1d9e8:	3c490e90 bf7ffb11 3c16cb59 bf7ffd39     ..I<....Y..<9...
   1d9f8:	3bc90f89 bf7ffec4 3b490fc7 bf7fffb1     ...;......I;....

0001da08 <twiddleCoef_rfft_4096>:
   1da08:	00000000 3f800000 3ac90fd4 3f7fffec     .......?...:...?
   1da18:	3b490fc7 3f7fffb1 3b96cbc1 3f7fff4e     ..I;...?...;N..?
   1da28:	3bc90f89 3f7ffec4 3bfb5330 3f7ffe13     ...;...?0S.;...?
   1da38:	3c16cb59 3f7ffd39 3c2fed02 3f7ffc39     Y..<9..?../<9..?
   1da48:	3c490e90 3f7ffb11 3c623000 3f7ff9c1     ..I<...?.0b<...?
   1da58:	3c7b514b 3f7ff84a 3c8a3938 3f7ff6ac     KQ{<J..?89.<...?
   1da68:	3c96c9b6 3f7ff4e6 3ca35a1c 3f7ff2f8     ...<...?.Z.<...?
   1da78:	3cafea69 3f7ff0e3 3cbc7a9b 3f7feea7     i..<...?.z.<...?
   1da88:	3cc90ab0 3f7fec43 3cd59aa6 3f7fe9b8     ...<C..?...<...?
   1da98:	3ce22a7b 3f7fe705 3ceeba2d 3f7fe42b     {*.<...?-..<+..?
   1daa8:	3cfb49b9 3f7fe129 3d03ec90 3f7fde00     .I.<)..?...=...?
   1dab8:	3d0a342f 3f7fdaaf 3d107bb8 3f7fd737     /4.=...?.{.=7..?
   1dac8:	3d16c32c 3f7fd398 3d1d0a88 3f7fcfd1     ,..=...?...=...?
   1dad8:	3d2351cc 3f7fcbe2 3d2998f6 3f7fc7cc     .Q#=...?..)=...?
   1dae8:	3d2fe007 3f7fc38f 3d3626fc 3f7fbf2a     ../=...?.&6=*..?
   1daf8:	3d3c6dd5 3f7fba9e 3d42b491 3f7fb5ea     .m<=...?..B=...?
   1db08:	3d48fb2f 3f7fb10f 3d4f41af 3f7fac0d     /.H=...?.AO=...?
   1db18:	3d55880e 3f7fa6e3 3d5bce4c 3f7fa191     ..U=...?L.[=...?
   1db28:	3d621468 3f7f9c18 3d685a62 3f7f9678     h.b=...?bZh=x..?
   1db38:	3d6ea038 3f7f90b1 3d74e5e9 3f7f8ac2     8.n=...?..t=...?
   1db48:	3d7b2b74 3f7f84ab 3d80b86c 3f7f7e6d     t+{=...?l..=m~.?
   1db58:	3d83db0a 3f7f7808 3d86fd94 3f7f717b     ...=.x.?...={q.?
   1db68:	3d8a200a 3f7f6ac7 3d8d426a 3f7f63ec     . .=.j.?jB.=.c.?
   1db78:	3d9064b4 3f7f5ce9 3d9386e7 3f7f55bf     .d.=.\.?...=.U.?
   1db88:	3d96a905 3f7f4e6d 3d99cb0a 3f7f46f4     ...=mN.?...=.F.?
   1db98:	3d9cecf9 3f7f3f54 3da00ecf 3f7f378d     ...=T?.?...=.7.?
   1dba8:	3da3308c 3f7f2f9d 3da65230 3f7f2787     .0.=./.?0R.=.'.?
   1dbb8:	3da973ba 3f7f1f49 3dac952b 3f7f16e4     .s.=I..?+..=...?
   1dbc8:	3dafb680 3f7f0e58 3db2d7bb 3f7f05a4     ...=X..?...=...?
   1dbd8:	3db5f8da 3f7efcc9 3db919dd 3f7ef3c7     ...=..~?...=..~?
   1dbe8:	3dbc3ac3 3f7eea9d 3dbf5b8d 3f7ee14c     .:.=..~?.[.=L.~?
   1dbf8:	3dc27c39 3f7ed7d4 3dc59cc6 3f7ece34     9|.=..~?...=4.~?
   1dc08:	3dc8bd36 3f7ec46d 3dcbdd86 3f7eba7f     6..=m.~?...=..~?
   1dc18:	3dcefdb7 3f7eb069 3dd21dc8 3f7ea62d     ...=i.~?...=-.~?
   1dc28:	3dd53db9 3f7e9bc9 3dd85d89 3f7e913d     .=.=..~?.].==.~?
   1dc38:	3ddb7d37 3f7e868b 3dde9cc4 3f7e7bb1     7}.=..~?...=.{~?
   1dc48:	3de1bc2e 3f7e70b0 3de4db76 3f7e6588     ...=.p~?v..=.e~?
   1dc58:	3de7fa9a 3f7e5a38 3deb199a 3f7e4ec1     ...=8Z~?...=.N~?
   1dc68:	3dee3876 3f7e4323 3df1572e 3f7e375e     v8.=#C~?.W.=^7~?
   1dc78:	3df475c0 3f7e2b72 3df7942c 3f7e1f5e     .u.=r+~?,..=^.~?
   1dc88:	3dfab273 3f7e1324 3dfdd092 3f7e06c2     s..=$.~?...=..~?
   1dc98:	3e007745 3f7dfa38 3e02062e 3f7ded88     Ew.>8.}?...>..}?
   1dca8:	3e039502 3f7de0b1 3e0523c2 3f7dd3b2     ...>..}?.#.>..}?
   1dcb8:	3e06b26e 3f7dc68c 3e084105 3f7db940     n..>..}?.A.>@.}?
   1dcc8:	3e09cf86 3f7dabcc 3e0b5df3 3f7d9e30     ...>..}?.].>0.}?
   1dcd8:	3e0cec4a 3f7d906e 3e0e7a8b 3f7d8285     J..>n.}?.z.>..}?
   1dce8:	3e1008b7 3f7d7474 3e1196cc 3f7d663d     ...>tt}?...>=f}?
   1dcf8:	3e1324ca 3f7d57de 3e14b2b2 3f7d4959     .$.>.W}?...>YI}?
   1dd08:	3e164083 3f7d3aac 3e17ce3d 3f7d2bd8     .@.>.:}?=..>.+}?
   1dd18:	3e195be0 3f7d1cdd 3e1ae96b 3f7d0dbc     .[.>..}?k..>..}?
   1dd28:	3e1c76de 3f7cfe73 3e1e0438 3f7cef03     .v.>s.|?8..>..|?
   1dd38:	3e1f917b 3f7cdf6c 3e211ea5 3f7ccfae     {..>l.|?..!>..|?
   1dd48:	3e22abb6 3f7cbfc9 3e2438ad 3f7cafbd     ..">..|?.8$>..|?
   1dd58:	3e25c58c 3f7c9f8a 3e275251 3f7c8f31     ..%>..|?QR'>1.|?
   1dd68:	3e28defc 3f7c7eb0 3e2a6b8d 3f7c6e08     ..(>.~|?.k*>.n|?
   1dd78:	3e2bf804 3f7c5d3a 3e2d8461 3f7c4c44     ..+>:]|?a.->DL|?
   1dd88:	3e2f10a2 3f7c3b28 3e309cc9 3f7c29e5     ../>(;|?..0>.)|?
   1dd98:	3e3228d4 3f7c187a 3e33b4c4 3f7c06e9     .(2>z.|?..3>..|?
   1dda8:	3e354098 3f7bf531 3e36cc50 3f7be353     .@5>1.{?P.6>S.{?
   1ddb8:	3e3857ec 3f7bd14d 3e39e36c 3f7bbf20     .W8>M.{?l.9> .{?
   1ddc8:	3e3b6ecf 3f7baccd 3e3cfa15 3f7b9a53     .n;>..{?..<>S.{?
   1ddd8:	3e3e853e 3f7b87b2 3e401049 3f7b74ea     >.>>..{?I.@>.t{?
   1dde8:	3e419b37 3f7b61fc 3e432607 3f7b4ee7     7.A>.a{?.&C>.N{?
   1ddf8:	3e44b0b9 3f7b3bab 3e463b4d 3f7b2848     ..D>.;{?M;F>H({?
   1de08:	3e47c5c2 3f7b14be 3e495018 3f7b010e     ..G>..{?.PI>..{?
   1de18:	3e4ada4f 3f7aed37 3e4c6467 3f7ad93a     O.J>7.z?gdL>:.z?
   1de28:	3e4dee60 3f7ac516 3e4f7838 3f7ab0cb     `.M>..z?8xO>..z?
   1de38:	3e5101f1 3f7a9c59 3e528b89 3f7a87c1     ..Q>Y.z?..R>..z?
   1de48:	3e541501 3f7a7302 3e559e58 3f7a5e1c     ..T>.sz?X.U>.^z?
   1de58:	3e57278f 3f7a4910 3e58b0a4 3f7a33dd     .'W>.Iz?..X>.3z?
   1de68:	3e5a3997 3f7a1e84 3e5bc26a 3f7a0904     .9Z>..z?j.[>..z?
   1de78:	3e5d4b1a 3f79f35e 3e5ed3a8 3f79dd91     .K]>^.y?..^>..y?
   1de88:	3e605c13 3f79c79d 3e61e45c 3f79b183     .\`>..y?\.a>..y?
   1de98:	3e636c83 3f799b43 3e64f486 3f7984dc     .lc>C.y?..d>..y?
   1dea8:	3e667c66 3f796e4e 3e680422 3f79579a     f|f>Nny?".h>.Wy?
   1deb8:	3e698bba 3f7940c0 3e6b132f 3f7929bf     ..i>.@y?/.k>.)y?
   1dec8:	3e6c9a7f 3f791298 3e6e21ab 3f78fb4a     ..l>..y?.!n>J.x?
   1ded8:	3e6fa8b2 3f78e3d6 3e712f94 3f78cc3b     ..o>..x?./q>;.x?
   1dee8:	3e72b651 3f78b47b 3e743ce8 3f789c93     Q.r>{.x?.<t>..x?
   1def8:	3e75c35a 3f788486 3e7749a6 3f786c52     Z.u>..x?.Iw>Rlx?
   1df08:	3e78cfcc 3f7853f8 3e7a55cb 3f783b77     ..x>.Sx?.Uz>w;x?
   1df18:	3e7bdba4 3f7822d1 3e7d6156 3f780a04     ..{>."x?Va}>..x?
   1df28:	3e7ee6e1 3f77f110 3e803622 3f77d7f7     ..~>..w?"6.>..w?
   1df38:	3e80f8c0 3f77beb7 3e81bb4a 3f77a551     ...>..w?J..>Q.w?
   1df48:	3e827dc0 3f778bc5 3e834022 3f777213     .}.>..w?"@.>.rw?
   1df58:	3e840270 3f77583a 3e84c4aa 3f773e3c     p..>:Xw?...><>w?
   1df68:	3e8586ce 3f772417 3e8648df 3f7709cc     ...>.$w?.H.>..w?
   1df78:	3e870ada 3f76ef5b 3e87ccc1 3f76d4c4     ...>[.v?...>..v?
   1df88:	3e888e93 3f76ba07 3e895050 3f769f24     ...>..v?PP.>$.v?
   1df98:	3e8a11f8 3f76841b 3e8ad38a 3f7668ec     ...>..v?...>.hv?
   1dfa8:	3e8b9507 3f764d97 3e8c566e 3f76321b     ...>.Mv?nV.>.2v?
   1dfb8:	3e8d17c0 3f76167a 3e8dd8fc 3f75fab3     ...>z.v?...>..u?
   1dfc8:	3e8e9a22 3f75dec6 3e8f5b32 3f75c2b3     "..>..u?2[.>..u?
   1dfd8:	3e901c2c 3f75a67b 3e90dd10 3f758a1c     ,..>{.u?...>..u?
   1dfe8:	3e919ddd 3f756d97 3e925e94 3f7550ed     ...>.mu?.^.>.Pu?
   1dff8:	3e931f35 3f75341d 3e93dfbf 3f751727     5..>.4u?...>'.u?
   1e008:	3e94a031 3f74fa0b 3e95608d 3f74dcc9     1..>..t?.`.>..t?
   1e018:	3e9620d2 3f74bf62 3e96e100 3f74a1d5     . .>b.t?...>..t?
   1e028:	3e97a117 3f748422 3e986116 3f746649     ...>".t?.a.>Ift?
   1e038:	3e9920fe 3f74484b 3e99e0ce 3f742a27     . .>KHt?...>'*t?
   1e048:	3e9aa086 3f740bdd 3e9b6027 3f73ed6e     ...>..t?'`.>n.s?
   1e058:	3e9c1faf 3f73ced9 3e9cdf20 3f73b01f     ...>..s? ..>..s?
   1e068:	3e9d9e78 3f73913f 3e9e5db8 3f737239     x..>?.s?.].>9rs?
   1e078:	3e9f1cdf 3f73530e 3e9fdbee 3f7333be     ...>.Ss?...>.3s?
   1e088:	3ea09ae5 3f731447 3ea159c2 3f72f4ac     ...>G.s?.Y.>..r?
   1e098:	3ea21887 3f72d4eb 3ea2d733 3f72b504     ...>..r?3..>..r?
   1e0a8:	3ea395c5 3f7294f8 3ea4543f 3f7274c7     ...>..r??T.>.tr?
   1e0b8:	3ea5129f 3f725470 3ea5d0e5 3f7233f4     ...>pTr?...>.3r?
   1e0c8:	3ea68f12 3f721352 3ea74d25 3f71f28c     ...>R.r?%M.>..q?
   1e0d8:	3ea80b1f 3f71d19f 3ea8c8fe 3f71b08e     ...>..q?...>..q?
   1e0e8:	3ea986c4 3f718f57 3eaa446f 3f716dfb     ...>W.q?oD.>.mq?
   1e0f8:	3eab0201 3f714c7a 3eabbf77 3f712ad4     ...>zLq?w..>.*q?
   1e108:	3eac7cd4 3f710908 3ead3a15 3f70e717     .|.>..q?.:.>..p?
   1e118:	3eadf73c 3f70c502 3eaeb449 3f70a2c6     <..>..p?I..>..p?
   1e128:	3eaf713a 3f708066 3eb02e10 3f705de1     :q.>f.p?...>.]p?
   1e138:	3eb0eacb 3f703b37 3eb1a76b 3f701867     ...>7;p?k..>g.p?
   1e148:	3eb263ef 3f6ff573 3eb32058 3f6fd25a     .c.>s.o?X .>Z.o?
   1e158:	3eb3dca5 3f6faf1b 3eb498d6 3f6f8bb8     ...>..o?...>..o?
   1e168:	3eb554ec 3f6f6830 3eb610e6 3f6f4483     .T.>0ho?...>.Do?
   1e178:	3eb6ccc3 3f6f20b0 3eb78884 3f6efcba     ...>. o?...>..n?
   1e188:	3eb8442a 3f6ed89e 3eb8ffb2 3f6eb45d     *D.>..n?...>].n?
   1e198:	3eb9bb1e 3f6e8ff8 3eba766e 3f6e6b6d     ...>..n?nv.>mkn?
   1e1a8:	3ebb31a0 3f6e46be 3ebbecb6 3f6e21eb     .1.>.Fn?...>.!n?
   1e1b8:	3ebca7af 3f6dfcf2 3ebd628b 3f6dd7d5     ...>..m?.b.>..m?
   1e1c8:	3ebe1d4a 3f6db293 3ebed7eb 3f6d8d2d     J..>..m?...>-.m?
   1e1d8:	3ebf926f 3f6d67a1 3ec04cd5 3f6d41f2     o..>.gm?.L.>.Am?
   1e1e8:	3ec1071e 3f6d1c1d 3ec1c148 3f6cf624     ...>..m?H..>$.l?
   1e1f8:	3ec27b55 3f6cd007 3ec33544 3f6ca9c5     U{.>..l?D5.>..l?
   1e208:	3ec3ef15 3f6c835e 3ec4a8c8 3f6c5cd4     ...>^.l?...>.\l?
   1e218:	3ec5625c 3f6c3624 3ec61bd2 3f6c0f50     \b.>$6l?...>P.l?
   1e228:	3ec6d529 3f6be858 3ec78e62 3f6bc13b     )..>X.k?b..>;.k?
   1e238:	3ec8477c 3f6b99fb 3ec90077 3f6b7295     |G.>..k?w..>.rk?
   1e248:	3ec9b953 3f6b4b0c 3eca7210 3f6b235e     S..>.Kk?.r.>^#k?
   1e258:	3ecb2aae 3f6afb8c 3ecbe32c 3f6ad395     .*.>..j?,..>..j?
   1e268:	3ecc9b8b 3f6aab7b 3ecd53ca 3f6a833c     ...>{.j?.S.><.j?
   1e278:	3ece0bea 3f6a5ad9 3ecec3ea 3f6a3252     ...>.Zj?...>R2j?
   1e288:	3ecf7bca 3f6a09a7 3ed0338a 3f69e0d7     .{.>..j?.3.>..i?
   1e298:	3ed0eb2a 3f69b7e4 3ed1a2aa 3f698ecc     *..>..i?...>..i?
   1e2a8:	3ed25a09 3f696591 3ed31148 3f693c32     .Z.>.ei?H..>2<i?
   1e2b8:	3ed3c867 3f6912ae 3ed47f64 3f68e907     g..>..i?d..>..h?
   1e2c8:	3ed53641 3f68bf3c 3ed5ecfd 3f68954c     A6.><.h?...>L.h?
   1e2d8:	3ed6a399 3f686b39 3ed75a13 3f684103     ...>9kh?.Z.>.Ah?
   1e2e8:	3ed8106b 3f6816a8 3ed8c6a3 3f67ec2a     k..>..h?...>*.g?
   1e2f8:	3ed97cb9 3f67c187 3eda32ad 3f6796c1     .|.>..g?.2.>..g?
   1e308:	3edae880 3f676bd8 3edb9e31 3f6740ca     ...>.kg?1..>.@g?
   1e318:	3edc53c1 3f671599 3edd092e 3f66ea45     .S.>..g?...>E.f?
   1e328:	3eddbe79 3f66becc 3ede73a2 3f669330     y..>..f?.s.>0.f?
   1e338:	3edf28a9 3f666771 3edfdd8d 3f663b8e     .(.>qgf?...>.;f?
   1e348:	3ee0924f 3f660f88 3ee146ee 3f65e35e     O..>..f?.F.>^.e?
   1e358:	3ee1fb6a 3f65b710 3ee2afc4 3f658aa0     j..>..e?...>..e?
   1e368:	3ee363fa 3f655e0b 3ee4180e 3f653154     .c.>.^e?...>T1e?
   1e378:	3ee4cbfe 3f650479 3ee57fcb 3f64d77b     ...>y.e?...>{.d?
   1e388:	3ee63375 3f64aa59 3ee6e6fb 3f647d14     u3.>Y.d?...>.}d?
   1e398:	3ee79a5d 3f644fac 3ee84d9c 3f642221     ]..>.Od?.M.>!"d?
   1e3a8:	3ee900b7 3f63f473 3ee9b3ae 3f63c6a1     ...>s.c?...>..c?
   1e3b8:	3eea6681 3f6398ac 3eeb1930 3f636a95     .f.>..c?0..>.jc?
   1e3c8:	3eebcbbb 3f633c5a 3eec7e21 3f630dfc     ...>Z<c?!~.>..c?
   1e3d8:	3eed3063 3f62df7b 3eede280 3f62b0d7     c0.>{.b?...>..b?
   1e3e8:	3eee9479 3f628210 3eef464c 3f625326     y..>..b?LF.>&Sb?
   1e3f8:	3eeff7fb 3f62241a 3ef0a985 3f61f4ea     ...>.$b?...>..a?
   1e408:	3ef15aea 3f61c598 3ef20c29 3f619622     .Z.>..a?)..>".a?
   1e418:	3ef2bd43 3f61668a 3ef36e38 3f6136d0     C..>.fa?8n.>.6a?
   1e428:	3ef41f07 3f6106f2 3ef4cfb1 3f60d6f2     ...>..a?...>..`?
   1e438:	3ef58035 3f60a6cf 3ef63093 3f607689     5..>..`?.0.>.v`?
   1e448:	3ef6e0cb 3f604621 3ef790dc 3f601596     ...>!F`?...>..`?
   1e458:	3ef840c8 3f5fe4e9 3ef8f08e 3f5fb419     .@.>.._?...>.._?
   1e468:	3ef9a02d 3f5f8327 3efa4fa5 3f5f5212     -..>'._?.O.>.R_?
   1e478:	3efafef7 3f5f20db 3efbae22 3f5eef81     ...>. _?"..>..^?
   1e488:	3efc5d27 3f5ebe05 3efd0c04 3f5e8c67     '].>..^?...>g.^?
   1e498:	3efdbabb 3f5e5aa6 3efe694a 3f5e28c3     ...>.Z^?Ji.>.(^?
   1e4a8:	3eff17b2 3f5df6be 3effc5f3 3f5dc497     ...>..]?...>..]?
   1e4b8:	3f003a06 3f5d924d 3f0090ff 3f5d5fe1     .:.?M.]?...?._]?
   1e4c8:	3f00e7e4 3f5d2d53 3f013eb5 3f5cfaa3     ...?S-]?.>.?..\?
   1e4d8:	3f019573 3f5cc7d1 3f01ec1c 3f5c94dd     s..?..\?...?..\?
   1e4e8:	3f0242b1 3f5c61c7 3f029932 3f5c2e8e     .B.?.a\?2..?..\?
   1e4f8:	3f02ef9f 3f5bfb34 3f0345f8 3f5bc7b8     ...?4.[?.E.?..[?
   1e508:	3f039c3d 3f5b941a 3f03f26d 3f5b605a     =..?..[?m..?Z`[?
   1e518:	3f044889 3f5b2c79 3f049e91 3f5af875     .H.?y,[?...?u.Z?
   1e528:	3f04f484 3f5ac450 3f054a62 3f5a9009     ...?P.Z?bJ.?..Z?
   1e538:	3f05a02c 3f5a5ba0 3f05f5e2 3f5a2716     ,..?.[Z?...?.'Z?
   1e548:	3f064b82 3f59f26a 3f06a10e 3f59bd9c     .K.?j.Y?...?..Y?
   1e558:	3f06f686 3f5988ad 3f074be8 3f59539c     ...?..Y?.K.?.SY?
   1e568:	3f07a136 3f591e6a 3f07f66f 3f58e917     6..?j.Y?o..?..X?
   1e578:	3f084b92 3f58b3a1 3f08a0a1 3f587e0b     .K.?..X?...?.~X?
   1e588:	3f08f59b 3f584853 3f094a7f 3f581279     ...?SHX?.J.?y.X?
   1e598:	3f099f4e 3f57dc7f 3f09f409 3f57a663     N..?..W?...?c.W?
   1e5a8:	3f0a48ad 3f577026 3f0a9d3d 3f5739c7     .H.?&pW?=..?.9W?
   1e5b8:	3f0af1b7 3f570348 3f0b461c 3f56cca7     ...?H.W?.F.?..V?
   1e5c8:	3f0b9a6b 3f5695e5 3f0beea5 3f565f02     k..?..V?...?._V?
   1e5d8:	3f0c42c9 3f5627fe 3f0c96d7 3f55f0d9     .B.?.'V?...?..U?
   1e5e8:	3f0cead0 3f55b993 3f0d3eb3 3f55822c     ...?..U?.>.?,.U?
   1e5f8:	3f0d9281 3f554aa4 3f0de638 3f5512fb     ...?.JU?8..?..U?
   1e608:	3f0e39da 3f54db31 3f0e8d65 3f54a347     .9.?1.T?e..?G.T?
   1e618:	3f0ee0db 3f546b3b 3f0f343b 3f54330f     ...?;kT?;4.?.3T?
   1e628:	3f0f8784 3f53fac3 3f0fdab8 3f53c255     ...?..S?...?U.S?
   1e638:	3f102dd5 3f5389c7 3f1080dc 3f535118     .-.?..S?...?.QS?
   1e648:	3f10d3cd 3f531849 3f1126a7 3f52df59     ...?I.S?.&.?Y.R?
   1e658:	3f11796b 3f52a649 3f11cc19 3f526d18     ky.?I.R?...?.mR?
   1e668:	3f121eb0 3f5233c6 3f127130 3f51fa54     ...?.3R?0q.?T.Q?
   1e678:	3f12c39a 3f51c0c2 3f1315ee 3f518710     ...?..Q?...?..Q?
   1e688:	3f13682a 3f514d3d 3f13ba50 3f51134a     *h.?=MQ?P..?J.Q?
   1e698:	3f140c5f 3f50d937 3f145e58 3f509f03     _..?7.P?X^.?..P?
   1e6a8:	3f14b039 3f5064af 3f150204 3f502a3b     9..?.dP?...?;*P?
   1e6b8:	3f1553b7 3f4fefa8 3f15a554 3f4fb4f4     .S.?..O?T..?..O?
   1e6c8:	3f15f6d9 3f4f7a1f 3f164847 3f4f3f2b     ...?.zO?GH.?+?O?
   1e6d8:	3f16999f 3f4f0417 3f16eadf 3f4ec8e4     ...?..O?...?..N?
   1e6e8:	3f173c07 3f4e8d90 3f178d18 3f4e521c     .<.?..N?...?.RN?
   1e6f8:	3f17de12 3f4e1689 3f182ef5 3f4ddad5     ...?..N?...?..M?
   1e708:	3f187fc0 3f4d9f02 3f18d073 3f4d6310     ...?..M?s..?.cM?
   1e718:	3f19210f 3f4d26fd 3f197194 3f4ceacb     .!.?.&M?.q.?..L?
   1e728:	3f19c200 3f4cae79 3f1a1255 3f4c7208     ...?y.L?U..?.rL?
   1e738:	3f1a6293 3f4c3578 3f1ab2b8 3f4bf8c7     .b.?x5L?...?..K?
   1e748:	3f1b02c6 3f4bbbf8 3f1b52bb 3f4b7f09     ...?..K?.R.?..K?
   1e758:	3f1ba299 3f4b41fa 3f1bf25f 3f4b04cc     ...?.AK?_..?..K?
   1e768:	3f1c420c 3f4ac77f 3f1c91a2 3f4a8a13     .B.?..J?...?..J?
   1e778:	3f1ce11f 3f4a4c87 3f1d3084 3f4a0edc     ...?.LJ?.0.?..J?
   1e788:	3f1d7fd1 3f49d112 3f1dcf06 3f499329     ...?..I?...?).I?
   1e798:	3f1e1e22 3f495521 3f1e6d26 3f4916fa     "..?!UI?&m.?..I?
   1e7a8:	3f1ebc12 3f48d8b3 3f1f0ae5 3f489a4e     ...?..H?...?N.H?
   1e7b8:	3f1f599f 3f485bca 3f1fa841 3f481d27     .Y.?.[H?A..?'.H?
   1e7c8:	3f1ff6cb 3f47de65 3f20453b 3f479f84     ...?e.G?;E ?..G?
   1e7d8:	3f209393 3f476085 3f20e1d2 3f472167     .. ?.`G?.. ?g!G?
   1e7e8:	3f212ff9 3f46e22a 3f217e06 3f46a2ce     ./!?*.F?.~!?..F?
   1e7f8:	3f21cbfb 3f466354 3f2219d7 3f4623bb     ..!?TcF?.."?.#F?
   1e808:	3f226799 3f45e403 3f22b543 3f45a42d     .g"?..E?C."?-.E?
   1e818:	3f2302d3 3f456439 3f23504b 3f452426     ..#?9dE?KP#?&$E?
   1e828:	3f239da9 3f44e3f5 3f23eaee 3f44a3a5     ..#?..D?..#?..D?
   1e838:	3f24381a 3f446337 3f24852c 3f4422ab     .8$?7cD?,.$?."D?
   1e848:	3f24d225 3f43e200 3f251f04 3f43a138     %.$?..C?..%?8.C?
   1e858:	3f256bcb 3f436051 3f25b877 3f431f4c     .k%?Q`C?w.%?L.C?
   1e868:	3f26050a 3f42de29 3f265184 3f429ce8     ..&?).B?.Q&?..B?
   1e878:	3f269de3 3f425b89 3f26ea2a 3f421a0b     ..&?.[B?*.&?..B?
   1e888:	3f273656 3f41d870 3f278268 3f4196b7     V6'?p.A?h.'?..A?
   1e898:	3f27ce61 3f4154e1 3f281a40 3f4112ec     a.'?.TA?@.(?..A?
   1e8a8:	3f286605 3f40d0da 3f28b1b0 3f408ea9     .f(?..@?..(?..@?
   1e8b8:	3f28fd41 3f404c5c 3f2948b8 3f4009f0     A.(?\L@?.H)?..@?
   1e8c8:	3f299415 3f3fc767 3f29df57 3f3f84c0     ..)?g.??W.)?..??
   1e8d8:	3f2a2a80 3f3f41fc 3f2a758e 3f3eff1b     .**?.A??.u*?..>?
   1e8e8:	3f2ac082 3f3ebc1b 3f2b0b5b 3f3e78ff     ..*?..>?[.+?.x>?
   1e8f8:	3f2b561b 3f3e35c5 3f2ba0bf 3f3df26e     .V+?.5>?..+?n.=?
   1e908:	3f2beb4a 3f3daef9 3f2c35b9 3f3d6b67     J.+?..=?.5,?gk=?
   1e918:	3f2c800f 3f3d27b8 3f2cca49 3f3ce3ec     ..,?.'=?I.,?..<?
   1e928:	3f2d1469 3f3ca003 3f2d5e6f 3f3c5bfc     i.-?..<?o^-?.[<?
   1e938:	3f2da859 3f3c17d9 3f2df229 3f3bd398     Y.-?..<?).-?..;?
   1e948:	3f2e3bde 3f3b8f3b 3f2e8578 3f3b4ac1     .;.?;.;?x..?.J;?
   1e958:	3f2ecef7 3f3b0629 3f2f185b 3f3ac175     ...?).;?[./?u.:?
   1e968:	3f2f61a5 3f3a7ca4 3f2faad3 3f3a37b7     .a/?.|:?../?.7:?
   1e978:	3f2ff3e6 3f39f2ac 3f303cde 3f39ad85     ../?..9?.<0?..9?
   1e988:	3f3085bb 3f396842 3f30ce7c 3f3922e1     ..0?Bh9?|.0?."9?
   1e998:	3f311722 3f38dd65 3f315fad 3f3897cb     ".1?e.8?._1?..8?
   1e9a8:	3f31a81d 3f385216 3f31f071 3f380c43     ..1?.R8?q.1?C.8?
   1e9b8:	3f3238aa 3f37c655 3f3280c7 3f37804a     .82?U.7?..2?J.7?
   1e9c8:	3f32c8c9 3f373a23 3f3310af 3f36f3df     ..2?#:7?..3?..6?
   1e9d8:	3f33587a 3f36ad7f 3f33a029 3f366704     zX3?..6?).3?.g6?
   1e9e8:	3f33e7bc 3f36206c 3f342f34 3f35d9b8     ..3?l 6?4/4?..5?
   1e9f8:	3f34768f 3f3592e7 3f34bdcf 3f354bfb     .v4?..5?..4?.K5?
   1ea08:	3f3504f3 3f3504f3 3f354bfb 3f34bdcf     ..5?..5?.K5?..4?
   1ea18:	3f3592e7 3f34768f 3f35d9b8 3f342f34     ..5?.v4?..5?4/4?
   1ea28:	3f36206c 3f33e7bc 3f366704 3f33a029     l 6?..3?.g6?).3?
   1ea38:	3f36ad7f 3f33587a 3f36f3df 3f3310af     ..6?zX3?..6?..3?
   1ea48:	3f373a23 3f32c8c9 3f37804a 3f3280c7     #:7?..2?J.7?..2?
   1ea58:	3f37c655 3f3238aa 3f380c43 3f31f071     U.7?.82?C.8?q.1?
   1ea68:	3f385216 3f31a81d 3f3897cb 3f315fad     .R8?..1?..8?._1?
   1ea78:	3f38dd65 3f311722 3f3922e1 3f30ce7c     e.8?".1?."9?|.0?
   1ea88:	3f396842 3f3085bb 3f39ad85 3f303cde     Bh9?..0?..9?.<0?
   1ea98:	3f39f2ac 3f2ff3e6 3f3a37b7 3f2faad3     ..9?../?.7:?../?
   1eaa8:	3f3a7ca4 3f2f61a5 3f3ac175 3f2f185b     .|:?.a/?u.:?[./?
   1eab8:	3f3b0629 3f2ecef7 3f3b4ac1 3f2e8578     ).;?...?.J;?x..?
   1eac8:	3f3b8f3b 3f2e3bde 3f3bd398 3f2df229     ;.;?.;.?..;?).-?
   1ead8:	3f3c17d9 3f2da859 3f3c5bfc 3f2d5e6f     ..<?Y.-?.[<?o^-?
   1eae8:	3f3ca003 3f2d1469 3f3ce3ec 3f2cca49     ..<?i.-?..<?I.,?
   1eaf8:	3f3d27b8 3f2c800f 3f3d6b67 3f2c35b9     .'=?..,?gk=?.5,?
   1eb08:	3f3daef9 3f2beb4a 3f3df26e 3f2ba0bf     ..=?J.+?n.=?..+?
   1eb18:	3f3e35c5 3f2b561b 3f3e78ff 3f2b0b5b     .5>?.V+?.x>?[.+?
   1eb28:	3f3ebc1b 3f2ac082 3f3eff1b 3f2a758e     ..>?..*?..>?.u*?
   1eb38:	3f3f41fc 3f2a2a80 3f3f84c0 3f29df57     .A??.**?..??W.)?
   1eb48:	3f3fc767 3f299415 3f4009f0 3f2948b8     g.??..)?..@?.H)?
   1eb58:	3f404c5c 3f28fd41 3f408ea9 3f28b1b0     \L@?A.(?..@?..(?
   1eb68:	3f40d0da 3f286605 3f4112ec 3f281a40     ..@?.f(?..A?@.(?
   1eb78:	3f4154e1 3f27ce61 3f4196b7 3f278268     .TA?a.'?..A?h.'?
   1eb88:	3f41d870 3f273656 3f421a0b 3f26ea2a     p.A?V6'?..B?*.&?
   1eb98:	3f425b89 3f269de3 3f429ce8 3f265184     .[B?..&?..B?.Q&?
   1eba8:	3f42de29 3f26050a 3f431f4c 3f25b877     ).B?..&?L.C?w.%?
   1ebb8:	3f436051 3f256bcb 3f43a138 3f251f04     Q`C?.k%?8.C?..%?
   1ebc8:	3f43e200 3f24d225 3f4422ab 3f24852c     ..C?%.$?."D?,.$?
   1ebd8:	3f446337 3f24381a 3f44a3a5 3f23eaee     7cD?.8$?..D?..#?
   1ebe8:	3f44e3f5 3f239da9 3f452426 3f23504b     ..D?..#?&$E?KP#?
   1ebf8:	3f456439 3f2302d3 3f45a42d 3f22b543     9dE?..#?-.E?C."?
   1ec08:	3f45e403 3f226799 3f4623bb 3f2219d7     ..E?.g"?.#F?.."?
   1ec18:	3f466354 3f21cbfb 3f46a2ce 3f217e06     TcF?..!?..F?.~!?
   1ec28:	3f46e22a 3f212ff9 3f472167 3f20e1d2     *.F?./!?g!G?.. ?
   1ec38:	3f476085 3f209393 3f479f84 3f20453b     .`G?.. ?..G?;E ?
   1ec48:	3f47de65 3f1ff6cb 3f481d27 3f1fa841     e.G?...?'.H?A..?
   1ec58:	3f485bca 3f1f599f 3f489a4e 3f1f0ae5     .[H?.Y.?N.H?...?
   1ec68:	3f48d8b3 3f1ebc12 3f4916fa 3f1e6d26     ..H?...?..I?&m.?
   1ec78:	3f495521 3f1e1e22 3f499329 3f1dcf06     !UI?"..?).I?...?
   1ec88:	3f49d112 3f1d7fd1 3f4a0edc 3f1d3084     ..I?...?..J?.0.?
   1ec98:	3f4a4c87 3f1ce11f 3f4a8a13 3f1c91a2     .LJ?...?..J?...?
   1eca8:	3f4ac77f 3f1c420c 3f4b04cc 3f1bf25f     ..J?.B.?..K?_..?
   1ecb8:	3f4b41fa 3f1ba299 3f4b7f09 3f1b52bb     .AK?...?..K?.R.?
   1ecc8:	3f4bbbf8 3f1b02c6 3f4bf8c7 3f1ab2b8     ..K?...?..K?...?
   1ecd8:	3f4c3578 3f1a6293 3f4c7208 3f1a1255     x5L?.b.?.rL?U..?
   1ece8:	3f4cae79 3f19c200 3f4ceacb 3f197194     y.L?...?..L?.q.?
   1ecf8:	3f4d26fd 3f19210f 3f4d6310 3f18d073     .&M?.!.?.cM?s..?
   1ed08:	3f4d9f02 3f187fc0 3f4ddad5 3f182ef5     ..M?...?..M?...?
   1ed18:	3f4e1689 3f17de12 3f4e521c 3f178d18     ..N?...?.RN?...?
   1ed28:	3f4e8d90 3f173c07 3f4ec8e4 3f16eadf     ..N?.<.?..N?...?
   1ed38:	3f4f0417 3f16999f 3f4f3f2b 3f164847     ..O?...?+?O?GH.?
   1ed48:	3f4f7a1f 3f15f6d9 3f4fb4f4 3f15a554     .zO?...?..O?T..?
   1ed58:	3f4fefa8 3f1553b7 3f502a3b 3f150204     ..O?.S.?;*P?...?
   1ed68:	3f5064af 3f14b039 3f509f03 3f145e58     .dP?9..?..P?X^.?
   1ed78:	3f50d937 3f140c5f 3f51134a 3f13ba50     7.P?_..?J.Q?P..?
   1ed88:	3f514d3d 3f13682a 3f518710 3f1315ee     =MQ?*h.?..Q?...?
   1ed98:	3f51c0c2 3f12c39a 3f51fa54 3f127130     ..Q?...?T.Q?0q.?
   1eda8:	3f5233c6 3f121eb0 3f526d18 3f11cc19     .3R?...?.mR?...?
   1edb8:	3f52a649 3f11796b 3f52df59 3f1126a7     I.R?ky.?Y.R?.&.?
   1edc8:	3f531849 3f10d3cd 3f535118 3f1080dc     I.S?...?.QS?...?
   1edd8:	3f5389c7 3f102dd5 3f53c255 3f0fdab8     ..S?.-.?U.S?...?
   1ede8:	3f53fac3 3f0f8784 3f54330f 3f0f343b     ..S?...?.3T?;4.?
   1edf8:	3f546b3b 3f0ee0db 3f54a347 3f0e8d65     ;kT?...?G.T?e..?
   1ee08:	3f54db31 3f0e39da 3f5512fb 3f0de638     1.T?.9.?..U?8..?
   1ee18:	3f554aa4 3f0d9281 3f55822c 3f0d3eb3     .JU?...?,.U?.>.?
   1ee28:	3f55b993 3f0cead0 3f55f0d9 3f0c96d7     ..U?...?..U?...?
   1ee38:	3f5627fe 3f0c42c9 3f565f02 3f0beea5     .'V?.B.?._V?...?
   1ee48:	3f5695e5 3f0b9a6b 3f56cca7 3f0b461c     ..V?k..?..V?.F.?
   1ee58:	3f570348 3f0af1b7 3f5739c7 3f0a9d3d     H.W?...?.9W?=..?
   1ee68:	3f577026 3f0a48ad 3f57a663 3f09f409     &pW?.H.?c.W?...?
   1ee78:	3f57dc7f 3f099f4e 3f581279 3f094a7f     ..W?N..?y.X?.J.?
   1ee88:	3f584853 3f08f59b 3f587e0b 3f08a0a1     SHX?...?.~X?...?
   1ee98:	3f58b3a1 3f084b92 3f58e917 3f07f66f     ..X?.K.?..X?o..?
   1eea8:	3f591e6a 3f07a136 3f59539c 3f074be8     j.Y?6..?.SY?.K.?
   1eeb8:	3f5988ad 3f06f686 3f59bd9c 3f06a10e     ..Y?...?..Y?...?
   1eec8:	3f59f26a 3f064b82 3f5a2716 3f05f5e2     j.Y?.K.?.'Z?...?
   1eed8:	3f5a5ba0 3f05a02c 3f5a9009 3f054a62     .[Z?,..?..Z?bJ.?
   1eee8:	3f5ac450 3f04f484 3f5af875 3f049e91     P.Z?...?u.Z?...?
   1eef8:	3f5b2c79 3f044889 3f5b605a 3f03f26d     y,[?.H.?Z`[?m..?
   1ef08:	3f5b941a 3f039c3d 3f5bc7b8 3f0345f8     ..[?=..?..[?.E.?
   1ef18:	3f5bfb34 3f02ef9f 3f5c2e8e 3f029932     4.[?...?..\?2..?
   1ef28:	3f5c61c7 3f0242b1 3f5c94dd 3f01ec1c     .a\?.B.?..\?...?
   1ef38:	3f5cc7d1 3f019573 3f5cfaa3 3f013eb5     ..\?s..?..\?.>.?
   1ef48:	3f5d2d53 3f00e7e4 3f5d5fe1 3f0090ff     S-]?...?._]?...?
   1ef58:	3f5d924d 3f003a06 3f5dc497 3effc5f3     M.]?.:.?..]?...>
   1ef68:	3f5df6be 3eff17b2 3f5e28c3 3efe694a     ..]?...>.(^?Ji.>
   1ef78:	3f5e5aa6 3efdbabb 3f5e8c67 3efd0c04     .Z^?...>g.^?...>
   1ef88:	3f5ebe05 3efc5d27 3f5eef81 3efbae22     ..^?'].>..^?"..>
   1ef98:	3f5f20db 3efafef7 3f5f5212 3efa4fa5     . _?...>.R_?.O.>
   1efa8:	3f5f8327 3ef9a02d 3f5fb419 3ef8f08e     '._?-..>.._?...>
   1efb8:	3f5fe4e9 3ef840c8 3f601596 3ef790dc     .._?.@.>..`?...>
   1efc8:	3f604621 3ef6e0cb 3f607689 3ef63093     !F`?...>.v`?.0.>
   1efd8:	3f60a6cf 3ef58035 3f60d6f2 3ef4cfb1     ..`?5..>..`?...>
   1efe8:	3f6106f2 3ef41f07 3f6136d0 3ef36e38     ..a?...>.6a?8n.>
   1eff8:	3f61668a 3ef2bd43 3f619622 3ef20c29     .fa?C..>".a?)..>
   1f008:	3f61c598 3ef15aea 3f61f4ea 3ef0a985     ..a?.Z.>..a?...>
   1f018:	3f62241a 3eeff7fb 3f625326 3eef464c     .$b?...>&Sb?LF.>
   1f028:	3f628210 3eee9479 3f62b0d7 3eede280     ..b?y..>..b?...>
   1f038:	3f62df7b 3eed3063 3f630dfc 3eec7e21     {.b?c0.>..c?!~.>
   1f048:	3f633c5a 3eebcbbb 3f636a95 3eeb1930     Z<c?...>.jc?0..>
   1f058:	3f6398ac 3eea6681 3f63c6a1 3ee9b3ae     ..c?.f.>..c?...>
   1f068:	3f63f473 3ee900b7 3f642221 3ee84d9c     s.c?...>!"d?.M.>
   1f078:	3f644fac 3ee79a5d 3f647d14 3ee6e6fb     .Od?]..>.}d?...>
   1f088:	3f64aa59 3ee63375 3f64d77b 3ee57fcb     Y.d?u3.>{.d?...>
   1f098:	3f650479 3ee4cbfe 3f653154 3ee4180e     y.e?...>T1e?...>
   1f0a8:	3f655e0b 3ee363fa 3f658aa0 3ee2afc4     .^e?.c.>..e?...>
   1f0b8:	3f65b710 3ee1fb6a 3f65e35e 3ee146ee     ..e?j..>^.e?.F.>
   1f0c8:	3f660f88 3ee0924f 3f663b8e 3edfdd8d     ..f?O..>.;f?...>
   1f0d8:	3f666771 3edf28a9 3f669330 3ede73a2     qgf?.(.>0.f?.s.>
   1f0e8:	3f66becc 3eddbe79 3f66ea45 3edd092e     ..f?y..>E.f?...>
   1f0f8:	3f671599 3edc53c1 3f6740ca 3edb9e31     ..g?.S.>.@g?1..>
   1f108:	3f676bd8 3edae880 3f6796c1 3eda32ad     .kg?...>..g?.2.>
   1f118:	3f67c187 3ed97cb9 3f67ec2a 3ed8c6a3     ..g?.|.>*.g?...>
   1f128:	3f6816a8 3ed8106b 3f684103 3ed75a13     ..h?k..>.Ah?.Z.>
   1f138:	3f686b39 3ed6a399 3f68954c 3ed5ecfd     9kh?...>L.h?...>
   1f148:	3f68bf3c 3ed53641 3f68e907 3ed47f64     <.h?A6.>..h?d..>
   1f158:	3f6912ae 3ed3c867 3f693c32 3ed31148     ..i?g..>2<i?H..>
   1f168:	3f696591 3ed25a09 3f698ecc 3ed1a2aa     .ei?.Z.>..i?...>
   1f178:	3f69b7e4 3ed0eb2a 3f69e0d7 3ed0338a     ..i?*..>..i?.3.>
   1f188:	3f6a09a7 3ecf7bca 3f6a3252 3ecec3ea     ..j?.{.>R2j?...>
   1f198:	3f6a5ad9 3ece0bea 3f6a833c 3ecd53ca     .Zj?...><.j?.S.>
   1f1a8:	3f6aab7b 3ecc9b8b 3f6ad395 3ecbe32c     {.j?...>..j?,..>
   1f1b8:	3f6afb8c 3ecb2aae 3f6b235e 3eca7210     ..j?.*.>^#k?.r.>
   1f1c8:	3f6b4b0c 3ec9b953 3f6b7295 3ec90077     .Kk?S..>.rk?w..>
   1f1d8:	3f6b99fb 3ec8477c 3f6bc13b 3ec78e62     ..k?|G.>;.k?b..>
   1f1e8:	3f6be858 3ec6d529 3f6c0f50 3ec61bd2     X.k?)..>P.l?...>
   1f1f8:	3f6c3624 3ec5625c 3f6c5cd4 3ec4a8c8     $6l?\b.>.\l?...>
   1f208:	3f6c835e 3ec3ef15 3f6ca9c5 3ec33544     ^.l?...>..l?D5.>
   1f218:	3f6cd007 3ec27b55 3f6cf624 3ec1c148     ..l?U{.>$.l?H..>
   1f228:	3f6d1c1d 3ec1071e 3f6d41f2 3ec04cd5     ..m?...>.Am?.L.>
   1f238:	3f6d67a1 3ebf926f 3f6d8d2d 3ebed7eb     .gm?o..>-.m?...>
   1f248:	3f6db293 3ebe1d4a 3f6dd7d5 3ebd628b     ..m?J..>..m?.b.>
   1f258:	3f6dfcf2 3ebca7af 3f6e21eb 3ebbecb6     ..m?...>.!n?...>
   1f268:	3f6e46be 3ebb31a0 3f6e6b6d 3eba766e     .Fn?.1.>mkn?nv.>
   1f278:	3f6e8ff8 3eb9bb1e 3f6eb45d 3eb8ffb2     ..n?...>].n?...>
   1f288:	3f6ed89e 3eb8442a 3f6efcba 3eb78884     ..n?*D.>..n?...>
   1f298:	3f6f20b0 3eb6ccc3 3f6f4483 3eb610e6     . o?...>.Do?...>
   1f2a8:	3f6f6830 3eb554ec 3f6f8bb8 3eb498d6     0ho?.T.>..o?...>
   1f2b8:	3f6faf1b 3eb3dca5 3f6fd25a 3eb32058     ..o?...>Z.o?X .>
   1f2c8:	3f6ff573 3eb263ef 3f701867 3eb1a76b     s.o?.c.>g.p?k..>
   1f2d8:	3f703b37 3eb0eacb 3f705de1 3eb02e10     7;p?...>.]p?...>
   1f2e8:	3f708066 3eaf713a 3f70a2c6 3eaeb449     f.p?:q.>..p?I..>
   1f2f8:	3f70c502 3eadf73c 3f70e717 3ead3a15     ..p?<..>..p?.:.>
   1f308:	3f710908 3eac7cd4 3f712ad4 3eabbf77     ..q?.|.>.*q?w..>
   1f318:	3f714c7a 3eab0201 3f716dfb 3eaa446f     zLq?...>.mq?oD.>
   1f328:	3f718f57 3ea986c4 3f71b08e 3ea8c8fe     W.q?...>..q?...>
   1f338:	3f71d19f 3ea80b1f 3f71f28c 3ea74d25     ..q?...>..q?%M.>
   1f348:	3f721352 3ea68f12 3f7233f4 3ea5d0e5     R.r?...>.3r?...>
   1f358:	3f725470 3ea5129f 3f7274c7 3ea4543f     pTr?...>.tr??T.>
   1f368:	3f7294f8 3ea395c5 3f72b504 3ea2d733     ..r?...>..r?3..>
   1f378:	3f72d4eb 3ea21887 3f72f4ac 3ea159c2     ..r?...>..r?.Y.>
   1f388:	3f731447 3ea09ae5 3f7333be 3e9fdbee     G.s?...>.3s?...>
   1f398:	3f73530e 3e9f1cdf 3f737239 3e9e5db8     .Ss?...>9rs?.].>
   1f3a8:	3f73913f 3e9d9e78 3f73b01f 3e9cdf20     ?.s?x..>..s? ..>
   1f3b8:	3f73ced9 3e9c1faf 3f73ed6e 3e9b6027     ..s?...>n.s?'`.>
   1f3c8:	3f740bdd 3e9aa086 3f742a27 3e99e0ce     ..t?...>'*t?...>
   1f3d8:	3f74484b 3e9920fe 3f746649 3e986116     KHt?. .>Ift?.a.>
   1f3e8:	3f748422 3e97a117 3f74a1d5 3e96e100     ".t?...>..t?...>
   1f3f8:	3f74bf62 3e9620d2 3f74dcc9 3e95608d     b.t?. .>..t?.`.>
   1f408:	3f74fa0b 3e94a031 3f751727 3e93dfbf     ..t?1..>'.u?...>
   1f418:	3f75341d 3e931f35 3f7550ed 3e925e94     .4u?5..>.Pu?.^.>
   1f428:	3f756d97 3e919ddd 3f758a1c 3e90dd10     .mu?...>..u?...>
   1f438:	3f75a67b 3e901c2c 3f75c2b3 3e8f5b32     {.u?,..>..u?2[.>
   1f448:	3f75dec6 3e8e9a22 3f75fab3 3e8dd8fc     ..u?"..>..u?...>
   1f458:	3f76167a 3e8d17c0 3f76321b 3e8c566e     z.v?...>.2v?nV.>
   1f468:	3f764d97 3e8b9507 3f7668ec 3e8ad38a     .Mv?...>.hv?...>
   1f478:	3f76841b 3e8a11f8 3f769f24 3e895050     ..v?...>$.v?PP.>
   1f488:	3f76ba07 3e888e93 3f76d4c4 3e87ccc1     ..v?...>..v?...>
   1f498:	3f76ef5b 3e870ada 3f7709cc 3e8648df     [.v?...>..w?.H.>
   1f4a8:	3f772417 3e8586ce 3f773e3c 3e84c4aa     .$w?...><>w?...>
   1f4b8:	3f77583a 3e840270 3f777213 3e834022     :Xw?p..>.rw?"@.>
   1f4c8:	3f778bc5 3e827dc0 3f77a551 3e81bb4a     ..w?.}.>Q.w?J..>
   1f4d8:	3f77beb7 3e80f8c0 3f77d7f7 3e803622     ..w?...>..w?"6.>
   1f4e8:	3f77f110 3e7ee6e1 3f780a04 3e7d6156     ..w?..~>..x?Va}>
   1f4f8:	3f7822d1 3e7bdba4 3f783b77 3e7a55cb     ."x?..{>w;x?.Uz>
   1f508:	3f7853f8 3e78cfcc 3f786c52 3e7749a6     .Sx?..x>Rlx?.Iw>
   1f518:	3f788486 3e75c35a 3f789c93 3e743ce8     ..x?Z.u>..x?.<t>
   1f528:	3f78b47b 3e72b651 3f78cc3b 3e712f94     {.x?Q.r>;.x?./q>
   1f538:	3f78e3d6 3e6fa8b2 3f78fb4a 3e6e21ab     ..x?..o>J.x?.!n>
   1f548:	3f791298 3e6c9a7f 3f7929bf 3e6b132f     ..y?..l>.)y?/.k>
   1f558:	3f7940c0 3e698bba 3f79579a 3e680422     .@y?..i>.Wy?".h>
   1f568:	3f796e4e 3e667c66 3f7984dc 3e64f486     Nny?f|f>..y?..d>
   1f578:	3f799b43 3e636c83 3f79b183 3e61e45c     C.y?.lc>..y?\.a>
   1f588:	3f79c79d 3e605c13 3f79dd91 3e5ed3a8     ..y?.\`>..y?..^>
   1f598:	3f79f35e 3e5d4b1a 3f7a0904 3e5bc26a     ^.y?.K]>..z?j.[>
   1f5a8:	3f7a1e84 3e5a3997 3f7a33dd 3e58b0a4     ..z?.9Z>.3z?..X>
   1f5b8:	3f7a4910 3e57278f 3f7a5e1c 3e559e58     .Iz?.'W>.^z?X.U>
   1f5c8:	3f7a7302 3e541501 3f7a87c1 3e528b89     .sz?..T>..z?..R>
   1f5d8:	3f7a9c59 3e5101f1 3f7ab0cb 3e4f7838     Y.z?..Q>..z?8xO>
   1f5e8:	3f7ac516 3e4dee60 3f7ad93a 3e4c6467     ..z?`.M>:.z?gdL>
   1f5f8:	3f7aed37 3e4ada4f 3f7b010e 3e495018     7.z?O.J>..{?.PI>
   1f608:	3f7b14be 3e47c5c2 3f7b2848 3e463b4d     ..{?..G>H({?M;F>
   1f618:	3f7b3bab 3e44b0b9 3f7b4ee7 3e432607     .;{?..D>.N{?.&C>
   1f628:	3f7b61fc 3e419b37 3f7b74ea 3e401049     .a{?7.A>.t{?I.@>
   1f638:	3f7b87b2 3e3e853e 3f7b9a53 3e3cfa15     ..{?>.>>S.{?..<>
   1f648:	3f7baccd 3e3b6ecf 3f7bbf20 3e39e36c     ..{?.n;> .{?l.9>
   1f658:	3f7bd14d 3e3857ec 3f7be353 3e36cc50     M.{?.W8>S.{?P.6>
   1f668:	3f7bf531 3e354098 3f7c06e9 3e33b4c4     1.{?.@5>..|?..3>
   1f678:	3f7c187a 3e3228d4 3f7c29e5 3e309cc9     z.|?.(2>.)|?..0>
   1f688:	3f7c3b28 3e2f10a2 3f7c4c44 3e2d8461     (;|?../>DL|?a.->
   1f698:	3f7c5d3a 3e2bf804 3f7c6e08 3e2a6b8d     :]|?..+>.n|?.k*>
   1f6a8:	3f7c7eb0 3e28defc 3f7c8f31 3e275251     .~|?..(>1.|?QR'>
   1f6b8:	3f7c9f8a 3e25c58c 3f7cafbd 3e2438ad     ..|?..%>..|?.8$>
   1f6c8:	3f7cbfc9 3e22abb6 3f7ccfae 3e211ea5     ..|?..">..|?..!>
   1f6d8:	3f7cdf6c 3e1f917b 3f7cef03 3e1e0438     l.|?{..>..|?8..>
   1f6e8:	3f7cfe73 3e1c76de 3f7d0dbc 3e1ae96b     s.|?.v.>..}?k..>
   1f6f8:	3f7d1cdd 3e195be0 3f7d2bd8 3e17ce3d     ..}?.[.>.+}?=..>
   1f708:	3f7d3aac 3e164083 3f7d4959 3e14b2b2     .:}?.@.>YI}?...>
   1f718:	3f7d57de 3e1324ca 3f7d663d 3e1196cc     .W}?.$.>=f}?...>
   1f728:	3f7d7474 3e1008b7 3f7d8285 3e0e7a8b     tt}?...>..}?.z.>
   1f738:	3f7d906e 3e0cec4a 3f7d9e30 3e0b5df3     n.}?J..>0.}?.].>
   1f748:	3f7dabcc 3e09cf86 3f7db940 3e084105     ..}?...>@.}?.A.>
   1f758:	3f7dc68c 3e06b26e 3f7dd3b2 3e0523c2     ..}?n..>..}?.#.>
   1f768:	3f7de0b1 3e039502 3f7ded88 3e02062e     ..}?...>..}?...>
   1f778:	3f7dfa38 3e007745 3f7e06c2 3dfdd092     8.}?Ew.>..~?...=
   1f788:	3f7e1324 3dfab273 3f7e1f5e 3df7942c     $.~?s..=^.~?,..=
   1f798:	3f7e2b72 3df475c0 3f7e375e 3df1572e     r+~?.u.=^7~?.W.=
   1f7a8:	3f7e4323 3dee3876 3f7e4ec1 3deb199a     #C~?v8.=.N~?...=
   1f7b8:	3f7e5a38 3de7fa9a 3f7e6588 3de4db76     8Z~?...=.e~?v..=
   1f7c8:	3f7e70b0 3de1bc2e 3f7e7bb1 3dde9cc4     .p~?...=.{~?...=
   1f7d8:	3f7e868b 3ddb7d37 3f7e913d 3dd85d89     ..~?7}.==.~?.].=
   1f7e8:	3f7e9bc9 3dd53db9 3f7ea62d 3dd21dc8     ..~?.=.=-.~?...=
   1f7f8:	3f7eb069 3dcefdb7 3f7eba7f 3dcbdd86     i.~?...=..~?...=
   1f808:	3f7ec46d 3dc8bd36 3f7ece34 3dc59cc6     m.~?6..=4.~?...=
   1f818:	3f7ed7d4 3dc27c39 3f7ee14c 3dbf5b8d     ..~?9|.=L.~?.[.=
   1f828:	3f7eea9d 3dbc3ac3 3f7ef3c7 3db919dd     ..~?.:.=..~?...=
   1f838:	3f7efcc9 3db5f8da 3f7f05a4 3db2d7bb     ..~?...=...?...=
   1f848:	3f7f0e58 3dafb680 3f7f16e4 3dac952b     X..?...=...?+..=
   1f858:	3f7f1f49 3da973ba 3f7f2787 3da65230     I..?.s.=.'.?0R.=
   1f868:	3f7f2f9d 3da3308c 3f7f378d 3da00ecf     ./.?.0.=.7.?...=
   1f878:	3f7f3f54 3d9cecf9 3f7f46f4 3d99cb0a     T?.?...=.F.?...=
   1f888:	3f7f4e6d 3d96a905 3f7f55bf 3d9386e7     mN.?...=.U.?...=
   1f898:	3f7f5ce9 3d9064b4 3f7f63ec 3d8d426a     .\.?.d.=.c.?jB.=
   1f8a8:	3f7f6ac7 3d8a200a 3f7f717b 3d86fd94     .j.?. .={q.?...=
   1f8b8:	3f7f7808 3d83db0a 3f7f7e6d 3d80b86c     .x.?...=m~.?l..=
   1f8c8:	3f7f84ab 3d7b2b74 3f7f8ac2 3d74e5e9     ...?t+{=...?..t=
   1f8d8:	3f7f90b1 3d6ea038 3f7f9678 3d685a62     ...?8.n=x..?bZh=
   1f8e8:	3f7f9c18 3d621468 3f7fa191 3d5bce4c     ...?h.b=...?L.[=
   1f8f8:	3f7fa6e3 3d55880e 3f7fac0d 3d4f41af     ...?..U=...?.AO=
   1f908:	3f7fb10f 3d48fb2f 3f7fb5ea 3d42b491     ...?/.H=...?..B=
   1f918:	3f7fba9e 3d3c6dd5 3f7fbf2a 3d3626fc     ...?.m<=*..?.&6=
   1f928:	3f7fc38f 3d2fe007 3f7fc7cc 3d2998f6     ...?../=...?..)=
   1f938:	3f7fcbe2 3d2351cc 3f7fcfd1 3d1d0a88     ...?.Q#=...?...=
   1f948:	3f7fd398 3d16c32c 3f7fd737 3d107bb8     ...?,..=7..?.{.=
   1f958:	3f7fdaaf 3d0a342f 3f7fde00 3d03ec90     ...?/4.=...?...=
   1f968:	3f7fe129 3cfb49b9 3f7fe42b 3ceeba2d     )..?.I.<+..?-..<
   1f978:	3f7fe705 3ce22a7b 3f7fe9b8 3cd59aa6     ...?{*.<...?...<
   1f988:	3f7fec43 3cc90ab0 3f7feea7 3cbc7a9b     C..?...<...?.z.<
   1f998:	3f7ff0e3 3cafea69 3f7ff2f8 3ca35a1c     ...?i..<...?.Z.<
   1f9a8:	3f7ff4e6 3c96c9b6 3f7ff6ac 3c8a3938     ...?...<...?89.<
   1f9b8:	3f7ff84a 3c7b514b 3f7ff9c1 3c623000     J..?KQ{<...?.0b<
   1f9c8:	3f7ffb11 3c490e90 3f7ffc39 3c2fed02     ...?..I<9..?../<
   1f9d8:	3f7ffd39 3c16cb59 3f7ffe13 3bfb5330     9..?Y..<...?0S.;
   1f9e8:	3f7ffec4 3bc90f89 3f7fff4e 3b96cbc1     ...?...;N..?...;
   1f9f8:	3f7fffb1 3b490fc7 3f7fffec 3ac90fd4     ...?..I;...?...:
   1fa08:	3f800000 00000000 3f7fffec bac90fd4     ...?.......?....
   1fa18:	3f7fffb1 bb490fc7 3f7fff4e bb96cbc1     ...?..I.N..?....
   1fa28:	3f7ffec4 bbc90f89 3f7ffe13 bbfb5330     ...?.......?0S..
   1fa38:	3f7ffd39 bc16cb59 3f7ffc39 bc2fed02     9..?Y...9..?../.
   1fa48:	3f7ffb11 bc490e90 3f7ff9c1 bc623000     ...?..I....?.0b.
   1fa58:	3f7ff84a bc7b514b 3f7ff6ac bc8a3938     J..?KQ{....?89..
   1fa68:	3f7ff4e6 bc96c9b6 3f7ff2f8 bca35a1c     ...?.......?.Z..
   1fa78:	3f7ff0e3 bcafea69 3f7feea7 bcbc7a9b     ...?i......?.z..
   1fa88:	3f7fec43 bcc90ab0 3f7fe9b8 bcd59aa6     C..?.......?....
   1fa98:	3f7fe705 bce22a7b 3f7fe42b bceeba2d     ...?{*..+..?-...
   1faa8:	3f7fe129 bcfb49b9 3f7fde00 bd03ec90     )..?.I.....?....
   1fab8:	3f7fdaaf bd0a342f 3f7fd737 bd107bb8     ...?/4..7..?.{..
   1fac8:	3f7fd398 bd16c32c 3f7fcfd1 bd1d0a88     ...?,......?....
   1fad8:	3f7fcbe2 bd2351cc 3f7fc7cc bd2998f6     ...?.Q#....?..).
   1fae8:	3f7fc38f bd2fe007 3f7fbf2a bd3626fc     ...?../.*..?.&6.
   1faf8:	3f7fba9e bd3c6dd5 3f7fb5ea bd42b491     ...?.m<....?..B.
   1fb08:	3f7fb10f bd48fb2f 3f7fac0d bd4f41af     ...?/.H....?.AO.
   1fb18:	3f7fa6e3 bd55880e 3f7fa191 bd5bce4c     ...?..U....?L.[.
   1fb28:	3f7f9c18 bd621468 3f7f9678 bd685a62     ...?h.b.x..?bZh.
   1fb38:	3f7f90b1 bd6ea038 3f7f8ac2 bd74e5e9     ...?8.n....?..t.
   1fb48:	3f7f84ab bd7b2b74 3f7f7e6d bd80b86c     ...?t+{.m~.?l...
   1fb58:	3f7f7808 bd83db0a 3f7f717b bd86fd94     .x.?....{q.?....
   1fb68:	3f7f6ac7 bd8a200a 3f7f63ec bd8d426a     .j.?. ...c.?jB..
   1fb78:	3f7f5ce9 bd9064b4 3f7f55bf bd9386e7     .\.?.d...U.?....
   1fb88:	3f7f4e6d bd96a905 3f7f46f4 bd99cb0a     mN.?.....F.?....
   1fb98:	3f7f3f54 bd9cecf9 3f7f378d bda00ecf     T?.?.....7.?....
   1fba8:	3f7f2f9d bda3308c 3f7f2787 bda65230     ./.?.0...'.?0R..
   1fbb8:	3f7f1f49 bda973ba 3f7f16e4 bdac952b     I..?.s.....?+...
   1fbc8:	3f7f0e58 bdafb680 3f7f05a4 bdb2d7bb     X..?.......?....
   1fbd8:	3f7efcc9 bdb5f8da 3f7ef3c7 bdb919dd     ..~?......~?....
   1fbe8:	3f7eea9d bdbc3ac3 3f7ee14c bdbf5b8d     ..~?.:..L.~?.[..
   1fbf8:	3f7ed7d4 bdc27c39 3f7ece34 bdc59cc6     ..~?9|..4.~?....
   1fc08:	3f7ec46d bdc8bd36 3f7eba7f bdcbdd86     m.~?6.....~?....
   1fc18:	3f7eb069 bdcefdb7 3f7ea62d bdd21dc8     i.~?....-.~?....
   1fc28:	3f7e9bc9 bdd53db9 3f7e913d bdd85d89     ..~?.=..=.~?.]..
   1fc38:	3f7e868b bddb7d37 3f7e7bb1 bdde9cc4     ..~?7}...{~?....
   1fc48:	3f7e70b0 bde1bc2e 3f7e6588 bde4db76     .p~?.....e~?v...
   1fc58:	3f7e5a38 bde7fa9a 3f7e4ec1 bdeb199a     8Z~?.....N~?....
   1fc68:	3f7e4323 bdee3876 3f7e375e bdf1572e     #C~?v8..^7~?.W..
   1fc78:	3f7e2b72 bdf475c0 3f7e1f5e bdf7942c     r+~?.u..^.~?,...
   1fc88:	3f7e1324 bdfab273 3f7e06c2 bdfdd092     $.~?s.....~?....
   1fc98:	3f7dfa38 be007745 3f7ded88 be02062e     8.}?Ew....}?....
   1fca8:	3f7de0b1 be039502 3f7dd3b2 be0523c2     ..}?......}?.#..
   1fcb8:	3f7dc68c be06b26e 3f7db940 be084105     ..}?n...@.}?.A..
   1fcc8:	3f7dabcc be09cf86 3f7d9e30 be0b5df3     ..}?....0.}?.]..
   1fcd8:	3f7d906e be0cec4a 3f7d8285 be0e7a8b     n.}?J.....}?.z..
   1fce8:	3f7d7474 be1008b7 3f7d663d be1196cc     tt}?....=f}?....
   1fcf8:	3f7d57de be1324ca 3f7d4959 be14b2b2     .W}?.$..YI}?....
   1fd08:	3f7d3aac be164083 3f7d2bd8 be17ce3d     .:}?.@...+}?=...
   1fd18:	3f7d1cdd be195be0 3f7d0dbc be1ae96b     ..}?.[....}?k...
   1fd28:	3f7cfe73 be1c76de 3f7cef03 be1e0438     s.|?.v....|?8...
   1fd38:	3f7cdf6c be1f917b 3f7ccfae be211ea5     l.|?{.....|?..!.
   1fd48:	3f7cbfc9 be22abb6 3f7cafbd be2438ad     ..|?.."...|?.8$.
   1fd58:	3f7c9f8a be25c58c 3f7c8f31 be275251     ..|?..%.1.|?QR'.
   1fd68:	3f7c7eb0 be28defc 3f7c6e08 be2a6b8d     .~|?..(..n|?.k*.
   1fd78:	3f7c5d3a be2bf804 3f7c4c44 be2d8461     :]|?..+.DL|?a.-.
   1fd88:	3f7c3b28 be2f10a2 3f7c29e5 be309cc9     (;|?../..)|?..0.
   1fd98:	3f7c187a be3228d4 3f7c06e9 be33b4c4     z.|?.(2...|?..3.
   1fda8:	3f7bf531 be354098 3f7be353 be36cc50     1.{?.@5.S.{?P.6.
   1fdb8:	3f7bd14d be3857ec 3f7bbf20 be39e36c     M.{?.W8. .{?l.9.
   1fdc8:	3f7baccd be3b6ecf 3f7b9a53 be3cfa15     ..{?.n;.S.{?..<.
   1fdd8:	3f7b87b2 be3e853e 3f7b74ea be401049     ..{?>.>..t{?I.@.
   1fde8:	3f7b61fc be419b37 3f7b4ee7 be432607     .a{?7.A..N{?.&C.
   1fdf8:	3f7b3bab be44b0b9 3f7b2848 be463b4d     .;{?..D.H({?M;F.
   1fe08:	3f7b14be be47c5c2 3f7b010e be495018     ..{?..G...{?.PI.
   1fe18:	3f7aed37 be4ada4f 3f7ad93a be4c6467     7.z?O.J.:.z?gdL.
   1fe28:	3f7ac516 be4dee60 3f7ab0cb be4f7838     ..z?`.M...z?8xO.
   1fe38:	3f7a9c59 be5101f1 3f7a87c1 be528b89     Y.z?..Q...z?..R.
   1fe48:	3f7a7302 be541501 3f7a5e1c be559e58     .sz?..T..^z?X.U.
   1fe58:	3f7a4910 be57278f 3f7a33dd be58b0a4     .Iz?.'W..3z?..X.
   1fe68:	3f7a1e84 be5a3997 3f7a0904 be5bc26a     ..z?.9Z...z?j.[.
   1fe78:	3f79f35e be5d4b1a 3f79dd91 be5ed3a8     ^.y?.K]...y?..^.
   1fe88:	3f79c79d be605c13 3f79b183 be61e45c     ..y?.\`...y?\.a.
   1fe98:	3f799b43 be636c83 3f7984dc be64f486     C.y?.lc...y?..d.
   1fea8:	3f796e4e be667c66 3f79579a be680422     Nny?f|f..Wy?".h.
   1feb8:	3f7940c0 be698bba 3f7929bf be6b132f     .@y?..i..)y?/.k.
   1fec8:	3f791298 be6c9a7f 3f78fb4a be6e21ab     ..y?..l.J.x?.!n.
   1fed8:	3f78e3d6 be6fa8b2 3f78cc3b be712f94     ..x?..o.;.x?./q.
   1fee8:	3f78b47b be72b651 3f789c93 be743ce8     {.x?Q.r...x?.<t.
   1fef8:	3f788486 be75c35a 3f786c52 be7749a6     ..x?Z.u.Rlx?.Iw.
   1ff08:	3f7853f8 be78cfcc 3f783b77 be7a55cb     .Sx?..x.w;x?.Uz.
   1ff18:	3f7822d1 be7bdba4 3f780a04 be7d6156     ."x?..{...x?Va}.
   1ff28:	3f77f110 be7ee6e1 3f77d7f7 be803622     ..w?..~...w?"6..
   1ff38:	3f77beb7 be80f8c0 3f77a551 be81bb4a     ..w?....Q.w?J...
   1ff48:	3f778bc5 be827dc0 3f777213 be834022     ..w?.}...rw?"@..
   1ff58:	3f77583a be840270 3f773e3c be84c4aa     :Xw?p...<>w?....
   1ff68:	3f772417 be8586ce 3f7709cc be8648df     .$w?......w?.H..
   1ff78:	3f76ef5b be870ada 3f76d4c4 be87ccc1     [.v?......v?....
   1ff88:	3f76ba07 be888e93 3f769f24 be895050     ..v?....$.v?PP..
   1ff98:	3f76841b be8a11f8 3f7668ec be8ad38a     ..v?.....hv?....
   1ffa8:	3f764d97 be8b9507 3f76321b be8c566e     .Mv?.....2v?nV..
   1ffb8:	3f76167a be8d17c0 3f75fab3 be8dd8fc     z.v?......u?....
   1ffc8:	3f75dec6 be8e9a22 3f75c2b3 be8f5b32     ..u?".....u?2[..
   1ffd8:	3f75a67b be901c2c 3f758a1c be90dd10     {.u?,.....u?....
   1ffe8:	3f756d97 be919ddd 3f7550ed be925e94     .mu?.....Pu?.^..
   1fff8:	3f75341d be931f35 3f751727 be93dfbf     .4u?5...'.u?....
   20008:	3f74fa0b be94a031 3f74dcc9 be95608d     ..t?1.....t?.`..
   20018:	3f74bf62 be9620d2 3f74a1d5 be96e100     b.t?. ....t?....
   20028:	3f748422 be97a117 3f746649 be986116     ".t?....Ift?.a..
   20038:	3f74484b be9920fe 3f742a27 be99e0ce     KHt?. ..'*t?....
   20048:	3f740bdd be9aa086 3f73ed6e be9b6027     ..t?....n.s?'`..
   20058:	3f73ced9 be9c1faf 3f73b01f be9cdf20     ..s?......s? ...
   20068:	3f73913f be9d9e78 3f737239 be9e5db8     ?.s?x...9rs?.]..
   20078:	3f73530e be9f1cdf 3f7333be be9fdbee     .Ss?.....3s?....
   20088:	3f731447 bea09ae5 3f72f4ac bea159c2     G.s?......r?.Y..
   20098:	3f72d4eb bea21887 3f72b504 bea2d733     ..r?......r?3...
   200a8:	3f7294f8 bea395c5 3f7274c7 bea4543f     ..r?.....tr??T..
   200b8:	3f725470 bea5129f 3f7233f4 bea5d0e5     pTr?.....3r?....
   200c8:	3f721352 bea68f12 3f71f28c bea74d25     R.r?......q?%M..
   200d8:	3f71d19f bea80b1f 3f71b08e bea8c8fe     ..q?......q?....
   200e8:	3f718f57 bea986c4 3f716dfb beaa446f     W.q?.....mq?oD..
   200f8:	3f714c7a beab0201 3f712ad4 beabbf77     zLq?.....*q?w...
   20108:	3f710908 beac7cd4 3f70e717 bead3a15     ..q?.|....p?.:..
   20118:	3f70c502 beadf73c 3f70a2c6 beaeb449     ..p?<.....p?I...
   20128:	3f708066 beaf713a 3f705de1 beb02e10     f.p?:q...]p?....
   20138:	3f703b37 beb0eacb 3f701867 beb1a76b     7;p?....g.p?k...
   20148:	3f6ff573 beb263ef 3f6fd25a beb32058     s.o?.c..Z.o?X ..
   20158:	3f6faf1b beb3dca5 3f6f8bb8 beb498d6     ..o?......o?....
   20168:	3f6f6830 beb554ec 3f6f4483 beb610e6     0ho?.T...Do?....
   20178:	3f6f20b0 beb6ccc3 3f6efcba beb78884     . o?......n?....
   20188:	3f6ed89e beb8442a 3f6eb45d beb8ffb2     ..n?*D..].n?....
   20198:	3f6e8ff8 beb9bb1e 3f6e6b6d beba766e     ..n?....mkn?nv..
   201a8:	3f6e46be bebb31a0 3f6e21eb bebbecb6     .Fn?.1...!n?....
   201b8:	3f6dfcf2 bebca7af 3f6dd7d5 bebd628b     ..m?......m?.b..
   201c8:	3f6db293 bebe1d4a 3f6d8d2d bebed7eb     ..m?J...-.m?....
   201d8:	3f6d67a1 bebf926f 3f6d41f2 bec04cd5     .gm?o....Am?.L..
   201e8:	3f6d1c1d bec1071e 3f6cf624 bec1c148     ..m?....$.l?H...
   201f8:	3f6cd007 bec27b55 3f6ca9c5 bec33544     ..l?U{....l?D5..
   20208:	3f6c835e bec3ef15 3f6c5cd4 bec4a8c8     ^.l?.....\l?....
   20218:	3f6c3624 bec5625c 3f6c0f50 bec61bd2     $6l?\b..P.l?....
   20228:	3f6be858 bec6d529 3f6bc13b bec78e62     X.k?)...;.k?b...
   20238:	3f6b99fb bec8477c 3f6b7295 bec90077     ..k?|G...rk?w...
   20248:	3f6b4b0c bec9b953 3f6b235e beca7210     .Kk?S...^#k?.r..
   20258:	3f6afb8c becb2aae 3f6ad395 becbe32c     ..j?.*....j?,...
   20268:	3f6aab7b becc9b8b 3f6a833c becd53ca     {.j?....<.j?.S..
   20278:	3f6a5ad9 bece0bea 3f6a3252 becec3ea     .Zj?....R2j?....
   20288:	3f6a09a7 becf7bca 3f69e0d7 bed0338a     ..j?.{....i?.3..
   20298:	3f69b7e4 bed0eb2a 3f698ecc bed1a2aa     ..i?*.....i?....
   202a8:	3f696591 bed25a09 3f693c32 bed31148     .ei?.Z..2<i?H...
   202b8:	3f6912ae bed3c867 3f68e907 bed47f64     ..i?g.....h?d...
   202c8:	3f68bf3c bed53641 3f68954c bed5ecfd     <.h?A6..L.h?....
   202d8:	3f686b39 bed6a399 3f684103 bed75a13     9kh?.....Ah?.Z..
   202e8:	3f6816a8 bed8106b 3f67ec2a bed8c6a3     ..h?k...*.g?....
   202f8:	3f67c187 bed97cb9 3f6796c1 beda32ad     ..g?.|....g?.2..
   20308:	3f676bd8 bedae880 3f6740ca bedb9e31     .kg?.....@g?1...
   20318:	3f671599 bedc53c1 3f66ea45 bedd092e     ..g?.S..E.f?....
   20328:	3f66becc beddbe79 3f669330 bede73a2     ..f?y...0.f?.s..
   20338:	3f666771 bedf28a9 3f663b8e bedfdd8d     qgf?.(...;f?....
   20348:	3f660f88 bee0924f 3f65e35e bee146ee     ..f?O...^.e?.F..
   20358:	3f65b710 bee1fb6a 3f658aa0 bee2afc4     ..e?j.....e?....
   20368:	3f655e0b bee363fa 3f653154 bee4180e     .^e?.c..T1e?....
   20378:	3f650479 bee4cbfe 3f64d77b bee57fcb     y.e?....{.d?....
   20388:	3f64aa59 bee63375 3f647d14 bee6e6fb     Y.d?u3...}d?....
   20398:	3f644fac bee79a5d 3f642221 bee84d9c     .Od?]...!"d?.M..
   203a8:	3f63f473 bee900b7 3f63c6a1 bee9b3ae     s.c?......c?....
   203b8:	3f6398ac beea6681 3f636a95 beeb1930     ..c?.f...jc?0...
   203c8:	3f633c5a beebcbbb 3f630dfc beec7e21     Z<c?......c?!~..
   203d8:	3f62df7b beed3063 3f62b0d7 beede280     {.b?c0....b?....
   203e8:	3f628210 beee9479 3f625326 beef464c     ..b?y...&Sb?LF..
   203f8:	3f62241a beeff7fb 3f61f4ea bef0a985     .$b?......a?....
   20408:	3f61c598 bef15aea 3f619622 bef20c29     ..a?.Z..".a?)...
   20418:	3f61668a bef2bd43 3f6136d0 bef36e38     .fa?C....6a?8n..
   20428:	3f6106f2 bef41f07 3f60d6f2 bef4cfb1     ..a?......`?....
   20438:	3f60a6cf bef58035 3f607689 bef63093     ..`?5....v`?.0..
   20448:	3f604621 bef6e0cb 3f601596 bef790dc     !F`?......`?....
   20458:	3f5fe4e9 bef840c8 3f5fb419 bef8f08e     .._?.@...._?....
   20468:	3f5f8327 bef9a02d 3f5f5212 befa4fa5     '._?-....R_?.O..
   20478:	3f5f20db befafef7 3f5eef81 befbae22     . _?......^?"...
   20488:	3f5ebe05 befc5d27 3f5e8c67 befd0c04     ..^?']..g.^?....
   20498:	3f5e5aa6 befdbabb 3f5e28c3 befe694a     .Z^?.....(^?Ji..
   204a8:	3f5df6be beff17b2 3f5dc497 beffc5f3     ..]?......]?....
   204b8:	3f5d924d bf003a06 3f5d5fe1 bf0090ff     M.]?.:..._]?....
   204c8:	3f5d2d53 bf00e7e4 3f5cfaa3 bf013eb5     S-]?......\?.>..
   204d8:	3f5cc7d1 bf019573 3f5c94dd bf01ec1c     ..\?s.....\?....
   204e8:	3f5c61c7 bf0242b1 3f5c2e8e bf029932     .a\?.B....\?2...
   204f8:	3f5bfb34 bf02ef9f 3f5bc7b8 bf0345f8     4.[?......[?.E..
   20508:	3f5b941a bf039c3d 3f5b605a bf03f26d     ..[?=...Z`[?m...
   20518:	3f5b2c79 bf044889 3f5af875 bf049e91     y,[?.H..u.Z?....
   20528:	3f5ac450 bf04f484 3f5a9009 bf054a62     P.Z?......Z?bJ..
   20538:	3f5a5ba0 bf05a02c 3f5a2716 bf05f5e2     .[Z?,....'Z?....
   20548:	3f59f26a bf064b82 3f59bd9c bf06a10e     j.Y?.K....Y?....
   20558:	3f5988ad bf06f686 3f59539c bf074be8     ..Y?.....SY?.K..
   20568:	3f591e6a bf07a136 3f58e917 bf07f66f     j.Y?6.....X?o...
   20578:	3f58b3a1 bf084b92 3f587e0b bf08a0a1     ..X?.K...~X?....
   20588:	3f584853 bf08f59b 3f581279 bf094a7f     SHX?....y.X?.J..
   20598:	3f57dc7f bf099f4e 3f57a663 bf09f409     ..W?N...c.W?....
   205a8:	3f577026 bf0a48ad 3f5739c7 bf0a9d3d     &pW?.H...9W?=...
   205b8:	3f570348 bf0af1b7 3f56cca7 bf0b461c     H.W?......V?.F..
   205c8:	3f5695e5 bf0b9a6b 3f565f02 bf0beea5     ..V?k...._V?....
   205d8:	3f5627fe bf0c42c9 3f55f0d9 bf0c96d7     .'V?.B....U?....
   205e8:	3f55b993 bf0cead0 3f55822c bf0d3eb3     ..U?....,.U?.>..
   205f8:	3f554aa4 bf0d9281 3f5512fb bf0de638     .JU?......U?8...
   20608:	3f54db31 bf0e39da 3f54a347 bf0e8d65     1.T?.9..G.T?e...
   20618:	3f546b3b bf0ee0db 3f54330f bf0f343b     ;kT?.....3T?;4..
   20628:	3f53fac3 bf0f8784 3f53c255 bf0fdab8     ..S?....U.S?....
   20638:	3f5389c7 bf102dd5 3f535118 bf1080dc     ..S?.-...QS?....
   20648:	3f531849 bf10d3cd 3f52df59 bf1126a7     I.S?....Y.R?.&..
   20658:	3f52a649 bf11796b 3f526d18 bf11cc19     I.R?ky...mR?....
   20668:	3f5233c6 bf121eb0 3f51fa54 bf127130     .3R?....T.Q?0q..
   20678:	3f51c0c2 bf12c39a 3f518710 bf1315ee     ..Q?......Q?....
   20688:	3f514d3d bf13682a 3f51134a bf13ba50     =MQ?*h..J.Q?P...
   20698:	3f50d937 bf140c5f 3f509f03 bf145e58     7.P?_.....P?X^..
   206a8:	3f5064af bf14b039 3f502a3b bf150204     .dP?9...;*P?....
   206b8:	3f4fefa8 bf1553b7 3f4fb4f4 bf15a554     ..O?.S....O?T...
   206c8:	3f4f7a1f bf15f6d9 3f4f3f2b bf164847     .zO?....+?O?GH..
   206d8:	3f4f0417 bf16999f 3f4ec8e4 bf16eadf     ..O?......N?....
   206e8:	3f4e8d90 bf173c07 3f4e521c bf178d18     ..N?.<...RN?....
   206f8:	3f4e1689 bf17de12 3f4ddad5 bf182ef5     ..N?......M?....
   20708:	3f4d9f02 bf187fc0 3f4d6310 bf18d073     ..M?.....cM?s...
   20718:	3f4d26fd bf19210f 3f4ceacb bf197194     .&M?.!....L?.q..
   20728:	3f4cae79 bf19c200 3f4c7208 bf1a1255     y.L?.....rL?U...
   20738:	3f4c3578 bf1a6293 3f4bf8c7 bf1ab2b8     x5L?.b....K?....
   20748:	3f4bbbf8 bf1b02c6 3f4b7f09 bf1b52bb     ..K?......K?.R..
   20758:	3f4b41fa bf1ba299 3f4b04cc bf1bf25f     .AK?......K?_...
   20768:	3f4ac77f bf1c420c 3f4a8a13 bf1c91a2     ..J?.B....J?....
   20778:	3f4a4c87 bf1ce11f 3f4a0edc bf1d3084     .LJ?......J?.0..
   20788:	3f49d112 bf1d7fd1 3f499329 bf1dcf06     ..I?....).I?....
   20798:	3f495521 bf1e1e22 3f4916fa bf1e6d26     !UI?".....I?&m..
   207a8:	3f48d8b3 bf1ebc12 3f489a4e bf1f0ae5     ..H?....N.H?....
   207b8:	3f485bca bf1f599f 3f481d27 bf1fa841     .[H?.Y..'.H?A...
   207c8:	3f47de65 bf1ff6cb 3f479f84 bf20453b     e.G?......G?;E .
   207d8:	3f476085 bf209393 3f472167 bf20e1d2     .`G?.. .g!G?.. .
   207e8:	3f46e22a bf212ff9 3f46a2ce bf217e06     *.F?./!...F?.~!.
   207f8:	3f466354 bf21cbfb 3f4623bb bf2219d7     TcF?..!..#F?..".
   20808:	3f45e403 bf226799 3f45a42d bf22b543     ..E?.g".-.E?C.".
   20818:	3f456439 bf2302d3 3f452426 bf23504b     9dE?..#.&$E?KP#.
   20828:	3f44e3f5 bf239da9 3f44a3a5 bf23eaee     ..D?..#...D?..#.
   20838:	3f446337 bf24381a 3f4422ab bf24852c     7cD?.8$.."D?,.$.
   20848:	3f43e200 bf24d225 3f43a138 bf251f04     ..C?%.$.8.C?..%.
   20858:	3f436051 bf256bcb 3f431f4c bf25b877     Q`C?.k%.L.C?w.%.
   20868:	3f42de29 bf26050a 3f429ce8 bf265184     ).B?..&...B?.Q&.
   20878:	3f425b89 bf269de3 3f421a0b bf26ea2a     .[B?..&...B?*.&.
   20888:	3f41d870 bf273656 3f4196b7 bf278268     p.A?V6'...A?h.'.
   20898:	3f4154e1 bf27ce61 3f4112ec bf281a40     .TA?a.'...A?@.(.
   208a8:	3f40d0da bf286605 3f408ea9 bf28b1b0     ..@?.f(...@?..(.
   208b8:	3f404c5c bf28fd41 3f4009f0 bf2948b8     \L@?A.(...@?.H).
   208c8:	3f3fc767 bf299415 3f3f84c0 bf29df57     g.??..)...??W.).
   208d8:	3f3f41fc bf2a2a80 3f3eff1b bf2a758e     .A??.**...>?.u*.
   208e8:	3f3ebc1b bf2ac082 3f3e78ff bf2b0b5b     ..>?..*..x>?[.+.
   208f8:	3f3e35c5 bf2b561b 3f3df26e bf2ba0bf     .5>?.V+.n.=?..+.
   20908:	3f3daef9 bf2beb4a 3f3d6b67 bf2c35b9     ..=?J.+.gk=?.5,.
   20918:	3f3d27b8 bf2c800f 3f3ce3ec bf2cca49     .'=?..,...<?I.,.
   20928:	3f3ca003 bf2d1469 3f3c5bfc bf2d5e6f     ..<?i.-..[<?o^-.
   20938:	3f3c17d9 bf2da859 3f3bd398 bf2df229     ..<?Y.-...;?).-.
   20948:	3f3b8f3b bf2e3bde 3f3b4ac1 bf2e8578     ;.;?.;...J;?x...
   20958:	3f3b0629 bf2ecef7 3f3ac175 bf2f185b     ).;?....u.:?[./.
   20968:	3f3a7ca4 bf2f61a5 3f3a37b7 bf2faad3     .|:?.a/..7:?../.
   20978:	3f39f2ac bf2ff3e6 3f39ad85 bf303cde     ..9?../...9?.<0.
   20988:	3f396842 bf3085bb 3f3922e1 bf30ce7c     Bh9?..0.."9?|.0.
   20998:	3f38dd65 bf311722 3f3897cb bf315fad     e.8?".1...8?._1.
   209a8:	3f385216 bf31a81d 3f380c43 bf31f071     .R8?..1.C.8?q.1.
   209b8:	3f37c655 bf3238aa 3f37804a bf3280c7     U.7?.82.J.7?..2.
   209c8:	3f373a23 bf32c8c9 3f36f3df bf3310af     #:7?..2...6?..3.
   209d8:	3f36ad7f bf33587a 3f366704 bf33a029     ..6?zX3..g6?).3.
   209e8:	3f36206c bf33e7bc 3f35d9b8 bf342f34     l 6?..3...5?4/4.
   209f8:	3f3592e7 bf34768f 3f354bfb bf34bdcf     ..5?.v4..K5?..4.
   20a08:	3f3504f3 bf3504f3 3f34bdcf bf354bfb     ..5?..5...4?.K5.
   20a18:	3f34768f bf3592e7 3f342f34 bf35d9b8     .v4?..5.4/4?..5.
   20a28:	3f33e7bc bf36206c 3f33a029 bf366704     ..3?l 6.).3?.g6.
   20a38:	3f33587a bf36ad7f 3f3310af bf36f3df     zX3?..6...3?..6.
   20a48:	3f32c8c9 bf373a23 3f3280c7 bf37804a     ..2?#:7...2?J.7.
   20a58:	3f3238aa bf37c655 3f31f071 bf380c43     .82?U.7.q.1?C.8.
   20a68:	3f31a81d bf385216 3f315fad bf3897cb     ..1?.R8.._1?..8.
   20a78:	3f311722 bf38dd65 3f30ce7c bf3922e1     ".1?e.8.|.0?."9.
   20a88:	3f3085bb bf396842 3f303cde bf39ad85     ..0?Bh9..<0?..9.
   20a98:	3f2ff3e6 bf39f2ac 3f2faad3 bf3a37b7     ../?..9.../?.7:.
   20aa8:	3f2f61a5 bf3a7ca4 3f2f185b bf3ac175     .a/?.|:.[./?u.:.
   20ab8:	3f2ecef7 bf3b0629 3f2e8578 bf3b4ac1     ...?).;.x..?.J;.
   20ac8:	3f2e3bde bf3b8f3b 3f2df229 bf3bd398     .;.?;.;.).-?..;.
   20ad8:	3f2da859 bf3c17d9 3f2d5e6f bf3c5bfc     Y.-?..<.o^-?.[<.
   20ae8:	3f2d1469 bf3ca003 3f2cca49 bf3ce3ec     i.-?..<.I.,?..<.
   20af8:	3f2c800f bf3d27b8 3f2c35b9 bf3d6b67     ..,?.'=..5,?gk=.
   20b08:	3f2beb4a bf3daef9 3f2ba0bf bf3df26e     J.+?..=...+?n.=.
   20b18:	3f2b561b bf3e35c5 3f2b0b5b bf3e78ff     .V+?.5>.[.+?.x>.
   20b28:	3f2ac082 bf3ebc1b 3f2a758e bf3eff1b     ..*?..>..u*?..>.
   20b38:	3f2a2a80 bf3f41fc 3f29df57 bf3f84c0     .**?.A?.W.)?..?.
   20b48:	3f299415 bf3fc767 3f2948b8 bf4009f0     ..)?g.?..H)?..@.
   20b58:	3f28fd41 bf404c5c 3f28b1b0 bf408ea9     A.(?\L@...(?..@.
   20b68:	3f286605 bf40d0da 3f281a40 bf4112ec     .f(?..@.@.(?..A.
   20b78:	3f27ce61 bf4154e1 3f278268 bf4196b7     a.'?.TA.h.'?..A.
   20b88:	3f273656 bf41d870 3f26ea2a bf421a0b     V6'?p.A.*.&?..B.
   20b98:	3f269de3 bf425b89 3f265184 bf429ce8     ..&?.[B..Q&?..B.
   20ba8:	3f26050a bf42de29 3f25b877 bf431f4c     ..&?).B.w.%?L.C.
   20bb8:	3f256bcb bf436051 3f251f04 bf43a138     .k%?Q`C...%?8.C.
   20bc8:	3f24d225 bf43e200 3f24852c bf4422ab     %.$?..C.,.$?."D.
   20bd8:	3f24381a bf446337 3f23eaee bf44a3a5     .8$?7cD...#?..D.
   20be8:	3f239da9 bf44e3f5 3f23504b bf452426     ..#?..D.KP#?&$E.
   20bf8:	3f2302d3 bf456439 3f22b543 bf45a42d     ..#?9dE.C."?-.E.
   20c08:	3f226799 bf45e403 3f2219d7 bf4623bb     .g"?..E..."?.#F.
   20c18:	3f21cbfb bf466354 3f217e06 bf46a2ce     ..!?TcF..~!?..F.
   20c28:	3f212ff9 bf46e22a 3f20e1d2 bf472167     ./!?*.F... ?g!G.
   20c38:	3f209393 bf476085 3f20453b bf479f84     .. ?.`G.;E ?..G.
   20c48:	3f1ff6cb bf47de65 3f1fa841 bf481d27     ...?e.G.A..?'.H.
   20c58:	3f1f599f bf485bca 3f1f0ae5 bf489a4e     .Y.?.[H....?N.H.
   20c68:	3f1ebc12 bf48d8b3 3f1e6d26 bf4916fa     ...?..H.&m.?..I.
   20c78:	3f1e1e22 bf495521 3f1dcf06 bf499329     "..?!UI....?).I.
   20c88:	3f1d7fd1 bf49d112 3f1d3084 bf4a0edc     ...?..I..0.?..J.
   20c98:	3f1ce11f bf4a4c87 3f1c91a2 bf4a8a13     ...?.LJ....?..J.
   20ca8:	3f1c420c bf4ac77f 3f1bf25f bf4b04cc     .B.?..J._..?..K.
   20cb8:	3f1ba299 bf4b41fa 3f1b52bb bf4b7f09     ...?.AK..R.?..K.
   20cc8:	3f1b02c6 bf4bbbf8 3f1ab2b8 bf4bf8c7     ...?..K....?..K.
   20cd8:	3f1a6293 bf4c3578 3f1a1255 bf4c7208     .b.?x5L.U..?.rL.
   20ce8:	3f19c200 bf4cae79 3f197194 bf4ceacb     ...?y.L..q.?..L.
   20cf8:	3f19210f bf4d26fd 3f18d073 bf4d6310     .!.?.&M.s..?.cM.
   20d08:	3f187fc0 bf4d9f02 3f182ef5 bf4ddad5     ...?..M....?..M.
   20d18:	3f17de12 bf4e1689 3f178d18 bf4e521c     ...?..N....?.RN.
   20d28:	3f173c07 bf4e8d90 3f16eadf bf4ec8e4     .<.?..N....?..N.
   20d38:	3f16999f bf4f0417 3f164847 bf4f3f2b     ...?..O.GH.?+?O.
   20d48:	3f15f6d9 bf4f7a1f 3f15a554 bf4fb4f4     ...?.zO.T..?..O.
   20d58:	3f1553b7 bf4fefa8 3f150204 bf502a3b     .S.?..O....?;*P.
   20d68:	3f14b039 bf5064af 3f145e58 bf509f03     9..?.dP.X^.?..P.
   20d78:	3f140c5f bf50d937 3f13ba50 bf51134a     _..?7.P.P..?J.Q.
   20d88:	3f13682a bf514d3d 3f1315ee bf518710     *h.?=MQ....?..Q.
   20d98:	3f12c39a bf51c0c2 3f127130 bf51fa54     ...?..Q.0q.?T.Q.
   20da8:	3f121eb0 bf5233c6 3f11cc19 bf526d18     ...?.3R....?.mR.
   20db8:	3f11796b bf52a649 3f1126a7 bf52df59     ky.?I.R..&.?Y.R.
   20dc8:	3f10d3cd bf531849 3f1080dc bf535118     ...?I.S....?.QS.
   20dd8:	3f102dd5 bf5389c7 3f0fdab8 bf53c255     .-.?..S....?U.S.
   20de8:	3f0f8784 bf53fac3 3f0f343b bf54330f     ...?..S.;4.?.3T.
   20df8:	3f0ee0db bf546b3b 3f0e8d65 bf54a347     ...?;kT.e..?G.T.
   20e08:	3f0e39da bf54db31 3f0de638 bf5512fb     .9.?1.T.8..?..U.
   20e18:	3f0d9281 bf554aa4 3f0d3eb3 bf55822c     ...?.JU..>.?,.U.
   20e28:	3f0cead0 bf55b993 3f0c96d7 bf55f0d9     ...?..U....?..U.
   20e38:	3f0c42c9 bf5627fe 3f0beea5 bf565f02     .B.?.'V....?._V.
   20e48:	3f0b9a6b bf5695e5 3f0b461c bf56cca7     k..?..V..F.?..V.
   20e58:	3f0af1b7 bf570348 3f0a9d3d bf5739c7     ...?H.W.=..?.9W.
   20e68:	3f0a48ad bf577026 3f09f409 bf57a663     .H.?&pW....?c.W.
   20e78:	3f099f4e bf57dc7f 3f094a7f bf581279     N..?..W..J.?y.X.
   20e88:	3f08f59b bf584853 3f08a0a1 bf587e0b     ...?SHX....?.~X.
   20e98:	3f084b92 bf58b3a1 3f07f66f bf58e917     .K.?..X.o..?..X.
   20ea8:	3f07a136 bf591e6a 3f074be8 bf59539c     6..?j.Y..K.?.SY.
   20eb8:	3f06f686 bf5988ad 3f06a10e bf59bd9c     ...?..Y....?..Y.
   20ec8:	3f064b82 bf59f26a 3f05f5e2 bf5a2716     .K.?j.Y....?.'Z.
   20ed8:	3f05a02c bf5a5ba0 3f054a62 bf5a9009     ,..?.[Z.bJ.?..Z.
   20ee8:	3f04f484 bf5ac450 3f049e91 bf5af875     ...?P.Z....?u.Z.
   20ef8:	3f044889 bf5b2c79 3f03f26d bf5b605a     .H.?y,[.m..?Z`[.
   20f08:	3f039c3d bf5b941a 3f0345f8 bf5bc7b8     =..?..[..E.?..[.
   20f18:	3f02ef9f bf5bfb34 3f029932 bf5c2e8e     ...?4.[.2..?..\.
   20f28:	3f0242b1 bf5c61c7 3f01ec1c bf5c94dd     .B.?.a\....?..\.
   20f38:	3f019573 bf5cc7d1 3f013eb5 bf5cfaa3     s..?..\..>.?..\.
   20f48:	3f00e7e4 bf5d2d53 3f0090ff bf5d5fe1     ...?S-]....?._].
   20f58:	3f003a06 bf5d924d 3effc5f3 bf5dc497     .:.?M.]....>..].
   20f68:	3eff17b2 bf5df6be 3efe694a bf5e28c3     ...>..].Ji.>.(^.
   20f78:	3efdbabb bf5e5aa6 3efd0c04 bf5e8c67     ...>.Z^....>g.^.
   20f88:	3efc5d27 bf5ebe05 3efbae22 bf5eef81     '].>..^."..>..^.
   20f98:	3efafef7 bf5f20db 3efa4fa5 bf5f5212     ...>. _..O.>.R_.
   20fa8:	3ef9a02d bf5f8327 3ef8f08e bf5fb419     -..>'._....>.._.
   20fb8:	3ef840c8 bf5fe4e9 3ef790dc bf601596     .@.>.._....>..`.
   20fc8:	3ef6e0cb bf604621 3ef63093 bf607689     ...>!F`..0.>.v`.
   20fd8:	3ef58035 bf60a6cf 3ef4cfb1 bf60d6f2     5..>..`....>..`.
   20fe8:	3ef41f07 bf6106f2 3ef36e38 bf6136d0     ...>..a.8n.>.6a.
   20ff8:	3ef2bd43 bf61668a 3ef20c29 bf619622     C..>.fa.)..>".a.
   21008:	3ef15aea bf61c598 3ef0a985 bf61f4ea     .Z.>..a....>..a.
   21018:	3eeff7fb bf62241a 3eef464c bf625326     ...>.$b.LF.>&Sb.
   21028:	3eee9479 bf628210 3eede280 bf62b0d7     y..>..b....>..b.
   21038:	3eed3063 bf62df7b 3eec7e21 bf630dfc     c0.>{.b.!~.>..c.
   21048:	3eebcbbb bf633c5a 3eeb1930 bf636a95     ...>Z<c.0..>.jc.
   21058:	3eea6681 bf6398ac 3ee9b3ae bf63c6a1     .f.>..c....>..c.
   21068:	3ee900b7 bf63f473 3ee84d9c bf642221     ...>s.c..M.>!"d.
   21078:	3ee79a5d bf644fac 3ee6e6fb bf647d14     ]..>.Od....>.}d.
   21088:	3ee63375 bf64aa59 3ee57fcb bf64d77b     u3.>Y.d....>{.d.
   21098:	3ee4cbfe bf650479 3ee4180e bf653154     ...>y.e....>T1e.
   210a8:	3ee363fa bf655e0b 3ee2afc4 bf658aa0     .c.>.^e....>..e.
   210b8:	3ee1fb6a bf65b710 3ee146ee bf65e35e     j..>..e..F.>^.e.
   210c8:	3ee0924f bf660f88 3edfdd8d bf663b8e     O..>..f....>.;f.
   210d8:	3edf28a9 bf666771 3ede73a2 bf669330     .(.>qgf..s.>0.f.
   210e8:	3eddbe79 bf66becc 3edd092e bf66ea45     y..>..f....>E.f.
   210f8:	3edc53c1 bf671599 3edb9e31 bf6740ca     .S.>..g.1..>.@g.
   21108:	3edae880 bf676bd8 3eda32ad bf6796c1     ...>.kg..2.>..g.
   21118:	3ed97cb9 bf67c187 3ed8c6a3 bf67ec2a     .|.>..g....>*.g.
   21128:	3ed8106b bf6816a8 3ed75a13 bf684103     k..>..h..Z.>.Ah.
   21138:	3ed6a399 bf686b39 3ed5ecfd bf68954c     ...>9kh....>L.h.
   21148:	3ed53641 bf68bf3c 3ed47f64 bf68e907     A6.><.h.d..>..h.
   21158:	3ed3c867 bf6912ae 3ed31148 bf693c32     g..>..i.H..>2<i.
   21168:	3ed25a09 bf696591 3ed1a2aa bf698ecc     .Z.>.ei....>..i.
   21178:	3ed0eb2a bf69b7e4 3ed0338a bf69e0d7     *..>..i..3.>..i.
   21188:	3ecf7bca bf6a09a7 3ecec3ea bf6a3252     .{.>..j....>R2j.
   21198:	3ece0bea bf6a5ad9 3ecd53ca bf6a833c     ...>.Zj..S.><.j.
   211a8:	3ecc9b8b bf6aab7b 3ecbe32c bf6ad395     ...>{.j.,..>..j.
   211b8:	3ecb2aae bf6afb8c 3eca7210 bf6b235e     .*.>..j..r.>^#k.
   211c8:	3ec9b953 bf6b4b0c 3ec90077 bf6b7295     S..>.Kk.w..>.rk.
   211d8:	3ec8477c bf6b99fb 3ec78e62 bf6bc13b     |G.>..k.b..>;.k.
   211e8:	3ec6d529 bf6be858 3ec61bd2 bf6c0f50     )..>X.k....>P.l.
   211f8:	3ec5625c bf6c3624 3ec4a8c8 bf6c5cd4     \b.>$6l....>.\l.
   21208:	3ec3ef15 bf6c835e 3ec33544 bf6ca9c5     ...>^.l.D5.>..l.
   21218:	3ec27b55 bf6cd007 3ec1c148 bf6cf624     U{.>..l.H..>$.l.
   21228:	3ec1071e bf6d1c1d 3ec04cd5 bf6d41f2     ...>..m..L.>.Am.
   21238:	3ebf926f bf6d67a1 3ebed7eb bf6d8d2d     o..>.gm....>-.m.
   21248:	3ebe1d4a bf6db293 3ebd628b bf6dd7d5     J..>..m..b.>..m.
   21258:	3ebca7af bf6dfcf2 3ebbecb6 bf6e21eb     ...>..m....>.!n.
   21268:	3ebb31a0 bf6e46be 3eba766e bf6e6b6d     .1.>.Fn.nv.>mkn.
   21278:	3eb9bb1e bf6e8ff8 3eb8ffb2 bf6eb45d     ...>..n....>].n.
   21288:	3eb8442a bf6ed89e 3eb78884 bf6efcba     *D.>..n....>..n.
   21298:	3eb6ccc3 bf6f20b0 3eb610e6 bf6f4483     ...>. o....>.Do.
   212a8:	3eb554ec bf6f6830 3eb498d6 bf6f8bb8     .T.>0ho....>..o.
   212b8:	3eb3dca5 bf6faf1b 3eb32058 bf6fd25a     ...>..o.X .>Z.o.
   212c8:	3eb263ef bf6ff573 3eb1a76b bf701867     .c.>s.o.k..>g.p.
   212d8:	3eb0eacb bf703b37 3eb02e10 bf705de1     ...>7;p....>.]p.
   212e8:	3eaf713a bf708066 3eaeb449 bf70a2c6     :q.>f.p.I..>..p.
   212f8:	3eadf73c bf70c502 3ead3a15 bf70e717     <..>..p..:.>..p.
   21308:	3eac7cd4 bf710908 3eabbf77 bf712ad4     .|.>..q.w..>.*q.
   21318:	3eab0201 bf714c7a 3eaa446f bf716dfb     ...>zLq.oD.>.mq.
   21328:	3ea986c4 bf718f57 3ea8c8fe bf71b08e     ...>W.q....>..q.
   21338:	3ea80b1f bf71d19f 3ea74d25 bf71f28c     ...>..q.%M.>..q.
   21348:	3ea68f12 bf721352 3ea5d0e5 bf7233f4     ...>R.r....>.3r.
   21358:	3ea5129f bf725470 3ea4543f bf7274c7     ...>pTr.?T.>.tr.
   21368:	3ea395c5 bf7294f8 3ea2d733 bf72b504     ...>..r.3..>..r.
   21378:	3ea21887 bf72d4eb 3ea159c2 bf72f4ac     ...>..r..Y.>..r.
   21388:	3ea09ae5 bf731447 3e9fdbee bf7333be     ...>G.s....>.3s.
   21398:	3e9f1cdf bf73530e 3e9e5db8 bf737239     ...>.Ss..].>9rs.
   213a8:	3e9d9e78 bf73913f 3e9cdf20 bf73b01f     x..>?.s. ..>..s.
   213b8:	3e9c1faf bf73ced9 3e9b6027 bf73ed6e     ...>..s.'`.>n.s.
   213c8:	3e9aa086 bf740bdd 3e99e0ce bf742a27     ...>..t....>'*t.
   213d8:	3e9920fe bf74484b 3e986116 bf746649     . .>KHt..a.>Ift.
   213e8:	3e97a117 bf748422 3e96e100 bf74a1d5     ...>".t....>..t.
   213f8:	3e9620d2 bf74bf62 3e95608d bf74dcc9     . .>b.t..`.>..t.
   21408:	3e94a031 bf74fa0b 3e93dfbf bf751727     1..>..t....>'.u.
   21418:	3e931f35 bf75341d 3e925e94 bf7550ed     5..>.4u..^.>.Pu.
   21428:	3e919ddd bf756d97 3e90dd10 bf758a1c     ...>.mu....>..u.
   21438:	3e901c2c bf75a67b 3e8f5b32 bf75c2b3     ,..>{.u.2[.>..u.
   21448:	3e8e9a22 bf75dec6 3e8dd8fc bf75fab3     "..>..u....>..u.
   21458:	3e8d17c0 bf76167a 3e8c566e bf76321b     ...>z.v.nV.>.2v.
   21468:	3e8b9507 bf764d97 3e8ad38a bf7668ec     ...>.Mv....>.hv.
   21478:	3e8a11f8 bf76841b 3e895050 bf769f24     ...>..v.PP.>$.v.
   21488:	3e888e93 bf76ba07 3e87ccc1 bf76d4c4     ...>..v....>..v.
   21498:	3e870ada bf76ef5b 3e8648df bf7709cc     ...>[.v..H.>..w.
   214a8:	3e8586ce bf772417 3e84c4aa bf773e3c     ...>.$w....><>w.
   214b8:	3e840270 bf77583a 3e834022 bf777213     p..>:Xw."@.>.rw.
   214c8:	3e827dc0 bf778bc5 3e81bb4a bf77a551     .}.>..w.J..>Q.w.
   214d8:	3e80f8c0 bf77beb7 3e803622 bf77d7f7     ...>..w."6.>..w.
   214e8:	3e7ee6e1 bf77f110 3e7d6156 bf780a04     ..~>..w.Va}>..x.
   214f8:	3e7bdba4 bf7822d1 3e7a55cb bf783b77     ..{>."x..Uz>w;x.
   21508:	3e78cfcc bf7853f8 3e7749a6 bf786c52     ..x>.Sx..Iw>Rlx.
   21518:	3e75c35a bf788486 3e743ce8 bf789c93     Z.u>..x..<t>..x.
   21528:	3e72b651 bf78b47b 3e712f94 bf78cc3b     Q.r>{.x../q>;.x.
   21538:	3e6fa8b2 bf78e3d6 3e6e21ab bf78fb4a     ..o>..x..!n>J.x.
   21548:	3e6c9a7f bf791298 3e6b132f bf7929bf     ..l>..y./.k>.)y.
   21558:	3e698bba bf7940c0 3e680422 bf79579a     ..i>.@y.".h>.Wy.
   21568:	3e667c66 bf796e4e 3e64f486 bf7984dc     f|f>Nny...d>..y.
   21578:	3e636c83 bf799b43 3e61e45c bf79b183     .lc>C.y.\.a>..y.
   21588:	3e605c13 bf79c79d 3e5ed3a8 bf79dd91     .\`>..y...^>..y.
   21598:	3e5d4b1a bf79f35e 3e5bc26a bf7a0904     .K]>^.y.j.[>..z.
   215a8:	3e5a3997 bf7a1e84 3e58b0a4 bf7a33dd     .9Z>..z...X>.3z.
   215b8:	3e57278f bf7a4910 3e559e58 bf7a5e1c     .'W>.Iz.X.U>.^z.
   215c8:	3e541501 bf7a7302 3e528b89 bf7a87c1     ..T>.sz...R>..z.
   215d8:	3e5101f1 bf7a9c59 3e4f7838 bf7ab0cb     ..Q>Y.z.8xO>..z.
   215e8:	3e4dee60 bf7ac516 3e4c6467 bf7ad93a     `.M>..z.gdL>:.z.
   215f8:	3e4ada4f bf7aed37 3e495018 bf7b010e     O.J>7.z..PI>..{.
   21608:	3e47c5c2 bf7b14be 3e463b4d bf7b2848     ..G>..{.M;F>H({.
   21618:	3e44b0b9 bf7b3bab 3e432607 bf7b4ee7     ..D>.;{..&C>.N{.
   21628:	3e419b37 bf7b61fc 3e401049 bf7b74ea     7.A>.a{.I.@>.t{.
   21638:	3e3e853e bf7b87b2 3e3cfa15 bf7b9a53     >.>>..{...<>S.{.
   21648:	3e3b6ecf bf7baccd 3e39e36c bf7bbf20     .n;>..{.l.9> .{.
   21658:	3e3857ec bf7bd14d 3e36cc50 bf7be353     .W8>M.{.P.6>S.{.
   21668:	3e354098 bf7bf531 3e33b4c4 bf7c06e9     .@5>1.{...3>..|.
   21678:	3e3228d4 bf7c187a 3e309cc9 bf7c29e5     .(2>z.|...0>.)|.
   21688:	3e2f10a2 bf7c3b28 3e2d8461 bf7c4c44     ../>(;|.a.->DL|.
   21698:	3e2bf804 bf7c5d3a 3e2a6b8d bf7c6e08     ..+>:]|..k*>.n|.
   216a8:	3e28defc bf7c7eb0 3e275251 bf7c8f31     ..(>.~|.QR'>1.|.
   216b8:	3e25c58c bf7c9f8a 3e2438ad bf7cafbd     ..%>..|..8$>..|.
   216c8:	3e22abb6 bf7cbfc9 3e211ea5 bf7ccfae     ..">..|...!>..|.
   216d8:	3e1f917b bf7cdf6c 3e1e0438 bf7cef03     {..>l.|.8..>..|.
   216e8:	3e1c76de bf7cfe73 3e1ae96b bf7d0dbc     .v.>s.|.k..>..}.
   216f8:	3e195be0 bf7d1cdd 3e17ce3d bf7d2bd8     .[.>..}.=..>.+}.
   21708:	3e164083 bf7d3aac 3e14b2b2 bf7d4959     .@.>.:}....>YI}.
   21718:	3e1324ca bf7d57de 3e1196cc bf7d663d     .$.>.W}....>=f}.
   21728:	3e1008b7 bf7d7474 3e0e7a8b bf7d8285     ...>tt}..z.>..}.
   21738:	3e0cec4a bf7d906e 3e0b5df3 bf7d9e30     J..>n.}..].>0.}.
   21748:	3e09cf86 bf7dabcc 3e084105 bf7db940     ...>..}..A.>@.}.
   21758:	3e06b26e bf7dc68c 3e0523c2 bf7dd3b2     n..>..}..#.>..}.
   21768:	3e039502 bf7de0b1 3e02062e bf7ded88     ...>..}....>..}.
   21778:	3e007745 bf7dfa38 3dfdd092 bf7e06c2     Ew.>8.}....=..~.
   21788:	3dfab273 bf7e1324 3df7942c bf7e1f5e     s..=$.~.,..=^.~.
   21798:	3df475c0 bf7e2b72 3df1572e bf7e375e     .u.=r+~..W.=^7~.
   217a8:	3dee3876 bf7e4323 3deb199a bf7e4ec1     v8.=#C~....=.N~.
   217b8:	3de7fa9a bf7e5a38 3de4db76 bf7e6588     ...=8Z~.v..=.e~.
   217c8:	3de1bc2e bf7e70b0 3dde9cc4 bf7e7bb1     ...=.p~....=.{~.
   217d8:	3ddb7d37 bf7e868b 3dd85d89 bf7e913d     7}.=..~..].==.~.
   217e8:	3dd53db9 bf7e9bc9 3dd21dc8 bf7ea62d     .=.=..~....=-.~.
   217f8:	3dcefdb7 bf7eb069 3dcbdd86 bf7eba7f     ...=i.~....=..~.
   21808:	3dc8bd36 bf7ec46d 3dc59cc6 bf7ece34     6..=m.~....=4.~.
   21818:	3dc27c39 bf7ed7d4 3dbf5b8d bf7ee14c     9|.=..~..[.=L.~.
   21828:	3dbc3ac3 bf7eea9d 3db919dd bf7ef3c7     .:.=..~....=..~.
   21838:	3db5f8da bf7efcc9 3db2d7bb bf7f05a4     ...=..~....=....
   21848:	3dafb680 bf7f0e58 3dac952b bf7f16e4     ...=X...+..=....
   21858:	3da973ba bf7f1f49 3da65230 bf7f2787     .s.=I...0R.=.'..
   21868:	3da3308c bf7f2f9d 3da00ecf bf7f378d     .0.=./.....=.7..
   21878:	3d9cecf9 bf7f3f54 3d99cb0a bf7f46f4     ...=T?.....=.F..
   21888:	3d96a905 bf7f4e6d 3d9386e7 bf7f55bf     ...=mN.....=.U..
   21898:	3d9064b4 bf7f5ce9 3d8d426a bf7f63ec     .d.=.\..jB.=.c..
   218a8:	3d8a200a bf7f6ac7 3d86fd94 bf7f717b     . .=.j.....={q..
   218b8:	3d83db0a bf7f7808 3d80b86c bf7f7e6d     ...=.x..l..=m~..
   218c8:	3d7b2b74 bf7f84ab 3d74e5e9 bf7f8ac2     t+{=......t=....
   218d8:	3d6ea038 bf7f90b1 3d685a62 bf7f9678     8.n=....bZh=x...
   218e8:	3d621468 bf7f9c18 3d5bce4c bf7fa191     h.b=....L.[=....
   218f8:	3d55880e bf7fa6e3 3d4f41af bf7fac0d     ..U=.....AO=....
   21908:	3d48fb2f bf7fb10f 3d42b491 bf7fb5ea     /.H=......B=....
   21918:	3d3c6dd5 bf7fba9e 3d3626fc bf7fbf2a     .m<=.....&6=*...
   21928:	3d2fe007 bf7fc38f 3d2998f6 bf7fc7cc     ../=......)=....
   21938:	3d2351cc bf7fcbe2 3d1d0a88 bf7fcfd1     .Q#=.......=....
   21948:	3d16c32c bf7fd398 3d107bb8 bf7fd737     ,..=.....{.=7...
   21958:	3d0a342f bf7fdaaf 3d03ec90 bf7fde00     /4.=.......=....
   21968:	3cfb49b9 bf7fe129 3ceeba2d bf7fe42b     .I.<)...-..<+...
   21978:	3ce22a7b bf7fe705 3cd59aa6 bf7fe9b8     {*.<.......<....
   21988:	3cc90ab0 bf7fec43 3cbc7a9b bf7feea7     ...<C....z.<....
   21998:	3cafea69 bf7ff0e3 3ca35a1c bf7ff2f8     i..<.....Z.<....
   219a8:	3c96c9b6 bf7ff4e6 3c8a3938 bf7ff6ac     ...<....89.<....
   219b8:	3c7b514b bf7ff84a 3c623000 bf7ff9c1     KQ{<J....0b<....
   219c8:	3c490e90 bf7ffb11 3c2fed02 bf7ffc39     ..I<....../<9...
   219d8:	3c16cb59 bf7ffd39 3bfb5330 bf7ffe13     Y..<9...0S.;....
   219e8:	3bc90f89 bf7ffec4 3b96cbc1 bf7fff4e     ...;.......;N...
   219f8:	3b490fc7 bf7fffb1 3ac90fd4 bf7fffec     ..I;.......:....

00021a08 <arm_cfft_sR_f32_len16>:
   21a08:	00000010 00004630 000145b0 00000014     ....0F...E......

00021a18 <arm_cfft_sR_f32_len32>:
   21a18:	00000020 000046b0 000145d8 00000030      ....F...E..0...

00021a28 <arm_cfft_sR_f32_len64>:
   21a28:	00000040 000047b0 00014638 00000038     @....G..8F..8...

00021a38 <arm_cfft_sR_f32_len128>:
   21a38:	00000080 000049b0 000146a8 000000d0     .....I...F......

00021a48 <arm_cfft_sR_f32_len256>:
   21a48:	00000100 00004db0 00014848 000001b8     .....M..HH......

00021a58 <arm_cfft_sR_f32_len512>:
   21a58:	00000200 000055b0 00014bb8 000001c0     .....U...K......

00021a68 <arm_cfft_sR_f32_len1024>:
   21a68:	00000400 000065b0 00014f38 00000708     .....e..8O......

00021a78 <arm_cfft_sR_f32_len2048>:
   21a78:	00000800 000085b0 00015d48 00000ee0     ........H]......

00021a88 <arm_cfft_sR_f32_len4096>:
   21a88:	00001000 0000c5b0 00017b08 00000fc0     .........{......
